
libglwidgetplugin.so:     file format elf32-i386


Disassembly of section .init:

00006de0 <_init>:
    6de0:	55                   	push   %ebp
    6de1:	89 e5                	mov    %esp,%ebp
    6de3:	53                   	push   %ebx
    6de4:	83 ec 04             	sub    $0x4,%esp
    6de7:	e8 00 00 00 00       	call   6dec <_init+0xc>
    6dec:	5b                   	pop    %ebx
    6ded:	81 c3 b8 26 01 00    	add    $0x126b8,%ebx
    6df3:	8b 93 f0 ff ff ff    	mov    -0x10(%ebx),%edx
    6df9:	85 d2                	test   %edx,%edx
    6dfb:	74 05                	je     6e02 <_init+0x22>
    6dfd:	e8 6e 0e 00 00       	call   7c70 <__gmon_start__@plt>
    6e02:	e8 f9 0f 00 00       	call   7e00 <frame_dummy>
    6e07:	e8 94 e4 00 00       	call   152a0 <__do_global_ctors_aux>
    6e0c:	58                   	pop    %eax
    6e0d:	5b                   	pop    %ebx
    6e0e:	c9                   	leave  
    6e0f:	c3                   	ret    

Disassembly of section .plt:

00006e10 <_ZNSo3putEc@plt-0x10>:
    6e10:	ff b3 04 00 00 00    	pushl  0x4(%ebx)
    6e16:	ff a3 08 00 00 00    	jmp    *0x8(%ebx)
    6e1c:	00 00                	add    %al,(%eax)
	...

00006e20 <_ZNSo3putEc@plt>:
    6e20:	ff a3 0c 00 00 00    	jmp    *0xc(%ebx)
    6e26:	68 00 00 00 00       	push   $0x0
    6e2b:	e9 e0 ff ff ff       	jmp    6e10 <_init+0x30>

00006e30 <_ZN5Scene11setViewportEff@plt>:
    6e30:	ff a3 10 00 00 00    	jmp    *0x10(%ebx)
    6e36:	68 08 00 00 00       	push   $0x8
    6e3b:	e9 d0 ff ff ff       	jmp    6e10 <_init+0x30>

00006e40 <glPopAttrib@plt>:
    6e40:	ff a3 14 00 00 00    	jmp    *0x14(%ebx)
    6e46:	68 10 00 00 00       	push   $0x10
    6e4b:	e9 c0 ff ff ff       	jmp    6e10 <_init+0x30>

00006e50 <_Znwj@plt>:
    6e50:	ff a3 18 00 00 00    	jmp    *0x18(%ebx)
    6e56:	68 18 00 00 00       	push   $0x18
    6e5b:	e9 b0 ff ff ff       	jmp    6e10 <_init+0x30>

00006e60 <__cxa_finalize@plt>:
    6e60:	ff a3 1c 00 00 00    	jmp    *0x1c(%ebx)
    6e66:	68 20 00 00 00       	push   $0x20
    6e6b:	e9 a0 ff ff ff       	jmp    6e10 <_init+0x30>

00006e70 <_ZN5Scene9DrawSceneEv@plt>:
    6e70:	ff a3 20 00 00 00    	jmp    *0x20(%ebx)
    6e76:	68 28 00 00 00       	push   $0x28
    6e7b:	e9 90 ff ff ff       	jmp    6e10 <_init+0x30>

00006e80 <glLoadName@plt>:
    6e80:	ff a3 24 00 00 00    	jmp    *0x24(%ebx)
    6e86:	68 30 00 00 00       	push   $0x30
    6e8b:	e9 80 ff ff ff       	jmp    6e10 <_init+0x30>

00006e90 <_ZN7Objecte6RenderERSt6vectorI5ModelSaIS1_EE@plt>:
    6e90:	ff a3 28 00 00 00    	jmp    *0x28(%ebx)
    6e96:	68 38 00 00 00       	push   $0x38
    6e9b:	e9 70 ff ff ff       	jmp    6e10 <_init+0x30>

00006ea0 <_ZN3Box6RenderEv@plt>:
    6ea0:	ff a3 2c 00 00 00    	jmp    *0x2c(%ebx)
    6ea6:	68 40 00 00 00       	push   $0x40
    6eab:	e9 60 ff ff ff       	jmp    6e10 <_init+0x30>

00006eb0 <_ZNSt6vectorI5PointSaIS0_EE13_M_insert_auxEN9__gnu_cxx17__normal_iteratorIPS0_S2_EERKS0_@plt>:
    6eb0:	ff a3 30 00 00 00    	jmp    *0x30(%ebx)
    6eb6:	68 48 00 00 00       	push   $0x48
    6ebb:	e9 50 ff ff ff       	jmp    6e10 <_init+0x30>

00006ec0 <_ZSt29_Rb_tree_insert_and_rebalancebPSt18_Rb_tree_node_baseS0_RS_@plt>:
    6ec0:	ff a3 34 00 00 00    	jmp    *0x34(%ebx)
    6ec6:	68 50 00 00 00       	push   $0x50
    6ecb:	e9 40 ff ff ff       	jmp    6e10 <_init+0x30>

00006ed0 <_Z15MatrixRotationYf@plt>:
    6ed0:	ff a3 38 00 00 00    	jmp    *0x38(%ebx)
    6ed6:	68 58 00 00 00       	push   $0x58
    6edb:	e9 30 ff ff ff       	jmp    6e10 <_init+0x30>

00006ee0 <_ZpLR5PointRKS_@plt>:
    6ee0:	ff a3 3c 00 00 00    	jmp    *0x3c(%ebx)
    6ee6:	68 60 00 00 00       	push   $0x60
    6eeb:	e9 20 ff ff ff       	jmp    6e10 <_init+0x30>

00006ef0 <glRenderMode@plt>:
    6ef0:	ff a3 40 00 00 00    	jmp    *0x40(%ebx)
    6ef6:	68 68 00 00 00       	push   $0x68
    6efb:	e9 10 ff ff ff       	jmp    6e10 <_init+0x30>

00006f00 <_ZNSt6vectorI5ModelSaIS0_EED1Ev@plt>:
    6f00:	ff a3 44 00 00 00    	jmp    *0x44(%ebx)
    6f06:	68 70 00 00 00       	push   $0x70
    6f0b:	e9 00 ff ff ff       	jmp    6e10 <_init+0x30>

00006f10 <_ZN5Model11netejaDadesEv@plt>:
    6f10:	ff a3 48 00 00 00    	jmp    *0x48(%ebx)
    6f16:	68 78 00 00 00       	push   $0x78
    6f1b:	e9 f0 fe ff ff       	jmp    6e10 <_init+0x30>

00006f20 <_ZN14GLWidgetPluginC1EP7QObject@plt>:
    6f20:	ff a3 4c 00 00 00    	jmp    *0x4c(%ebx)
    6f26:	68 80 00 00 00       	push   $0x80
    6f2b:	e9 e0 fe ff ff       	jmp    6e10 <_init+0x30>

00006f30 <_ZNKSs7compareEPKc@plt>:
    6f30:	ff a3 50 00 00 00    	jmp    *0x50(%ebx)
    6f36:	68 88 00 00 00       	push   $0x88
    6f3b:	e9 d0 fe ff ff       	jmp    6e10 <_init+0x30>

00006f40 <_ZmiRK6VectorS1_@plt>:
    6f40:	ff a3 54 00 00 00    	jmp    *0x54(%ebx)
    6f46:	68 90 00 00 00       	push   $0x90
    6f4b:	e9 c0 fe ff ff       	jmp    6e10 <_init+0x30>

00006f50 <_ZNSt13basic_filebufIcSt11char_traitsIcEE5closeEv@plt>:
    6f50:	ff a3 58 00 00 00    	jmp    *0x58(%ebx)
    6f56:	68 98 00 00 00       	push   $0x98
    6f5b:	e9 b0 fe ff ff       	jmp    6e10 <_init+0x30>

00006f60 <sqrtf@plt>:
    6f60:	ff a3 5c 00 00 00    	jmp    *0x5c(%ebx)
    6f66:	68 a0 00 00 00       	push   $0xa0
    6f6b:	e9 a0 fe ff ff       	jmp    6e10 <_init+0x30>

00006f70 <glBegin@plt>:
    6f70:	ff a3 60 00 00 00    	jmp    *0x60(%ebx)
    6f76:	68 a8 00 00 00       	push   $0xa8
    6f7b:	e9 90 fe ff ff       	jmp    6e10 <_init+0x30>

00006f80 <_ZN8GLWidget14UnprojectPointEii@plt>:
    6f80:	ff a3 64 00 00 00    	jmp    *0x64(%ebx)
    6f86:	68 b0 00 00 00       	push   $0xb0
    6f8b:	e9 80 fe ff ff       	jmp    6e10 <_init+0x30>

00006f90 <_ZNSt14basic_ifstreamIcSt11char_traitsIcEED1Ev@plt>:
    6f90:	ff a3 68 00 00 00    	jmp    *0x68(%ebx)
    6f96:	68 b8 00 00 00       	push   $0xb8
    6f9b:	e9 70 fe ff ff       	jmp    6e10 <_init+0x30>

00006fa0 <_ZpLR6VectorRKS_@plt>:
    6fa0:	ff a3 6c 00 00 00    	jmp    *0x6c(%ebx)
    6fa6:	68 c0 00 00 00       	push   $0xc0
    6fab:	e9 60 fe ff ff       	jmp    6e10 <_init+0x30>

00006fb0 <_ZN5Scene10LoadObjectESs@plt>:
    6fb0:	ff a3 70 00 00 00    	jmp    *0x70(%ebx)
    6fb6:	68 c8 00 00 00       	push   $0xc8
    6fbb:	e9 50 fe ff ff       	jmp    6e10 <_init+0x30>

00006fc0 <glClear@plt>:
    6fc0:	ff a3 74 00 00 00    	jmp    *0x74(%ebx)
    6fc6:	68 d0 00 00 00       	push   $0xd0
    6fcb:	e9 40 fe ff ff       	jmp    6e10 <_init+0x30>

00006fd0 <glDisable@plt>:
    6fd0:	ff a3 78 00 00 00    	jmp    *0x78(%ebx)
    6fd6:	68 d8 00 00 00       	push   $0xd8
    6fdb:	e9 30 fe ff ff       	jmp    6e10 <_init+0x30>

00006fe0 <glViewport@plt>:
    6fe0:	ff a3 7c 00 00 00    	jmp    *0x7c(%ebx)
    6fe6:	68 e0 00 00 00       	push   $0xe0
    6feb:	e9 20 fe ff ff       	jmp    6e10 <_init+0x30>

00006ff0 <_ZlsRSoRK8Material@plt>:
    6ff0:	ff a3 80 00 00 00    	jmp    *0x80(%ebx)
    6ff6:	68 e8 00 00 00       	push   $0xe8
    6ffb:	e9 10 fe ff ff       	jmp    6e10 <_init+0x30>

00007000 <_ZN8GLWidget10LoadObjectEv@plt>:
    7000:	ff a3 84 00 00 00    	jmp    *0x84(%ebx)
    7006:	68 f0 00 00 00       	push   $0xf0
    700b:	e9 00 fe ff ff       	jmp    6e10 <_init+0x30>

00007010 <_ZmlfRK5Point@plt>:
    7010:	ff a3 88 00 00 00    	jmp    *0x88(%ebx)
    7016:	68 f8 00 00 00       	push   $0xf8
    701b:	e9 f0 fd ff ff       	jmp    6e10 <_init+0x30>

00007020 <_ZNSt8ios_baseC2Ev@plt>:
    7020:	ff a3 8c 00 00 00    	jmp    *0x8c(%ebx)
    7026:	68 00 01 00 00       	push   $0x100
    702b:	e9 e0 fd ff ff       	jmp    6e10 <_init+0x30>

00007030 <_ZN11MaterialLib7readMtlEPKc@plt>:
    7030:	ff a3 90 00 00 00    	jmp    *0x90(%ebx)
    7036:	68 08 01 00 00       	push   $0x108
    703b:	e9 d0 fd ff ff       	jmp    6e10 <_init+0x30>

00007040 <_ZmlRK5Pointf@plt>:
    7040:	ff a3 94 00 00 00    	jmp    *0x94(%ebx)
    7046:	68 10 01 00 00       	push   $0x110
    704b:	e9 c0 fd ff ff       	jmp    6e10 <_init+0x30>

00007050 <_ZlsRSoRK5Color@plt>:
    7050:	ff a3 98 00 00 00    	jmp    *0x98(%ebx)
    7056:	68 18 01 00 00       	push   $0x118
    705b:	e9 b0 fd ff ff       	jmp    6e10 <_init+0x30>

00007060 <_ZN7QObject11qt_metacallEN11QMetaObject4CallEiPPv@plt>:
    7060:	ff a3 9c 00 00 00    	jmp    *0x9c(%ebx)
    7066:	68 20 01 00 00       	push   $0x120
    706b:	e9 a0 fd ff ff       	jmp    6e10 <_init+0x30>

00007070 <_ZN5SceneC1Ev@plt>:
    7070:	ff a3 a0 00 00 00    	jmp    *0xa0(%ebx)
    7076:	68 28 01 00 00       	push   $0x128
    707b:	e9 90 fd ff ff       	jmp    6e10 <_init+0x30>

00007080 <_ZNSt8ios_baseD2Ev@plt>:
    7080:	ff a3 a4 00 00 00    	jmp    *0xa4(%ebx)
    7086:	68 30 01 00 00       	push   $0x130
    708b:	e9 80 fd ff ff       	jmp    6e10 <_init+0x30>

00007090 <_ZN11QFileDialog15getOpenFileNameEP7QWidgetRK7QStringS4_S4_PS2_6QFlagsINS_6OptionEE@plt>:
    7090:	ff a3 a8 00 00 00    	jmp    *0xa8(%ebx)
    7096:	68 38 01 00 00       	push   $0x138
    709b:	e9 70 fd ff ff       	jmp    6e10 <_init+0x30>

000070a0 <_ZN6Vector9normalizeEv@plt>:
    70a0:	ff a3 ac 00 00 00    	jmp    *0xac(%ebx)
    70a6:	68 40 01 00 00       	push   $0x140
    70ab:	e9 60 fd ff ff       	jmp    6e10 <_init+0x30>

000070b0 <_ZSt17__throw_bad_allocv@plt>:
    70b0:	ff a3 b0 00 00 00    	jmp    *0xb0(%ebx)
    70b6:	68 48 01 00 00       	push   $0x148
    70bb:	e9 50 fd ff ff       	jmp    6e10 <_init+0x30>

000070c0 <_ZN9QGLWidget16setMouseTrackingEb@plt>:
    70c0:	ff a3 b4 00 00 00    	jmp    *0xb4(%ebx)
    70c6:	68 50 01 00 00       	push   $0x150
    70cb:	e9 40 fd ff ff       	jmp    6e10 <_init+0x30>

000070d0 <__cxa_begin_catch@plt>:
    70d0:	ff a3 b8 00 00 00    	jmp    *0xb8(%ebx)
    70d6:	68 58 01 00 00       	push   $0x158
    70db:	e9 30 fd ff ff       	jmp    6e10 <_init+0x30>

000070e0 <_ZN5Scene12UpdateVAngleEi@plt>:
    70e0:	ff a3 bc 00 00 00    	jmp    *0xbc(%ebx)
    70e6:	68 60 01 00 00       	push   $0x160
    70eb:	e9 20 fd ff ff       	jmp    6e10 <_init+0x30>

000070f0 <_ZStrsIcSt11char_traitsIcESaIcEERSt13basic_istreamIT_T0_ES7_RSbIS4_S5_T1_E@plt>:
    70f0:	ff a3 c0 00 00 00    	jmp    *0xc0(%ebx)
    70f6:	68 68 01 00 00       	push   $0x168
    70fb:	e9 10 fd ff ff       	jmp    6e10 <_init+0x30>

00007100 <_ZN5ModelC1ESs@plt>:
    7100:	ff a3 c4 00 00 00    	jmp    *0xc4(%ebx)
    7106:	68 70 01 00 00       	push   $0x170
    710b:	e9 00 fd ff ff       	jmp    6e10 <_init+0x30>

00007110 <sincosf@plt>:
    7110:	ff a3 c8 00 00 00    	jmp    *0xc8(%ebx)
    7116:	68 78 01 00 00       	push   $0x178
    711b:	e9 f0 fc ff ff       	jmp    6e10 <_init+0x30>

00007120 <fgets@plt>:
    7120:	ff a3 cc 00 00 00    	jmp    *0xcc(%ebx)
    7126:	68 80 01 00 00       	push   $0x180
    712b:	e9 e0 fc ff ff       	jmp    6e10 <_init+0x30>

00007130 <_ZNSt8_Rb_treeISsSt4pairIKSsiESt10_Select1stIS2_ESt4lessISsESaIS2_EE16_M_insert_uniqueERKS2_@plt>:
    7130:	ff a3 d0 00 00 00    	jmp    *0xd0(%ebx)
    7136:	68 88 01 00 00       	push   $0x188
    713b:	e9 d0 fc ff ff       	jmp    6e10 <_init+0x30>

00007140 <_ZNSt6vectorI5ModelSaIS0_EE13_M_insert_auxEN9__gnu_cxx17__normal_iteratorIPS0_S2_EERKS0_@plt>:
    7140:	ff a3 d4 00 00 00    	jmp    *0xd4(%ebx)
    7146:	68 90 01 00 00       	push   $0x190
    714b:	e9 c0 fc ff ff       	jmp    6e10 <_init+0x30>

00007150 <_ZN5Scene9OrthoViewEb@plt>:
    7150:	ff a3 d8 00 00 00    	jmp    *0xd8(%ebx)
    7156:	68 98 01 00 00       	push   $0x198
    715b:	e9 b0 fc ff ff       	jmp    6e10 <_init+0x30>

00007160 <_ZN5Scene8AutoZoomEv@plt>:
    7160:	ff a3 dc 00 00 00    	jmp    *0xdc(%ebx)
    7166:	68 a0 01 00 00       	push   $0x1a0
    716b:	e9 a0 fc ff ff       	jmp    6e10 <_init+0x30>

00007170 <_ZN7Objecte14getOrientationEv@plt>:
    7170:	ff a3 e0 00 00 00    	jmp    *0xe0(%ebx)
    7176:	68 a8 01 00 00       	push   $0x1a8
    717b:	e9 90 fc ff ff       	jmp    6e10 <_init+0x30>

00007180 <tan@plt>:
    7180:	ff a3 e4 00 00 00    	jmp    *0xe4(%ebx)
    7186:	68 b0 01 00 00       	push   $0x1b0
    718b:	e9 80 fc ff ff       	jmp    6e10 <_init+0x30>

00007190 <malloc@plt>:
    7190:	ff a3 e8 00 00 00    	jmp    *0xe8(%ebx)
    7196:	68 b8 01 00 00       	push   $0x1b8
    719b:	e9 70 fc ff ff       	jmp    6e10 <_init+0x30>

000071a0 <_ZNSt6vectorI6VertexSaIS0_EEaSERKS2_@plt>:
    71a0:	ff a3 ec 00 00 00    	jmp    *0xec(%ebx)
    71a6:	68 c0 01 00 00       	push   $0x1c0
    71ab:	e9 60 fc ff ff       	jmp    6e10 <_init+0x30>

000071b0 <_ZeoRK6VectorS1_@plt>:
    71b0:	ff a3 f0 00 00 00    	jmp    *0xf0(%ebx)
    71b6:	68 c8 01 00 00       	push   $0x1c8
    71bb:	e9 50 fc ff ff       	jmp    6e10 <_init+0x30>

000071c0 <_ZmlRK6MatrixS1_@plt>:
    71c0:	ff a3 f4 00 00 00    	jmp    *0xf4(%ebx)
    71c6:	68 d0 01 00 00       	push   $0x1d0
    71cb:	e9 40 fc ff ff       	jmp    6e10 <_init+0x30>

000071d0 <_ZN7QString8fromUtf8EPKci@plt>:
    71d0:	ff a3 f8 00 00 00    	jmp    *0xf8(%ebx)
    71d6:	68 d8 01 00 00       	push   $0x1d8
    71db:	e9 30 fc ff ff       	jmp    6e10 <_init+0x30>

000071e0 <strlen@plt>:
    71e0:	ff a3 fc 00 00 00    	jmp    *0xfc(%ebx)
    71e6:	68 e0 01 00 00       	push   $0x1e0
    71eb:	e9 20 fc ff ff       	jmp    6e10 <_init+0x30>

000071f0 <_ZNSsC1ERKSs@plt>:
    71f0:	ff a3 00 01 00 00    	jmp    *0x100(%ebx)
    71f6:	68 e8 01 00 00       	push   $0x1e8
    71fb:	e9 10 fc ff ff       	jmp    6e10 <_init+0x30>

00007200 <_ZN8GLWidget12setWireframeEb@plt>:
    7200:	ff a3 04 01 00 00    	jmp    *0x104(%ebx)
    7206:	68 f0 01 00 00       	push   $0x1f0
    720b:	e9 00 fc ff ff       	jmp    6e10 <_init+0x30>

00007210 <_ZN7QString16fromAscii_helperEPKci@plt>:
    7210:	ff a3 08 01 00 00    	jmp    *0x108(%ebx)
    7216:	68 f8 01 00 00       	push   $0x1f8
    721b:	e9 f0 fb ff ff       	jmp    6e10 <_init+0x30>

00007220 <_ZSt18_Rb_tree_decrementPKSt18_Rb_tree_node_base@plt>:
    7220:	ff a3 0c 01 00 00    	jmp    *0x10c(%ebx)
    7226:	68 00 02 00 00       	push   $0x200
    722b:	e9 e0 fb ff ff       	jmp    6e10 <_init+0x30>

00007230 <_ZN6MatrixC1EPKf@plt>:
    7230:	ff a3 10 01 00 00    	jmp    *0x110(%ebx)
    7236:	68 08 02 00 00       	push   $0x208
    723b:	e9 d0 fb ff ff       	jmp    6e10 <_init+0x30>

00007240 <_ZNSt9basic_iosIcSt11char_traitsIcEE8setstateESt12_Ios_Iostate@plt>:
    7240:	ff a3 14 01 00 00    	jmp    *0x114(%ebx)
    7246:	68 10 02 00 00       	push   $0x210
    724b:	e9 c0 fb ff ff       	jmp    6e10 <_init+0x30>

00007250 <gluPickMatrix@plt>:
    7250:	ff a3 18 01 00 00    	jmp    *0x118(%ebx)
    7256:	68 18 02 00 00       	push   $0x218
    725b:	e9 b0 fb ff ff       	jmp    6e10 <_init+0x30>

00007260 <_ZN5Model17updateBoundingBoxEv@plt>:
    7260:	ff a3 1c 01 00 00    	jmp    *0x11c(%ebx)
    7266:	68 20 02 00 00       	push   $0x220
    726b:	e9 a0 fb ff ff       	jmp    6e10 <_init+0x30>

00007270 <__cxa_guard_release@plt>:
    7270:	ff a3 20 01 00 00    	jmp    *0x120(%ebx)
    7276:	68 28 02 00 00       	push   $0x228
    727b:	e9 90 fb ff ff       	jmp    6e10 <_init+0x30>

00007280 <_ZN8GLWidget11setBBRenderEb@plt>:
    7280:	ff a3 24 01 00 00    	jmp    *0x124(%ebx)
    7286:	68 30 02 00 00       	push   $0x230
    728b:	e9 80 fb ff ff       	jmp    6e10 <_init+0x30>

00007290 <_ZNK11MaterialLib5indexERKSs@plt>:
    7290:	ff a3 28 01 00 00    	jmp    *0x128(%ebx)
    7296:	68 38 02 00 00       	push   $0x238
    729b:	e9 70 fb ff ff       	jmp    6e10 <_init+0x30>

000072a0 <_ZmlRK6MatrixRK6Vector@plt>:
    72a0:	ff a3 2c 01 00 00    	jmp    *0x12c(%ebx)
    72a6:	68 40 02 00 00       	push   $0x240
    72ab:	e9 60 fb ff ff       	jmp    6e10 <_init+0x30>

000072b0 <_ZNK7QString3argERKS_iRK5QChar@plt>:
    72b0:	ff a3 30 01 00 00    	jmp    *0x130(%ebx)
    72b6:	68 48 02 00 00       	push   $0x248
    72bb:	e9 50 fb ff ff       	jmp    6e10 <_init+0x30>

000072c0 <_ZNK7Objecte16getTransformedBBERSt6vectorI5ModelSaIS1_EE@plt>:
    72c0:	ff a3 34 01 00 00    	jmp    *0x134(%ebx)
    72c6:	68 50 02 00 00       	push   $0x250
    72cb:	e9 40 fb ff ff       	jmp    6e10 <_init+0x30>

000072d0 <_ZN3Box6updateERK5Point@plt>:
    72d0:	ff a3 38 01 00 00    	jmp    *0x138(%ebx)
    72d6:	68 58 02 00 00       	push   $0x258
    72db:	e9 30 fb ff ff       	jmp    6e10 <_init+0x30>

000072e0 <_ZNSo5flushEv@plt>:
    72e0:	ff a3 3c 01 00 00    	jmp    *0x13c(%ebx)
    72e6:	68 60 02 00 00       	push   $0x260
    72eb:	e9 20 fb ff ff       	jmp    6e10 <_init+0x30>

000072f0 <__cxa_atexit@plt>:
    72f0:	ff a3 40 01 00 00    	jmp    *0x140(%ebx)
    72f6:	68 68 02 00 00       	push   $0x268
    72fb:	e9 10 fb ff ff       	jmp    6e10 <_init+0x30>

00007300 <_Z7getPathRKSs@plt>:
    7300:	ff a3 44 01 00 00    	jmp    *0x144(%ebx)
    7306:	68 70 02 00 00       	push   $0x270
    730b:	e9 00 fb ff ff       	jmp    6e10 <_init+0x30>

00007310 <_ZN3Box4initERK5Point@plt>:
    7310:	ff a3 48 01 00 00    	jmp    *0x148(%ebx)
    7316:	68 78 02 00 00       	push   $0x278
    731b:	e9 f0 fa ff ff       	jmp    6e10 <_init+0x30>

00007320 <_ZNSt6vectorI4FaceSaIS0_EEaSERKS2_@plt>:
    7320:	ff a3 4c 01 00 00    	jmp    *0x14c(%ebx)
    7326:	68 80 02 00 00       	push   $0x280
    732b:	e9 e0 fa ff ff       	jmp    6e10 <_init+0x30>

00007330 <_ZN8GLWidget11ResetCameraEv@plt>:
    7330:	ff a3 50 01 00 00    	jmp    *0x150(%ebx)
    7336:	68 88 02 00 00       	push   $0x288
    733b:	e9 d0 fa ff ff       	jmp    6e10 <_init+0x30>

00007340 <_ZNK7QStringeqERKS_@plt>:
    7340:	ff a3 54 01 00 00    	jmp    *0x154(%ebx)
    7346:	68 90 02 00 00       	push   $0x290
    734b:	e9 c0 fa ff ff       	jmp    6e10 <_init+0x30>

00007350 <_ZNSs4_Rep10_M_destroyERKSaIcE@plt>:
    7350:	ff a3 58 01 00 00    	jmp    *0x158(%ebx)
    7356:	68 98 02 00 00       	push   $0x298
    735b:	e9 b0 fa ff ff       	jmp    6e10 <_init+0x30>

00007360 <_ZN7ObjecteD1Ev@plt>:
    7360:	ff a3 5c 01 00 00    	jmp    *0x15c(%ebx)
    7366:	68 a0 02 00 00       	push   $0x2a0
    736b:	e9 a0 fa ff ff       	jmp    6e10 <_init+0x30>

00007370 <_ZN5Model7readObjEPKcR11MaterialLib@plt>:
    7370:	ff a3 60 01 00 00    	jmp    *0x160(%ebx)
    7376:	68 a8 02 00 00       	push   $0x2a8
    737b:	e9 90 fa ff ff       	jmp    6e10 <_init+0x30>

00007380 <_Z20qInitResources_iconsv@plt>:
    7380:	ff a3 64 01 00 00    	jmp    *0x164(%ebx)
    7386:	68 b0 02 00 00       	push   $0x2b0
    738b:	e9 80 fa ff ff       	jmp    6e10 <_init+0x30>

00007390 <_ZN4FaceC1Ev@plt>:
    7390:	ff a3 68 01 00 00    	jmp    *0x168(%ebx)
    7396:	68 b8 02 00 00       	push   $0x2b8
    739b:	e9 70 fa ff ff       	jmp    6e10 <_init+0x30>

000073a0 <glPolygonMode@plt>:
    73a0:	ff a3 6c 01 00 00    	jmp    *0x16c(%ebx)
    73a6:	68 c0 02 00 00       	push   $0x2c0
    73ab:	e9 60 fa ff ff       	jmp    6e10 <_init+0x30>

000073b0 <_Z15TranslateMatrix6Vector@plt>:
    73b0:	ff a3 70 01 00 00    	jmp    *0x170(%ebx)
    73b6:	68 c8 02 00 00       	push   $0x2c8
    73bb:	e9 50 fa ff ff       	jmp    6e10 <_init+0x30>

000073c0 <_ZNSt6vectorI4FaceSaIS0_EE13_M_insert_auxEN9__gnu_cxx17__normal_iteratorIPS0_S2_EERKS0_@plt>:
    73c0:	ff a3 74 01 00 00    	jmp    *0x174(%ebx)
    73c6:	68 d0 02 00 00       	push   $0x2d0
    73cb:	e9 40 fa ff ff       	jmp    6e10 <_init+0x30>

000073d0 <_ZN5QIconC1Ev@plt>:
    73d0:	ff a3 78 01 00 00    	jmp    *0x178(%ebx)
    73d6:	68 d8 02 00 00       	push   $0x2d8
    73db:	e9 30 fa ff ff       	jmp    6e10 <_init+0x30>

000073e0 <_ZN3BoxC1ERK5PointS2_@plt>:
    73e0:	ff a3 7c 01 00 00    	jmp    *0x17c(%ebx)
    73e6:	68 e0 02 00 00       	push   $0x2e0
    73eb:	e9 20 fa ff ff       	jmp    6e10 <_init+0x30>

000073f0 <_ZN9QGLWidgetD2Ev@plt>:
    73f0:	ff a3 80 01 00 00    	jmp    *0x180(%ebx)
    73f6:	68 e8 02 00 00       	push   $0x2e8
    73fb:	e9 10 fa ff ff       	jmp    6e10 <_init+0x30>

00007400 <_ZN4Face13computeNormalERSt6vectorI6VertexSaIS1_EE@plt>:
    7400:	ff a3 84 01 00 00    	jmp    *0x184(%ebx)
    7406:	68 f0 02 00 00       	push   $0x2f0
    740b:	e9 00 fa ff ff       	jmp    6e10 <_init+0x30>

00007410 <_ZN5Scene5DoPanEff@plt>:
    7410:	ff a3 88 01 00 00    	jmp    *0x188(%ebx)
    7416:	68 f8 02 00 00       	push   $0x2f8
    741b:	e9 f0 f9 ff ff       	jmp    6e10 <_init+0x30>

00007420 <glScissor@plt>:
    7420:	ff a3 8c 01 00 00    	jmp    *0x18c(%ebx)
    7426:	68 00 03 00 00       	push   $0x300
    742b:	e9 e0 f9 ff ff       	jmp    6e10 <_init+0x30>

00007430 <_ZNSt13basic_filebufIcSt11char_traitsIcEE4openEPKcSt13_Ios_Openmode@plt>:
    7430:	ff a3 90 01 00 00    	jmp    *0x190(%ebx)
    7436:	68 08 03 00 00       	push   $0x308
    743b:	e9 d0 f9 ff ff       	jmp    6e10 <_init+0x30>

00007440 <_ZN5PointC1ERK6Vector@plt>:
    7440:	ff a3 94 01 00 00    	jmp    *0x194(%ebx)
    7446:	68 10 03 00 00       	push   $0x310
    744b:	e9 c0 f9 ff ff       	jmp    6e10 <_init+0x30>

00007450 <_ZN5Model6RenderEv@plt>:
    7450:	ff a3 98 01 00 00    	jmp    *0x198(%ebx)
    7456:	68 18 03 00 00       	push   $0x318
    745b:	e9 b0 f9 ff ff       	jmp    6e10 <_init+0x30>

00007460 <_ZN5ColorC1Effff@plt>:
    7460:	ff a3 9c 01 00 00    	jmp    *0x19c(%ebx)
    7466:	68 20 03 00 00       	push   $0x320
    746b:	e9 a0 f9 ff ff       	jmp    6e10 <_init+0x30>

00007470 <_ZNSt8_Rb_treeISsSt4pairIKSsiESt10_Select1stIS2_ESt4lessISsESaIS2_EE17_M_insert_unique_ESt23_Rb_tree_const_iteratorIS2_ERKS2_@plt>:
    7470:	ff a3 a0 01 00 00    	jmp    *0x1a0(%ebx)
    7476:	68 28 03 00 00       	push   $0x328
    747b:	e9 90 f9 ff ff       	jmp    6e10 <_init+0x30>

00007480 <sin@plt>:
    7480:	ff a3 a4 01 00 00    	jmp    *0x1a4(%ebx)
    7486:	68 30 03 00 00       	push   $0x330
    748b:	e9 80 f9 ff ff       	jmp    6e10 <_init+0x30>

00007490 <_ZNK6Vector13squaredLengthEv@plt>:
    7490:	ff a3 a8 01 00 00    	jmp    *0x1a8(%ebx)
    7496:	68 38 03 00 00       	push   $0x338
    749b:	e9 70 f9 ff ff       	jmp    6e10 <_init+0x30>

000074a0 <glEnable@plt>:
    74a0:	ff a3 ac 01 00 00    	jmp    *0x1ac(%ebx)
    74a6:	68 40 03 00 00       	push   $0x340
    74ab:	e9 60 f9 ff ff       	jmp    6e10 <_init+0x30>

000074b0 <_ZNK6Vector6lengthEv@plt>:
    74b0:	ff a3 b0 01 00 00    	jmp    *0x1b0(%ebx)
    74b6:	68 48 03 00 00       	push   $0x348
    74bb:	e9 50 f9 ff ff       	jmp    6e10 <_init+0x30>

000074c0 <_ZNSsC1ERKSsjj@plt>:
    74c0:	ff a3 b4 01 00 00    	jmp    *0x1b4(%ebx)
    74c6:	68 50 03 00 00       	push   $0x350
    74cb:	e9 40 f9 ff ff       	jmp    6e10 <_init+0x30>

000074d0 <_ZdlPv@plt>:
    74d0:	ff a3 b8 01 00 00    	jmp    *0x1b8(%ebx)
    74d6:	68 58 03 00 00       	push   $0x358
    74db:	e9 30 f9 ff ff       	jmp    6e10 <_init+0x30>

000074e0 <_ZmIR5PointRK6Vector@plt>:
    74e0:	ff a3 bc 01 00 00    	jmp    *0x1bc(%ebx)
    74e6:	68 60 03 00 00       	push   $0x360
    74eb:	e9 20 f9 ff ff       	jmp    6e10 <_init+0x30>

000074f0 <atan@plt>:
    74f0:	ff a3 c0 01 00 00    	jmp    *0x1c0(%ebx)
    74f6:	68 68 03 00 00       	push   $0x368
    74fb:	e9 10 f9 ff ff       	jmp    6e10 <_init+0x30>

00007500 <_ZNSt13basic_filebufIcSt11char_traitsIcEEC1Ev@plt>:
    7500:	ff a3 c4 01 00 00    	jmp    *0x1c4(%ebx)
    7506:	68 70 03 00 00       	push   $0x370
    750b:	e9 00 f9 ff ff       	jmp    6e10 <_init+0x30>

00007510 <_ZN7QString17fromLatin1_helperEPKci@plt>:
    7510:	ff a3 c8 01 00 00    	jmp    *0x1c8(%ebx)
    7516:	68 78 03 00 00       	push   $0x378
    751b:	e9 f0 f8 ff ff       	jmp    6e10 <_init+0x30>

00007520 <_ZSt18_Rb_tree_decrementPSt18_Rb_tree_node_base@plt>:
    7520:	ff a3 cc 01 00 00    	jmp    *0x1cc(%ebx)
    7526:	68 80 03 00 00       	push   $0x380
    752b:	e9 e0 f8 ff ff       	jmp    6e10 <_init+0x30>

00007530 <_ZNK5Model11boundingBoxEv@plt>:
    7530:	ff a3 d0 01 00 00    	jmp    *0x1d0(%ebx)
    7536:	68 88 03 00 00       	push   $0x388
    753b:	e9 d0 f8 ff ff       	jmp    6e10 <_init+0x30>

00007540 <_ZN5Scene12UpdateHAngleEi@plt>:
    7540:	ff a3 d4 01 00 00    	jmp    *0x1d4(%ebx)
    7546:	68 90 03 00 00       	push   $0x390
    754b:	e9 c0 f8 ff ff       	jmp    6e10 <_init+0x30>

00007550 <_ZN5Scene4InitEv@plt>:
    7550:	ff a3 d8 01 00 00    	jmp    *0x1d8(%ebx)
    7556:	68 98 03 00 00       	push   $0x398
    755b:	e9 b0 f8 ff ff       	jmp    6e10 <_init+0x30>

00007560 <_ZN5PointC1Efff@plt>:
    7560:	ff a3 dc 01 00 00    	jmp    *0x1dc(%ebx)
    7566:	68 a0 03 00 00       	push   $0x3a0
    756b:	e9 a0 f8 ff ff       	jmp    6e10 <_init+0x30>

00007570 <glPopName@plt>:
    7570:	ff a3 e0 01 00 00    	jmp    *0x1e0(%ebx)
    7576:	68 a8 03 00 00       	push   $0x3a8
    757b:	e9 90 f8 ff ff       	jmp    6e10 <_init+0x30>

00007580 <_ZN5Scene13construirBaseEv@plt>:
    7580:	ff a3 e4 01 00 00    	jmp    *0x1e4(%ebx)
    7586:	68 b0 03 00 00       	push   $0x3b0
    758b:	e9 80 f8 ff ff       	jmp    6e10 <_init+0x30>

00007590 <_Z11get_indicesPcPiS0_S0_@plt>:
    7590:	ff a3 e8 01 00 00    	jmp    *0x1e8(%ebx)
    7596:	68 b8 03 00 00       	push   $0x3b8
    759b:	e9 70 f8 ff ff       	jmp    6e10 <_init+0x30>

000075a0 <_ZNK3Box9getPointsEv@plt>:
    75a0:	ff a3 ec 01 00 00    	jmp    *0x1ec(%ebx)
    75a6:	68 c0 03 00 00       	push   $0x3c0
    75ab:	e9 60 f8 ff ff       	jmp    6e10 <_init+0x30>

000075b0 <__stack_chk_fail@plt>:
    75b0:	ff a3 f0 01 00 00    	jmp    *0x1f0(%ebx)
    75b6:	68 c8 03 00 00       	push   $0x3c8
    75bb:	e9 50 f8 ff ff       	jmp    6e10 <_init+0x30>

000075c0 <_ZNSs6appendEPKcj@plt>:
    75c0:	ff a3 f4 01 00 00    	jmp    *0x1f4(%ebx)
    75c6:	68 d0 03 00 00       	push   $0x3d0
    75cb:	e9 40 f8 ff ff       	jmp    6e10 <_init+0x30>

000075d0 <glGetDoublev@plt>:
    75d0:	ff a3 f8 01 00 00    	jmp    *0x1f8(%ebx)
    75d6:	68 d8 03 00 00       	push   $0x3d8
    75db:	e9 30 f8 ff ff       	jmp    6e10 <_init+0x30>

000075e0 <_ZN5Scene8Toogle3DEb@plt>:
    75e0:	ff a3 fc 01 00 00    	jmp    *0x1fc(%ebx)
    75e6:	68 e0 03 00 00       	push   $0x3e0
    75eb:	e9 20 f8 ff ff       	jmp    6e10 <_init+0x30>

000075f0 <_ZN9QGLWidget11qt_metacastEPKc@plt>:
    75f0:	ff a3 00 02 00 00    	jmp    *0x200(%ebx)
    75f6:	68 e8 03 00 00       	push   $0x3e8
    75fb:	e9 10 f8 ff ff       	jmp    6e10 <_init+0x30>

00007600 <_ZNSsC1EPKcRKSaIcE@plt>:
    7600:	ff a3 04 02 00 00    	jmp    *0x204(%ebx)
    7606:	68 f0 03 00 00       	push   $0x3f0
    760b:	e9 00 f8 ff ff       	jmp    6e10 <_init+0x30>

00007610 <_ZNKSt5ctypeIcE13_M_widen_initEv@plt>:
    7610:	ff a3 08 02 00 00    	jmp    *0x208(%ebx)
    7616:	68 f8 03 00 00       	push   $0x3f8
    761b:	e9 f0 f7 ff ff       	jmp    6e10 <_init+0x30>

00007620 <strtol@plt>:
    7620:	ff a3 0c 02 00 00    	jmp    *0x20c(%ebx)
    7626:	68 00 04 00 00       	push   $0x400
    762b:	e9 e0 f7 ff ff       	jmp    6e10 <_init+0x30>

00007630 <_ZSt18_Rb_tree_incrementPKSt18_Rb_tree_node_base@plt>:
    7630:	ff a3 10 02 00 00    	jmp    *0x210(%ebx)
    7636:	68 08 04 00 00       	push   $0x408
    763b:	e9 d0 f7 ff ff       	jmp    6e10 <_init+0x30>

00007640 <_ZN8GLWidget8AutoZoomEv@plt>:
    7640:	ff a3 14 02 00 00    	jmp    *0x214(%ebx)
    7646:	68 10 04 00 00       	push   $0x410
    764b:	e9 c0 f7 ff ff       	jmp    6e10 <_init+0x30>

00007650 <gluPerspective@plt>:
    7650:	ff a3 18 02 00 00    	jmp    *0x218(%ebx)
    7656:	68 18 04 00 00       	push   $0x418
    765b:	e9 b0 f7 ff ff       	jmp    6e10 <_init+0x30>

00007660 <_ZN7QWidget15releaseKeyboardEv@plt>:
    7660:	ff a3 1c 02 00 00    	jmp    *0x21c(%ebx)
    7666:	68 20 04 00 00       	push   $0x420
    766b:	e9 a0 f7 ff ff       	jmp    6e10 <_init+0x30>

00007670 <_Z5qFreePv@plt>:
    7670:	ff a3 20 02 00 00    	jmp    *0x220(%ebx)
    7676:	68 28 04 00 00       	push   $0x428
    767b:	e9 90 f7 ff ff       	jmp    6e10 <_init+0x30>

00007680 <_ZN5Model14computeNormalsEv@plt>:
    7680:	ff a3 24 02 00 00    	jmp    *0x224(%ebx)
    7686:	68 30 04 00 00       	push   $0x430
    768b:	e9 80 f7 ff ff       	jmp    6e10 <_init+0x30>

00007690 <_ZNSt6vectorIiSaIiEEaSERKS1_@plt>:
    7690:	ff a3 28 02 00 00    	jmp    *0x228(%ebx)
    7696:	68 38 04 00 00       	push   $0x438
    769b:	e9 70 f7 ff ff       	jmp    6e10 <_init+0x30>

000076a0 <_Z11read_mtllibPPciR11MaterialLibRKSs@plt>:
    76a0:	ff a3 2c 02 00 00    	jmp    *0x22c(%ebx)
    76a6:	68 40 04 00 00       	push   $0x440
    76ab:	e9 60 f7 ff ff       	jmp    6e10 <_init+0x30>

000076b0 <sincos@plt>:
    76b0:	ff a3 30 02 00 00    	jmp    *0x230(%ebx)
    76b6:	68 48 04 00 00       	push   $0x448
    76bb:	e9 50 f7 ff ff       	jmp    6e10 <_init+0x30>

000076c0 <_ZSt16__throw_bad_castv@plt>:
    76c0:	ff a3 34 02 00 00    	jmp    *0x234(%ebx)
    76c6:	68 50 04 00 00       	push   $0x450
    76cb:	e9 40 f7 ff ff       	jmp    6e10 <_init+0x30>

000076d0 <_ZN9QGLWidget11qt_metacallEN11QMetaObject4CallEiPPv@plt>:
    76d0:	ff a3 38 02 00 00    	jmp    *0x238(%ebx)
    76d6:	68 58 04 00 00       	push   $0x458
    76db:	e9 30 f7 ff ff       	jmp    6e10 <_init+0x30>

000076e0 <_ZN6VectorC1ERK5Point@plt>:
    76e0:	ff a3 3c 02 00 00    	jmp    *0x23c(%ebx)
    76e6:	68 60 04 00 00       	push   $0x460
    76eb:	e9 20 f7 ff ff       	jmp    6e10 <_init+0x30>

000076f0 <_ZmlRK6Vectorf@plt>:
    76f0:	ff a3 40 02 00 00    	jmp    *0x240(%ebx)
    76f6:	68 68 04 00 00       	push   $0x468
    76fb:	e9 10 f7 ff ff       	jmp    6e10 <_init+0x30>

00007700 <_ZN8GLWidget8Toogle3DEb@plt>:
    7700:	ff a3 44 02 00 00    	jmp    *0x244(%ebx)
    7706:	68 70 04 00 00       	push   $0x470
    770b:	e9 00 f7 ff ff       	jmp    6e10 <_init+0x30>

00007710 <_ZN6VectorC1Efff@plt>:
    7710:	ff a3 48 02 00 00    	jmp    *0x248(%ebx)
    7716:	68 78 04 00 00       	push   $0x478
    771b:	e9 f0 f6 ff ff       	jmp    6e10 <_init+0x30>

00007720 <_ZSt16__ostream_insertIcSt11char_traitsIcEERSt13basic_ostreamIT_T0_ES6_PKS3_i@plt>:
    7720:	ff a3 4c 02 00 00    	jmp    *0x24c(%ebx)
    7726:	68 80 04 00 00       	push   $0x480
    772b:	e9 e0 f6 ff ff       	jmp    6e10 <_init+0x30>

00007730 <_ZNSs6assignERKSs@plt>:
    7730:	ff a3 50 02 00 00    	jmp    *0x250(%ebx)
    7736:	68 88 04 00 00       	push   $0x488
    773b:	e9 d0 f6 ff ff       	jmp    6e10 <_init+0x30>

00007740 <glLoadIdentity@plt>:
    7740:	ff a3 54 02 00 00    	jmp    *0x254(%ebx)
    7746:	68 90 04 00 00       	push   $0x490
    774b:	e9 c0 f6 ff ff       	jmp    6e10 <_init+0x30>

00007750 <_ZmlRK6VectorS1_@plt>:
    7750:	ff a3 58 02 00 00    	jmp    *0x258(%ebx)
    7756:	68 98 04 00 00       	push   $0x498
    775b:	e9 b0 f6 ff ff       	jmp    6e10 <_init+0x30>

00007760 <glEnd@plt>:
    7760:	ff a3 5c 02 00 00    	jmp    *0x25c(%ebx)
    7766:	68 a0 04 00 00       	push   $0x4a0
    776b:	e9 a0 f6 ff ff       	jmp    6e10 <_init+0x30>

00007770 <_ZN5ModelD1Ev@plt>:
    7770:	ff a3 60 02 00 00    	jmp    *0x260(%ebx)
    7776:	68 a8 04 00 00       	push   $0x4a8
    777b:	e9 90 f6 ff ff       	jmp    6e10 <_init+0x30>

00007780 <_ZNK11QMetaObject2trEPKcS1_@plt>:
    7780:	ff a3 64 02 00 00    	jmp    *0x264(%ebx)
    7786:	68 b0 04 00 00       	push   $0x4b0
    778b:	e9 80 f6 ff ff       	jmp    6e10 <_init+0x30>

00007790 <_ZN4FaceC1Eiiii@plt>:
    7790:	ff a3 68 02 00 00    	jmp    *0x268(%ebx)
    7796:	68 b8 04 00 00       	push   $0x4b8
    779b:	e9 70 f6 ff ff       	jmp    6e10 <_init+0x30>

000077a0 <_ZNSt9basic_iosIcSt11char_traitsIcEE4initEPSt15basic_streambufIcS1_E@plt>:
    77a0:	ff a3 6c 02 00 00    	jmp    *0x26c(%ebx)
    77a6:	68 c0 04 00 00       	push   $0x4c0
    77ab:	e9 60 f6 ff ff       	jmp    6e10 <_init+0x30>

000077b0 <_ZN5Scene12setWireframeEb@plt>:
    77b0:	ff a3 70 02 00 00    	jmp    *0x270(%ebx)
    77b6:	68 c8 04 00 00       	push   $0x4c8
    77bb:	e9 50 f6 ff ff       	jmp    6e10 <_init+0x30>

000077c0 <_ZN7ObjecteC1ESsi5Pointff@plt>:
    77c0:	ff a3 74 02 00 00    	jmp    *0x274(%ebx)
    77c6:	68 d0 04 00 00       	push   $0x4d0
    77cb:	e9 40 f6 ff ff       	jmp    6e10 <_init+0x30>

000077d0 <_ZSt22__uninitialized_move_aIP5ModelS1_SaIS0_EET0_T_S4_S3_RT1_@plt>:
    77d0:	ff a3 78 02 00 00    	jmp    *0x278(%ebx)
    77d6:	68 d8 04 00 00       	push   $0x4d8
    77db:	e9 30 f6 ff ff       	jmp    6e10 <_init+0x30>

000077e0 <_ZN9QGLWidgetC2EP7QWidgetPKS_6QFlagsIN2Qt10WindowTypeEE@plt>:
    77e0:	ff a3 7c 02 00 00    	jmp    *0x27c(%ebx)
    77e6:	68 e0 04 00 00       	push   $0x4e0
    77eb:	e9 20 f6 ff ff       	jmp    6e10 <_init+0x30>

000077f0 <_ZN11MaterialLibC1Ev@plt>:
    77f0:	ff a3 80 02 00 00    	jmp    *0x280(%ebx)
    77f6:	68 e8 04 00 00       	push   $0x4e8
    77fb:	e9 10 f6 ff ff       	jmp    6e10 <_init+0x30>

00007800 <glMatrixMode@plt>:
    7800:	ff a3 84 02 00 00    	jmp    *0x284(%ebx)
    7806:	68 f0 04 00 00       	push   $0x4f0
    780b:	e9 00 f6 ff ff       	jmp    6e10 <_init+0x30>

00007810 <_ZN7QWidget14setFocusPolicyEN2Qt11FocusPolicyE@plt>:
    7810:	ff a3 88 02 00 00    	jmp    *0x288(%ebx)
    7816:	68 f8 04 00 00       	push   $0x4f8
    781b:	e9 f0 f5 ff ff       	jmp    6e10 <_init+0x30>

00007820 <_ZN7QObjectC2EPS_@plt>:
    7820:	ff a3 8c 02 00 00    	jmp    *0x28c(%ebx)
    7826:	68 00 05 00 00       	push   $0x500
    782b:	e9 e0 f5 ff ff       	jmp    6e10 <_init+0x30>

00007830 <_ZN3Box6RenderEddd@plt>:
    7830:	ff a3 90 02 00 00    	jmp    *0x290(%ebx)
    7836:	68 08 05 00 00       	push   $0x508
    783b:	e9 d0 f5 ff ff       	jmp    6e10 <_init+0x30>

00007840 <_ZN8MaterialC1ERKSsRK5ColorS4_S4_f@plt>:
    7840:	ff a3 94 02 00 00    	jmp    *0x294(%ebx)
    7846:	68 10 05 00 00       	push   $0x510
    784b:	e9 c0 f5 ff ff       	jmp    6e10 <_init+0x30>

00007850 <_ZN6MatrixC1Ev@plt>:
    7850:	ff a3 98 02 00 00    	jmp    *0x298(%ebx)
    7856:	68 18 05 00 00       	push   $0x518
    785b:	e9 b0 f5 ff ff       	jmp    6e10 <_init+0x30>

00007860 <_ZNK11MaterialLib8materialEi@plt>:
    7860:	ff a3 9c 02 00 00    	jmp    *0x29c(%ebx)
    7866:	68 20 05 00 00       	push   $0x520
    786b:	e9 a0 f5 ff ff       	jmp    6e10 <_init+0x30>

00007870 <_ZNSt6localeD1Ev@plt>:
    7870:	ff a3 a0 02 00 00    	jmp    *0x2a0(%ebx)
    7876:	68 28 05 00 00       	push   $0x528
    787b:	e9 90 f5 ff ff       	jmp    6e10 <_init+0x30>

00007880 <_ZNK7QString7toAsciiEv@plt>:
    7880:	ff a3 a4 02 00 00    	jmp    *0x2a4(%ebx)
    7886:	68 30 05 00 00       	push   $0x530
    788b:	e9 80 f5 ff ff       	jmp    6e10 <_init+0x30>

00007890 <glPushAttrib@plt>:
    7890:	ff a3 a8 02 00 00    	jmp    *0x2a8(%ebx)
    7896:	68 38 05 00 00       	push   $0x538
    789b:	e9 70 f5 ff ff       	jmp    6e10 <_init+0x30>

000078a0 <_ZNSt6vectorI7ObjecteSaIS0_EE13_M_insert_auxEN9__gnu_cxx17__normal_iteratorIPS0_S2_EERKS0_@plt>:
    78a0:	ff a3 ac 02 00 00    	jmp    *0x2ac(%ebx)
    78a6:	68 40 05 00 00       	push   $0x540
    78ab:	e9 60 f5 ff ff       	jmp    6e10 <_init+0x30>

000078b0 <_ZNK7QString7toLowerEv@plt>:
    78b0:	ff a3 b0 02 00 00    	jmp    *0x2b0(%ebx)
    78b6:	68 48 05 00 00       	push   $0x548
    78bb:	e9 50 f5 ff ff       	jmp    6e10 <_init+0x30>

000078c0 <_ZN5Model9make_faceEPPcii@plt>:
    78c0:	ff a3 b4 02 00 00    	jmp    *0x2b4(%ebx)
    78c6:	68 50 05 00 00       	push   $0x550
    78cb:	e9 40 f5 ff ff       	jmp    6e10 <_init+0x30>

000078d0 <exit@plt>:
    78d0:	ff a3 b8 02 00 00    	jmp    *0x2b8(%ebx)
    78d6:	68 58 05 00 00       	push   $0x558
    78db:	e9 30 f5 ff ff       	jmp    6e10 <_init+0x30>

000078e0 <_ZNSt6vectorI6VertexSaIS0_EE13_M_insert_auxEN9__gnu_cxx17__normal_iteratorIPS0_S2_EERKS0_@plt>:
    78e0:	ff a3 bc 02 00 00    	jmp    *0x2bc(%ebx)
    78e6:	68 60 05 00 00       	push   $0x560
    78eb:	e9 20 f5 ff ff       	jmp    6e10 <_init+0x30>

000078f0 <_ZplRK6VectorS1_@plt>:
    78f0:	ff a3 c0 02 00 00    	jmp    *0x2c0(%ebx)
    78f6:	68 68 05 00 00       	push   $0x568
    78fb:	e9 10 f5 ff ff       	jmp    6e10 <_init+0x30>

00007900 <__cxa_rethrow@plt>:
    7900:	ff a3 c4 02 00 00    	jmp    *0x2c4(%ebx)
    7906:	68 70 05 00 00       	push   $0x570
    790b:	e9 00 f5 ff ff       	jmp    6e10 <_init+0x30>

00007910 <_Z10fetch_lineP8_IO_FILE@plt>:
    7910:	ff a3 c8 02 00 00    	jmp    *0x2c8(%ebx)
    7916:	68 78 05 00 00       	push   $0x578
    791b:	e9 f0 f4 ff ff       	jmp    6e10 <_init+0x30>

00007920 <_ZN8GLWidget9OrthoViewEb@plt>:
    7920:	ff a3 cc 02 00 00    	jmp    *0x2cc(%ebx)
    7926:	68 80 05 00 00       	push   $0x580
    792b:	e9 e0 f4 ff ff       	jmp    6e10 <_init+0x30>

00007930 <_ZN5Scene9DoPickingEii@plt>:
    7930:	ff a3 d0 02 00 00    	jmp    *0x2d0(%ebx)
    7936:	68 88 05 00 00       	push   $0x588
    793b:	e9 d0 f4 ff ff       	jmp    6e10 <_init+0x30>

00007940 <glClearColor@plt>:
    7940:	ff a3 d4 02 00 00    	jmp    *0x2d4(%ebx)
    7946:	68 90 05 00 00       	push   $0x590
    794b:	e9 c0 f4 ff ff       	jmp    6e10 <_init+0x30>

00007950 <_ZNSt6vectorIiSaIiEE13_M_insert_auxEN9__gnu_cxx17__normal_iteratorIPiS1_EERKi@plt>:
    7950:	ff a3 d8 02 00 00    	jmp    *0x2d8(%ebx)
    7956:	68 98 05 00 00       	push   $0x598
    795b:	e9 b0 f4 ff ff       	jmp    6e10 <_init+0x30>

00007960 <_ZN7QObject11qt_metacastEPKc@plt>:
    7960:	ff a3 dc 02 00 00    	jmp    *0x2dc(%ebx)
    7966:	68 a0 05 00 00       	push   $0x5a0
    796b:	e9 a0 f4 ff ff       	jmp    6e10 <_init+0x30>

00007970 <_ZN5Scene6RenderEb@plt>:
    7970:	ff a3 e0 02 00 00    	jmp    *0x2e0(%ebx)
    7976:	68 a8 05 00 00       	push   $0x5a8
    797b:	e9 90 f4 ff ff       	jmp    6e10 <_init+0x30>

00007980 <_ZN5Scene21SetLastObjectRotationEi@plt>:
    7980:	ff a3 e4 02 00 00    	jmp    *0x2e4(%ebx)
    7986:	68 b0 05 00 00       	push   $0x5b0
    798b:	e9 80 f4 ff ff       	jmp    6e10 <_init+0x30>

00007990 <glInitNames@plt>:
    7990:	ff a3 e8 02 00 00    	jmp    *0x2e8(%ebx)
    7996:	68 b8 05 00 00       	push   $0x5b8
    799b:	e9 70 f4 ff ff       	jmp    6e10 <_init+0x30>

000079a0 <glScalef@plt>:
    79a0:	ff a3 ec 02 00 00    	jmp    *0x2ec(%ebx)
    79a6:	68 c0 05 00 00       	push   $0x5c0
    79ab:	e9 60 f4 ff ff       	jmp    6e10 <_init+0x30>

000079b0 <_ZNSt8ios_base4InitC1Ev@plt>:
    79b0:	ff a3 f0 02 00 00    	jmp    *0x2f0(%ebx)
    79b6:	68 c8 05 00 00       	push   $0x5c8
    79bb:	e9 50 f4 ff ff       	jmp    6e10 <_init+0x30>

000079c0 <_ZNSt8_Rb_treeISsSt4pairIKSsiESt10_Select1stIS2_ESt4lessISsESaIS2_EE10_M_insert_EPKSt18_Rb_tree_node_baseSB_RKS2_@plt>:
    79c0:	ff a3 f4 02 00 00    	jmp    *0x2f4(%ebx)
    79c6:	68 d0 05 00 00       	push   $0x5d0
    79cb:	e9 40 f4 ff ff       	jmp    6e10 <_init+0x30>

000079d0 <glTranslatef@plt>:
    79d0:	ff a3 f8 02 00 00    	jmp    *0x2f8(%ebx)
    79d6:	68 d8 05 00 00       	push   $0x5d8
    79db:	e9 30 f4 ff ff       	jmp    6e10 <_init+0x30>

000079e0 <_ZNSt13basic_filebufIcSt11char_traitsIcEED1Ev@plt>:
    79e0:	ff a3 fc 02 00 00    	jmp    *0x2fc(%ebx)
    79e6:	68 e0 05 00 00       	push   $0x5e0
    79eb:	e9 20 f4 ff ff       	jmp    6e10 <_init+0x30>

000079f0 <_ZNSsD1Ev@plt>:
    79f0:	ff a3 00 03 00 00    	jmp    *0x300(%ebx)
    79f6:	68 e8 05 00 00       	push   $0x5e8
    79fb:	e9 10 f4 ff ff       	jmp    6e10 <_init+0x30>

00007a00 <glPushMatrix@plt>:
    7a00:	ff a3 04 03 00 00    	jmp    *0x304(%ebx)
    7a06:	68 f0 05 00 00       	push   $0x5f0
    7a0b:	e9 00 f4 ff ff       	jmp    6e10 <_init+0x30>

00007a10 <_ZN7Objecte14setOrientationEf@plt>:
    7a10:	ff a3 08 03 00 00    	jmp    *0x308(%ebx)
    7a16:	68 f8 05 00 00       	push   $0x5f8
    7a1b:	e9 f0 f3 ff ff       	jmp    6e10 <_init+0x30>

00007a20 <glSelectBuffer@plt>:
    7a20:	ff a3 0c 03 00 00    	jmp    *0x30c(%ebx)
    7a26:	68 00 06 00 00       	push   $0x600
    7a2b:	e9 e0 f3 ff ff       	jmp    6e10 <_init+0x30>

00007a30 <_ZN7QWidget12grabKeyboardEv@plt>:
    7a30:	ff a3 10 03 00 00    	jmp    *0x310(%ebx)
    7a36:	68 08 06 00 00       	push   $0x608
    7a3b:	e9 d0 f3 ff ff       	jmp    6e10 <_init+0x30>

00007a40 <_ZN5SceneD1Ev@plt>:
    7a40:	ff a3 14 03 00 00    	jmp    *0x314(%ebx)
    7a46:	68 10 06 00 00       	push   $0x610
    7a4b:	e9 c0 f3 ff ff       	jmp    6e10 <_init+0x30>

00007a50 <glLoadMatrixf@plt>:
    7a50:	ff a3 18 03 00 00    	jmp    *0x318(%ebx)
    7a56:	68 18 06 00 00       	push   $0x618
    7a5b:	e9 b0 f3 ff ff       	jmp    6e10 <_init+0x30>

00007a60 <_ZN5Scene11ResetCameraEv@plt>:
    7a60:	ff a3 1c 03 00 00    	jmp    *0x31c(%ebx)
    7a66:	68 20 06 00 00       	push   $0x620
    7a6b:	e9 a0 f3 ff ff       	jmp    6e10 <_init+0x30>

00007a70 <_ZNSt6vectorI4FaceSaIS0_EED1Ev@plt>:
    7a70:	ff a3 20 03 00 00    	jmp    *0x320(%ebx)
    7a76:	68 28 06 00 00       	push   $0x628
    7a7b:	e9 90 f3 ff ff       	jmp    6e10 <_init+0x30>

00007a80 <_Z11fetch_wordsv@plt>:
    7a80:	ff a3 24 03 00 00    	jmp    *0x324(%ebx)
    7a86:	68 30 06 00 00       	push   $0x630
    7a8b:	e9 80 f3 ff ff       	jmp    6e10 <_init+0x30>

00007a90 <_ZNSo9_M_insertIdEERSoT_@plt>:
    7a90:	ff a3 28 03 00 00    	jmp    *0x328(%ebx)
    7a96:	68 38 06 00 00       	push   $0x638
    7a9b:	e9 70 f3 ff ff       	jmp    6e10 <_init+0x30>

00007aa0 <__cxa_end_catch@plt>:
    7aa0:	ff a3 2c 03 00 00    	jmp    *0x32c(%ebx)
    7aa6:	68 40 06 00 00       	push   $0x640
    7aab:	e9 60 f3 ff ff       	jmp    6e10 <_init+0x30>

00007ab0 <__fprintf_chk@plt>:
    7ab0:	ff a3 30 03 00 00    	jmp    *0x330(%ebx)
    7ab6:	68 48 06 00 00       	push   $0x648
    7abb:	e9 50 f3 ff ff       	jmp    6e10 <_init+0x30>

00007ac0 <_ZN7Objecte11setPositionE5Point@plt>:
    7ac0:	ff a3 34 03 00 00    	jmp    *0x334(%ebx)
    7ac6:	68 50 06 00 00       	push   $0x650
    7acb:	e9 40 f3 ff ff       	jmp    6e10 <_init+0x30>

00007ad0 <acosf@plt>:
    7ad0:	ff a3 38 03 00 00    	jmp    *0x338(%ebx)
    7ad6:	68 58 06 00 00       	push   $0x658
    7adb:	e9 30 f3 ff ff       	jmp    6e10 <_init+0x30>

00007ae0 <_ZN5Scene10UpdateZoomEf@plt>:
    7ae0:	ff a3 3c 03 00 00    	jmp    *0x33c(%ebx)
    7ae6:	68 60 06 00 00       	push   $0x660
    7aeb:	e9 20 f3 ff ff       	jmp    6e10 <_init+0x30>

00007af0 <_ZNK7QStringeqERK13QLatin1String@plt>:
    7af0:	ff a3 40 03 00 00    	jmp    *0x340(%ebx)
    7af6:	68 68 06 00 00       	push   $0x668
    7afb:	e9 10 f3 ff ff       	jmp    6e10 <_init+0x30>

00007b00 <_ZN11QMetaObject11removeGuardEPP7QObject@plt>:
    7b00:	ff a3 44 03 00 00    	jmp    *0x344(%ebx)
    7b06:	68 70 06 00 00       	push   $0x670
    7b0b:	e9 00 f3 ff ff       	jmp    6e10 <_init+0x30>

00007b10 <_ZNSt9basic_iosIcSt11char_traitsIcEE5clearESt12_Ios_Iostate@plt>:
    7b10:	ff a3 48 03 00 00    	jmp    *0x348(%ebx)
    7b16:	68 78 06 00 00       	push   $0x678
    7b1b:	e9 f0 f2 ff ff       	jmp    6e10 <_init+0x30>

00007b20 <_ZNSt8_Rb_treeISsSt4pairIKSsiESt10_Select1stIS2_ESt4lessISsESaIS2_EE8_M_eraseEPSt13_Rb_tree_nodeIS2_E@plt>:
    7b20:	ff a3 4c 03 00 00    	jmp    *0x34c(%ebx)
    7b26:	68 80 06 00 00       	push   $0x680
    7b2b:	e9 e0 f2 ff ff       	jmp    6e10 <_init+0x30>

00007b30 <_ZplRK5PointS1_@plt>:
    7b30:	ff a3 50 03 00 00    	jmp    *0x350(%ebx)
    7b36:	68 88 06 00 00       	push   $0x688
    7b3b:	e9 d0 f2 ff ff       	jmp    6e10 <_init+0x30>

00007b40 <_ZN11QMetaObject11changeGuardEPP7QObjectS1_@plt>:
    7b40:	ff a3 54 03 00 00    	jmp    *0x354(%ebx)
    7b46:	68 90 06 00 00       	push   $0x690
    7b4b:	e9 c0 f2 ff ff       	jmp    6e10 <_init+0x30>

00007b50 <glRotatef@plt>:
    7b50:	ff a3 58 03 00 00    	jmp    *0x358(%ebx)
    7b56:	68 98 06 00 00       	push   $0x698
    7b5b:	e9 b0 f2 ff ff       	jmp    6e10 <_init+0x30>

00007b60 <_ZN7QString9fromAsciiEPKci@plt>:
    7b60:	ff a3 5c 03 00 00    	jmp    *0x35c(%ebx)
    7b66:	68 a0 06 00 00       	push   $0x6a0
    7b6b:	e9 a0 f2 ff ff       	jmp    6e10 <_init+0x30>

00007b70 <_ZN7QObjectD2Ev@plt>:
    7b70:	ff a3 60 03 00 00    	jmp    *0x360(%ebx)
    7b76:	68 a8 06 00 00       	push   $0x6a8
    7b7b:	e9 90 f2 ff ff       	jmp    6e10 <_init+0x30>

00007b80 <_Unwind_Resume@plt>:
    7b80:	ff a3 64 03 00 00    	jmp    *0x364(%ebx)
    7b86:	68 b0 06 00 00       	push   $0x6b0
    7b8b:	e9 80 f2 ff ff       	jmp    6e10 <_init+0x30>

00007b90 <_ZN6VertexC1ERK5Point@plt>:
    7b90:	ff a3 68 03 00 00    	jmp    *0x368(%ebx)
    7b96:	68 b8 06 00 00       	push   $0x6b8
    7b9b:	e9 70 f2 ff ff       	jmp    6e10 <_init+0x30>

00007ba0 <_Z23qCleanupResources_iconsv@plt>:
    7ba0:	ff a3 6c 03 00 00    	jmp    *0x36c(%ebx)
    7ba6:	68 c0 06 00 00       	push   $0x6c0
    7bab:	e9 60 f2 ff ff       	jmp    6e10 <_init+0x30>

00007bb0 <_ZNSt9basic_iosIcSt11char_traitsIcEED2Ev@plt>:
    7bb0:	ff a3 70 03 00 00    	jmp    *0x370(%ebx)
    7bb6:	68 c8 06 00 00       	push   $0x6c8
    7bbb:	e9 50 f2 ff ff       	jmp    6e10 <_init+0x30>

00007bc0 <glPushName@plt>:
    7bc0:	ff a3 74 03 00 00    	jmp    *0x374(%ebx)
    7bc6:	68 d0 06 00 00       	push   $0x6d0
    7bcb:	e9 40 f2 ff ff       	jmp    6e10 <_init+0x30>

00007bd0 <__cxa_guard_acquire@plt>:
    7bd0:	ff a3 78 03 00 00    	jmp    *0x378(%ebx)
    7bd6:	68 d8 06 00 00       	push   $0x6d8
    7bdb:	e9 30 f2 ff ff       	jmp    6e10 <_init+0x30>

00007be0 <_ZmlfRK6Vector@plt>:
    7be0:	ff a3 7c 03 00 00    	jmp    *0x37c(%ebx)
    7be6:	68 e0 06 00 00       	push   $0x6e0
    7beb:	e9 20 f2 ff ff       	jmp    6e10 <_init+0x30>

00007bf0 <glLineWidth@plt>:
    7bf0:	ff a3 80 03 00 00    	jmp    *0x380(%ebx)
    7bf6:	68 e8 06 00 00       	push   $0x6e8
    7bfb:	e9 10 f2 ff ff       	jmp    6e10 <_init+0x30>

00007c00 <memmove@plt>:
    7c00:	ff a3 84 03 00 00    	jmp    *0x384(%ebx)
    7c06:	68 f0 06 00 00       	push   $0x6f0
    7c0b:	e9 00 f2 ff ff       	jmp    6e10 <_init+0x30>

00007c10 <_ZNSsC1EPKcjRKSaIcE@plt>:
    7c10:	ff a3 88 03 00 00    	jmp    *0x388(%ebx)
    7c16:	68 f8 06 00 00       	push   $0x6f8
    7c1b:	e9 f0 f1 ff ff       	jmp    6e10 <_init+0x30>

00007c20 <_ZN7QStringD1Ev@plt>:
    7c20:	ff a3 8c 03 00 00    	jmp    *0x38c(%ebx)
    7c26:	68 00 07 00 00       	push   $0x700
    7c2b:	e9 e0 f1 ff ff       	jmp    6e10 <_init+0x30>

00007c30 <_ZNSt12__basic_fileIcED1Ev@plt>:
    7c30:	ff a3 90 03 00 00    	jmp    *0x390(%ebx)
    7c36:	68 08 07 00 00       	push   $0x708
    7c3b:	e9 d0 f1 ff ff       	jmp    6e10 <_init+0x30>

00007c40 <_ZN8GLWidgetC1EP7QWidget@plt>:
    7c40:	ff a3 94 03 00 00    	jmp    *0x394(%ebx)
    7c46:	68 10 07 00 00       	push   $0x710
    7c4b:	e9 c0 f1 ff ff       	jmp    6e10 <_init+0x30>

00007c50 <glPopMatrix@plt>:
    7c50:	ff a3 98 03 00 00    	jmp    *0x398(%ebx)
    7c56:	68 18 07 00 00       	push   $0x718
    7c5b:	e9 b0 f1 ff ff       	jmp    6e10 <_init+0x30>

00007c60 <glOrtho@plt>:
    7c60:	ff a3 9c 03 00 00    	jmp    *0x39c(%ebx)
    7c66:	68 20 07 00 00       	push   $0x720
    7c6b:	e9 a0 f1 ff ff       	jmp    6e10 <_init+0x30>

00007c70 <__gmon_start__@plt>:
    7c70:	ff a3 a0 03 00 00    	jmp    *0x3a0(%ebx)
    7c76:	68 28 07 00 00       	push   $0x728
    7c7b:	e9 90 f1 ff ff       	jmp    6e10 <_init+0x30>

00007c80 <_ZN5Scene21SetLastObjectPositionE6Vector@plt>:
    7c80:	ff a3 a4 03 00 00    	jmp    *0x3a4(%ebx)
    7c86:	68 30 07 00 00       	push   $0x730
    7c8b:	e9 80 f1 ff ff       	jmp    6e10 <_init+0x30>

00007c90 <gluUnProject@plt>:
    7c90:	ff a3 a8 03 00 00    	jmp    *0x3a8(%ebx)
    7c96:	68 38 07 00 00       	push   $0x738
    7c9b:	e9 70 f1 ff ff       	jmp    6e10 <_init+0x30>

00007ca0 <_ZNSt6vectorI8MaterialSaIS0_EE13_M_insert_auxEN9__gnu_cxx17__normal_iteratorIPS0_S2_EERKS0_@plt>:
    7ca0:	ff a3 ac 03 00 00    	jmp    *0x3ac(%ebx)
    7ca6:	68 40 07 00 00       	push   $0x740
    7cab:	e9 60 f1 ff ff       	jmp    6e10 <_init+0x30>

00007cb0 <_ZN7Objecte11getPositionEv@plt>:
    7cb0:	ff a3 b0 03 00 00    	jmp    *0x3b0(%ebx)
    7cb6:	68 48 07 00 00       	push   $0x748
    7cbb:	e9 50 f1 ff ff       	jmp    6e10 <_init+0x30>

00007cc0 <_Z12LookAtMatrix6VectorS_S_@plt>:
    7cc0:	ff a3 b4 03 00 00    	jmp    *0x3b4(%ebx)
    7cc6:	68 50 07 00 00       	push   $0x750
    7ccb:	e9 40 f1 ff ff       	jmp    6e10 <_init+0x30>

00007cd0 <strtod@plt>:
    7cd0:	ff a3 b8 03 00 00    	jmp    *0x3b8(%ebx)
    7cd6:	68 58 07 00 00       	push   $0x758
    7cdb:	e9 30 f1 ff ff       	jmp    6e10 <_init+0x30>

00007ce0 <_ZN7QString4freeEPNS_4DataE@plt>:
    7ce0:	ff a3 bc 03 00 00    	jmp    *0x3bc(%ebx)
    7ce6:	68 60 07 00 00       	push   $0x760
    7ceb:	e9 20 f1 ff ff       	jmp    6e10 <_init+0x30>

00007cf0 <glColor3f@plt>:
    7cf0:	ff a3 c0 03 00 00    	jmp    *0x3c0(%ebx)
    7cf6:	68 68 07 00 00       	push   $0x768
    7cfb:	e9 10 f1 ff ff       	jmp    6e10 <_init+0x30>

00007d00 <_ZNKSs7compareERKSs@plt>:
    7d00:	ff a3 c4 03 00 00    	jmp    *0x3c4(%ebx)
    7d06:	68 70 07 00 00       	push   $0x770
    7d0b:	e9 00 f1 ff ff       	jmp    6e10 <_init+0x30>

00007d10 <_ZN8GLWidgetD1Ev@plt>:
    7d10:	ff a3 c8 03 00 00    	jmp    *0x3c8(%ebx)
    7d16:	68 78 07 00 00       	push   $0x778
    7d1b:	e9 f0 f0 ff ff       	jmp    6e10 <_init+0x30>

00007d20 <_ZNSi10_M_extractIfEERSiRT_@plt>:
    7d20:	ff a3 cc 03 00 00    	jmp    *0x3cc(%ebx)
    7d26:	68 80 07 00 00       	push   $0x780
    7d2b:	e9 e0 f0 ff ff       	jmp    6e10 <_init+0x30>

00007d30 <glVertex3f@plt>:
    7d30:	ff a3 d0 03 00 00    	jmp    *0x3d0(%ebx)
    7d36:	68 88 07 00 00       	push   $0x788
    7d3b:	e9 d0 f0 ff ff       	jmp    6e10 <_init+0x30>

00007d40 <realloc@plt>:
    7d40:	ff a3 d4 03 00 00    	jmp    *0x3d4(%ebx)
    7d46:	68 90 07 00 00       	push   $0x790
    7d4b:	e9 c0 f0 ff ff       	jmp    6e10 <_init+0x30>

00007d50 <fopen@plt>:
    7d50:	ff a3 d8 03 00 00    	jmp    *0x3d8(%ebx)
    7d56:	68 98 07 00 00       	push   $0x798
    7d5b:	e9 b0 f0 ff ff       	jmp    6e10 <_init+0x30>

00007d60 <_ZNSt15basic_streambufIcSt11char_traitsIcEED2Ev@plt>:
    7d60:	ff a3 dc 03 00 00    	jmp    *0x3dc(%ebx)
    7d66:	68 a0 07 00 00       	push   $0x7a0
    7d6b:	e9 a0 f0 ff ff       	jmp    6e10 <_init+0x30>

Disassembly of section .text:

00007d70 <__do_global_dtors_aux>:
    7d70:	55                   	push   %ebp
    7d71:	89 e5                	mov    %esp,%ebp
    7d73:	56                   	push   %esi
    7d74:	53                   	push   %ebx
    7d75:	e8 bf 00 00 00       	call   7e39 <__i686.get_pc_thunk.bx>
    7d7a:	81 c3 2a 17 01 00    	add    $0x1172a,%ebx
    7d80:	8d 64 24 f0          	lea    -0x10(%esp),%esp
    7d84:	80 bb fc 03 00 00 00 	cmpb   $0x0,0x3fc(%ebx)
    7d8b:	75 5c                	jne    7de9 <__do_global_dtors_aux+0x79>
    7d8d:	8b 83 8c ff ff ff    	mov    -0x74(%ebx),%eax
    7d93:	85 c0                	test   %eax,%eax
    7d95:	74 0e                	je     7da5 <__do_global_dtors_aux+0x35>
    7d97:	8d 83 c0 fb ff ff    	lea    -0x440(%ebx),%eax
    7d9d:	89 04 24             	mov    %eax,(%esp)
    7da0:	e8 bb f0 ff ff       	call   6e60 <__cxa_finalize@plt>
    7da5:	8d b3 a4 fb ff ff    	lea    -0x45c(%ebx),%esi
    7dab:	8d 93 a0 fb ff ff    	lea    -0x460(%ebx),%edx
    7db1:	29 d6                	sub    %edx,%esi
    7db3:	8b 83 00 04 00 00    	mov    0x400(%ebx),%eax
    7db9:	c1 fe 02             	sar    $0x2,%esi
    7dbc:	83 ee 01             	sub    $0x1,%esi
    7dbf:	39 f0                	cmp    %esi,%eax
    7dc1:	73 1f                	jae    7de2 <__do_global_dtors_aux+0x72>
    7dc3:	90                   	nop
    7dc4:	8d 74 26 00          	lea    0x0(%esi,%eiz,1),%esi
    7dc8:	83 c0 01             	add    $0x1,%eax
    7dcb:	89 83 00 04 00 00    	mov    %eax,0x400(%ebx)
    7dd1:	ff 94 83 a0 fb ff ff 	call   *-0x460(%ebx,%eax,4)
    7dd8:	8b 83 00 04 00 00    	mov    0x400(%ebx),%eax
    7dde:	39 f0                	cmp    %esi,%eax
    7de0:	72 e6                	jb     7dc8 <__do_global_dtors_aux+0x58>
    7de2:	c6 83 fc 03 00 00 01 	movb   $0x1,0x3fc(%ebx)
    7de9:	8d 64 24 10          	lea    0x10(%esp),%esp
    7ded:	5b                   	pop    %ebx
    7dee:	5e                   	pop    %esi
    7def:	5d                   	pop    %ebp
    7df0:	c3                   	ret    
    7df1:	eb 0d                	jmp    7e00 <frame_dummy>
    7df3:	90                   	nop
    7df4:	90                   	nop
    7df5:	90                   	nop
    7df6:	90                   	nop
    7df7:	90                   	nop
    7df8:	90                   	nop
    7df9:	90                   	nop
    7dfa:	90                   	nop
    7dfb:	90                   	nop
    7dfc:	90                   	nop
    7dfd:	90                   	nop
    7dfe:	90                   	nop
    7dff:	90                   	nop

00007e00 <frame_dummy>:
    7e00:	55                   	push   %ebp
    7e01:	89 e5                	mov    %esp,%ebp
    7e03:	53                   	push   %ebx
    7e04:	e8 30 00 00 00       	call   7e39 <__i686.get_pc_thunk.bx>
    7e09:	81 c3 9b 16 01 00    	add    $0x1169b,%ebx
    7e0f:	8d 64 24 ec          	lea    -0x14(%esp),%esp
    7e13:	8b 93 a8 fb ff ff    	mov    -0x458(%ebx),%edx
    7e19:	85 d2                	test   %edx,%edx
    7e1b:	74 15                	je     7e32 <frame_dummy+0x32>
    7e1d:	8b 83 d4 ff ff ff    	mov    -0x2c(%ebx),%eax
    7e23:	85 c0                	test   %eax,%eax
    7e25:	74 0b                	je     7e32 <frame_dummy+0x32>
    7e27:	8d 93 a8 fb ff ff    	lea    -0x458(%ebx),%edx
    7e2d:	89 14 24             	mov    %edx,(%esp)
    7e30:	ff d0                	call   *%eax
    7e32:	8d 64 24 14          	lea    0x14(%esp),%esp
    7e36:	5b                   	pop    %ebx
    7e37:	5d                   	pop    %ebp
    7e38:	c3                   	ret    

00007e39 <__i686.get_pc_thunk.bx>:
    7e39:	8b 1c 24             	mov    (%esp),%ebx
    7e3c:	c3                   	ret    
    7e3d:	90                   	nop
    7e3e:	90                   	nop
    7e3f:	90                   	nop

00007e40 <_ZThn8_N14GLWidgetPlugin10initializeEP28QDesignerFormEditorInterface>:
    7e40:	83 44 24 04 f8       	addl   $0xfffffff8,0x4(%esp)
    7e45:	eb 09                	jmp    7e50 <_ZN14GLWidgetPlugin10initializeEP28QDesignerFormEditorInterface>
    7e47:	90                   	nop
    7e48:	90                   	nop
    7e49:	8d b4 26 00 00 00 00 	lea    0x0(%esi,%eiz,1),%esi

00007e50 <_ZN14GLWidgetPlugin10initializeEP28QDesignerFormEditorInterface>:
    7e50:	55                   	push   %ebp
    7e51:	89 e5                	mov    %esp,%ebp
    7e53:	8b 45 08             	mov    0x8(%ebp),%eax
    7e56:	80 78 0c 00          	cmpb   $0x0,0xc(%eax)
    7e5a:	75 04                	jne    7e60 <_ZN14GLWidgetPlugin10initializeEP28QDesignerFormEditorInterface+0x10>
    7e5c:	c6 40 0c 01          	movb   $0x1,0xc(%eax)
    7e60:	5d                   	pop    %ebp
    7e61:	c3                   	ret    
    7e62:	8d b4 26 00 00 00 00 	lea    0x0(%esi,%eiz,1),%esi
    7e69:	8d bc 27 00 00 00 00 	lea    0x0(%edi,%eiz,1),%edi

00007e70 <_ZThn8_NK14GLWidgetPlugin13isInitializedEv>:
    7e70:	83 44 24 04 f8       	addl   $0xfffffff8,0x4(%esp)
    7e75:	eb 09                	jmp    7e80 <_ZNK14GLWidgetPlugin13isInitializedEv>
    7e77:	90                   	nop
    7e78:	90                   	nop
    7e79:	8d b4 26 00 00 00 00 	lea    0x0(%esi,%eiz,1),%esi

00007e80 <_ZNK14GLWidgetPlugin13isInitializedEv>:
    7e80:	55                   	push   %ebp
    7e81:	89 e5                	mov    %esp,%ebp
    7e83:	8b 45 08             	mov    0x8(%ebp),%eax
    7e86:	5d                   	pop    %ebp
    7e87:	0f b6 40 0c          	movzbl 0xc(%eax),%eax
    7e8b:	c3                   	ret    
    7e8c:	8d 74 26 00          	lea    0x0(%esi,%eiz,1),%esi

00007e90 <_ZThn8_NK14GLWidgetPlugin11isContainerEv>:
    7e90:	83 44 24 04 f8       	addl   $0xfffffff8,0x4(%esp)
    7e95:	eb 09                	jmp    7ea0 <_ZNK14GLWidgetPlugin11isContainerEv>
    7e97:	90                   	nop
    7e98:	90                   	nop
    7e99:	8d b4 26 00 00 00 00 	lea    0x0(%esi,%eiz,1),%esi

00007ea0 <_ZNK14GLWidgetPlugin11isContainerEv>:
    7ea0:	55                   	push   %ebp
    7ea1:	31 c0                	xor    %eax,%eax
    7ea3:	89 e5                	mov    %esp,%ebp
    7ea5:	5d                   	pop    %ebp
    7ea6:	c3                   	ret    
    7ea7:	89 f6                	mov    %esi,%esi
    7ea9:	8d bc 27 00 00 00 00 	lea    0x0(%edi,%eiz,1),%edi

00007eb0 <qt_plugin_query_verification_data>:
    7eb0:	e8 71 07 00 00       	call   8626 <__i686.get_pc_thunk.cx>
    7eb5:	81 c1 ef 15 01 00    	add    $0x115ef,%ecx
    7ebb:	55                   	push   %ebp
    7ebc:	8b 81 bc fb ff ff    	mov    -0x444(%ecx),%eax
    7ec2:	89 e5                	mov    %esp,%ebp
    7ec4:	5d                   	pop    %ebp
    7ec5:	c3                   	ret    
    7ec6:	8d 76 00             	lea    0x0(%esi),%esi
    7ec9:	8d bc 27 00 00 00 00 	lea    0x0(%edi,%eiz,1),%edi

00007ed0 <_GLOBAL__I_glwidgetplugin.cpp>:
    7ed0:	55                   	push   %ebp
    7ed1:	89 e5                	mov    %esp,%ebp
    7ed3:	8d 64 24 e8          	lea    -0x18(%esp),%esp
    7ed7:	89 5d f8             	mov    %ebx,-0x8(%ebp)
    7eda:	89 75 fc             	mov    %esi,-0x4(%ebp)
    7edd:	e8 57 ff ff ff       	call   7e39 <__i686.get_pc_thunk.bx>
    7ee2:	81 c3 c2 15 01 00    	add    $0x115c2,%ebx
    7ee8:	8d b3 04 04 00 00    	lea    0x404(%ebx),%esi
    7eee:	89 34 24             	mov    %esi,(%esp)
    7ef1:	e8 ba fa ff ff       	call   79b0 <_ZNSt8ios_base4InitC1Ev@plt>
    7ef6:	8b 83 b0 ff ff ff    	mov    -0x50(%ebx),%eax
    7efc:	89 74 24 04          	mov    %esi,0x4(%esp)
    7f00:	89 44 24 08          	mov    %eax,0x8(%esp)
    7f04:	8b 83 fc ff ff ff    	mov    -0x4(%ebx),%eax
    7f0a:	89 04 24             	mov    %eax,(%esp)
    7f0d:	e8 de f3 ff ff       	call   72f0 <__cxa_atexit@plt>
    7f12:	8b 5d f8             	mov    -0x8(%ebp),%ebx
    7f15:	8b 75 fc             	mov    -0x4(%ebp),%esi
    7f18:	89 ec                	mov    %ebp,%esp
    7f1a:	5d                   	pop    %ebp
    7f1b:	c3                   	ret    
    7f1c:	8d 74 26 00          	lea    0x0(%esi,%eiz,1),%esi

00007f20 <_ZThn8_NK14GLWidgetPlugin11includeFileEv>:
    7f20:	83 44 24 08 f8       	addl   $0xfffffff8,0x8(%esp)
    7f25:	eb 09                	jmp    7f30 <_ZNK14GLWidgetPlugin11includeFileEv>
    7f27:	90                   	nop
    7f28:	90                   	nop
    7f29:	8d b4 26 00 00 00 00 	lea    0x0(%esi,%eiz,1),%esi

00007f30 <_ZNK14GLWidgetPlugin11includeFileEv>:
    7f30:	55                   	push   %ebp
    7f31:	89 e5                	mov    %esp,%ebp
    7f33:	8d 64 24 e8          	lea    -0x18(%esp),%esp
    7f37:	c7 44 24 04 ff ff ff 	movl   $0xffffffff,0x4(%esp)
    7f3e:	ff 
    7f3f:	89 5d f8             	mov    %ebx,-0x8(%ebp)
    7f42:	89 75 fc             	mov    %esi,-0x4(%ebp)
    7f45:	e8 ef fe ff ff       	call   7e39 <__i686.get_pc_thunk.bx>
    7f4a:	81 c3 5a 15 01 00    	add    $0x1155a,%ebx
    7f50:	8b 75 08             	mov    0x8(%ebp),%esi
    7f53:	8d 83 5c be ff ff    	lea    -0x41a4(%ebx),%eax
    7f59:	89 04 24             	mov    %eax,(%esp)
    7f5c:	e8 af f5 ff ff       	call   7510 <_ZN7QString17fromLatin1_helperEPKci@plt>
    7f61:	89 06                	mov    %eax,(%esi)
    7f63:	89 f0                	mov    %esi,%eax
    7f65:	8b 5d f8             	mov    -0x8(%ebp),%ebx
    7f68:	8b 75 fc             	mov    -0x4(%ebp),%esi
    7f6b:	89 ec                	mov    %ebp,%esp
    7f6d:	5d                   	pop    %ebp
    7f6e:	c2 04 00             	ret    $0x4
    7f71:	eb 0d                	jmp    7f80 <_ZThn8_NK14GLWidgetPlugin6domXmlEv>
    7f73:	90                   	nop
    7f74:	90                   	nop
    7f75:	90                   	nop
    7f76:	90                   	nop
    7f77:	90                   	nop
    7f78:	90                   	nop
    7f79:	90                   	nop
    7f7a:	90                   	nop
    7f7b:	90                   	nop
    7f7c:	90                   	nop
    7f7d:	90                   	nop
    7f7e:	90                   	nop
    7f7f:	90                   	nop

00007f80 <_ZThn8_NK14GLWidgetPlugin6domXmlEv>:
    7f80:	83 44 24 08 f8       	addl   $0xfffffff8,0x8(%esp)
    7f85:	eb 09                	jmp    7f90 <_ZNK14GLWidgetPlugin6domXmlEv>
    7f87:	90                   	nop
    7f88:	90                   	nop
    7f89:	8d b4 26 00 00 00 00 	lea    0x0(%esi,%eiz,1),%esi

00007f90 <_ZNK14GLWidgetPlugin6domXmlEv>:
    7f90:	55                   	push   %ebp
    7f91:	89 e5                	mov    %esp,%ebp
    7f93:	8d 64 24 e8          	lea    -0x18(%esp),%esp
    7f97:	c7 44 24 04 ff ff ff 	movl   $0xffffffff,0x4(%esp)
    7f9e:	ff 
    7f9f:	89 5d f8             	mov    %ebx,-0x8(%ebp)
    7fa2:	89 75 fc             	mov    %esi,-0x4(%ebp)
    7fa5:	e8 8f fe ff ff       	call   7e39 <__i686.get_pc_thunk.bx>
    7faa:	81 c3 fa 14 01 00    	add    $0x114fa,%ebx
    7fb0:	8b 75 08             	mov    0x8(%ebp),%esi
    7fb3:	8d 83 84 be ff ff    	lea    -0x417c(%ebx),%eax
    7fb9:	89 04 24             	mov    %eax,(%esp)
    7fbc:	e8 4f f5 ff ff       	call   7510 <_ZN7QString17fromLatin1_helperEPKci@plt>
    7fc1:	89 06                	mov    %eax,(%esi)
    7fc3:	89 f0                	mov    %esi,%eax
    7fc5:	8b 5d f8             	mov    -0x8(%ebp),%ebx
    7fc8:	8b 75 fc             	mov    -0x4(%ebp),%esi
    7fcb:	89 ec                	mov    %ebp,%esp
    7fcd:	5d                   	pop    %ebp
    7fce:	c2 04 00             	ret    $0x4
    7fd1:	eb 0d                	jmp    7fe0 <_ZThn8_NK14GLWidgetPlugin9whatsThisEv>
    7fd3:	90                   	nop
    7fd4:	90                   	nop
    7fd5:	90                   	nop
    7fd6:	90                   	nop
    7fd7:	90                   	nop
    7fd8:	90                   	nop
    7fd9:	90                   	nop
    7fda:	90                   	nop
    7fdb:	90                   	nop
    7fdc:	90                   	nop
    7fdd:	90                   	nop
    7fde:	90                   	nop
    7fdf:	90                   	nop

00007fe0 <_ZThn8_NK14GLWidgetPlugin9whatsThisEv>:
    7fe0:	83 44 24 08 f8       	addl   $0xfffffff8,0x8(%esp)
    7fe5:	eb 09                	jmp    7ff0 <_ZNK14GLWidgetPlugin9whatsThisEv>
    7fe7:	90                   	nop
    7fe8:	90                   	nop
    7fe9:	8d b4 26 00 00 00 00 	lea    0x0(%esi,%eiz,1),%esi

00007ff0 <_ZNK14GLWidgetPlugin9whatsThisEv>:
    7ff0:	55                   	push   %ebp
    7ff1:	89 e5                	mov    %esp,%ebp
    7ff3:	8d 64 24 e8          	lea    -0x18(%esp),%esp
    7ff7:	c7 44 24 04 ff ff ff 	movl   $0xffffffff,0x4(%esp)
    7ffe:	ff 
    7fff:	89 5d f8             	mov    %ebx,-0x8(%ebp)
    8002:	89 75 fc             	mov    %esi,-0x4(%ebp)
    8005:	e8 2f fe ff ff       	call   7e39 <__i686.get_pc_thunk.bx>
    800a:	81 c3 9a 14 01 00    	add    $0x1149a,%ebx
    8010:	8b 75 08             	mov    0x8(%ebp),%esi
    8013:	8d 83 b2 bf ff ff    	lea    -0x404e(%ebx),%eax
    8019:	89 04 24             	mov    %eax,(%esp)
    801c:	e8 ef f4 ff ff       	call   7510 <_ZN7QString17fromLatin1_helperEPKci@plt>
    8021:	89 06                	mov    %eax,(%esi)
    8023:	89 f0                	mov    %esi,%eax
    8025:	8b 5d f8             	mov    -0x8(%ebp),%ebx
    8028:	8b 75 fc             	mov    -0x4(%ebp),%esi
    802b:	89 ec                	mov    %ebp,%esp
    802d:	5d                   	pop    %ebp
    802e:	c2 04 00             	ret    $0x4
    8031:	eb 0d                	jmp    8040 <_ZThn8_NK14GLWidgetPlugin7toolTipEv>
    8033:	90                   	nop
    8034:	90                   	nop
    8035:	90                   	nop
    8036:	90                   	nop
    8037:	90                   	nop
    8038:	90                   	nop
    8039:	90                   	nop
    803a:	90                   	nop
    803b:	90                   	nop
    803c:	90                   	nop
    803d:	90                   	nop
    803e:	90                   	nop
    803f:	90                   	nop

00008040 <_ZThn8_NK14GLWidgetPlugin7toolTipEv>:
    8040:	83 44 24 08 f8       	addl   $0xfffffff8,0x8(%esp)
    8045:	eb 09                	jmp    8050 <_ZNK14GLWidgetPlugin7toolTipEv>
    8047:	90                   	nop
    8048:	90                   	nop
    8049:	8d b4 26 00 00 00 00 	lea    0x0(%esi,%eiz,1),%esi

00008050 <_ZNK14GLWidgetPlugin7toolTipEv>:
    8050:	55                   	push   %ebp
    8051:	89 e5                	mov    %esp,%ebp
    8053:	8d 64 24 e8          	lea    -0x18(%esp),%esp
    8057:	c7 44 24 04 ff ff ff 	movl   $0xffffffff,0x4(%esp)
    805e:	ff 
    805f:	89 5d f8             	mov    %ebx,-0x8(%ebp)
    8062:	89 75 fc             	mov    %esi,-0x4(%ebp)
    8065:	e8 cf fd ff ff       	call   7e39 <__i686.get_pc_thunk.bx>
    806a:	81 c3 3a 14 01 00    	add    $0x1143a,%ebx
    8070:	8b 75 08             	mov    0x8(%ebp),%esi
    8073:	8d 83 b2 bf ff ff    	lea    -0x404e(%ebx),%eax
    8079:	89 04 24             	mov    %eax,(%esp)
    807c:	e8 8f f4 ff ff       	call   7510 <_ZN7QString17fromLatin1_helperEPKci@plt>
    8081:	89 06                	mov    %eax,(%esi)
    8083:	89 f0                	mov    %esi,%eax
    8085:	8b 5d f8             	mov    -0x8(%ebp),%ebx
    8088:	8b 75 fc             	mov    -0x4(%ebp),%esi
    808b:	89 ec                	mov    %ebp,%esp
    808d:	5d                   	pop    %ebp
    808e:	c2 04 00             	ret    $0x4
    8091:	eb 0d                	jmp    80a0 <_ZThn8_NK14GLWidgetPlugin5groupEv>
    8093:	90                   	nop
    8094:	90                   	nop
    8095:	90                   	nop
    8096:	90                   	nop
    8097:	90                   	nop
    8098:	90                   	nop
    8099:	90                   	nop
    809a:	90                   	nop
    809b:	90                   	nop
    809c:	90                   	nop
    809d:	90                   	nop
    809e:	90                   	nop
    809f:	90                   	nop

000080a0 <_ZThn8_NK14GLWidgetPlugin5groupEv>:
    80a0:	83 44 24 08 f8       	addl   $0xfffffff8,0x8(%esp)
    80a5:	eb 09                	jmp    80b0 <_ZNK14GLWidgetPlugin5groupEv>
    80a7:	90                   	nop
    80a8:	90                   	nop
    80a9:	8d b4 26 00 00 00 00 	lea    0x0(%esi,%eiz,1),%esi

000080b0 <_ZNK14GLWidgetPlugin5groupEv>:
    80b0:	55                   	push   %ebp
    80b1:	89 e5                	mov    %esp,%ebp
    80b3:	8d 64 24 e8          	lea    -0x18(%esp),%esp
    80b7:	c7 44 24 04 ff ff ff 	movl   $0xffffffff,0x4(%esp)
    80be:	ff 
    80bf:	89 5d f8             	mov    %ebx,-0x8(%ebp)
    80c2:	89 75 fc             	mov    %esi,-0x4(%ebp)
    80c5:	e8 6f fd ff ff       	call   7e39 <__i686.get_pc_thunk.bx>
    80ca:	81 c3 da 13 01 00    	add    $0x113da,%ebx
    80d0:	8b 75 08             	mov    0x8(%ebp),%esi
    80d3:	8d 83 67 be ff ff    	lea    -0x4199(%ebx),%eax
    80d9:	89 04 24             	mov    %eax,(%esp)
    80dc:	e8 2f f4 ff ff       	call   7510 <_ZN7QString17fromLatin1_helperEPKci@plt>
    80e1:	89 06                	mov    %eax,(%esi)
    80e3:	89 f0                	mov    %esi,%eax
    80e5:	8b 5d f8             	mov    -0x8(%ebp),%ebx
    80e8:	8b 75 fc             	mov    -0x4(%ebp),%esi
    80eb:	89 ec                	mov    %ebp,%esp
    80ed:	5d                   	pop    %ebp
    80ee:	c2 04 00             	ret    $0x4
    80f1:	eb 0d                	jmp    8100 <_ZThn8_NK14GLWidgetPlugin4nameEv>
    80f3:	90                   	nop
    80f4:	90                   	nop
    80f5:	90                   	nop
    80f6:	90                   	nop
    80f7:	90                   	nop
    80f8:	90                   	nop
    80f9:	90                   	nop
    80fa:	90                   	nop
    80fb:	90                   	nop
    80fc:	90                   	nop
    80fd:	90                   	nop
    80fe:	90                   	nop
    80ff:	90                   	nop

00008100 <_ZThn8_NK14GLWidgetPlugin4nameEv>:
    8100:	83 44 24 08 f8       	addl   $0xfffffff8,0x8(%esp)
    8105:	eb 09                	jmp    8110 <_ZNK14GLWidgetPlugin4nameEv>
    8107:	90                   	nop
    8108:	90                   	nop
    8109:	8d b4 26 00 00 00 00 	lea    0x0(%esi,%eiz,1),%esi

00008110 <_ZNK14GLWidgetPlugin4nameEv>:
    8110:	55                   	push   %ebp
    8111:	89 e5                	mov    %esp,%ebp
    8113:	8d 64 24 e8          	lea    -0x18(%esp),%esp
    8117:	c7 44 24 04 ff ff ff 	movl   $0xffffffff,0x4(%esp)
    811e:	ff 
    811f:	89 5d f8             	mov    %ebx,-0x8(%ebp)
    8122:	89 75 fc             	mov    %esi,-0x4(%ebp)
    8125:	e8 0f fd ff ff       	call   7e39 <__i686.get_pc_thunk.bx>
    812a:	81 c3 7a 13 01 00    	add    $0x1137a,%ebx
    8130:	8b 75 08             	mov    0x8(%ebp),%esi
    8133:	8d 83 78 be ff ff    	lea    -0x4188(%ebx),%eax
    8139:	89 04 24             	mov    %eax,(%esp)
    813c:	e8 cf f3 ff ff       	call   7510 <_ZN7QString17fromLatin1_helperEPKci@plt>
    8141:	89 06                	mov    %eax,(%esi)
    8143:	89 f0                	mov    %esi,%eax
    8145:	8b 5d f8             	mov    -0x8(%ebp),%ebx
    8148:	8b 75 fc             	mov    -0x4(%ebp),%esi
    814b:	89 ec                	mov    %ebp,%esp
    814d:	5d                   	pop    %ebp
    814e:	c2 04 00             	ret    $0x4
    8151:	eb 0d                	jmp    8160 <_ZThn8_NK14GLWidgetPlugin4iconEv>
    8153:	90                   	nop
    8154:	90                   	nop
    8155:	90                   	nop
    8156:	90                   	nop
    8157:	90                   	nop
    8158:	90                   	nop
    8159:	90                   	nop
    815a:	90                   	nop
    815b:	90                   	nop
    815c:	90                   	nop
    815d:	90                   	nop
    815e:	90                   	nop
    815f:	90                   	nop

00008160 <_ZThn8_NK14GLWidgetPlugin4iconEv>:
    8160:	83 44 24 08 f8       	addl   $0xfffffff8,0x8(%esp)
    8165:	eb 09                	jmp    8170 <_ZNK14GLWidgetPlugin4iconEv>
    8167:	90                   	nop
    8168:	90                   	nop
    8169:	8d b4 26 00 00 00 00 	lea    0x0(%esi,%eiz,1),%esi

00008170 <_ZNK14GLWidgetPlugin4iconEv>:
    8170:	55                   	push   %ebp
    8171:	89 e5                	mov    %esp,%ebp
    8173:	8d 64 24 e8          	lea    -0x18(%esp),%esp
    8177:	89 5d f8             	mov    %ebx,-0x8(%ebp)
    817a:	89 75 fc             	mov    %esi,-0x4(%ebp)
    817d:	e8 b7 fc ff ff       	call   7e39 <__i686.get_pc_thunk.bx>
    8182:	81 c3 22 13 01 00    	add    $0x11322,%ebx
    8188:	8b 75 08             	mov    0x8(%ebp),%esi
    818b:	89 34 24             	mov    %esi,(%esp)
    818e:	e8 3d f2 ff ff       	call   73d0 <_ZN5QIconC1Ev@plt>
    8193:	89 f0                	mov    %esi,%eax
    8195:	8b 5d f8             	mov    -0x8(%ebp),%ebx
    8198:	8b 75 fc             	mov    -0x4(%ebp),%esi
    819b:	89 ec                	mov    %ebp,%esp
    819d:	5d                   	pop    %ebp
    819e:	c2 04 00             	ret    $0x4
    81a1:	eb 0d                	jmp    81b0 <_ZThn8_N14GLWidgetPlugin12createWidgetEP7QWidget>
    81a3:	90                   	nop
    81a4:	90                   	nop
    81a5:	90                   	nop
    81a6:	90                   	nop
    81a7:	90                   	nop
    81a8:	90                   	nop
    81a9:	90                   	nop
    81aa:	90                   	nop
    81ab:	90                   	nop
    81ac:	90                   	nop
    81ad:	90                   	nop
    81ae:	90                   	nop
    81af:	90                   	nop

000081b0 <_ZThn8_N14GLWidgetPlugin12createWidgetEP7QWidget>:
    81b0:	83 44 24 04 f8       	addl   $0xfffffff8,0x4(%esp)
    81b5:	eb 09                	jmp    81c0 <_ZN14GLWidgetPlugin12createWidgetEP7QWidget>
    81b7:	90                   	nop
    81b8:	90                   	nop
    81b9:	8d b4 26 00 00 00 00 	lea    0x0(%esi,%eiz,1),%esi

000081c0 <_ZN14GLWidgetPlugin12createWidgetEP7QWidget>:
    81c0:	55                   	push   %ebp
    81c1:	89 e5                	mov    %esp,%ebp
    81c3:	8d 64 24 d8          	lea    -0x28(%esp),%esp
    81c7:	c7 04 24 18 11 00 00 	movl   $0x1118,(%esp)
    81ce:	89 5d f8             	mov    %ebx,-0x8(%ebp)
    81d1:	89 75 fc             	mov    %esi,-0x4(%ebp)
    81d4:	e8 60 fc ff ff       	call   7e39 <__i686.get_pc_thunk.bx>
    81d9:	81 c3 cb 12 01 00    	add    $0x112cb,%ebx
    81df:	e8 6c ec ff ff       	call   6e50 <_Znwj@plt>
    81e4:	89 c6                	mov    %eax,%esi
    81e6:	8b 45 0c             	mov    0xc(%ebp),%eax
    81e9:	89 44 24 04          	mov    %eax,0x4(%esp)
    81ed:	89 34 24             	mov    %esi,(%esp)
    81f0:	e8 4b fa ff ff       	call   7c40 <_ZN8GLWidgetC1EP7QWidget@plt>
    81f5:	89 f0                	mov    %esi,%eax
    81f7:	8b 5d f8             	mov    -0x8(%ebp),%ebx
    81fa:	8b 75 fc             	mov    -0x4(%ebp),%esi
    81fd:	89 ec                	mov    %ebp,%esp
    81ff:	5d                   	pop    %ebp
    8200:	c3                   	ret    
    8201:	89 45 f4             	mov    %eax,-0xc(%ebp)
    8204:	89 34 24             	mov    %esi,(%esp)
    8207:	e8 c4 f2 ff ff       	call   74d0 <_ZdlPv@plt>
    820c:	8b 45 f4             	mov    -0xc(%ebp),%eax
    820f:	89 04 24             	mov    %eax,(%esp)
    8212:	e8 69 f9 ff ff       	call   7b80 <_Unwind_Resume@plt>
    8217:	90                   	nop
    8218:	90                   	nop
    8219:	8d b4 26 00 00 00 00 	lea    0x0(%esi,%eiz,1),%esi

00008220 <_ZN14GLWidgetPluginC1EP7QObject>:
    8220:	55                   	push   %ebp
    8221:	89 e5                	mov    %esp,%ebp
    8223:	8d 64 24 e8          	lea    -0x18(%esp),%esp
    8227:	89 5d f8             	mov    %ebx,-0x8(%ebp)
    822a:	8b 45 0c             	mov    0xc(%ebp),%eax
    822d:	e8 07 fc ff ff       	call   7e39 <__i686.get_pc_thunk.bx>
    8232:	81 c3 72 12 01 00    	add    $0x11272,%ebx
    8238:	89 75 fc             	mov    %esi,-0x4(%ebp)
    823b:	8b 75 08             	mov    0x8(%ebp),%esi
    823e:	89 44 24 04          	mov    %eax,0x4(%esp)
    8242:	89 34 24             	mov    %esi,(%esp)
    8245:	e8 d6 f5 ff ff       	call   7820 <_ZN7QObjectC2EPS_@plt>
    824a:	8b 83 a8 ff ff ff    	mov    -0x58(%ebx),%eax
    8250:	c6 46 0c 00          	movb   $0x0,0xc(%esi)
    8254:	8d 50 08             	lea    0x8(%eax),%edx
    8257:	83 c0 6c             	add    $0x6c,%eax
    825a:	89 16                	mov    %edx,(%esi)
    825c:	89 46 08             	mov    %eax,0x8(%esi)
    825f:	8b 5d f8             	mov    -0x8(%ebp),%ebx
    8262:	8b 75 fc             	mov    -0x4(%ebp),%esi
    8265:	89 ec                	mov    %ebp,%esp
    8267:	5d                   	pop    %ebp
    8268:	c3                   	ret    
    8269:	8d b4 26 00 00 00 00 	lea    0x0(%esi,%eiz,1),%esi

00008270 <qt_plugin_instance>:
    8270:	55                   	push   %ebp
    8271:	89 e5                	mov    %esp,%ebp
    8273:	8d 64 24 d8          	lea    -0x28(%esp),%esp
    8277:	89 5d f8             	mov    %ebx,-0x8(%ebp)
    827a:	89 75 fc             	mov    %esi,-0x4(%ebp)
    827d:	e8 b7 fb ff ff       	call   7e39 <__i686.get_pc_thunk.bx>
    8282:	81 c3 22 12 01 00    	add    $0x11222,%ebx
    8288:	80 bb 0c 04 00 00 00 	cmpb   $0x0,0x40c(%ebx)
    828f:	74 17                	je     82a8 <qt_plugin_instance+0x38>
    8291:	8b 83 14 04 00 00    	mov    0x414(%ebx),%eax
    8297:	85 c0                	test   %eax,%eax
    8299:	74 55                	je     82f0 <qt_plugin_instance+0x80>
    829b:	8b 5d f8             	mov    -0x8(%ebp),%ebx
    829e:	8b 75 fc             	mov    -0x4(%ebp),%esi
    82a1:	89 ec                	mov    %ebp,%esp
    82a3:	5d                   	pop    %ebp
    82a4:	c3                   	ret    
    82a5:	8d 76 00             	lea    0x0(%esi),%esi
    82a8:	8d b3 0c 04 00 00    	lea    0x40c(%ebx),%esi
    82ae:	89 34 24             	mov    %esi,(%esp)
    82b1:	e8 1a f9 ff ff       	call   7bd0 <__cxa_guard_acquire@plt>
    82b6:	85 c0                	test   %eax,%eax
    82b8:	74 d7                	je     8291 <qt_plugin_instance+0x21>
    82ba:	c7 83 14 04 00 00 00 	movl   $0x0,0x414(%ebx)
    82c1:	00 00 00 
    82c4:	89 34 24             	mov    %esi,(%esp)
    82c7:	e8 a4 ef ff ff       	call   7270 <__cxa_guard_release@plt>
    82cc:	8b 83 b0 ff ff ff    	mov    -0x50(%ebx),%eax
    82d2:	89 44 24 08          	mov    %eax,0x8(%esp)
    82d6:	8d 83 14 04 00 00    	lea    0x414(%ebx),%eax
    82dc:	89 44 24 04          	mov    %eax,0x4(%esp)
    82e0:	8b 83 e0 ff ff ff    	mov    -0x20(%ebx),%eax
    82e6:	89 04 24             	mov    %eax,(%esp)
    82e9:	e8 02 f0 ff ff       	call   72f0 <__cxa_atexit@plt>
    82ee:	eb a1                	jmp    8291 <qt_plugin_instance+0x21>
    82f0:	c7 04 24 10 00 00 00 	movl   $0x10,(%esp)
    82f7:	e8 54 eb ff ff       	call   6e50 <_Znwj@plt>
    82fc:	89 c6                	mov    %eax,%esi
    82fe:	c7 44 24 04 00 00 00 	movl   $0x0,0x4(%esp)
    8305:	00 
    8306:	89 04 24             	mov    %eax,(%esp)
    8309:	e8 12 ec ff ff       	call   6f20 <_ZN14GLWidgetPluginC1EP7QObject@plt>
    830e:	3b b3 14 04 00 00    	cmp    0x414(%ebx),%esi
    8314:	89 f0                	mov    %esi,%eax
    8316:	74 83                	je     829b <qt_plugin_instance+0x2b>
    8318:	8d 83 14 04 00 00    	lea    0x414(%ebx),%eax
    831e:	89 74 24 04          	mov    %esi,0x4(%esp)
    8322:	89 04 24             	mov    %eax,(%esp)
    8325:	e8 16 f8 ff ff       	call   7b40 <_ZN11QMetaObject11changeGuardEPP7QObjectS1_@plt>
    832a:	8b 83 14 04 00 00    	mov    0x414(%ebx),%eax
    8330:	e9 66 ff ff ff       	jmp    829b <qt_plugin_instance+0x2b>
    8335:	89 45 f4             	mov    %eax,-0xc(%ebp)
    8338:	89 34 24             	mov    %esi,(%esp)
    833b:	e8 90 f1 ff ff       	call   74d0 <_ZdlPv@plt>
    8340:	8b 45 f4             	mov    -0xc(%ebp),%eax
    8343:	89 04 24             	mov    %eax,(%esp)
    8346:	e8 35 f8 ff ff       	call   7b80 <_Unwind_Resume@plt>
    834b:	90                   	nop
    834c:	90                   	nop
    834d:	90                   	nop
    834e:	90                   	nop
    834f:	90                   	nop

00008350 <_ZN30QDesignerCustomWidgetInterfaceD1Ev>:
    8350:	e8 d1 02 00 00       	call   8626 <__i686.get_pc_thunk.cx>
    8355:	81 c1 4f 11 01 00    	add    $0x1114f,%ecx
    835b:	55                   	push   %ebp
    835c:	8b 81 d8 ff ff ff    	mov    -0x28(%ecx),%eax
    8362:	89 e5                	mov    %esp,%ebp
    8364:	8d 50 08             	lea    0x8(%eax),%edx
    8367:	8b 45 08             	mov    0x8(%ebp),%eax
    836a:	89 10                	mov    %edx,(%eax)
    836c:	5d                   	pop    %ebp
    836d:	c3                   	ret    
    836e:	90                   	nop
    836f:	90                   	nop

00008370 <_ZNK30QDesignerCustomWidgetInterface13isInitializedEv>:
    8370:	55                   	push   %ebp
    8371:	31 c0                	xor    %eax,%eax
    8373:	89 e5                	mov    %esp,%ebp
    8375:	5d                   	pop    %ebp
    8376:	c3                   	ret    
    8377:	90                   	nop
    8378:	90                   	nop
    8379:	90                   	nop
    837a:	90                   	nop
    837b:	90                   	nop
    837c:	90                   	nop
    837d:	90                   	nop
    837e:	90                   	nop
    837f:	90                   	nop

00008380 <_ZN30QDesignerCustomWidgetInterface10initializeEP28QDesignerFormEditorInterface>:
    8380:	55                   	push   %ebp
    8381:	89 e5                	mov    %esp,%ebp
    8383:	5d                   	pop    %ebp
    8384:	c3                   	ret    
    8385:	90                   	nop
    8386:	90                   	nop
    8387:	90                   	nop
    8388:	90                   	nop
    8389:	90                   	nop
    838a:	90                   	nop
    838b:	90                   	nop
    838c:	90                   	nop
    838d:	90                   	nop
    838e:	90                   	nop
    838f:	90                   	nop

00008390 <_ZNK30QDesignerCustomWidgetInterface12codeTemplateEv>:
    8390:	55                   	push   %ebp
    8391:	89 e5                	mov    %esp,%ebp
    8393:	53                   	push   %ebx
    8394:	e8 a0 fa ff ff       	call   7e39 <__i686.get_pc_thunk.bx>
    8399:	81 c3 0b 11 01 00    	add    $0x1110b,%ebx
    839f:	8b 45 08             	mov    0x8(%ebp),%eax
    83a2:	8b 93 ac ff ff ff    	mov    -0x54(%ebx),%edx
    83a8:	89 10                	mov    %edx,(%eax)
    83aa:	f0 ff 02             	lock incl (%edx)
    83ad:	0f 95 c1             	setne  %cl
    83b0:	5b                   	pop    %ebx
    83b1:	5d                   	pop    %ebp
    83b2:	c2 04 00             	ret    $0x4
    83b5:	90                   	nop
    83b6:	90                   	nop
    83b7:	90                   	nop
    83b8:	90                   	nop
    83b9:	90                   	nop
    83ba:	90                   	nop
    83bb:	90                   	nop
    83bc:	90                   	nop
    83bd:	90                   	nop
    83be:	90                   	nop
    83bf:	90                   	nop

000083c0 <_ZN30QDesignerCustomWidgetInterfaceD0Ev>:
    83c0:	55                   	push   %ebp
    83c1:	89 e5                	mov    %esp,%ebp
    83c3:	53                   	push   %ebx
    83c4:	e8 70 fa ff ff       	call   7e39 <__i686.get_pc_thunk.bx>
    83c9:	81 c3 db 10 01 00    	add    $0x110db,%ebx
    83cf:	8d 64 24 ec          	lea    -0x14(%esp),%esp
    83d3:	8b 45 08             	mov    0x8(%ebp),%eax
    83d6:	8b 93 d8 ff ff ff    	mov    -0x28(%ebx),%edx
    83dc:	83 c2 08             	add    $0x8,%edx
    83df:	89 10                	mov    %edx,(%eax)
    83e1:	89 04 24             	mov    %eax,(%esp)
    83e4:	e8 e7 f0 ff ff       	call   74d0 <_ZdlPv@plt>
    83e9:	8d 64 24 14          	lea    0x14(%esp),%esp
    83ed:	5b                   	pop    %ebx
    83ee:	5d                   	pop    %ebp
    83ef:	c3                   	ret    

000083f0 <_ZN8QPointerI7QObjectED1Ev>:
    83f0:	55                   	push   %ebp
    83f1:	89 e5                	mov    %esp,%ebp
    83f3:	53                   	push   %ebx
    83f4:	e8 40 fa ff ff       	call   7e39 <__i686.get_pc_thunk.bx>
    83f9:	81 c3 ab 10 01 00    	add    $0x110ab,%ebx
    83ff:	8d 64 24 ec          	lea    -0x14(%esp),%esp
    8403:	8b 45 08             	mov    0x8(%ebp),%eax
    8406:	89 04 24             	mov    %eax,(%esp)
    8409:	e8 f2 f6 ff ff       	call   7b00 <_ZN11QMetaObject11removeGuardEPP7QObject@plt>
    840e:	8d 64 24 14          	lea    0x14(%esp),%esp
    8412:	5b                   	pop    %ebx
    8413:	5d                   	pop    %ebp
    8414:	c3                   	ret    
    8415:	90                   	nop
    8416:	90                   	nop
    8417:	90                   	nop
    8418:	90                   	nop
    8419:	90                   	nop
    841a:	90                   	nop
    841b:	90                   	nop
    841c:	90                   	nop
    841d:	90                   	nop
    841e:	90                   	nop
    841f:	90                   	nop

00008420 <_ZNK30QDesignerCustomWidgetInterface6domXmlEv>:
    8420:	55                   	push   %ebp
    8421:	89 e5                	mov    %esp,%ebp
    8423:	57                   	push   %edi
    8424:	56                   	push   %esi
    8425:	8d 7d d4             	lea    -0x2c(%ebp),%edi
    8428:	53                   	push   %ebx
    8429:	e8 0b fa ff ff       	call   7e39 <__i686.get_pc_thunk.bx>
    842e:	81 c3 76 10 01 00    	add    $0x11076,%ebx
    8434:	8d 64 24 a4          	lea    -0x5c(%esp),%esp
    8438:	8b 75 0c             	mov    0xc(%ebp),%esi
    843b:	66 c7 45 e4 20 00    	movw   $0x20,-0x1c(%ebp)
    8441:	8b 06                	mov    (%esi),%eax
    8443:	89 74 24 04          	mov    %esi,0x4(%esp)
    8447:	89 3c 24             	mov    %edi,(%esp)
    844a:	ff 50 08             	call   *0x8(%eax)
    844d:	8d 64 24 fc          	lea    -0x4(%esp),%esp
    8451:	8d 45 d0             	lea    -0x30(%ebp),%eax
    8454:	89 7c 24 04          	mov    %edi,0x4(%esp)
    8458:	89 45 c4             	mov    %eax,-0x3c(%ebp)
    845b:	89 04 24             	mov    %eax,(%esp)
    845e:	e8 4d f4 ff ff       	call   78b0 <_ZNK7QString7toLowerEv@plt>
    8463:	8d 64 24 fc          	lea    -0x4(%esp),%esp
    8467:	8b 06                	mov    (%esi),%eax
    8469:	8d 55 dc             	lea    -0x24(%ebp),%edx
    846c:	66 c7 45 e6 20 00    	movw   $0x20,-0x1a(%ebp)
    8472:	89 55 c0             	mov    %edx,-0x40(%ebp)
    8475:	89 74 24 04          	mov    %esi,0x4(%esp)
    8479:	89 14 24             	mov    %edx,(%esp)
    847c:	ff 50 08             	call   *0x8(%eax)
    847f:	8d 64 24 fc          	lea    -0x4(%esp),%esp
    8483:	8d 75 e0             	lea    -0x20(%ebp),%esi
    8486:	8d 83 bc be ff ff    	lea    -0x4144(%ebx),%eax
    848c:	c7 44 24 08 ff ff ff 	movl   $0xffffffff,0x8(%esp)
    8493:	ff 
    8494:	89 44 24 04          	mov    %eax,0x4(%esp)
    8498:	89 34 24             	mov    %esi,(%esp)
    849b:	e8 30 ed ff ff       	call   71d0 <_ZN7QString8fromUtf8EPKci@plt>
    84a0:	8d 64 24 fc          	lea    -0x4(%esp),%esp
    84a4:	8d 45 e6             	lea    -0x1a(%ebp),%eax
    84a7:	89 44 24 10          	mov    %eax,0x10(%esp)
    84ab:	8b 45 c0             	mov    -0x40(%ebp),%eax
    84ae:	8d 7d d8             	lea    -0x28(%ebp),%edi
    84b1:	c7 44 24 0c 00 00 00 	movl   $0x0,0xc(%esp)
    84b8:	00 
    84b9:	89 44 24 08          	mov    %eax,0x8(%esp)
    84bd:	89 74 24 04          	mov    %esi,0x4(%esp)
    84c1:	89 3c 24             	mov    %edi,(%esp)
    84c4:	e8 e7 ed ff ff       	call   72b0 <_ZNK7QString3argERKS_iRK5QChar@plt>
    84c9:	8d 64 24 fc          	lea    -0x4(%esp),%esp
    84cd:	8d 45 e4             	lea    -0x1c(%ebp),%eax
    84d0:	8b 55 c4             	mov    -0x3c(%ebp),%edx
    84d3:	89 44 24 10          	mov    %eax,0x10(%esp)
    84d7:	8b 45 08             	mov    0x8(%ebp),%eax
    84da:	c7 44 24 0c 00 00 00 	movl   $0x0,0xc(%esp)
    84e1:	00 
    84e2:	89 54 24 08          	mov    %edx,0x8(%esp)
    84e6:	89 7c 24 04          	mov    %edi,0x4(%esp)
    84ea:	89 04 24             	mov    %eax,(%esp)
    84ed:	e8 be ed ff ff       	call   72b0 <_ZNK7QString3argERKS_iRK5QChar@plt>
    84f2:	8d 64 24 fc          	lea    -0x4(%esp),%esp
    84f6:	8b 45 d8             	mov    -0x28(%ebp),%eax
    84f9:	f0 ff 08             	lock decl (%eax)
    84fc:	0f 95 c2             	setne  %dl
    84ff:	84 d2                	test   %dl,%dl
    8501:	74 7d                	je     8580 <_ZNK30QDesignerCustomWidgetInterface6domXmlEv+0x160>
    8503:	8b 45 e0             	mov    -0x20(%ebp),%eax
    8506:	f0 ff 08             	lock decl (%eax)
    8509:	0f 95 c2             	setne  %dl
    850c:	84 d2                	test   %dl,%dl
    850e:	74 60                	je     8570 <_ZNK30QDesignerCustomWidgetInterface6domXmlEv+0x150>
    8510:	8b 45 dc             	mov    -0x24(%ebp),%eax
    8513:	f0 ff 08             	lock decl (%eax)
    8516:	0f 95 c2             	setne  %dl
    8519:	84 d2                	test   %dl,%dl
    851b:	74 43                	je     8560 <_ZNK30QDesignerCustomWidgetInterface6domXmlEv+0x140>
    851d:	8b 45 d0             	mov    -0x30(%ebp),%eax
    8520:	f0 ff 08             	lock decl (%eax)
    8523:	0f 95 c2             	setne  %dl
    8526:	84 d2                	test   %dl,%dl
    8528:	74 26                	je     8550 <_ZNK30QDesignerCustomWidgetInterface6domXmlEv+0x130>
    852a:	8b 45 d4             	mov    -0x2c(%ebp),%eax
    852d:	f0 ff 08             	lock decl (%eax)
    8530:	0f 95 c2             	setne  %dl
    8533:	84 d2                	test   %dl,%dl
    8535:	75 0b                	jne    8542 <_ZNK30QDesignerCustomWidgetInterface6domXmlEv+0x122>
    8537:	8b 45 d4             	mov    -0x2c(%ebp),%eax
    853a:	89 04 24             	mov    %eax,(%esp)
    853d:	e8 9e f7 ff ff       	call   7ce0 <_ZN7QString4freeEPNS_4DataE@plt>
    8542:	8b 45 08             	mov    0x8(%ebp),%eax
    8545:	8d 65 f4             	lea    -0xc(%ebp),%esp
    8548:	5b                   	pop    %ebx
    8549:	5e                   	pop    %esi
    854a:	5f                   	pop    %edi
    854b:	5d                   	pop    %ebp
    854c:	c2 04 00             	ret    $0x4
    854f:	90                   	nop
    8550:	8b 45 d0             	mov    -0x30(%ebp),%eax
    8553:	89 04 24             	mov    %eax,(%esp)
    8556:	e8 85 f7 ff ff       	call   7ce0 <_ZN7QString4freeEPNS_4DataE@plt>
    855b:	eb cd                	jmp    852a <_ZNK30QDesignerCustomWidgetInterface6domXmlEv+0x10a>
    855d:	8d 76 00             	lea    0x0(%esi),%esi
    8560:	8b 45 dc             	mov    -0x24(%ebp),%eax
    8563:	89 04 24             	mov    %eax,(%esp)
    8566:	e8 75 f7 ff ff       	call   7ce0 <_ZN7QString4freeEPNS_4DataE@plt>
    856b:	eb b0                	jmp    851d <_ZNK30QDesignerCustomWidgetInterface6domXmlEv+0xfd>
    856d:	8d 76 00             	lea    0x0(%esi),%esi
    8570:	8b 45 e0             	mov    -0x20(%ebp),%eax
    8573:	89 04 24             	mov    %eax,(%esp)
    8576:	e8 65 f7 ff ff       	call   7ce0 <_ZN7QString4freeEPNS_4DataE@plt>
    857b:	eb 93                	jmp    8510 <_ZNK30QDesignerCustomWidgetInterface6domXmlEv+0xf0>
    857d:	8d 76 00             	lea    0x0(%esi),%esi
    8580:	8b 45 d8             	mov    -0x28(%ebp),%eax
    8583:	89 04 24             	mov    %eax,(%esp)
    8586:	e8 55 f7 ff ff       	call   7ce0 <_ZN7QString4freeEPNS_4DataE@plt>
    858b:	e9 73 ff ff ff       	jmp    8503 <_ZNK30QDesignerCustomWidgetInterface6domXmlEv+0xe3>
    8590:	89 c6                	mov    %eax,%esi
    8592:	8b 55 d8             	mov    -0x28(%ebp),%edx
    8595:	f0 ff 0a             	lock decl (%edx)
    8598:	0f 95 c0             	setne  %al
    859b:	84 c0                	test   %al,%al
    859d:	75 0b                	jne    85aa <_ZNK30QDesignerCustomWidgetInterface6domXmlEv+0x18a>
    859f:	8b 45 d8             	mov    -0x28(%ebp),%eax
    85a2:	89 04 24             	mov    %eax,(%esp)
    85a5:	e8 36 f7 ff ff       	call   7ce0 <_ZN7QString4freeEPNS_4DataE@plt>
    85aa:	8b 45 e0             	mov    -0x20(%ebp),%eax
    85ad:	f0 ff 08             	lock decl (%eax)
    85b0:	0f 95 c2             	setne  %dl
    85b3:	84 d2                	test   %dl,%dl
    85b5:	75 0b                	jne    85c2 <_ZNK30QDesignerCustomWidgetInterface6domXmlEv+0x1a2>
    85b7:	8b 45 e0             	mov    -0x20(%ebp),%eax
    85ba:	89 04 24             	mov    %eax,(%esp)
    85bd:	e8 1e f7 ff ff       	call   7ce0 <_ZN7QString4freeEPNS_4DataE@plt>
    85c2:	8b 45 dc             	mov    -0x24(%ebp),%eax
    85c5:	f0 ff 08             	lock decl (%eax)
    85c8:	0f 95 c2             	setne  %dl
    85cb:	84 d2                	test   %dl,%dl
    85cd:	75 0b                	jne    85da <_ZNK30QDesignerCustomWidgetInterface6domXmlEv+0x1ba>
    85cf:	8b 45 dc             	mov    -0x24(%ebp),%eax
    85d2:	89 04 24             	mov    %eax,(%esp)
    85d5:	e8 06 f7 ff ff       	call   7ce0 <_ZN7QString4freeEPNS_4DataE@plt>
    85da:	8b 45 d0             	mov    -0x30(%ebp),%eax
    85dd:	f0 ff 08             	lock decl (%eax)
    85e0:	0f 95 c2             	setne  %dl
    85e3:	84 d2                	test   %dl,%dl
    85e5:	75 0b                	jne    85f2 <_ZNK30QDesignerCustomWidgetInterface6domXmlEv+0x1d2>
    85e7:	8b 45 d0             	mov    -0x30(%ebp),%eax
    85ea:	89 04 24             	mov    %eax,(%esp)
    85ed:	e8 ee f6 ff ff       	call   7ce0 <_ZN7QString4freeEPNS_4DataE@plt>
    85f2:	8b 45 d4             	mov    -0x2c(%ebp),%eax
    85f5:	f0 ff 08             	lock decl (%eax)
    85f8:	0f 95 c2             	setne  %dl
    85fb:	84 d2                	test   %dl,%dl
    85fd:	75 0b                	jne    860a <_ZNK30QDesignerCustomWidgetInterface6domXmlEv+0x1ea>
    85ff:	8b 45 d4             	mov    -0x2c(%ebp),%eax
    8602:	89 04 24             	mov    %eax,(%esp)
    8605:	e8 d6 f6 ff ff       	call   7ce0 <_ZN7QString4freeEPNS_4DataE@plt>
    860a:	89 34 24             	mov    %esi,(%esp)
    860d:	e8 6e f5 ff ff       	call   7b80 <_Unwind_Resume@plt>
    8612:	89 c6                	mov    %eax,%esi
    8614:	eb 94                	jmp    85aa <_ZNK30QDesignerCustomWidgetInterface6domXmlEv+0x18a>
    8616:	89 c6                	mov    %eax,%esi
    8618:	eb a8                	jmp    85c2 <_ZNK30QDesignerCustomWidgetInterface6domXmlEv+0x1a2>
    861a:	89 c6                	mov    %eax,%esi
    861c:	8d 74 26 00          	lea    0x0(%esi,%eiz,1),%esi
    8620:	eb b8                	jmp    85da <_ZNK30QDesignerCustomWidgetInterface6domXmlEv+0x1ba>
    8622:	89 c6                	mov    %eax,%esi
    8624:	eb cc                	jmp    85f2 <_ZNK30QDesignerCustomWidgetInterface6domXmlEv+0x1d2>

00008626 <__i686.get_pc_thunk.cx>:
    8626:	8b 0c 24             	mov    (%esp),%ecx
    8629:	c3                   	ret    
    862a:	90                   	nop
    862b:	90                   	nop
    862c:	90                   	nop
    862d:	90                   	nop
    862e:	90                   	nop
    862f:	90                   	nop

00008630 <_ZN8GLWidget17mouseReleaseEventEP11QMouseEvent>:
    8630:	55                   	push   %ebp
    8631:	89 e5                	mov    %esp,%ebp
    8633:	8b 45 08             	mov    0x8(%ebp),%eax
    8636:	c7 80 08 11 00 00 00 	movl   $0x0,0x1108(%eax)
    863d:	00 00 00 
    8640:	5d                   	pop    %ebp
    8641:	c3                   	ret    
    8642:	8d b4 26 00 00 00 00 	lea    0x0(%esi,%eiz,1),%esi
    8649:	8d bc 27 00 00 00 00 	lea    0x0(%edi,%eiz,1),%edi

00008650 <_ZN8GLWidget11setBBRenderEb>:
    8650:	55                   	push   %ebp
    8651:	89 e5                	mov    %esp,%ebp
    8653:	53                   	push   %ebx
    8654:	e8 e0 f7 ff ff       	call   7e39 <__i686.get_pc_thunk.bx>
    8659:	81 c3 4b 0e 01 00    	add    $0x10e4b,%ebx
    865f:	8d 64 24 ec          	lea    -0x14(%esp),%esp
    8663:	8b 45 08             	mov    0x8(%ebp),%eax
    8666:	8b 93 d0 ff ff ff    	mov    -0x30(%ebx),%edx
    866c:	8b 4d 0c             	mov    0xc(%ebp),%ecx
    866f:	88 0a                	mov    %cl,(%edx)
    8671:	8b 10                	mov    (%eax),%edx
    8673:	89 04 24             	mov    %eax,(%esp)
    8676:	ff 92 d8 00 00 00    	call   *0xd8(%edx)
    867c:	8d 64 24 14          	lea    0x14(%esp),%esp
    8680:	5b                   	pop    %ebx
    8681:	5d                   	pop    %ebp
    8682:	c3                   	ret    
    8683:	8d b6 00 00 00 00    	lea    0x0(%esi),%esi
    8689:	8d bc 27 00 00 00 00 	lea    0x0(%edi,%eiz,1),%edi

00008690 <_GLOBAL__I_glwidget.cpp>:
    8690:	55                   	push   %ebp
    8691:	89 e5                	mov    %esp,%ebp
    8693:	8d 64 24 e8          	lea    -0x18(%esp),%esp
    8697:	89 5d f8             	mov    %ebx,-0x8(%ebp)
    869a:	89 75 fc             	mov    %esi,-0x4(%ebp)
    869d:	e8 97 f7 ff ff       	call   7e39 <__i686.get_pc_thunk.bx>
    86a2:	81 c3 02 0e 01 00    	add    $0x10e02,%ebx
    86a8:	8d b3 24 04 00 00    	lea    0x424(%ebx),%esi
    86ae:	89 34 24             	mov    %esi,(%esp)
    86b1:	e8 fa f2 ff ff       	call   79b0 <_ZNSt8ios_base4InitC1Ev@plt>
    86b6:	8b 83 b0 ff ff ff    	mov    -0x50(%ebx),%eax
    86bc:	89 74 24 04          	mov    %esi,0x4(%esp)
    86c0:	89 44 24 08          	mov    %eax,0x8(%esp)
    86c4:	8b 83 fc ff ff ff    	mov    -0x4(%ebx),%eax
    86ca:	89 04 24             	mov    %eax,(%esp)
    86cd:	e8 1e ec ff ff       	call   72f0 <__cxa_atexit@plt>
    86d2:	8b 5d f8             	mov    -0x8(%ebp),%ebx
    86d5:	8b 75 fc             	mov    -0x4(%ebp),%esi
    86d8:	89 ec                	mov    %ebp,%esp
    86da:	5d                   	pop    %ebp
    86db:	c3                   	ret    
    86dc:	8d 74 26 00          	lea    0x0(%esi,%eiz,1),%esi

000086e0 <_ZN8GLWidget14UnprojectPointEii>:
    86e0:	55                   	push   %ebp
    86e1:	89 e5                	mov    %esp,%ebp
    86e3:	57                   	push   %edi
    86e4:	56                   	push   %esi
    86e5:	8d bd 78 fe ff ff    	lea    -0x188(%ebp),%edi
    86eb:	8d b5 f8 fe ff ff    	lea    -0x108(%ebp),%esi
    86f1:	53                   	push   %ebx
    86f2:	e8 42 f7 ff ff       	call   7e39 <__i686.get_pc_thunk.bx>
    86f7:	81 c3 ad 0d 01 00    	add    $0x10dad,%ebx
    86fd:	8d a4 24 24 fe ff ff 	lea    -0x1dc(%esp),%esp
    8704:	8b 55 0c             	mov    0xc(%ebp),%edx
    8707:	89 95 68 fe ff ff    	mov    %edx,-0x198(%ebp)
    870d:	8b 82 00 11 00 00    	mov    0x1100(%edx),%eax
    8713:	2b 45 14             	sub    0x14(%ebp),%eax
    8716:	89 85 6c fe ff ff    	mov    %eax,-0x194(%ebp)
    871c:	89 74 24 04          	mov    %esi,0x4(%esp)
    8720:	c7 04 24 a6 0b 00 00 	movl   $0xba6,(%esp)
    8727:	e8 a4 ee ff ff       	call   75d0 <glGetDoublev@plt>
    872c:	89 7c 24 04          	mov    %edi,0x4(%esp)
    8730:	c7 04 24 a7 0b 00 00 	movl   $0xba7,(%esp)
    8737:	e8 94 ee ff ff       	call   75d0 <glGetDoublev@plt>
    873c:	8b 95 68 fe ff ff    	mov    -0x198(%ebp),%edx
    8742:	c7 45 a8 00 00 00 00 	movl   $0x0,-0x58(%ebp)
    8749:	c7 45 ac 00 00 00 00 	movl   $0x0,-0x54(%ebp)
    8750:	8b 85 6c fe ff ff    	mov    -0x194(%ebp),%eax
    8756:	8b 8a 04 11 00 00    	mov    0x1104(%edx),%ecx
    875c:	89 4d b0             	mov    %ecx,-0x50(%ebp)
    875f:	8b 92 00 11 00 00    	mov    0x1100(%edx),%edx
    8765:	89 85 70 fe ff ff    	mov    %eax,-0x190(%ebp)
    876b:	89 55 b4             	mov    %edx,-0x4c(%ebp)
    876e:	db 85 70 fe ff ff    	fildl  -0x190(%ebp)
    8774:	8d 45 90             	lea    -0x70(%ebp),%eax
    8777:	db 45 10             	fildl  0x10(%ebp)
    877a:	8d 55 a0             	lea    -0x60(%ebp),%edx
    877d:	d9 e8                	fld1   
    877f:	89 54 24 2c          	mov    %edx,0x2c(%esp)
    8783:	d9 e0                	fchs   
    8785:	dd 5c 24 10          	fstpl  0x10(%esp)
    8789:	d9 c9                	fxch   %st(1)
    878b:	dd 54 24 08          	fstl   0x8(%esp)
    878f:	d9 c9                	fxch   %st(1)
    8791:	8d 55 98             	lea    -0x68(%ebp),%edx
    8794:	dd 14 24             	fstl   (%esp)
    8797:	89 54 24 28          	mov    %edx,0x28(%esp)
    879b:	dd 9d 58 fe ff ff    	fstpl  -0x1a8(%ebp)
    87a1:	8d 55 a8             	lea    -0x58(%ebp),%edx
    87a4:	dd 9d 48 fe ff ff    	fstpl  -0x1b8(%ebp)
    87aa:	89 54 24 20          	mov    %edx,0x20(%esp)
    87ae:	89 7c 24 1c          	mov    %edi,0x1c(%esp)
    87b2:	89 74 24 18          	mov    %esi,0x18(%esp)
    87b6:	89 95 68 fe ff ff    	mov    %edx,-0x198(%ebp)
    87bc:	89 44 24 24          	mov    %eax,0x24(%esp)
    87c0:	e8 cb f4 ff ff       	call   7c90 <gluUnProject@plt>
    87c5:	d9 e8                	fld1   
    87c7:	8b 95 68 fe ff ff    	mov    -0x198(%ebp),%edx
    87cd:	dd 5c 24 10          	fstpl  0x10(%esp)
    87d1:	89 54 24 20          	mov    %edx,0x20(%esp)
    87d5:	dd 85 48 fe ff ff    	fldl   -0x1b8(%ebp)
    87db:	8d 85 78 ff ff ff    	lea    -0x88(%ebp),%eax
    87e1:	dd 5c 24 08          	fstpl  0x8(%esp)
    87e5:	8d 4d 88             	lea    -0x78(%ebp),%ecx
    87e8:	dd 85 58 fe ff ff    	fldl   -0x1a8(%ebp)
    87ee:	89 4c 24 2c          	mov    %ecx,0x2c(%esp)
    87f2:	89 7c 24 1c          	mov    %edi,0x1c(%esp)
    87f6:	8d 4d 80             	lea    -0x80(%ebp),%ecx
    87f9:	89 74 24 18          	mov    %esi,0x18(%esp)
    87fd:	89 4c 24 28          	mov    %ecx,0x28(%esp)
    8801:	dd 1c 24             	fstpl  (%esp)
    8804:	89 44 24 24          	mov    %eax,0x24(%esp)
    8808:	e8 83 f4 ff ff       	call   7c90 <gluUnProject@plt>
    880d:	dd 45 a0             	fldl   -0x60(%ebp)
    8810:	8d 75 dc             	lea    -0x24(%ebp),%esi
    8813:	d9 5c 24 0c          	fstps  0xc(%esp)
    8817:	89 34 24             	mov    %esi,(%esp)
    881a:	dd 45 98             	fldl   -0x68(%ebp)
    881d:	8d 7d d0             	lea    -0x30(%ebp),%edi
    8820:	d9 5c 24 08          	fstps  0x8(%esp)
    8824:	dd 45 90             	fldl   -0x70(%ebp)
    8827:	d9 5c 24 04          	fstps  0x4(%esp)
    882b:	e8 e0 ee ff ff       	call   7710 <_ZN6VectorC1Efff@plt>
    8830:	dd 45 88             	fldl   -0x78(%ebp)
    8833:	89 3c 24             	mov    %edi,(%esp)
    8836:	d9 5c 24 0c          	fstps  0xc(%esp)
    883a:	dd 45 80             	fldl   -0x80(%ebp)
    883d:	d9 5c 24 08          	fstps  0x8(%esp)
    8841:	dd 85 78 ff ff ff    	fldl   -0x88(%ebp)
    8847:	d9 5c 24 04          	fstps  0x4(%esp)
    884b:	e8 c0 ee ff ff       	call   7710 <_ZN6VectorC1Efff@plt>
    8850:	8d 45 c4             	lea    -0x3c(%ebp),%eax
    8853:	89 74 24 08          	mov    %esi,0x8(%esp)
    8857:	89 85 6c fe ff ff    	mov    %eax,-0x194(%ebp)
    885d:	89 7c 24 04          	mov    %edi,0x4(%esp)
    8861:	89 04 24             	mov    %eax,(%esp)
    8864:	8d 7d b8             	lea    -0x48(%ebp),%edi
    8867:	e8 d4 e6 ff ff       	call   6f40 <_ZmiRK6VectorS1_@plt>
    886c:	83 ec 04             	sub    $0x4,%esp
    886f:	8b 85 6c fe ff ff    	mov    -0x194(%ebp),%eax
    8875:	d9 45 e0             	flds   -0x20(%ebp)
    8878:	d9 e0                	fchs   
    887a:	d8 75 c8             	fdivs  -0x38(%ebp)
    887d:	89 44 24 04          	mov    %eax,0x4(%esp)
    8881:	d9 5c 24 08          	fstps  0x8(%esp)
    8885:	89 3c 24             	mov    %edi,(%esp)
    8888:	e8 63 ee ff ff       	call   76f0 <_ZmlRK6Vectorf@plt>
    888d:	8d 64 24 fc          	lea    -0x4(%esp),%esp
    8891:	8b 45 08             	mov    0x8(%ebp),%eax
    8894:	89 7c 24 08          	mov    %edi,0x8(%esp)
    8898:	89 74 24 04          	mov    %esi,0x4(%esp)
    889c:	89 04 24             	mov    %eax,(%esp)
    889f:	e8 4c f0 ff ff       	call   78f0 <_ZplRK6VectorS1_@plt>
    88a4:	83 ec 04             	sub    $0x4,%esp
    88a7:	8b 45 08             	mov    0x8(%ebp),%eax
    88aa:	8d 65 f4             	lea    -0xc(%ebp),%esp
    88ad:	5b                   	pop    %ebx
    88ae:	5e                   	pop    %esi
    88af:	5f                   	pop    %edi
    88b0:	5d                   	pop    %ebp
    88b1:	c2 04 00             	ret    $0x4
    88b4:	8d b6 00 00 00 00    	lea    0x0(%esi),%esi
    88ba:	8d bf 00 00 00 00    	lea    0x0(%edi),%edi

000088c0 <_ZN8GLWidget8Toogle3DEb>:
    88c0:	55                   	push   %ebp
    88c1:	89 e5                	mov    %esp,%ebp
    88c3:	8d 64 24 e8          	lea    -0x18(%esp),%esp
    88c7:	89 5d f8             	mov    %ebx,-0x8(%ebp)
    88ca:	89 75 fc             	mov    %esi,-0x4(%ebp)
    88cd:	e8 67 f5 ff ff       	call   7e39 <__i686.get_pc_thunk.bx>
    88d2:	81 c3 d2 0b 01 00    	add    $0x10bd2,%ebx
    88d8:	8b 75 08             	mov    0x8(%ebp),%esi
    88db:	0f b6 45 0c          	movzbl 0xc(%ebp),%eax
    88df:	89 44 24 04          	mov    %eax,0x4(%esp)
    88e3:	8d 46 60             	lea    0x60(%esi),%eax
    88e6:	89 04 24             	mov    %eax,(%esp)
    88e9:	e8 f2 ec ff ff       	call   75e0 <_ZN5Scene8Toogle3DEb@plt>
    88ee:	8b 06                	mov    (%esi),%eax
    88f0:	89 34 24             	mov    %esi,(%esp)
    88f3:	ff 90 d8 00 00 00    	call   *0xd8(%eax)
    88f9:	8b 5d f8             	mov    -0x8(%ebp),%ebx
    88fc:	8b 75 fc             	mov    -0x4(%ebp),%esi
    88ff:	89 ec                	mov    %ebp,%esp
    8901:	5d                   	pop    %ebp
    8902:	c3                   	ret    
    8903:	90                   	nop
    8904:	8d b6 00 00 00 00    	lea    0x0(%esi),%esi
    890a:	8d bf 00 00 00 00    	lea    0x0(%edi),%edi

00008910 <_ZN8GLWidget9OrthoViewEb>:
    8910:	55                   	push   %ebp
    8911:	89 e5                	mov    %esp,%ebp
    8913:	8d 64 24 e8          	lea    -0x18(%esp),%esp
    8917:	89 5d f8             	mov    %ebx,-0x8(%ebp)
    891a:	89 75 fc             	mov    %esi,-0x4(%ebp)
    891d:	e8 17 f5 ff ff       	call   7e39 <__i686.get_pc_thunk.bx>
    8922:	81 c3 82 0b 01 00    	add    $0x10b82,%ebx
    8928:	8b 75 08             	mov    0x8(%ebp),%esi
    892b:	0f b6 45 0c          	movzbl 0xc(%ebp),%eax
    892f:	89 44 24 04          	mov    %eax,0x4(%esp)
    8933:	8d 46 60             	lea    0x60(%esi),%eax
    8936:	89 04 24             	mov    %eax,(%esp)
    8939:	e8 12 e8 ff ff       	call   7150 <_ZN5Scene9OrthoViewEb@plt>
    893e:	8b 06                	mov    (%esi),%eax
    8940:	89 34 24             	mov    %esi,(%esp)
    8943:	ff 90 d8 00 00 00    	call   *0xd8(%eax)
    8949:	8b 5d f8             	mov    -0x8(%ebp),%ebx
    894c:	8b 75 fc             	mov    -0x4(%ebp),%esi
    894f:	89 ec                	mov    %ebp,%esp
    8951:	5d                   	pop    %ebp
    8952:	c3                   	ret    
    8953:	90                   	nop
    8954:	8d b6 00 00 00 00    	lea    0x0(%esi),%esi
    895a:	8d bf 00 00 00 00    	lea    0x0(%edi),%edi

00008960 <_ZN8GLWidget11ResetCameraEv>:
    8960:	55                   	push   %ebp
    8961:	89 e5                	mov    %esp,%ebp
    8963:	8d 64 24 e8          	lea    -0x18(%esp),%esp
    8967:	89 5d f8             	mov    %ebx,-0x8(%ebp)
    896a:	89 75 fc             	mov    %esi,-0x4(%ebp)
    896d:	e8 c7 f4 ff ff       	call   7e39 <__i686.get_pc_thunk.bx>
    8972:	81 c3 32 0b 01 00    	add    $0x10b32,%ebx
    8978:	8b 75 08             	mov    0x8(%ebp),%esi
    897b:	8d 46 60             	lea    0x60(%esi),%eax
    897e:	89 04 24             	mov    %eax,(%esp)
    8981:	e8 da f0 ff ff       	call   7a60 <_ZN5Scene11ResetCameraEv@plt>
    8986:	8b 06                	mov    (%esi),%eax
    8988:	89 34 24             	mov    %esi,(%esp)
    898b:	ff 90 d8 00 00 00    	call   *0xd8(%eax)
    8991:	8b 5d f8             	mov    -0x8(%ebp),%ebx
    8994:	8b 75 fc             	mov    -0x4(%ebp),%esi
    8997:	89 ec                	mov    %ebp,%esp
    8999:	5d                   	pop    %ebp
    899a:	c3                   	ret    
    899b:	90                   	nop
    899c:	8d 74 26 00          	lea    0x0(%esi,%eiz,1),%esi

000089a0 <_ZN8GLWidget8AutoZoomEv>:
    89a0:	55                   	push   %ebp
    89a1:	89 e5                	mov    %esp,%ebp
    89a3:	8d 64 24 e8          	lea    -0x18(%esp),%esp
    89a7:	89 5d f8             	mov    %ebx,-0x8(%ebp)
    89aa:	89 75 fc             	mov    %esi,-0x4(%ebp)
    89ad:	e8 87 f4 ff ff       	call   7e39 <__i686.get_pc_thunk.bx>
    89b2:	81 c3 f2 0a 01 00    	add    $0x10af2,%ebx
    89b8:	8b 75 08             	mov    0x8(%ebp),%esi
    89bb:	8d 46 60             	lea    0x60(%esi),%eax
    89be:	89 04 24             	mov    %eax,(%esp)
    89c1:	e8 9a e7 ff ff       	call   7160 <_ZN5Scene8AutoZoomEv@plt>
    89c6:	8b 06                	mov    (%esi),%eax
    89c8:	89 34 24             	mov    %esi,(%esp)
    89cb:	ff 90 d8 00 00 00    	call   *0xd8(%eax)
    89d1:	8b 5d f8             	mov    -0x8(%ebp),%ebx
    89d4:	8b 75 fc             	mov    -0x4(%ebp),%esi
    89d7:	89 ec                	mov    %ebp,%esp
    89d9:	5d                   	pop    %ebp
    89da:	c3                   	ret    
    89db:	90                   	nop
    89dc:	8d 74 26 00          	lea    0x0(%esi,%eiz,1),%esi

000089e0 <_ZN8GLWidget12setWireframeEb>:
    89e0:	55                   	push   %ebp
    89e1:	89 e5                	mov    %esp,%ebp
    89e3:	8d 64 24 e8          	lea    -0x18(%esp),%esp
    89e7:	89 5d f8             	mov    %ebx,-0x8(%ebp)
    89ea:	89 75 fc             	mov    %esi,-0x4(%ebp)
    89ed:	e8 47 f4 ff ff       	call   7e39 <__i686.get_pc_thunk.bx>
    89f2:	81 c3 b2 0a 01 00    	add    $0x10ab2,%ebx
    89f8:	8b 75 08             	mov    0x8(%ebp),%esi
    89fb:	0f b6 45 0c          	movzbl 0xc(%ebp),%eax
    89ff:	89 44 24 04          	mov    %eax,0x4(%esp)
    8a03:	8d 46 60             	lea    0x60(%esi),%eax
    8a06:	89 04 24             	mov    %eax,(%esp)
    8a09:	e8 a2 ed ff ff       	call   77b0 <_ZN5Scene12setWireframeEb@plt>
    8a0e:	8b 06                	mov    (%esi),%eax
    8a10:	89 34 24             	mov    %esi,(%esp)
    8a13:	ff 90 d8 00 00 00    	call   *0xd8(%eax)
    8a19:	8b 5d f8             	mov    -0x8(%ebp),%ebx
    8a1c:	8b 75 fc             	mov    -0x4(%ebp),%esi
    8a1f:	89 ec                	mov    %ebp,%esp
    8a21:	5d                   	pop    %ebp
    8a22:	c3                   	ret    
    8a23:	90                   	nop
    8a24:	8d b6 00 00 00 00    	lea    0x0(%esi),%esi
    8a2a:	8d bf 00 00 00 00    	lea    0x0(%edi),%edi

00008a30 <_ZN8GLWidget10wheelEventEP11QWheelEvent>:
    8a30:	55                   	push   %ebp
    8a31:	89 e5                	mov    %esp,%ebp
    8a33:	8d 64 24 e8          	lea    -0x18(%esp),%esp
    8a37:	89 5d f8             	mov    %ebx,-0x8(%ebp)
    8a3a:	89 75 fc             	mov    %esi,-0x4(%ebp)
    8a3d:	e8 f7 f3 ff ff       	call   7e39 <__i686.get_pc_thunk.bx>
    8a42:	81 c3 62 0a 01 00    	add    $0x10a62,%ebx
    8a48:	8b 75 08             	mov    0x8(%ebp),%esi
    8a4b:	8b 45 0c             	mov    0xc(%ebp),%eax
    8a4e:	db 40 20             	fildl  0x20(%eax)
    8a51:	8d 46 60             	lea    0x60(%esi),%eax
    8a54:	d8 8b a0 bf ff ff    	fmuls  -0x4060(%ebx)
    8a5a:	89 04 24             	mov    %eax,(%esp)
    8a5d:	d9 5c 24 04          	fstps  0x4(%esp)
    8a61:	e8 7a f0 ff ff       	call   7ae0 <_ZN5Scene10UpdateZoomEf@plt>
    8a66:	8b 06                	mov    (%esi),%eax
    8a68:	89 34 24             	mov    %esi,(%esp)
    8a6b:	ff 90 d8 00 00 00    	call   *0xd8(%eax)
    8a71:	8b 5d f8             	mov    -0x8(%ebp),%ebx
    8a74:	8b 75 fc             	mov    -0x4(%ebp),%esi
    8a77:	89 ec                	mov    %ebp,%esp
    8a79:	5d                   	pop    %ebp
    8a7a:	c3                   	ret    
    8a7b:	90                   	nop
    8a7c:	8d 74 26 00          	lea    0x0(%esi,%eiz,1),%esi

00008a80 <_ZN8GLWidget14mouseMoveEventEP11QMouseEvent>:
    8a80:	55                   	push   %ebp
    8a81:	89 e5                	mov    %esp,%ebp
    8a83:	8d 64 24 b8          	lea    -0x48(%esp),%esp
    8a87:	89 75 f8             	mov    %esi,-0x8(%ebp)
    8a8a:	8b 75 08             	mov    0x8(%ebp),%esi
    8a8d:	89 5d f4             	mov    %ebx,-0xc(%ebp)
    8a90:	89 7d fc             	mov    %edi,-0x4(%ebp)
    8a93:	e8 a1 f3 ff ff       	call   7e39 <__i686.get_pc_thunk.bx>
    8a98:	81 c3 0c 0a 01 00    	add    $0x10a0c,%ebx
    8a9e:	8b 86 08 11 00 00    	mov    0x1108(%esi),%eax
    8aa4:	8b 7d 0c             	mov    0xc(%ebp),%edi
    8aa7:	83 f8 01             	cmp    $0x1,%eax
    8aaa:	0f 84 88 00 00 00    	je     8b38 <_ZN8GLWidget14mouseMoveEventEP11QMouseEvent+0xb8>
    8ab0:	83 f8 02             	cmp    $0x2,%eax
    8ab3:	0f 84 0f 01 00 00    	je     8bc8 <_ZN8GLWidget14mouseMoveEventEP11QMouseEvent+0x148>
    8ab9:	83 f8 03             	cmp    $0x3,%eax
    8abc:	0f 84 3e 01 00 00    	je     8c00 <_ZN8GLWidget14mouseMoveEventEP11QMouseEvent+0x180>
    8ac2:	80 be 14 11 00 00 00 	cmpb   $0x0,0x1114(%esi)
    8ac9:	74 4c                	je     8b17 <_ZN8GLWidget14mouseMoveEventEP11QMouseEvent+0x97>
    8acb:	8b 57 14             	mov    0x14(%edi),%edx
    8ace:	8d 45 dc             	lea    -0x24(%ebp),%eax
    8ad1:	89 54 24 0c          	mov    %edx,0xc(%esp)
    8ad5:	8b 57 10             	mov    0x10(%edi),%edx
    8ad8:	89 54 24 08          	mov    %edx,0x8(%esp)
    8adc:	89 04 24             	mov    %eax,(%esp)
    8adf:	89 74 24 04          	mov    %esi,0x4(%esp)
    8ae3:	e8 98 e4 ff ff       	call   6f80 <_ZN8GLWidget14UnprojectPointEii@plt>
    8ae8:	8d 64 24 fc          	lea    -0x4(%esp),%esp
    8aec:	8b 45 dc             	mov    -0x24(%ebp),%eax
    8aef:	89 44 24 04          	mov    %eax,0x4(%esp)
    8af3:	8b 45 e0             	mov    -0x20(%ebp),%eax
    8af6:	89 44 24 08          	mov    %eax,0x8(%esp)
    8afa:	8b 45 e4             	mov    -0x1c(%ebp),%eax
    8afd:	89 44 24 0c          	mov    %eax,0xc(%esp)
    8b01:	8d 46 60             	lea    0x60(%esi),%eax
    8b04:	89 04 24             	mov    %eax,(%esp)
    8b07:	e8 74 f1 ff ff       	call   7c80 <_ZN5Scene21SetLastObjectPositionE6Vector@plt>
    8b0c:	8b 06                	mov    (%esi),%eax
    8b0e:	89 34 24             	mov    %esi,(%esp)
    8b11:	ff 90 d8 00 00 00    	call   *0xd8(%eax)
    8b17:	8b 47 10             	mov    0x10(%edi),%eax
    8b1a:	89 86 0c 11 00 00    	mov    %eax,0x110c(%esi)
    8b20:	8b 47 14             	mov    0x14(%edi),%eax
    8b23:	89 86 10 11 00 00    	mov    %eax,0x1110(%esi)
    8b29:	8b 5d f4             	mov    -0xc(%ebp),%ebx
    8b2c:	8b 75 f8             	mov    -0x8(%ebp),%esi
    8b2f:	8b 7d fc             	mov    -0x4(%ebp),%edi
    8b32:	89 ec                	mov    %ebp,%esp
    8b34:	5d                   	pop    %ebp
    8b35:	c3                   	ret    
    8b36:	66 90                	xchg   %ax,%ax
    8b38:	8b 47 14             	mov    0x14(%edi),%eax
    8b3b:	2b 86 10 11 00 00    	sub    0x1110(%esi),%eax
    8b41:	89 45 d4             	mov    %eax,-0x2c(%ebp)
    8b44:	8d 56 60             	lea    0x60(%esi),%edx
    8b47:	db 45 d4             	fildl  -0x2c(%ebp)
    8b4a:	d8 8b a4 bf ff ff    	fmuls  -0x405c(%ebx)
    8b50:	db 86 00 11 00 00    	fildl  0x1100(%esi)
    8b56:	de f9                	fdivrp %st,%st(1)
    8b58:	d9 7d d2             	fnstcw -0x2e(%ebp)
    8b5b:	0f b7 45 d2          	movzwl -0x2e(%ebp),%eax
    8b5f:	89 55 c8             	mov    %edx,-0x38(%ebp)
    8b62:	b4 0c                	mov    $0xc,%ah
    8b64:	66 89 45 d0          	mov    %ax,-0x30(%ebp)
    8b68:	d9 6d d0             	fldcw  -0x30(%ebp)
    8b6b:	db 5d d4             	fistpl -0x2c(%ebp)
    8b6e:	d9 6d d2             	fldcw  -0x2e(%ebp)
    8b71:	8b 47 10             	mov    0x10(%edi),%eax
    8b74:	2b 86 0c 11 00 00    	sub    0x110c(%esi),%eax
    8b7a:	8b 4d d4             	mov    -0x2c(%ebp),%ecx
    8b7d:	89 45 d4             	mov    %eax,-0x2c(%ebp)
    8b80:	db 45 d4             	fildl  -0x2c(%ebp)
    8b83:	89 4d cc             	mov    %ecx,-0x34(%ebp)
    8b86:	d8 8b a8 bf ff ff    	fmuls  -0x4058(%ebx)
    8b8c:	db 86 04 11 00 00    	fildl  0x1104(%esi)
    8b92:	89 14 24             	mov    %edx,(%esp)
    8b95:	de f9                	fdivrp %st,%st(1)
    8b97:	d9 6d d0             	fldcw  -0x30(%ebp)
    8b9a:	db 5c 24 04          	fistpl 0x4(%esp)
    8b9e:	d9 6d d2             	fldcw  -0x2e(%ebp)
    8ba1:	e8 9a e9 ff ff       	call   7540 <_ZN5Scene12UpdateHAngleEi@plt>
    8ba6:	8b 4d cc             	mov    -0x34(%ebp),%ecx
    8ba9:	8b 55 c8             	mov    -0x38(%ebp),%edx
    8bac:	89 4c 24 04          	mov    %ecx,0x4(%esp)
    8bb0:	89 14 24             	mov    %edx,(%esp)
    8bb3:	e8 28 e5 ff ff       	call   70e0 <_ZN5Scene12UpdateVAngleEi@plt>
    8bb8:	8b 06                	mov    (%esi),%eax
    8bba:	89 34 24             	mov    %esi,(%esp)
    8bbd:	ff 90 d8 00 00 00    	call   *0xd8(%eax)
    8bc3:	e9 fa fe ff ff       	jmp    8ac2 <_ZN8GLWidget14mouseMoveEventEP11QMouseEvent+0x42>
    8bc8:	8b 47 14             	mov    0x14(%edi),%eax
    8bcb:	2b 86 10 11 00 00    	sub    0x1110(%esi),%eax
    8bd1:	89 45 d4             	mov    %eax,-0x2c(%ebp)
    8bd4:	8d 46 60             	lea    0x60(%esi),%eax
    8bd7:	db 45 d4             	fildl  -0x2c(%ebp)
    8bda:	89 04 24             	mov    %eax,(%esp)
    8bdd:	d8 8b ac bf ff ff    	fmuls  -0x4054(%ebx)
    8be3:	d9 5c 24 04          	fstps  0x4(%esp)
    8be7:	e8 f4 ee ff ff       	call   7ae0 <_ZN5Scene10UpdateZoomEf@plt>
    8bec:	8b 06                	mov    (%esi),%eax
    8bee:	89 34 24             	mov    %esi,(%esp)
    8bf1:	ff 90 d8 00 00 00    	call   *0xd8(%eax)
    8bf7:	e9 c6 fe ff ff       	jmp    8ac2 <_ZN8GLWidget14mouseMoveEventEP11QMouseEvent+0x42>
    8bfc:	8d 74 26 00          	lea    0x0(%esi,%eiz,1),%esi
    8c00:	8b 47 14             	mov    0x14(%edi),%eax
    8c03:	2b 86 10 11 00 00    	sub    0x1110(%esi),%eax
    8c09:	89 45 d4             	mov    %eax,-0x2c(%ebp)
    8c0c:	db 45 d4             	fildl  -0x2c(%ebp)
    8c0f:	d9 5c 24 08          	fstps  0x8(%esp)
    8c13:	8b 47 10             	mov    0x10(%edi),%eax
    8c16:	2b 86 0c 11 00 00    	sub    0x110c(%esi),%eax
    8c1c:	89 45 d4             	mov    %eax,-0x2c(%ebp)
    8c1f:	8d 46 60             	lea    0x60(%esi),%eax
    8c22:	db 45 d4             	fildl  -0x2c(%ebp)
    8c25:	89 04 24             	mov    %eax,(%esp)
    8c28:	d9 5c 24 04          	fstps  0x4(%esp)
    8c2c:	e8 df e7 ff ff       	call   7410 <_ZN5Scene5DoPanEff@plt>
    8c31:	8b 06                	mov    (%esi),%eax
    8c33:	89 34 24             	mov    %esi,(%esp)
    8c36:	ff 90 d8 00 00 00    	call   *0xd8(%eax)
    8c3c:	e9 81 fe ff ff       	jmp    8ac2 <_ZN8GLWidget14mouseMoveEventEP11QMouseEvent+0x42>
    8c41:	90                   	nop
    8c42:	8d b4 26 00 00 00 00 	lea    0x0(%esi,%eiz,1),%esi
    8c49:	8d bc 27 00 00 00 00 	lea    0x0(%edi,%eiz,1),%edi

00008c50 <_ZN8GLWidget13keyPressEventEP9QKeyEvent>:
    8c50:	55                   	push   %ebp
    8c51:	89 e5                	mov    %esp,%ebp
    8c53:	8d 64 24 e8          	lea    -0x18(%esp),%esp
    8c57:	8b 55 0c             	mov    0xc(%ebp),%edx
    8c5a:	89 5d f8             	mov    %ebx,-0x8(%ebp)
    8c5d:	89 75 fc             	mov    %esi,-0x4(%ebp)
    8c60:	8b 75 08             	mov    0x8(%ebp),%esi
    8c63:	e8 d1 f1 ff ff       	call   7e39 <__i686.get_pc_thunk.bx>
    8c68:	81 c3 3c 08 01 00    	add    $0x1083c,%ebx
    8c6e:	8b 42 14             	mov    0x14(%edx),%eax
    8c71:	83 f8 45             	cmp    $0x45,%eax
    8c74:	74 62                	je     8cd8 <_ZN8GLWidget13keyPressEventEP9QKeyEvent+0x88>
    8c76:	7f 18                	jg     8c90 <_ZN8GLWidget13keyPressEventEP9QKeyEvent+0x40>
    8c78:	83 f8 44             	cmp    $0x44,%eax
    8c7b:	74 73                	je     8cf0 <_ZN8GLWidget13keyPressEventEP9QKeyEvent+0xa0>
    8c7d:	80 62 0a fb          	andb   $0xfb,0xa(%edx)
    8c81:	8b 5d f8             	mov    -0x8(%ebp),%ebx
    8c84:	8b 75 fc             	mov    -0x4(%ebp),%esi
    8c87:	89 ec                	mov    %ebp,%esp
    8c89:	5d                   	pop    %ebp
    8c8a:	c3                   	ret    
    8c8b:	90                   	nop
    8c8c:	8d 74 26 00          	lea    0x0(%esi,%eiz,1),%esi
    8c90:	83 f8 46             	cmp    $0x46,%eax
    8c93:	74 33                	je     8cc8 <_ZN8GLWidget13keyPressEventEP9QKeyEvent+0x78>
    8c95:	83 f8 53             	cmp    $0x53,%eax
    8c98:	75 e3                	jne    8c7d <_ZN8GLWidget13keyPressEventEP9QKeyEvent+0x2d>
    8c9a:	c7 44 24 04 00 00 00 	movl   $0x0,0x4(%esp)
    8ca1:	00 
    8ca2:	8d 46 60             	lea    0x60(%esi),%eax
    8ca5:	89 04 24             	mov    %eax,(%esp)
    8ca8:	e8 03 eb ff ff       	call   77b0 <_ZN5Scene12setWireframeEb@plt>
    8cad:	8b 06                	mov    (%esi),%eax
    8caf:	89 34 24             	mov    %esi,(%esp)
    8cb2:	ff 90 d8 00 00 00    	call   *0xd8(%eax)
    8cb8:	8b 5d f8             	mov    -0x8(%ebp),%ebx
    8cbb:	8b 75 fc             	mov    -0x4(%ebp),%esi
    8cbe:	89 ec                	mov    %ebp,%esp
    8cc0:	5d                   	pop    %ebp
    8cc1:	c3                   	ret    
    8cc2:	8d b6 00 00 00 00    	lea    0x0(%esi),%esi
    8cc8:	c7 44 24 04 01 00 00 	movl   $0x1,0x4(%esp)
    8ccf:	00 
    8cd0:	eb d0                	jmp    8ca2 <_ZN8GLWidget13keyPressEventEP9QKeyEvent+0x52>
    8cd2:	8d b6 00 00 00 00    	lea    0x0(%esi),%esi
    8cd8:	80 be 14 11 00 00 00 	cmpb   $0x0,0x1114(%esi)
    8cdf:	74 a0                	je     8c81 <_ZN8GLWidget13keyPressEventEP9QKeyEvent+0x31>
    8ce1:	c7 44 24 04 01 00 00 	movl   $0x1,0x4(%esp)
    8ce8:	00 
    8ce9:	eb 16                	jmp    8d01 <_ZN8GLWidget13keyPressEventEP9QKeyEvent+0xb1>
    8ceb:	90                   	nop
    8cec:	8d 74 26 00          	lea    0x0(%esi,%eiz,1),%esi
    8cf0:	80 be 14 11 00 00 00 	cmpb   $0x0,0x1114(%esi)
    8cf7:	74 88                	je     8c81 <_ZN8GLWidget13keyPressEventEP9QKeyEvent+0x31>
    8cf9:	c7 44 24 04 ff ff ff 	movl   $0xffffffff,0x4(%esp)
    8d00:	ff 
    8d01:	8d 46 60             	lea    0x60(%esi),%eax
    8d04:	89 04 24             	mov    %eax,(%esp)
    8d07:	e8 74 ec ff ff       	call   7980 <_ZN5Scene21SetLastObjectRotationEi@plt>
    8d0c:	8b 06                	mov    (%esi),%eax
    8d0e:	89 34 24             	mov    %esi,(%esp)
    8d11:	ff 90 d8 00 00 00    	call   *0xd8(%eax)
    8d17:	8b 5d f8             	mov    -0x8(%ebp),%ebx
    8d1a:	8b 75 fc             	mov    -0x4(%ebp),%esi
    8d1d:	89 ec                	mov    %ebp,%esp
    8d1f:	5d                   	pop    %ebp
    8d20:	c3                   	ret    
    8d21:	90                   	nop
    8d22:	8d b4 26 00 00 00 00 	lea    0x0(%esi,%eiz,1),%esi
    8d29:	8d bc 27 00 00 00 00 	lea    0x0(%edi,%eiz,1),%edi

00008d30 <_ZN8GLWidget15mousePressEventEP11QMouseEvent>:
    8d30:	55                   	push   %ebp
    8d31:	89 e5                	mov    %esp,%ebp
    8d33:	8d 64 24 d8          	lea    -0x28(%esp),%esp
    8d37:	8b 45 0c             	mov    0xc(%ebp),%eax
    8d3a:	89 75 f8             	mov    %esi,-0x8(%ebp)
    8d3d:	8b 75 08             	mov    0x8(%ebp),%esi
    8d40:	89 5d f4             	mov    %ebx,-0xc(%ebp)
    8d43:	89 7d fc             	mov    %edi,-0x4(%ebp)
    8d46:	e8 ee f0 ff ff       	call   7e39 <__i686.get_pc_thunk.bx>
    8d4b:	81 c3 59 07 01 00    	add    $0x10759,%ebx
    8d51:	8b 48 10             	mov    0x10(%eax),%ecx
    8d54:	80 be 14 11 00 00 00 	cmpb   $0x0,0x1114(%esi)
    8d5b:	89 8e 0c 11 00 00    	mov    %ecx,0x110c(%esi)
    8d61:	8b 78 14             	mov    0x14(%eax),%edi
    8d64:	89 be 10 11 00 00    	mov    %edi,0x1110(%esi)
    8d6a:	75 44                	jne    8db0 <_ZN8GLWidget15mousePressEventEP11QMouseEvent+0x80>
    8d6c:	8b 50 20             	mov    0x20(%eax),%edx
    8d6f:	83 e2 01             	and    $0x1,%edx
    8d72:	74 2f                	je     8da3 <_ZN8GLWidget15mousePressEventEP11QMouseEvent+0x73>
    8d74:	8b 40 0c             	mov    0xc(%eax),%eax
    8d77:	a9 00 00 00 0e       	test   $0xe000000,%eax
    8d7c:	75 4a                	jne    8dc8 <_ZN8GLWidget15mousePressEventEP11QMouseEvent+0x98>
    8d7e:	8b 86 00 11 00 00    	mov    0x1100(%esi),%eax
    8d84:	89 4c 24 04          	mov    %ecx,0x4(%esp)
    8d88:	29 f8                	sub    %edi,%eax
    8d8a:	89 44 24 08          	mov    %eax,0x8(%esp)
    8d8e:	8d 46 60             	lea    0x60(%esi),%eax
    8d91:	89 04 24             	mov    %eax,(%esp)
    8d94:	e8 97 eb ff ff       	call   7930 <_ZN5Scene9DoPickingEii@plt>
    8d99:	c7 86 08 11 00 00 01 	movl   $0x1,0x1108(%esi)
    8da0:	00 00 00 
    8da3:	8b 5d f4             	mov    -0xc(%ebp),%ebx
    8da6:	8b 75 f8             	mov    -0x8(%ebp),%esi
    8da9:	8b 7d fc             	mov    -0x4(%ebp),%edi
    8dac:	89 ec                	mov    %ebp,%esp
    8dae:	5d                   	pop    %ebp
    8daf:	c3                   	ret    
    8db0:	8b 50 20             	mov    0x20(%eax),%edx
    8db3:	f6 c2 02             	test   $0x2,%dl
    8db6:	74 b7                	je     8d6f <_ZN8GLWidget15mousePressEventEP11QMouseEvent+0x3f>
    8db8:	c6 86 14 11 00 00 00 	movb   $0x0,0x1114(%esi)
    8dbf:	eb ae                	jmp    8d6f <_ZN8GLWidget15mousePressEventEP11QMouseEvent+0x3f>
    8dc1:	8d b4 26 00 00 00 00 	lea    0x0(%esi,%eiz,1),%esi
    8dc8:	a9 00 00 00 02       	test   $0x2000000,%eax
    8dcd:	74 19                	je     8de8 <_ZN8GLWidget15mousePressEventEP11QMouseEvent+0xb8>
    8dcf:	c7 86 08 11 00 00 02 	movl   $0x2,0x1108(%esi)
    8dd6:	00 00 00 
    8dd9:	8b 5d f4             	mov    -0xc(%ebp),%ebx
    8ddc:	8b 75 f8             	mov    -0x8(%ebp),%esi
    8ddf:	8b 7d fc             	mov    -0x4(%ebp),%edi
    8de2:	89 ec                	mov    %ebp,%esp
    8de4:	5d                   	pop    %ebp
    8de5:	c3                   	ret    
    8de6:	66 90                	xchg   %ax,%ax
    8de8:	a9 00 00 00 04       	test   $0x4000000,%eax
    8ded:	74 b4                	je     8da3 <_ZN8GLWidget15mousePressEventEP11QMouseEvent+0x73>
    8def:	c7 86 08 11 00 00 03 	movl   $0x3,0x1108(%esi)
    8df6:	00 00 00 
    8df9:	8b 5d f4             	mov    -0xc(%ebp),%ebx
    8dfc:	8b 75 f8             	mov    -0x8(%ebp),%esi
    8dff:	8b 7d fc             	mov    -0x4(%ebp),%edi
    8e02:	89 ec                	mov    %ebp,%esp
    8e04:	5d                   	pop    %ebp
    8e05:	c3                   	ret    
    8e06:	8d 76 00             	lea    0x0(%esi),%esi
    8e09:	8d bc 27 00 00 00 00 	lea    0x0(%edi,%eiz,1),%edi

00008e10 <_ZN8GLWidget7paintGLEv>:
    8e10:	55                   	push   %ebp
    8e11:	89 e5                	mov    %esp,%ebp
    8e13:	53                   	push   %ebx
    8e14:	e8 20 f0 ff ff       	call   7e39 <__i686.get_pc_thunk.bx>
    8e19:	81 c3 8b 06 01 00    	add    $0x1068b,%ebx
    8e1f:	8d 64 24 ec          	lea    -0x14(%esp),%esp
    8e23:	c7 04 24 50 0b 00 00 	movl   $0xb50,(%esp)
    8e2a:	e8 a1 e1 ff ff       	call   6fd0 <glDisable@plt>
    8e2f:	8b 45 08             	mov    0x8(%ebp),%eax
    8e32:	c7 44 24 04 00 00 00 	movl   $0x0,0x4(%esp)
    8e39:	00 
    8e3a:	83 c0 60             	add    $0x60,%eax
    8e3d:	89 04 24             	mov    %eax,(%esp)
    8e40:	e8 2b eb ff ff       	call   7970 <_ZN5Scene6RenderEb@plt>
    8e45:	8d 64 24 14          	lea    0x14(%esp),%esp
    8e49:	5b                   	pop    %ebx
    8e4a:	5d                   	pop    %ebp
    8e4b:	c3                   	ret    
    8e4c:	8d 74 26 00          	lea    0x0(%esi,%eiz,1),%esi

00008e50 <_ZN8GLWidget8resizeGLEii>:
    8e50:	55                   	push   %ebp
    8e51:	89 e5                	mov    %esp,%ebp
    8e53:	8d 64 24 c8          	lea    -0x38(%esp),%esp
    8e57:	89 5d f4             	mov    %ebx,-0xc(%ebp)
    8e5a:	8b 45 08             	mov    0x8(%ebp),%eax
    8e5d:	e8 d7 ef ff ff       	call   7e39 <__i686.get_pc_thunk.bx>
    8e62:	81 c3 42 06 01 00    	add    $0x10642,%ebx
    8e68:	89 75 f8             	mov    %esi,-0x8(%ebp)
    8e6b:	89 7d fc             	mov    %edi,-0x4(%ebp)
    8e6e:	8b 75 0c             	mov    0xc(%ebp),%esi
    8e71:	8b 7d 10             	mov    0x10(%ebp),%edi
    8e74:	89 b8 00 11 00 00    	mov    %edi,0x1100(%eax)
    8e7a:	89 b0 04 11 00 00    	mov    %esi,0x1104(%eax)
    8e80:	89 7d e4             	mov    %edi,-0x1c(%ebp)
    8e83:	83 c0 60             	add    $0x60,%eax
    8e86:	db 45 e4             	fildl  -0x1c(%ebp)
    8e89:	89 75 e4             	mov    %esi,-0x1c(%ebp)
    8e8c:	d9 5c 24 08          	fstps  0x8(%esp)
    8e90:	89 04 24             	mov    %eax,(%esp)
    8e93:	db 45 e4             	fildl  -0x1c(%ebp)
    8e96:	d9 5c 24 04          	fstps  0x4(%esp)
    8e9a:	e8 91 df ff ff       	call   6e30 <_ZN5Scene11setViewportEff@plt>
    8e9f:	89 7c 24 0c          	mov    %edi,0xc(%esp)
    8ea3:	89 74 24 08          	mov    %esi,0x8(%esp)
    8ea7:	c7 44 24 04 00 00 00 	movl   $0x0,0x4(%esp)
    8eae:	00 
    8eaf:	c7 04 24 00 00 00 00 	movl   $0x0,(%esp)
    8eb6:	e8 25 e1 ff ff       	call   6fe0 <glViewport@plt>
    8ebb:	8b 5d f4             	mov    -0xc(%ebp),%ebx
    8ebe:	8b 75 f8             	mov    -0x8(%ebp),%esi
    8ec1:	8b 7d fc             	mov    -0x4(%ebp),%edi
    8ec4:	89 ec                	mov    %ebp,%esp
    8ec6:	5d                   	pop    %ebp
    8ec7:	c3                   	ret    
    8ec8:	90                   	nop
    8ec9:	8d b4 26 00 00 00 00 	lea    0x0(%esi,%eiz,1),%esi

00008ed0 <_ZN8GLWidget12initializeGLEv>:
    8ed0:	55                   	push   %ebp
    8ed1:	b8 cd cc cc 3e       	mov    $0x3ecccccd,%eax
    8ed6:	89 e5                	mov    %esp,%ebp
    8ed8:	53                   	push   %ebx
    8ed9:	e8 5b ef ff ff       	call   7e39 <__i686.get_pc_thunk.bx>
    8ede:	81 c3 c6 05 01 00    	add    $0x105c6,%ebx
    8ee4:	8d 64 24 ec          	lea    -0x14(%esp),%esp
    8ee8:	89 44 24 04          	mov    %eax,0x4(%esp)
    8eec:	89 04 24             	mov    %eax,(%esp)
    8eef:	c7 44 24 0c 00 00 80 	movl   $0x3f800000,0xc(%esp)
    8ef6:	3f 
    8ef7:	c7 44 24 08 cd cc 4c 	movl   $0x3f4ccccd,0x8(%esp)
    8efe:	3f 
    8eff:	e8 3c ea ff ff       	call   7940 <glClearColor@plt>
    8f04:	c7 04 24 71 0b 00 00 	movl   $0xb71,(%esp)
    8f0b:	e8 90 e5 ff ff       	call   74a0 <glEnable@plt>
    8f10:	8b 45 08             	mov    0x8(%ebp),%eax
    8f13:	83 c0 60             	add    $0x60,%eax
    8f16:	89 04 24             	mov    %eax,(%esp)
    8f19:	e8 32 e6 ff ff       	call   7550 <_ZN5Scene4InitEv@plt>
    8f1e:	8d 64 24 14          	lea    0x14(%esp),%esp
    8f22:	5b                   	pop    %ebx
    8f23:	5d                   	pop    %ebp
    8f24:	c3                   	ret    
    8f25:	90                   	nop
    8f26:	8d 76 00             	lea    0x0(%esi),%esi
    8f29:	8d bc 27 00 00 00 00 	lea    0x0(%edi,%eiz,1),%edi

00008f30 <_ZN8GLWidget10LoadObjectEv>:
    8f30:	55                   	push   %ebp
    8f31:	89 e5                	mov    %esp,%ebp
    8f33:	57                   	push   %edi
    8f34:	56                   	push   %esi
    8f35:	8d 45 d8             	lea    -0x28(%ebp),%eax
    8f38:	53                   	push   %ebx
    8f39:	e8 fb ee ff ff       	call   7e39 <__i686.get_pc_thunk.bx>
    8f3e:	81 c3 66 05 01 00    	add    $0x10566,%ebx
    8f44:	8d 64 24 94          	lea    -0x6c(%esp),%esp
    8f48:	89 45 b4             	mov    %eax,-0x4c(%ebp)
    8f4b:	8b bb 98 ff ff ff    	mov    -0x68(%ebx),%edi
    8f51:	8d 83 7d bf ff ff    	lea    -0x4083(%ebx),%eax
    8f57:	89 44 24 08          	mov    %eax,0x8(%esp)
    8f5b:	8b 45 b4             	mov    -0x4c(%ebp),%eax
    8f5e:	89 04 24             	mov    %eax,(%esp)
    8f61:	8b 75 08             	mov    0x8(%ebp),%esi
    8f64:	c7 45 d0 00 00 00 00 	movl   $0x0,-0x30(%ebp)
    8f6b:	c7 44 24 0c 00 00 00 	movl   $0x0,0xc(%esp)
    8f72:	00 
    8f73:	89 7c 24 04          	mov    %edi,0x4(%esp)
    8f77:	e8 04 e8 ff ff       	call   7780 <_ZNK11QMetaObject2trEPKcS1_@plt>
    8f7c:	8d 64 24 fc          	lea    -0x4(%esp),%esp
    8f80:	8d 83 8e bf ff ff    	lea    -0x4072(%ebx),%eax
    8f86:	c7 44 24 04 ff ff ff 	movl   $0xffffffff,0x4(%esp)
    8f8d:	ff 
    8f8e:	89 04 24             	mov    %eax,(%esp)
    8f91:	e8 7a e2 ff ff       	call   7210 <_ZN7QString16fromAscii_helperEPKci@plt>
    8f96:	89 45 d4             	mov    %eax,-0x2c(%ebp)
    8f99:	8d 45 dc             	lea    -0x24(%ebp),%eax
    8f9c:	89 45 b0             	mov    %eax,-0x50(%ebp)
    8f9f:	8d 83 96 bf ff ff    	lea    -0x406a(%ebx),%eax
    8fa5:	89 44 24 08          	mov    %eax,0x8(%esp)
    8fa9:	8b 45 b0             	mov    -0x50(%ebp),%eax
    8fac:	c7 44 24 0c 00 00 00 	movl   $0x0,0xc(%esp)
    8fb3:	00 
    8fb4:	89 7c 24 04          	mov    %edi,0x4(%esp)
    8fb8:	89 04 24             	mov    %eax,(%esp)
    8fbb:	e8 c0 e7 ff ff       	call   7780 <_ZNK11QMetaObject2trEPKcS1_@plt>
    8fc0:	8d 64 24 fc          	lea    -0x4(%esp),%esp
    8fc4:	8d 45 d0             	lea    -0x30(%ebp),%eax
    8fc7:	89 44 24 18          	mov    %eax,0x18(%esp)
    8fcb:	8b 45 b4             	mov    -0x4c(%ebp),%eax
    8fce:	89 44 24 10          	mov    %eax,0x10(%esp)
    8fd2:	8d 45 d4             	lea    -0x2c(%ebp),%eax
    8fd5:	89 45 ac             	mov    %eax,-0x54(%ebp)
    8fd8:	89 44 24 0c          	mov    %eax,0xc(%esp)
    8fdc:	8b 45 b0             	mov    -0x50(%ebp),%eax
    8fdf:	8d 7d e0             	lea    -0x20(%ebp),%edi
    8fe2:	c7 44 24 14 00 00 00 	movl   $0x0,0x14(%esp)
    8fe9:	00 
    8fea:	89 44 24 08          	mov    %eax,0x8(%esp)
    8fee:	89 74 24 04          	mov    %esi,0x4(%esp)
    8ff2:	89 3c 24             	mov    %edi,(%esp)
    8ff5:	e8 96 e0 ff ff       	call   7090 <_ZN11QFileDialog15getOpenFileNameEP7QWidgetRK7QStringS4_S4_PS2_6QFlagsINS_6OptionEE@plt>
    8ffa:	8d 64 24 fc          	lea    -0x4(%esp),%esp
    8ffe:	8b 45 dc             	mov    -0x24(%ebp),%eax
    9001:	f0 ff 08             	lock decl (%eax)
    9004:	0f 95 c2             	setne  %dl
    9007:	84 d2                	test   %dl,%dl
    9009:	0f 84 81 01 00 00    	je     9190 <_ZN8GLWidget10LoadObjectEv+0x260>
    900f:	8b 45 d4             	mov    -0x2c(%ebp),%eax
    9012:	f0 ff 08             	lock decl (%eax)
    9015:	0f 95 c2             	setne  %dl
    9018:	84 d2                	test   %dl,%dl
    901a:	0f 84 60 01 00 00    	je     9180 <_ZN8GLWidget10LoadObjectEv+0x250>
    9020:	8b 45 d8             	mov    -0x28(%ebp),%eax
    9023:	f0 ff 08             	lock decl (%eax)
    9026:	0f 95 c2             	setne  %dl
    9029:	84 d2                	test   %dl,%dl
    902b:	0f 84 0f 01 00 00    	je     9140 <_ZN8GLWidget10LoadObjectEv+0x210>
    9031:	8b 83 e8 ff ff ff    	mov    -0x18(%ebx),%eax
    9037:	8b 00                	mov    (%eax),%eax
    9039:	85 c0                	test   %eax,%eax
    903b:	0f 84 1a 01 00 00    	je     915b <_ZN8GLWidget10LoadObjectEv+0x22b>
    9041:	8d 45 c8             	lea    -0x38(%ebp),%eax
    9044:	89 45 b4             	mov    %eax,-0x4c(%ebp)
    9047:	8d 83 b2 bf ff ff    	lea    -0x404e(%ebx),%eax
    904d:	89 44 24 04          	mov    %eax,0x4(%esp)
    9051:	8b 45 b4             	mov    -0x4c(%ebp),%eax
    9054:	c7 44 24 08 ff ff ff 	movl   $0xffffffff,0x8(%esp)
    905b:	ff 
    905c:	89 04 24             	mov    %eax,(%esp)
    905f:	e8 fc ea ff ff       	call   7b60 <_ZN7QString9fromAsciiEPKci@plt>
    9064:	8d 64 24 fc          	lea    -0x4(%esp),%esp
    9068:	8b 45 b4             	mov    -0x4c(%ebp),%eax
    906b:	89 44 24 04          	mov    %eax,0x4(%esp)
    906f:	89 3c 24             	mov    %edi,(%esp)
    9072:	e8 c9 e2 ff ff       	call   7340 <_ZNK7QStringeqERKS_@plt>
    9077:	88 45 b4             	mov    %al,-0x4c(%ebp)
    907a:	8b 45 c8             	mov    -0x38(%ebp),%eax
    907d:	f0 ff 08             	lock decl (%eax)
    9080:	0f 95 c2             	setne  %dl
    9083:	84 d2                	test   %dl,%dl
    9085:	0f 84 15 01 00 00    	je     91a0 <_ZN8GLWidget10LoadObjectEv+0x270>
    908b:	80 7d b4 00          	cmpb   $0x0,-0x4c(%ebp)
    908f:	75 71                	jne    9102 <_ZN8GLWidget10LoadObjectEv+0x1d2>
    9091:	8d 45 c0             	lea    -0x40(%ebp),%eax
    9094:	89 7c 24 04          	mov    %edi,0x4(%esp)
    9098:	89 04 24             	mov    %eax,(%esp)
    909b:	e8 e0 e7 ff ff       	call   7880 <_ZNK7QString7toAsciiEv@plt>
    90a0:	8b 45 c0             	mov    -0x40(%ebp),%eax
    90a3:	8d 64 24 fc          	lea    -0x4(%esp),%esp
    90a7:	8d 55 e7             	lea    -0x19(%ebp),%edx
    90aa:	89 54 24 0c          	mov    %edx,0xc(%esp)
    90ae:	8b 50 08             	mov    0x8(%eax),%edx
    90b1:	89 54 24 08          	mov    %edx,0x8(%esp)
    90b5:	8b 40 0c             	mov    0xc(%eax),%eax
    90b8:	89 44 24 04          	mov    %eax,0x4(%esp)
    90bc:	8d 45 cc             	lea    -0x34(%ebp),%eax
    90bf:	89 45 b4             	mov    %eax,-0x4c(%ebp)
    90c2:	89 04 24             	mov    %eax,(%esp)
    90c5:	e8 46 eb ff ff       	call   7c10 <_ZNSsC1EPKcjRKSaIcE@plt>
    90ca:	8b 45 c0             	mov    -0x40(%ebp),%eax
    90cd:	f0 ff 08             	lock decl (%eax)
    90d0:	0f 95 c2             	setne  %dl
    90d3:	84 d2                	test   %dl,%dl
    90d5:	74 59                	je     9130 <_ZN8GLWidget10LoadObjectEv+0x200>
    90d7:	8b 45 b4             	mov    -0x4c(%ebp),%eax
    90da:	89 44 24 04          	mov    %eax,0x4(%esp)
    90de:	8d 46 60             	lea    0x60(%esi),%eax
    90e1:	89 04 24             	mov    %eax,(%esp)
    90e4:	e8 c7 de ff ff       	call   6fb0 <_ZN5Scene10LoadObjectESs@plt>
    90e9:	8b 45 cc             	mov    -0x34(%ebp),%eax
    90ec:	83 e8 0c             	sub    $0xc,%eax
    90ef:	3b 83 94 ff ff ff    	cmp    -0x6c(%ebx),%eax
    90f5:	0f 85 b5 00 00 00    	jne    91b0 <_ZN8GLWidget10LoadObjectEv+0x280>
    90fb:	c6 86 14 11 00 00 01 	movb   $0x1,0x1114(%esi)
    9102:	8b 06                	mov    (%esi),%eax
    9104:	89 34 24             	mov    %esi,(%esp)
    9107:	ff 90 d8 00 00 00    	call   *0xd8(%eax)
    910d:	8b 45 e0             	mov    -0x20(%ebp),%eax
    9110:	f0 ff 08             	lock decl (%eax)
    9113:	0f 95 c2             	setne  %dl
    9116:	84 d2                	test   %dl,%dl
    9118:	75 0b                	jne    9125 <_ZN8GLWidget10LoadObjectEv+0x1f5>
    911a:	8b 45 e0             	mov    -0x20(%ebp),%eax
    911d:	89 04 24             	mov    %eax,(%esp)
    9120:	e8 bb eb ff ff       	call   7ce0 <_ZN7QString4freeEPNS_4DataE@plt>
    9125:	8d 65 f4             	lea    -0xc(%ebp),%esp
    9128:	5b                   	pop    %ebx
    9129:	5e                   	pop    %esi
    912a:	5f                   	pop    %edi
    912b:	5d                   	pop    %ebp
    912c:	c3                   	ret    
    912d:	8d 76 00             	lea    0x0(%esi),%esi
    9130:	8b 45 c0             	mov    -0x40(%ebp),%eax
    9133:	89 04 24             	mov    %eax,(%esp)
    9136:	e8 35 e5 ff ff       	call   7670 <_Z5qFreePv@plt>
    913b:	eb 9a                	jmp    90d7 <_ZN8GLWidget10LoadObjectEv+0x1a7>
    913d:	8d 76 00             	lea    0x0(%esi),%esi
    9140:	8b 45 d8             	mov    -0x28(%ebp),%eax
    9143:	89 04 24             	mov    %eax,(%esp)
    9146:	e8 95 eb ff ff       	call   7ce0 <_ZN7QString4freeEPNS_4DataE@plt>
    914b:	8b 83 e8 ff ff ff    	mov    -0x18(%ebx),%eax
    9151:	8b 00                	mov    (%eax),%eax
    9153:	85 c0                	test   %eax,%eax
    9155:	0f 85 e6 fe ff ff    	jne    9041 <_ZN8GLWidget10LoadObjectEv+0x111>
    915b:	8d 83 b2 bf ff ff    	lea    -0x404e(%ebx),%eax
    9161:	89 3c 24             	mov    %edi,(%esp)
    9164:	89 45 c4             	mov    %eax,-0x3c(%ebp)
    9167:	8d 45 c4             	lea    -0x3c(%ebp),%eax
    916a:	89 44 24 04          	mov    %eax,0x4(%esp)
    916e:	e8 7d e9 ff ff       	call   7af0 <_ZNK7QStringeqERK13QLatin1String@plt>
    9173:	88 45 b4             	mov    %al,-0x4c(%ebp)
    9176:	e9 10 ff ff ff       	jmp    908b <_ZN8GLWidget10LoadObjectEv+0x15b>
    917b:	90                   	nop
    917c:	8d 74 26 00          	lea    0x0(%esi,%eiz,1),%esi
    9180:	8b 45 d4             	mov    -0x2c(%ebp),%eax
    9183:	89 04 24             	mov    %eax,(%esp)
    9186:	e8 55 eb ff ff       	call   7ce0 <_ZN7QString4freeEPNS_4DataE@plt>
    918b:	e9 90 fe ff ff       	jmp    9020 <_ZN8GLWidget10LoadObjectEv+0xf0>
    9190:	8b 45 dc             	mov    -0x24(%ebp),%eax
    9193:	89 04 24             	mov    %eax,(%esp)
    9196:	e8 45 eb ff ff       	call   7ce0 <_ZN7QString4freeEPNS_4DataE@plt>
    919b:	e9 6f fe ff ff       	jmp    900f <_ZN8GLWidget10LoadObjectEv+0xdf>
    91a0:	8b 45 c8             	mov    -0x38(%ebp),%eax
    91a3:	89 04 24             	mov    %eax,(%esp)
    91a6:	e8 35 eb ff ff       	call   7ce0 <_ZN7QString4freeEPNS_4DataE@plt>
    91ab:	e9 db fe ff ff       	jmp    908b <_ZN8GLWidget10LoadObjectEv+0x15b>
    91b0:	83 bb a0 ff ff ff 00 	cmpl   $0x0,-0x60(%ebx)
    91b7:	74 4a                	je     9203 <_ZN8GLWidget10LoadObjectEv+0x2d3>
    91b9:	83 ca ff             	or     $0xffffffff,%edx
    91bc:	f0 0f c1 50 08       	lock xadd %edx,0x8(%eax)
    91c1:	85 d2                	test   %edx,%edx
    91c3:	0f 8f 32 ff ff ff    	jg     90fb <_ZN8GLWidget10LoadObjectEv+0x1cb>
    91c9:	8d 55 e6             	lea    -0x1a(%ebp),%edx
    91cc:	89 04 24             	mov    %eax,(%esp)
    91cf:	89 54 24 04          	mov    %edx,0x4(%esp)
    91d3:	e8 78 e1 ff ff       	call   7350 <_ZNSs4_Rep10_M_destroyERKSaIcE@plt>
    91d8:	e9 1e ff ff ff       	jmp    90fb <_ZN8GLWidget10LoadObjectEv+0x1cb>
    91dd:	89 c6                	mov    %eax,%esi
    91df:	8d 45 d4             	lea    -0x2c(%ebp),%eax
    91e2:	89 45 ac             	mov    %eax,-0x54(%ebp)
    91e5:	8b 45 ac             	mov    -0x54(%ebp),%eax
    91e8:	89 04 24             	mov    %eax,(%esp)
    91eb:	e8 30 ea ff ff       	call   7c20 <_ZN7QStringD1Ev@plt>
    91f0:	8b 45 b4             	mov    -0x4c(%ebp),%eax
    91f3:	89 04 24             	mov    %eax,(%esp)
    91f6:	e8 25 ea ff ff       	call   7c20 <_ZN7QStringD1Ev@plt>
    91fb:	89 34 24             	mov    %esi,(%esp)
    91fe:	e8 7d e9 ff ff       	call   7b80 <_Unwind_Resume@plt>
    9203:	8b 50 08             	mov    0x8(%eax),%edx
    9206:	8d 4a ff             	lea    -0x1(%edx),%ecx
    9209:	89 48 08             	mov    %ecx,0x8(%eax)
    920c:	eb b3                	jmp    91c1 <_ZN8GLWidget10LoadObjectEv+0x291>
    920e:	89 c6                	mov    %eax,%esi
    9210:	eb de                	jmp    91f0 <_ZN8GLWidget10LoadObjectEv+0x2c0>
    9212:	89 c6                	mov    %eax,%esi
    9214:	8b 45 b0             	mov    -0x50(%ebp),%eax
    9217:	89 04 24             	mov    %eax,(%esp)
    921a:	e8 01 ea ff ff       	call   7c20 <_ZN7QStringD1Ev@plt>
    921f:	eb c4                	jmp    91e5 <_ZN8GLWidget10LoadObjectEv+0x2b5>
    9221:	89 c6                	mov    %eax,%esi
    9223:	8b 45 b4             	mov    -0x4c(%ebp),%eax
    9226:	89 04 24             	mov    %eax,(%esp)
    9229:	e8 f2 e9 ff ff       	call   7c20 <_ZN7QStringD1Ev@plt>
    922e:	89 3c 24             	mov    %edi,(%esp)
    9231:	e8 ea e9 ff ff       	call   7c20 <_ZN7QStringD1Ev@plt>
    9236:	89 34 24             	mov    %esi,(%esp)
    9239:	e8 42 e9 ff ff       	call   7b80 <_Unwind_Resume@plt>
    923e:	89 c6                	mov    %eax,%esi
    9240:	89 3c 24             	mov    %edi,(%esp)
    9243:	e8 d8 e9 ff ff       	call   7c20 <_ZN7QStringD1Ev@plt>
    9248:	eb a6                	jmp    91f0 <_ZN8GLWidget10LoadObjectEv+0x2c0>
    924a:	89 c6                	mov    %eax,%esi
    924c:	89 3c 24             	mov    %edi,(%esp)
    924f:	e8 cc e9 ff ff       	call   7c20 <_ZN7QStringD1Ev@plt>
    9254:	eb 8f                	jmp    91e5 <_ZN8GLWidget10LoadObjectEv+0x2b5>
    9256:	89 c6                	mov    %eax,%esi
    9258:	8b 45 c0             	mov    -0x40(%ebp),%eax
    925b:	f0 ff 08             	lock decl (%eax)
    925e:	0f 95 c2             	setne  %dl
    9261:	84 d2                	test   %dl,%dl
    9263:	75 c9                	jne    922e <_ZN8GLWidget10LoadObjectEv+0x2fe>
    9265:	8b 45 c0             	mov    -0x40(%ebp),%eax
    9268:	89 04 24             	mov    %eax,(%esp)
    926b:	e8 00 e4 ff ff       	call   7670 <_Z5qFreePv@plt>
    9270:	eb bc                	jmp    922e <_ZN8GLWidget10LoadObjectEv+0x2fe>
    9272:	89 c6                	mov    %eax,%esi
    9274:	8b 45 b4             	mov    -0x4c(%ebp),%eax
    9277:	89 04 24             	mov    %eax,(%esp)
    927a:	e8 71 e7 ff ff       	call   79f0 <_ZNSsD1Ev@plt>
    927f:	eb ad                	jmp    922e <_ZN8GLWidget10LoadObjectEv+0x2fe>
    9281:	89 c6                	mov    %eax,%esi
    9283:	eb a9                	jmp    922e <_ZN8GLWidget10LoadObjectEv+0x2fe>
    9285:	90                   	nop
    9286:	8d 76 00             	lea    0x0(%esi),%esi
    9289:	8d bc 27 00 00 00 00 	lea    0x0(%edi,%eiz,1),%edi

00009290 <_ZN8GLWidgetC1EP7QWidget>:
    9290:	55                   	push   %ebp
    9291:	89 e5                	mov    %esp,%ebp
    9293:	8d 64 24 b8          	lea    -0x48(%esp),%esp
    9297:	c7 44 24 08 00 00 00 	movl   $0x0,0x8(%esp)
    929e:	00 
    929f:	89 5d f4             	mov    %ebx,-0xc(%ebp)
    92a2:	89 75 f8             	mov    %esi,-0x8(%ebp)
    92a5:	e8 8f eb ff ff       	call   7e39 <__i686.get_pc_thunk.bx>
    92aa:	81 c3 fa 01 01 00    	add    $0x101fa,%ebx
    92b0:	8b 75 08             	mov    0x8(%ebp),%esi
    92b3:	8d 45 e4             	lea    -0x1c(%ebp),%eax
    92b6:	89 44 24 0c          	mov    %eax,0xc(%esp)
    92ba:	8b 45 0c             	mov    0xc(%ebp),%eax
    92bd:	89 44 24 04          	mov    %eax,0x4(%esp)
    92c1:	89 7d fc             	mov    %edi,-0x4(%ebp)
    92c4:	c7 45 e4 00 00 00 00 	movl   $0x0,-0x1c(%ebp)
    92cb:	89 34 24             	mov    %esi,(%esp)
    92ce:	e8 0d e5 ff ff       	call   77e0 <_ZN9QGLWidgetC2EP7QWidgetPKS_6QFlagsIN2Qt10WindowTypeEE@plt>
    92d3:	8b 83 b8 ff ff ff    	mov    -0x48(%ebx),%eax
    92d9:	8d 50 08             	lea    0x8(%eax),%edx
    92dc:	05 10 01 00 00       	add    $0x110,%eax
    92e1:	89 46 08             	mov    %eax,0x8(%esi)
    92e4:	89 16                	mov    %edx,(%esi)
    92e6:	8d 46 54             	lea    0x54(%esi),%eax
    92e9:	c7 44 24 0c 00 00 00 	movl   $0x0,0xc(%esp)
    92f0:	00 
    92f1:	c7 44 24 08 00 00 00 	movl   $0x0,0x8(%esp)
    92f8:	00 
    92f9:	c7 44 24 04 00 00 00 	movl   $0x0,0x4(%esp)
    9300:	00 
    9301:	89 04 24             	mov    %eax,(%esp)
    9304:	e8 57 e2 ff ff       	call   7560 <_ZN5PointC1Efff@plt>
    9309:	8d 7e 60             	lea    0x60(%esi),%edi
    930c:	89 3c 24             	mov    %edi,(%esp)
    930f:	e8 5c dd ff ff       	call   7070 <_ZN5SceneC1Ev@plt>
    9314:	c7 44 24 04 01 00 00 	movl   $0x1,0x4(%esp)
    931b:	00 
    931c:	89 34 24             	mov    %esi,(%esp)
    931f:	e8 9c dd ff ff       	call   70c0 <_ZN9QGLWidget16setMouseTrackingEb@plt>
    9324:	c7 44 24 04 0b 00 00 	movl   $0xb,0x4(%esp)
    932b:	00 
    932c:	89 34 24             	mov    %esi,(%esp)
    932f:	e8 dc e4 ff ff       	call   7810 <_ZN7QWidget14setFocusPolicyEN2Qt11FocusPolicyE@plt>
    9334:	89 34 24             	mov    %esi,(%esp)
    9337:	e8 f4 e6 ff ff       	call   7a30 <_ZN7QWidget12grabKeyboardEv@plt>
    933c:	c6 86 14 11 00 00 00 	movb   $0x0,0x1114(%esi)
    9343:	89 3c 24             	mov    %edi,(%esp)
    9346:	e8 15 e7 ff ff       	call   7a60 <_ZN5Scene11ResetCameraEv@plt>
    934b:	8b 5d f4             	mov    -0xc(%ebp),%ebx
    934e:	8b 75 f8             	mov    -0x8(%ebp),%esi
    9351:	8b 7d fc             	mov    -0x4(%ebp),%edi
    9354:	89 ec                	mov    %ebp,%esp
    9356:	5d                   	pop    %ebp
    9357:	c3                   	ret    
    9358:	89 45 d4             	mov    %eax,-0x2c(%ebp)
    935b:	89 34 24             	mov    %esi,(%esp)
    935e:	e8 8d e0 ff ff       	call   73f0 <_ZN9QGLWidgetD2Ev@plt>
    9363:	8b 45 d4             	mov    -0x2c(%ebp),%eax
    9366:	89 04 24             	mov    %eax,(%esp)
    9369:	e8 12 e8 ff ff       	call   7b80 <_Unwind_Resume@plt>
    936e:	89 45 d4             	mov    %eax,-0x2c(%ebp)
    9371:	89 3c 24             	mov    %edi,(%esp)
    9374:	e8 c7 e6 ff ff       	call   7a40 <_ZN5SceneD1Ev@plt>
    9379:	8b 45 d4             	mov    -0x2c(%ebp),%eax
    937c:	eb da                	jmp    9358 <_ZN8GLWidgetC1EP7QWidget+0xc8>
    937e:	66 90                	xchg   %ax,%ax

00009380 <_ZN8GLWidgetD1Ev>:
    9380:	55                   	push   %ebp
    9381:	89 e5                	mov    %esp,%ebp
    9383:	57                   	push   %edi
    9384:	56                   	push   %esi
    9385:	53                   	push   %ebx
    9386:	e8 ae ea ff ff       	call   7e39 <__i686.get_pc_thunk.bx>
    938b:	81 c3 19 01 01 00    	add    $0x10119,%ebx
    9391:	8d 64 24 c4          	lea    -0x3c(%esp),%esp
    9395:	8b 83 b8 ff ff ff    	mov    -0x48(%ebx),%eax
    939b:	8b 4d 08             	mov    0x8(%ebp),%ecx
    939e:	8d 50 08             	lea    0x8(%eax),%edx
    93a1:	05 10 01 00 00       	add    $0x110,%eax
    93a6:	89 11                	mov    %edx,(%ecx)
    93a8:	89 41 08             	mov    %eax,0x8(%ecx)
    93ab:	89 0c 24             	mov    %ecx,(%esp)
    93ae:	e8 ad e2 ff ff       	call   7660 <_ZN7QWidget15releaseKeyboardEv@plt>
    93b3:	8b 45 08             	mov    0x8(%ebp),%eax
    93b6:	8b 78 70             	mov    0x70(%eax),%edi
    93b9:	8b 70 6c             	mov    0x6c(%eax),%esi
    93bc:	39 f7                	cmp    %esi,%edi
    93be:	74 0f                	je     93cf <_ZN8GLWidgetD1Ev+0x4f>
    93c0:	89 34 24             	mov    %esi,(%esp)
    93c3:	e8 98 df ff ff       	call   7360 <_ZN7ObjecteD1Ev@plt>
    93c8:	8d 76 20             	lea    0x20(%esi),%esi
    93cb:	39 f7                	cmp    %esi,%edi
    93cd:	75 f1                	jne    93c0 <_ZN8GLWidgetD1Ev+0x40>
    93cf:	8b 55 08             	mov    0x8(%ebp),%edx
    93d2:	8b 42 6c             	mov    0x6c(%edx),%eax
    93d5:	85 c0                	test   %eax,%eax
    93d7:	74 08                	je     93e1 <_ZN8GLWidgetD1Ev+0x61>
    93d9:	89 04 24             	mov    %eax,(%esp)
    93dc:	e8 ef e0 ff ff       	call   74d0 <_ZdlPv@plt>
    93e1:	8b 4d 08             	mov    0x8(%ebp),%ecx
    93e4:	8b 45 08             	mov    0x8(%ebp),%eax
    93e7:	8b 49 64             	mov    0x64(%ecx),%ecx
    93ea:	8b 40 60             	mov    0x60(%eax),%eax
    93ed:	39 c1                	cmp    %eax,%ecx
    93ef:	89 4d d0             	mov    %ecx,-0x30(%ebp)
    93f2:	89 45 d4             	mov    %eax,-0x2c(%ebp)
    93f5:	74 76                	je     946d <_ZN8GLWidgetD1Ev+0xed>
    93f7:	8d 55 e7             	lea    -0x19(%ebp),%edx
    93fa:	89 55 cc             	mov    %edx,-0x34(%ebp)
    93fd:	8d 76 00             	lea    0x0(%esi),%esi
    9400:	8b 4d d4             	mov    -0x2c(%ebp),%ecx
    9403:	8b 41 18             	mov    0x18(%ecx),%eax
    9406:	83 e8 0c             	sub    $0xc,%eax
    9409:	3b 83 94 ff ff ff    	cmp    -0x6c(%ebx),%eax
    940f:	0f 85 a1 00 00 00    	jne    94b6 <_ZN8GLWidgetD1Ev+0x136>
    9415:	8b 4d d4             	mov    -0x2c(%ebp),%ecx
    9418:	8b 79 10             	mov    0x10(%ecx),%edi
    941b:	8b 71 0c             	mov    0xc(%ecx),%esi
    941e:	39 f7                	cmp    %esi,%edi
    9420:	74 1c                	je     943e <_ZN8GLWidgetD1Ev+0xbe>
    9422:	8d b6 00 00 00 00    	lea    0x0(%esi),%esi
    9428:	8b 46 04             	mov    0x4(%esi),%eax
    942b:	85 c0                	test   %eax,%eax
    942d:	74 08                	je     9437 <_ZN8GLWidgetD1Ev+0xb7>
    942f:	89 04 24             	mov    %eax,(%esp)
    9432:	e8 99 e0 ff ff       	call   74d0 <_ZdlPv@plt>
    9437:	8d 76 1c             	lea    0x1c(%esi),%esi
    943a:	39 f7                	cmp    %esi,%edi
    943c:	75 ea                	jne    9428 <_ZN8GLWidgetD1Ev+0xa8>
    943e:	8b 55 d4             	mov    -0x2c(%ebp),%edx
    9441:	8b 42 0c             	mov    0xc(%edx),%eax
    9444:	85 c0                	test   %eax,%eax
    9446:	74 08                	je     9450 <_ZN8GLWidgetD1Ev+0xd0>
    9448:	89 04 24             	mov    %eax,(%esp)
    944b:	e8 80 e0 ff ff       	call   74d0 <_ZdlPv@plt>
    9450:	8b 4d d4             	mov    -0x2c(%ebp),%ecx
    9453:	8b 01                	mov    (%ecx),%eax
    9455:	85 c0                	test   %eax,%eax
    9457:	74 08                	je     9461 <_ZN8GLWidgetD1Ev+0xe1>
    9459:	89 04 24             	mov    %eax,(%esp)
    945c:	e8 6f e0 ff ff       	call   74d0 <_ZdlPv@plt>
    9461:	83 45 d4 34          	addl   $0x34,-0x2c(%ebp)
    9465:	8b 45 d4             	mov    -0x2c(%ebp),%eax
    9468:	39 45 d0             	cmp    %eax,-0x30(%ebp)
    946b:	75 93                	jne    9400 <_ZN8GLWidgetD1Ev+0x80>
    946d:	8b 55 08             	mov    0x8(%ebp),%edx
    9470:	8b 42 60             	mov    0x60(%edx),%eax
    9473:	85 c0                	test   %eax,%eax
    9475:	74 08                	je     947f <_ZN8GLWidgetD1Ev+0xff>
    9477:	89 04 24             	mov    %eax,(%esp)
    947a:	e8 51 e0 ff ff       	call   74d0 <_ZdlPv@plt>
    947f:	8b 45 08             	mov    0x8(%ebp),%eax
    9482:	89 04 24             	mov    %eax,(%esp)
    9485:	e8 66 df ff ff       	call   73f0 <_ZN9QGLWidgetD2Ev@plt>
    948a:	8d 64 24 3c          	lea    0x3c(%esp),%esp
    948e:	5b                   	pop    %ebx
    948f:	5e                   	pop    %esi
    9490:	5f                   	pop    %edi
    9491:	5d                   	pop    %ebp
    9492:	c3                   	ret    
    9493:	89 c6                	mov    %eax,%esi
    9495:	8b 45 08             	mov    0x8(%ebp),%eax
    9498:	83 c0 60             	add    $0x60,%eax
    949b:	89 04 24             	mov    %eax,(%esp)
    949e:	e8 9d e5 ff ff       	call   7a40 <_ZN5SceneD1Ev@plt>
    94a3:	8b 4d 08             	mov    0x8(%ebp),%ecx
    94a6:	89 0c 24             	mov    %ecx,(%esp)
    94a9:	e8 42 df ff ff       	call   73f0 <_ZN9QGLWidgetD2Ev@plt>
    94ae:	89 34 24             	mov    %esi,(%esp)
    94b1:	e8 ca e6 ff ff       	call   7b80 <_Unwind_Resume@plt>
    94b6:	83 bb a0 ff ff ff 00 	cmpl   $0x0,-0x60(%ebx)
    94bd:	74 48                	je     9507 <_ZN8GLWidgetD1Ev+0x187>
    94bf:	83 ca ff             	or     $0xffffffff,%edx
    94c2:	f0 0f c1 50 08       	lock xadd %edx,0x8(%eax)
    94c7:	85 d2                	test   %edx,%edx
    94c9:	0f 8f 46 ff ff ff    	jg     9415 <_ZN8GLWidgetD1Ev+0x95>
    94cf:	8b 55 cc             	mov    -0x34(%ebp),%edx
    94d2:	89 04 24             	mov    %eax,(%esp)
    94d5:	89 54 24 04          	mov    %edx,0x4(%esp)
    94d9:	e8 72 de ff ff       	call   7350 <_ZNSs4_Rep10_M_destroyERKSaIcE@plt>
    94de:	e9 32 ff ff ff       	jmp    9415 <_ZN8GLWidgetD1Ev+0x95>
    94e3:	8b 4d 08             	mov    0x8(%ebp),%ecx
    94e6:	89 c6                	mov    %eax,%esi
    94e8:	8b 51 6c             	mov    0x6c(%ecx),%edx
    94eb:	85 d2                	test   %edx,%edx
    94ed:	74 08                	je     94f7 <_ZN8GLWidgetD1Ev+0x177>
    94ef:	89 14 24             	mov    %edx,(%esp)
    94f2:	e8 d9 df ff ff       	call   74d0 <_ZdlPv@plt>
    94f7:	8b 45 08             	mov    0x8(%ebp),%eax
    94fa:	83 c0 60             	add    $0x60,%eax
    94fd:	89 04 24             	mov    %eax,(%esp)
    9500:	e8 fb d9 ff ff       	call   6f00 <_ZNSt6vectorI5ModelSaIS0_EED1Ev@plt>
    9505:	eb 9c                	jmp    94a3 <_ZN8GLWidgetD1Ev+0x123>
    9507:	8b 50 08             	mov    0x8(%eax),%edx
    950a:	8d 4a ff             	lea    -0x1(%edx),%ecx
    950d:	89 48 08             	mov    %ecx,0x8(%eax)
    9510:	eb b5                	jmp    94c7 <_ZN8GLWidgetD1Ev+0x147>
    9512:	8d b4 26 00 00 00 00 	lea    0x0(%esi,%eiz,1),%esi
    9519:	8d bc 27 00 00 00 00 	lea    0x0(%edi,%eiz,1),%edi

00009520 <_ZThn8_N8GLWidgetD1Ev>:
    9520:	83 44 24 04 f8       	addl   $0xfffffff8,0x4(%esp)
    9525:	e9 56 fe ff ff       	jmp    9380 <_ZN8GLWidgetD1Ev>
    952a:	8d b6 00 00 00 00    	lea    0x0(%esi),%esi

00009530 <_ZThn8_N8GLWidgetD0Ev>:
    9530:	83 44 24 04 f8       	addl   $0xfffffff8,0x4(%esp)
    9535:	eb 09                	jmp    9540 <_ZN8GLWidgetD0Ev>
    9537:	90                   	nop
    9538:	90                   	nop
    9539:	8d b4 26 00 00 00 00 	lea    0x0(%esi,%eiz,1),%esi

00009540 <_ZN8GLWidgetD0Ev>:
    9540:	55                   	push   %ebp
    9541:	89 e5                	mov    %esp,%ebp
    9543:	8d 64 24 e8          	lea    -0x18(%esp),%esp
    9547:	89 5d f8             	mov    %ebx,-0x8(%ebp)
    954a:	89 75 fc             	mov    %esi,-0x4(%ebp)
    954d:	e8 e7 e8 ff ff       	call   7e39 <__i686.get_pc_thunk.bx>
    9552:	81 c3 52 ff 00 00    	add    $0xff52,%ebx
    9558:	8b 75 08             	mov    0x8(%ebp),%esi
    955b:	89 34 24             	mov    %esi,(%esp)
    955e:	e8 ad e7 ff ff       	call   7d10 <_ZN8GLWidgetD1Ev@plt>
    9563:	89 34 24             	mov    %esi,(%esp)
    9566:	e8 65 df ff ff       	call   74d0 <_ZdlPv@plt>
    956b:	8b 5d f8             	mov    -0x8(%ebp),%ebx
    956e:	8b 75 fc             	mov    -0x4(%ebp),%esi
    9571:	89 ec                	mov    %ebp,%esp
    9573:	5d                   	pop    %ebp
    9574:	c3                   	ret    
    9575:	90                   	nop
    9576:	90                   	nop
    9577:	90                   	nop
    9578:	90                   	nop
    9579:	90                   	nop
    957a:	90                   	nop
    957b:	90                   	nop
    957c:	90                   	nop
    957d:	90                   	nop
    957e:	90                   	nop
    957f:	90                   	nop

00009580 <_ZN7QStringD1Ev>:
    9580:	55                   	push   %ebp
    9581:	89 e5                	mov    %esp,%ebp
    9583:	53                   	push   %ebx
    9584:	e8 b0 e8 ff ff       	call   7e39 <__i686.get_pc_thunk.bx>
    9589:	81 c3 1b ff 00 00    	add    $0xff1b,%ebx
    958f:	8d 64 24 ec          	lea    -0x14(%esp),%esp
    9593:	8b 55 08             	mov    0x8(%ebp),%edx
    9596:	8b 02                	mov    (%edx),%eax
    9598:	f0 ff 08             	lock decl (%eax)
    959b:	0f 95 c1             	setne  %cl
    959e:	84 c9                	test   %cl,%cl
    95a0:	75 0a                	jne    95ac <_ZN7QStringD1Ev+0x2c>
    95a2:	8b 02                	mov    (%edx),%eax
    95a4:	89 04 24             	mov    %eax,(%esp)
    95a7:	e8 34 e7 ff ff       	call   7ce0 <_ZN7QString4freeEPNS_4DataE@plt>
    95ac:	8d 64 24 14          	lea    0x14(%esp),%esp
    95b0:	5b                   	pop    %ebx
    95b1:	5d                   	pop    %ebp
    95b2:	c3                   	ret    
    95b3:	90                   	nop
    95b4:	90                   	nop
    95b5:	90                   	nop
    95b6:	90                   	nop
    95b7:	90                   	nop
    95b8:	90                   	nop
    95b9:	90                   	nop
    95ba:	90                   	nop
    95bb:	90                   	nop
    95bc:	90                   	nop
    95bd:	90                   	nop
    95be:	90                   	nop
    95bf:	90                   	nop

000095c0 <_ZNSt6vectorI4FaceSaIS0_EED1Ev>:
    95c0:	55                   	push   %ebp
    95c1:	89 e5                	mov    %esp,%ebp
    95c3:	57                   	push   %edi
    95c4:	56                   	push   %esi
    95c5:	53                   	push   %ebx
    95c6:	e8 6e e8 ff ff       	call   7e39 <__i686.get_pc_thunk.bx>
    95cb:	81 c3 d9 fe 00 00    	add    $0xfed9,%ebx
    95d1:	8d 64 24 e4          	lea    -0x1c(%esp),%esp
    95d5:	8b 45 08             	mov    0x8(%ebp),%eax
    95d8:	8b 78 04             	mov    0x4(%eax),%edi
    95db:	8b 30                	mov    (%eax),%esi
    95dd:	39 f7                	cmp    %esi,%edi
    95df:	74 1d                	je     95fe <_ZNSt6vectorI4FaceSaIS0_EED1Ev+0x3e>
    95e1:	8d b4 26 00 00 00 00 	lea    0x0(%esi,%eiz,1),%esi
    95e8:	8b 46 04             	mov    0x4(%esi),%eax
    95eb:	85 c0                	test   %eax,%eax
    95ed:	74 08                	je     95f7 <_ZNSt6vectorI4FaceSaIS0_EED1Ev+0x37>
    95ef:	89 04 24             	mov    %eax,(%esp)
    95f2:	e8 d9 de ff ff       	call   74d0 <_ZdlPv@plt>
    95f7:	8d 76 1c             	lea    0x1c(%esi),%esi
    95fa:	39 f7                	cmp    %esi,%edi
    95fc:	75 ea                	jne    95e8 <_ZNSt6vectorI4FaceSaIS0_EED1Ev+0x28>
    95fe:	8b 55 08             	mov    0x8(%ebp),%edx
    9601:	8b 02                	mov    (%edx),%eax
    9603:	85 c0                	test   %eax,%eax
    9605:	74 08                	je     960f <_ZNSt6vectorI4FaceSaIS0_EED1Ev+0x4f>
    9607:	89 04 24             	mov    %eax,(%esp)
    960a:	e8 c1 de ff ff       	call   74d0 <_ZdlPv@plt>
    960f:	8d 64 24 1c          	lea    0x1c(%esp),%esp
    9613:	5b                   	pop    %ebx
    9614:	5e                   	pop    %esi
    9615:	5f                   	pop    %edi
    9616:	5d                   	pop    %ebp
    9617:	c3                   	ret    
    9618:	90                   	nop
    9619:	90                   	nop
    961a:	90                   	nop
    961b:	90                   	nop
    961c:	90                   	nop
    961d:	90                   	nop
    961e:	90                   	nop
    961f:	90                   	nop

00009620 <_ZNSt6vectorI5ModelSaIS0_EED1Ev>:
    9620:	55                   	push   %ebp
    9621:	89 e5                	mov    %esp,%ebp
    9623:	57                   	push   %edi
    9624:	56                   	push   %esi
    9625:	53                   	push   %ebx
    9626:	e8 0e e8 ff ff       	call   7e39 <__i686.get_pc_thunk.bx>
    962b:	81 c3 79 fe 00 00    	add    $0xfe79,%ebx
    9631:	8d 64 24 c4          	lea    -0x3c(%esp),%esp
    9635:	8b 45 08             	mov    0x8(%ebp),%eax
    9638:	8b 55 08             	mov    0x8(%ebp),%edx
    963b:	8b 40 04             	mov    0x4(%eax),%eax
    963e:	8b 12                	mov    (%edx),%edx
    9640:	89 45 d0             	mov    %eax,-0x30(%ebp)
    9643:	39 d0                	cmp    %edx,%eax
    9645:	89 55 d4             	mov    %edx,-0x2c(%ebp)
    9648:	74 6b                	je     96b5 <_ZNSt6vectorI5ModelSaIS0_EED1Ev+0x95>
    964a:	8d 45 e7             	lea    -0x19(%ebp),%eax
    964d:	89 45 cc             	mov    %eax,-0x34(%ebp)
    9650:	8b 55 d4             	mov    -0x2c(%ebp),%edx
    9653:	8b 42 18             	mov    0x18(%edx),%eax
    9656:	83 e8 0c             	sub    $0xc,%eax
    9659:	3b 83 94 ff ff ff    	cmp    -0x6c(%ebx),%eax
    965f:	75 6e                	jne    96cf <_ZNSt6vectorI5ModelSaIS0_EED1Ev+0xaf>
    9661:	8b 45 d4             	mov    -0x2c(%ebp),%eax
    9664:	8b 78 10             	mov    0x10(%eax),%edi
    9667:	8b 70 0c             	mov    0xc(%eax),%esi
    966a:	39 f7                	cmp    %esi,%edi
    966c:	74 18                	je     9686 <_ZNSt6vectorI5ModelSaIS0_EED1Ev+0x66>
    966e:	66 90                	xchg   %ax,%ax
    9670:	8b 46 04             	mov    0x4(%esi),%eax
    9673:	85 c0                	test   %eax,%eax
    9675:	74 08                	je     967f <_ZNSt6vectorI5ModelSaIS0_EED1Ev+0x5f>
    9677:	89 04 24             	mov    %eax,(%esp)
    967a:	e8 51 de ff ff       	call   74d0 <_ZdlPv@plt>
    967f:	8d 76 1c             	lea    0x1c(%esi),%esi
    9682:	39 f7                	cmp    %esi,%edi
    9684:	75 ea                	jne    9670 <_ZNSt6vectorI5ModelSaIS0_EED1Ev+0x50>
    9686:	8b 55 d4             	mov    -0x2c(%ebp),%edx
    9689:	8b 42 0c             	mov    0xc(%edx),%eax
    968c:	85 c0                	test   %eax,%eax
    968e:	74 08                	je     9698 <_ZNSt6vectorI5ModelSaIS0_EED1Ev+0x78>
    9690:	89 04 24             	mov    %eax,(%esp)
    9693:	e8 38 de ff ff       	call   74d0 <_ZdlPv@plt>
    9698:	8b 55 d4             	mov    -0x2c(%ebp),%edx
    969b:	8b 02                	mov    (%edx),%eax
    969d:	85 c0                	test   %eax,%eax
    969f:	74 08                	je     96a9 <_ZNSt6vectorI5ModelSaIS0_EED1Ev+0x89>
    96a1:	89 04 24             	mov    %eax,(%esp)
    96a4:	e8 27 de ff ff       	call   74d0 <_ZdlPv@plt>
    96a9:	83 45 d4 34          	addl   $0x34,-0x2c(%ebp)
    96ad:	8b 45 d4             	mov    -0x2c(%ebp),%eax
    96b0:	39 45 d0             	cmp    %eax,-0x30(%ebp)
    96b3:	75 9b                	jne    9650 <_ZNSt6vectorI5ModelSaIS0_EED1Ev+0x30>
    96b5:	8b 55 08             	mov    0x8(%ebp),%edx
    96b8:	8b 02                	mov    (%edx),%eax
    96ba:	85 c0                	test   %eax,%eax
    96bc:	74 08                	je     96c6 <_ZNSt6vectorI5ModelSaIS0_EED1Ev+0xa6>
    96be:	89 04 24             	mov    %eax,(%esp)
    96c1:	e8 0a de ff ff       	call   74d0 <_ZdlPv@plt>
    96c6:	8d 64 24 3c          	lea    0x3c(%esp),%esp
    96ca:	5b                   	pop    %ebx
    96cb:	5e                   	pop    %esi
    96cc:	5f                   	pop    %edi
    96cd:	5d                   	pop    %ebp
    96ce:	c3                   	ret    
    96cf:	83 bb a0 ff ff ff 00 	cmpl   $0x0,-0x60(%ebx)
    96d6:	74 24                	je     96fc <_ZNSt6vectorI5ModelSaIS0_EED1Ev+0xdc>
    96d8:	83 ca ff             	or     $0xffffffff,%edx
    96db:	f0 0f c1 50 08       	lock xadd %edx,0x8(%eax)
    96e0:	85 d2                	test   %edx,%edx
    96e2:	0f 8f 79 ff ff ff    	jg     9661 <_ZNSt6vectorI5ModelSaIS0_EED1Ev+0x41>
    96e8:	8b 55 cc             	mov    -0x34(%ebp),%edx
    96eb:	89 04 24             	mov    %eax,(%esp)
    96ee:	89 54 24 04          	mov    %edx,0x4(%esp)
    96f2:	e8 59 dc ff ff       	call   7350 <_ZNSs4_Rep10_M_destroyERKSaIcE@plt>
    96f7:	e9 65 ff ff ff       	jmp    9661 <_ZNSt6vectorI5ModelSaIS0_EED1Ev+0x41>
    96fc:	8b 50 08             	mov    0x8(%eax),%edx
    96ff:	8d 4a ff             	lea    -0x1(%edx),%ecx
    9702:	89 48 08             	mov    %ecx,0x8(%eax)
    9705:	eb d9                	jmp    96e0 <_ZNSt6vectorI5ModelSaIS0_EED1Ev+0xc0>
    9707:	90                   	nop
    9708:	90                   	nop
    9709:	90                   	nop
    970a:	90                   	nop
    970b:	90                   	nop
    970c:	90                   	nop
    970d:	90                   	nop
    970e:	90                   	nop
    970f:	90                   	nop

00009710 <_ZN5SceneD1Ev>:
    9710:	55                   	push   %ebp
    9711:	89 e5                	mov    %esp,%ebp
    9713:	57                   	push   %edi
    9714:	56                   	push   %esi
    9715:	53                   	push   %ebx
    9716:	e8 1e e7 ff ff       	call   7e39 <__i686.get_pc_thunk.bx>
    971b:	81 c3 89 fd 00 00    	add    $0xfd89,%ebx
    9721:	8d 64 24 c4          	lea    -0x3c(%esp),%esp
    9725:	8b 45 08             	mov    0x8(%ebp),%eax
    9728:	8b 78 10             	mov    0x10(%eax),%edi
    972b:	8b 70 0c             	mov    0xc(%eax),%esi
    972e:	39 f7                	cmp    %esi,%edi
    9730:	74 15                	je     9747 <_ZN5SceneD1Ev+0x37>
    9732:	8d b6 00 00 00 00    	lea    0x0(%esi),%esi
    9738:	89 34 24             	mov    %esi,(%esp)
    973b:	e8 20 dc ff ff       	call   7360 <_ZN7ObjecteD1Ev@plt>
    9740:	8d 76 20             	lea    0x20(%esi),%esi
    9743:	39 f7                	cmp    %esi,%edi
    9745:	75 f1                	jne    9738 <_ZN5SceneD1Ev+0x28>
    9747:	8b 55 08             	mov    0x8(%ebp),%edx
    974a:	8b 42 0c             	mov    0xc(%edx),%eax
    974d:	85 c0                	test   %eax,%eax
    974f:	74 08                	je     9759 <_ZN5SceneD1Ev+0x49>
    9751:	89 04 24             	mov    %eax,(%esp)
    9754:	e8 77 dd ff ff       	call   74d0 <_ZdlPv@plt>
    9759:	8b 45 08             	mov    0x8(%ebp),%eax
    975c:	8b 55 08             	mov    0x8(%ebp),%edx
    975f:	8b 40 04             	mov    0x4(%eax),%eax
    9762:	8b 12                	mov    (%edx),%edx
    9764:	39 d0                	cmp    %edx,%eax
    9766:	89 45 d0             	mov    %eax,-0x30(%ebp)
    9769:	89 55 d4             	mov    %edx,-0x2c(%ebp)
    976c:	74 77                	je     97e5 <_ZN5SceneD1Ev+0xd5>
    976e:	8d 45 e7             	lea    -0x19(%ebp),%eax
    9771:	89 45 cc             	mov    %eax,-0x34(%ebp)
    9774:	8d 74 26 00          	lea    0x0(%esi,%eiz,1),%esi
    9778:	8b 55 d4             	mov    -0x2c(%ebp),%edx
    977b:	8b 42 18             	mov    0x18(%edx),%eax
    977e:	83 e8 0c             	sub    $0xc,%eax
    9781:	3b 83 94 ff ff ff    	cmp    -0x6c(%ebx),%eax
    9787:	0f 85 99 00 00 00    	jne    9826 <_ZN5SceneD1Ev+0x116>
    978d:	8b 45 d4             	mov    -0x2c(%ebp),%eax
    9790:	8b 78 10             	mov    0x10(%eax),%edi
    9793:	8b 70 0c             	mov    0xc(%eax),%esi
    9796:	39 f7                	cmp    %esi,%edi
    9798:	74 1c                	je     97b6 <_ZN5SceneD1Ev+0xa6>
    979a:	8d b6 00 00 00 00    	lea    0x0(%esi),%esi
    97a0:	8b 46 04             	mov    0x4(%esi),%eax
    97a3:	85 c0                	test   %eax,%eax
    97a5:	74 08                	je     97af <_ZN5SceneD1Ev+0x9f>
    97a7:	89 04 24             	mov    %eax,(%esp)
    97aa:	e8 21 dd ff ff       	call   74d0 <_ZdlPv@plt>
    97af:	8d 76 1c             	lea    0x1c(%esi),%esi
    97b2:	39 f7                	cmp    %esi,%edi
    97b4:	75 ea                	jne    97a0 <_ZN5SceneD1Ev+0x90>
    97b6:	8b 55 d4             	mov    -0x2c(%ebp),%edx
    97b9:	8b 42 0c             	mov    0xc(%edx),%eax
    97bc:	85 c0                	test   %eax,%eax
    97be:	74 08                	je     97c8 <_ZN5SceneD1Ev+0xb8>
    97c0:	89 04 24             	mov    %eax,(%esp)
    97c3:	e8 08 dd ff ff       	call   74d0 <_ZdlPv@plt>
    97c8:	8b 55 d4             	mov    -0x2c(%ebp),%edx
    97cb:	8b 02                	mov    (%edx),%eax
    97cd:	85 c0                	test   %eax,%eax
    97cf:	74 08                	je     97d9 <_ZN5SceneD1Ev+0xc9>
    97d1:	89 04 24             	mov    %eax,(%esp)
    97d4:	e8 f7 dc ff ff       	call   74d0 <_ZdlPv@plt>
    97d9:	83 45 d4 34          	addl   $0x34,-0x2c(%ebp)
    97dd:	8b 45 d4             	mov    -0x2c(%ebp),%eax
    97e0:	39 45 d0             	cmp    %eax,-0x30(%ebp)
    97e3:	75 93                	jne    9778 <_ZN5SceneD1Ev+0x68>
    97e5:	8b 55 08             	mov    0x8(%ebp),%edx
    97e8:	8b 02                	mov    (%edx),%eax
    97ea:	85 c0                	test   %eax,%eax
    97ec:	74 08                	je     97f6 <_ZN5SceneD1Ev+0xe6>
    97ee:	89 04 24             	mov    %eax,(%esp)
    97f1:	e8 da dc ff ff       	call   74d0 <_ZdlPv@plt>
    97f6:	8d 64 24 3c          	lea    0x3c(%esp),%esp
    97fa:	5b                   	pop    %ebx
    97fb:	5e                   	pop    %esi
    97fc:	5f                   	pop    %edi
    97fd:	5d                   	pop    %ebp
    97fe:	c3                   	ret    
    97ff:	89 c6                	mov    %eax,%esi
    9801:	8b 45 08             	mov    0x8(%ebp),%eax
    9804:	8b 50 0c             	mov    0xc(%eax),%edx
    9807:	85 d2                	test   %edx,%edx
    9809:	74 08                	je     9813 <_ZN5SceneD1Ev+0x103>
    980b:	89 14 24             	mov    %edx,(%esp)
    980e:	e8 bd dc ff ff       	call   74d0 <_ZdlPv@plt>
    9813:	8b 55 08             	mov    0x8(%ebp),%edx
    9816:	89 14 24             	mov    %edx,(%esp)
    9819:	e8 e2 d6 ff ff       	call   6f00 <_ZNSt6vectorI5ModelSaIS0_EED1Ev@plt>
    981e:	89 34 24             	mov    %esi,(%esp)
    9821:	e8 5a e3 ff ff       	call   7b80 <_Unwind_Resume@plt>
    9826:	83 bb a0 ff ff ff 00 	cmpl   $0x0,-0x60(%ebx)
    982d:	74 24                	je     9853 <_ZN5SceneD1Ev+0x143>
    982f:	83 ca ff             	or     $0xffffffff,%edx
    9832:	f0 0f c1 50 08       	lock xadd %edx,0x8(%eax)
    9837:	85 d2                	test   %edx,%edx
    9839:	0f 8f 4e ff ff ff    	jg     978d <_ZN5SceneD1Ev+0x7d>
    983f:	8b 55 cc             	mov    -0x34(%ebp),%edx
    9842:	89 04 24             	mov    %eax,(%esp)
    9845:	89 54 24 04          	mov    %edx,0x4(%esp)
    9849:	e8 02 db ff ff       	call   7350 <_ZNSs4_Rep10_M_destroyERKSaIcE@plt>
    984e:	e9 3a ff ff ff       	jmp    978d <_ZN5SceneD1Ev+0x7d>
    9853:	8b 50 08             	mov    0x8(%eax),%edx
    9856:	8d 4a ff             	lea    -0x1(%edx),%ecx
    9859:	89 48 08             	mov    %ecx,0x8(%eax)
    985c:	eb d9                	jmp    9837 <_ZN5SceneD1Ev+0x127>
    985e:	90                   	nop
    985f:	90                   	nop

00009860 <_ZN3BoxC1ERK5PointS2_>:
    9860:	55                   	push   %ebp
    9861:	89 e5                	mov    %esp,%ebp
    9863:	56                   	push   %esi
    9864:	8b 4d 0c             	mov    0xc(%ebp),%ecx
    9867:	8b 45 08             	mov    0x8(%ebp),%eax
    986a:	8b 55 10             	mov    0x10(%ebp),%edx
    986d:	8b 31                	mov    (%ecx),%esi
    986f:	89 30                	mov    %esi,(%eax)
    9871:	8b 71 04             	mov    0x4(%ecx),%esi
    9874:	89 70 04             	mov    %esi,0x4(%eax)
    9877:	8b 49 08             	mov    0x8(%ecx),%ecx
    987a:	89 48 08             	mov    %ecx,0x8(%eax)
    987d:	8b 0a                	mov    (%edx),%ecx
    987f:	89 48 0c             	mov    %ecx,0xc(%eax)
    9882:	8b 4a 04             	mov    0x4(%edx),%ecx
    9885:	89 48 10             	mov    %ecx,0x10(%eax)
    9888:	8b 52 08             	mov    0x8(%edx),%edx
    988b:	89 50 14             	mov    %edx,0x14(%eax)
    988e:	5e                   	pop    %esi
    988f:	5d                   	pop    %ebp
    9890:	c3                   	ret    
    9891:	90                   	nop
    9892:	8d b4 26 00 00 00 00 	lea    0x0(%esi,%eiz,1),%esi
    9899:	8d bc 27 00 00 00 00 	lea    0x0(%edi,%eiz,1),%edi

000098a0 <_ZN3Box6updateERK5Point>:
    98a0:	55                   	push   %ebp
    98a1:	89 e5                	mov    %esp,%ebp
    98a3:	8b 55 0c             	mov    0xc(%ebp),%edx
    98a6:	8b 45 08             	mov    0x8(%ebp),%eax
    98a9:	d9 02                	flds   (%edx)
    98ab:	d9 00                	flds   (%eax)
    98ad:	df e9                	fucomip %st(1),%st
    98af:	76 04                	jbe    98b5 <_ZN3Box6updateERK5Point+0x15>
    98b1:	d9 18                	fstps  (%eax)
    98b3:	d9 02                	flds   (%edx)
    98b5:	d9 42 04             	flds   0x4(%edx)
    98b8:	d9 40 04             	flds   0x4(%eax)
    98bb:	df e9                	fucomip %st(1),%st
    98bd:	76 06                	jbe    98c5 <_ZN3Box6updateERK5Point+0x25>
    98bf:	d9 58 04             	fstps  0x4(%eax)
    98c2:	d9 42 04             	flds   0x4(%edx)
    98c5:	d9 42 08             	flds   0x8(%edx)
    98c8:	d9 40 08             	flds   0x8(%eax)
    98cb:	df e9                	fucomip %st(1),%st
    98cd:	76 06                	jbe    98d5 <_ZN3Box6updateERK5Point+0x35>
    98cf:	d9 58 08             	fstps  0x8(%eax)
    98d2:	d9 42 08             	flds   0x8(%edx)
    98d5:	d9 40 0c             	flds   0xc(%eax)
    98d8:	d9 cb                	fxch   %st(3)
    98da:	db eb                	fucomi %st(3),%st
    98dc:	dd db                	fstp   %st(3)
    98de:	76 10                	jbe    98f0 <_ZN3Box6updateERK5Point+0x50>
    98e0:	d9 ca                	fxch   %st(2)
    98e2:	d9 58 0c             	fstps  0xc(%eax)
    98e5:	d9 c9                	fxch   %st(1)
    98e7:	eb 0b                	jmp    98f4 <_ZN3Box6updateERK5Point+0x54>
    98e9:	8d b4 26 00 00 00 00 	lea    0x0(%esi,%eiz,1),%esi
    98f0:	dd da                	fstp   %st(2)
    98f2:	d9 c9                	fxch   %st(1)
    98f4:	d9 40 10             	flds   0x10(%eax)
    98f7:	d9 ca                	fxch   %st(2)
    98f9:	db ea                	fucomi %st(2),%st
    98fb:	dd da                	fstp   %st(2)
    98fd:	76 09                	jbe    9908 <_ZN3Box6updateERK5Point+0x68>
    98ff:	d9 c9                	fxch   %st(1)
    9901:	d9 58 10             	fstps  0x10(%eax)
    9904:	eb 04                	jmp    990a <_ZN3Box6updateERK5Point+0x6a>
    9906:	66 90                	xchg   %ax,%ax
    9908:	dd d9                	fstp   %st(1)
    990a:	d9 40 14             	flds   0x14(%eax)
    990d:	d9 c9                	fxch   %st(1)
    990f:	db e9                	fucomi %st(1),%st
    9911:	dd d9                	fstp   %st(1)
    9913:	76 0b                	jbe    9920 <_ZN3Box6updateERK5Point+0x80>
    9915:	d9 58 14             	fstps  0x14(%eax)
    9918:	eb 08                	jmp    9922 <_ZN3Box6updateERK5Point+0x82>
    991a:	8d b6 00 00 00 00    	lea    0x0(%esi),%esi
    9920:	dd d8                	fstp   %st(0)
    9922:	5d                   	pop    %ebp
    9923:	c3                   	ret    
    9924:	8d b6 00 00 00 00    	lea    0x0(%esi),%esi
    992a:	8d bf 00 00 00 00    	lea    0x0(%edi),%edi

00009930 <_ZN3Box4initERK5Point>:
    9930:	55                   	push   %ebp
    9931:	89 e5                	mov    %esp,%ebp
    9933:	8b 55 0c             	mov    0xc(%ebp),%edx
    9936:	8b 45 08             	mov    0x8(%ebp),%eax
    9939:	8b 0a                	mov    (%edx),%ecx
    993b:	89 08                	mov    %ecx,(%eax)
    993d:	8b 4a 04             	mov    0x4(%edx),%ecx
    9940:	89 48 04             	mov    %ecx,0x4(%eax)
    9943:	8b 4a 08             	mov    0x8(%edx),%ecx
    9946:	89 48 08             	mov    %ecx,0x8(%eax)
    9949:	8b 0a                	mov    (%edx),%ecx
    994b:	89 48 0c             	mov    %ecx,0xc(%eax)
    994e:	8b 4a 04             	mov    0x4(%edx),%ecx
    9951:	89 48 10             	mov    %ecx,0x10(%eax)
    9954:	8b 52 08             	mov    0x8(%edx),%edx
    9957:	89 50 14             	mov    %edx,0x14(%eax)
    995a:	5d                   	pop    %ebp
    995b:	c3                   	ret    
    995c:	8d 74 26 00          	lea    0x0(%esi,%eiz,1),%esi

00009960 <_GLOBAL__I_box.cpp>:
    9960:	55                   	push   %ebp
    9961:	89 e5                	mov    %esp,%ebp
    9963:	8d 64 24 e8          	lea    -0x18(%esp),%esp
    9967:	89 5d f8             	mov    %ebx,-0x8(%ebp)
    996a:	89 75 fc             	mov    %esi,-0x4(%ebp)
    996d:	e8 c7 e4 ff ff       	call   7e39 <__i686.get_pc_thunk.bx>
    9972:	81 c3 32 fb 00 00    	add    $0xfb32,%ebx
    9978:	8d b3 28 04 00 00    	lea    0x428(%ebx),%esi
    997e:	89 34 24             	mov    %esi,(%esp)
    9981:	e8 2a e0 ff ff       	call   79b0 <_ZNSt8ios_base4InitC1Ev@plt>
    9986:	8b 83 b0 ff ff ff    	mov    -0x50(%ebx),%eax
    998c:	89 74 24 04          	mov    %esi,0x4(%esp)
    9990:	89 44 24 08          	mov    %eax,0x8(%esp)
    9994:	8b 83 fc ff ff ff    	mov    -0x4(%ebx),%eax
    999a:	89 04 24             	mov    %eax,(%esp)
    999d:	e8 4e d9 ff ff       	call   72f0 <__cxa_atexit@plt>
    99a2:	8b 5d f8             	mov    -0x8(%ebp),%ebx
    99a5:	8b 75 fc             	mov    -0x4(%ebp),%esi
    99a8:	89 ec                	mov    %ebp,%esp
    99aa:	5d                   	pop    %ebp
    99ab:	c3                   	ret    
    99ac:	8d 74 26 00          	lea    0x0(%esi,%eiz,1),%esi

000099b0 <_ZN3Box6RenderEddd>:
    99b0:	55                   	push   %ebp
    99b1:	89 e5                	mov    %esp,%ebp
    99b3:	56                   	push   %esi
    99b4:	53                   	push   %ebx
    99b5:	e8 7f e4 ff ff       	call   7e39 <__i686.get_pc_thunk.bx>
    99ba:	81 c3 ea fa 00 00    	add    $0xfaea,%ebx
    99c0:	8d 64 24 c0          	lea    -0x40(%esp),%esp
    99c4:	dd 45 0c             	fldl   0xc(%ebp)
    99c7:	dd 45 14             	fldl   0x14(%ebp)
    99ca:	8b 75 08             	mov    0x8(%ebp),%esi
    99cd:	dd 45 1c             	fldl   0x1c(%ebp)
    99d0:	d9 ca                	fxch   %st(2)
    99d2:	c7 04 24 ff ff ff ff 	movl   $0xffffffff,(%esp)
    99d9:	dd 5d e8             	fstpl  -0x18(%ebp)
    99dc:	dd 5d d8             	fstpl  -0x28(%ebp)
    99df:	dd 5d c8             	fstpl  -0x38(%ebp)
    99e2:	e8 a9 de ff ff       	call   7890 <glPushAttrib@plt>
    99e7:	c7 44 24 04 01 1b 00 	movl   $0x1b01,0x4(%esp)
    99ee:	00 
    99ef:	c7 04 24 08 04 00 00 	movl   $0x408,(%esp)
    99f6:	e8 a5 d9 ff ff       	call   73a0 <glPolygonMode@plt>
    99fb:	dd 45 c8             	fldl   -0x38(%ebp)
    99fe:	d9 5c 24 08          	fstps  0x8(%esp)
    9a02:	dd 45 d8             	fldl   -0x28(%ebp)
    9a05:	d9 5c 24 04          	fstps  0x4(%esp)
    9a09:	dd 45 e8             	fldl   -0x18(%ebp)
    9a0c:	d9 1c 24             	fstps  (%esp)
    9a0f:	e8 dc e2 ff ff       	call   7cf0 <glColor3f@plt>
    9a14:	c7 04 24 01 00 00 00 	movl   $0x1,(%esp)
    9a1b:	e8 50 d5 ff ff       	call   6f70 <glBegin@plt>
    9a20:	8b 46 08             	mov    0x8(%esi),%eax
    9a23:	89 44 24 08          	mov    %eax,0x8(%esp)
    9a27:	8b 46 04             	mov    0x4(%esi),%eax
    9a2a:	89 44 24 04          	mov    %eax,0x4(%esp)
    9a2e:	8b 06                	mov    (%esi),%eax
    9a30:	89 04 24             	mov    %eax,(%esp)
    9a33:	e8 f8 e2 ff ff       	call   7d30 <glVertex3f@plt>
    9a38:	8b 46 08             	mov    0x8(%esi),%eax
    9a3b:	89 44 24 08          	mov    %eax,0x8(%esp)
    9a3f:	8b 46 04             	mov    0x4(%esi),%eax
    9a42:	89 44 24 04          	mov    %eax,0x4(%esp)
    9a46:	8b 46 0c             	mov    0xc(%esi),%eax
    9a49:	89 04 24             	mov    %eax,(%esp)
    9a4c:	e8 df e2 ff ff       	call   7d30 <glVertex3f@plt>
    9a51:	8b 46 08             	mov    0x8(%esi),%eax
    9a54:	89 44 24 08          	mov    %eax,0x8(%esp)
    9a58:	8b 46 04             	mov    0x4(%esi),%eax
    9a5b:	89 44 24 04          	mov    %eax,0x4(%esp)
    9a5f:	8b 46 0c             	mov    0xc(%esi),%eax
    9a62:	89 04 24             	mov    %eax,(%esp)
    9a65:	e8 c6 e2 ff ff       	call   7d30 <glVertex3f@plt>
    9a6a:	8b 46 08             	mov    0x8(%esi),%eax
    9a6d:	89 44 24 08          	mov    %eax,0x8(%esp)
    9a71:	8b 46 10             	mov    0x10(%esi),%eax
    9a74:	89 44 24 04          	mov    %eax,0x4(%esp)
    9a78:	8b 46 0c             	mov    0xc(%esi),%eax
    9a7b:	89 04 24             	mov    %eax,(%esp)
    9a7e:	e8 ad e2 ff ff       	call   7d30 <glVertex3f@plt>
    9a83:	8b 46 08             	mov    0x8(%esi),%eax
    9a86:	89 44 24 08          	mov    %eax,0x8(%esp)
    9a8a:	8b 46 10             	mov    0x10(%esi),%eax
    9a8d:	89 44 24 04          	mov    %eax,0x4(%esp)
    9a91:	8b 46 0c             	mov    0xc(%esi),%eax
    9a94:	89 04 24             	mov    %eax,(%esp)
    9a97:	e8 94 e2 ff ff       	call   7d30 <glVertex3f@plt>
    9a9c:	8b 46 08             	mov    0x8(%esi),%eax
    9a9f:	89 44 24 08          	mov    %eax,0x8(%esp)
    9aa3:	8b 46 10             	mov    0x10(%esi),%eax
    9aa6:	89 44 24 04          	mov    %eax,0x4(%esp)
    9aaa:	8b 06                	mov    (%esi),%eax
    9aac:	89 04 24             	mov    %eax,(%esp)
    9aaf:	e8 7c e2 ff ff       	call   7d30 <glVertex3f@plt>
    9ab4:	8b 46 08             	mov    0x8(%esi),%eax
    9ab7:	89 44 24 08          	mov    %eax,0x8(%esp)
    9abb:	8b 46 10             	mov    0x10(%esi),%eax
    9abe:	89 44 24 04          	mov    %eax,0x4(%esp)
    9ac2:	8b 06                	mov    (%esi),%eax
    9ac4:	89 04 24             	mov    %eax,(%esp)
    9ac7:	e8 64 e2 ff ff       	call   7d30 <glVertex3f@plt>
    9acc:	8b 46 08             	mov    0x8(%esi),%eax
    9acf:	89 44 24 08          	mov    %eax,0x8(%esp)
    9ad3:	8b 46 04             	mov    0x4(%esi),%eax
    9ad6:	89 44 24 04          	mov    %eax,0x4(%esp)
    9ada:	8b 06                	mov    (%esi),%eax
    9adc:	89 04 24             	mov    %eax,(%esp)
    9adf:	e8 4c e2 ff ff       	call   7d30 <glVertex3f@plt>
    9ae4:	8b 46 14             	mov    0x14(%esi),%eax
    9ae7:	89 44 24 08          	mov    %eax,0x8(%esp)
    9aeb:	8b 46 04             	mov    0x4(%esi),%eax
    9aee:	89 44 24 04          	mov    %eax,0x4(%esp)
    9af2:	8b 06                	mov    (%esi),%eax
    9af4:	89 04 24             	mov    %eax,(%esp)
    9af7:	e8 34 e2 ff ff       	call   7d30 <glVertex3f@plt>
    9afc:	8b 46 14             	mov    0x14(%esi),%eax
    9aff:	89 44 24 08          	mov    %eax,0x8(%esp)
    9b03:	8b 46 04             	mov    0x4(%esi),%eax
    9b06:	89 44 24 04          	mov    %eax,0x4(%esp)
    9b0a:	8b 46 0c             	mov    0xc(%esi),%eax
    9b0d:	89 04 24             	mov    %eax,(%esp)
    9b10:	e8 1b e2 ff ff       	call   7d30 <glVertex3f@plt>
    9b15:	8b 46 14             	mov    0x14(%esi),%eax
    9b18:	89 44 24 08          	mov    %eax,0x8(%esp)
    9b1c:	8b 46 04             	mov    0x4(%esi),%eax
    9b1f:	89 44 24 04          	mov    %eax,0x4(%esp)
    9b23:	8b 46 0c             	mov    0xc(%esi),%eax
    9b26:	89 04 24             	mov    %eax,(%esp)
    9b29:	e8 02 e2 ff ff       	call   7d30 <glVertex3f@plt>
    9b2e:	8b 46 14             	mov    0x14(%esi),%eax
    9b31:	89 44 24 08          	mov    %eax,0x8(%esp)
    9b35:	8b 46 10             	mov    0x10(%esi),%eax
    9b38:	89 44 24 04          	mov    %eax,0x4(%esp)
    9b3c:	8b 46 0c             	mov    0xc(%esi),%eax
    9b3f:	89 04 24             	mov    %eax,(%esp)
    9b42:	e8 e9 e1 ff ff       	call   7d30 <glVertex3f@plt>
    9b47:	8b 46 14             	mov    0x14(%esi),%eax
    9b4a:	89 44 24 08          	mov    %eax,0x8(%esp)
    9b4e:	8b 46 10             	mov    0x10(%esi),%eax
    9b51:	89 44 24 04          	mov    %eax,0x4(%esp)
    9b55:	8b 46 0c             	mov    0xc(%esi),%eax
    9b58:	89 04 24             	mov    %eax,(%esp)
    9b5b:	e8 d0 e1 ff ff       	call   7d30 <glVertex3f@plt>
    9b60:	8b 46 14             	mov    0x14(%esi),%eax
    9b63:	89 44 24 08          	mov    %eax,0x8(%esp)
    9b67:	8b 46 10             	mov    0x10(%esi),%eax
    9b6a:	89 44 24 04          	mov    %eax,0x4(%esp)
    9b6e:	8b 06                	mov    (%esi),%eax
    9b70:	89 04 24             	mov    %eax,(%esp)
    9b73:	e8 b8 e1 ff ff       	call   7d30 <glVertex3f@plt>
    9b78:	8b 46 14             	mov    0x14(%esi),%eax
    9b7b:	89 44 24 08          	mov    %eax,0x8(%esp)
    9b7f:	8b 46 10             	mov    0x10(%esi),%eax
    9b82:	89 44 24 04          	mov    %eax,0x4(%esp)
    9b86:	8b 06                	mov    (%esi),%eax
    9b88:	89 04 24             	mov    %eax,(%esp)
    9b8b:	e8 a0 e1 ff ff       	call   7d30 <glVertex3f@plt>
    9b90:	8b 46 14             	mov    0x14(%esi),%eax
    9b93:	89 44 24 08          	mov    %eax,0x8(%esp)
    9b97:	8b 46 04             	mov    0x4(%esi),%eax
    9b9a:	89 44 24 04          	mov    %eax,0x4(%esp)
    9b9e:	8b 06                	mov    (%esi),%eax
    9ba0:	89 04 24             	mov    %eax,(%esp)
    9ba3:	e8 88 e1 ff ff       	call   7d30 <glVertex3f@plt>
    9ba8:	8b 46 08             	mov    0x8(%esi),%eax
    9bab:	89 44 24 08          	mov    %eax,0x8(%esp)
    9baf:	8b 46 10             	mov    0x10(%esi),%eax
    9bb2:	89 44 24 04          	mov    %eax,0x4(%esp)
    9bb6:	8b 06                	mov    (%esi),%eax
    9bb8:	89 04 24             	mov    %eax,(%esp)
    9bbb:	e8 70 e1 ff ff       	call   7d30 <glVertex3f@plt>
    9bc0:	8b 46 14             	mov    0x14(%esi),%eax
    9bc3:	89 44 24 08          	mov    %eax,0x8(%esp)
    9bc7:	8b 46 10             	mov    0x10(%esi),%eax
    9bca:	89 44 24 04          	mov    %eax,0x4(%esp)
    9bce:	8b 06                	mov    (%esi),%eax
    9bd0:	89 04 24             	mov    %eax,(%esp)
    9bd3:	e8 58 e1 ff ff       	call   7d30 <glVertex3f@plt>
    9bd8:	8b 46 08             	mov    0x8(%esi),%eax
    9bdb:	89 44 24 08          	mov    %eax,0x8(%esp)
    9bdf:	8b 46 10             	mov    0x10(%esi),%eax
    9be2:	89 44 24 04          	mov    %eax,0x4(%esp)
    9be6:	8b 46 0c             	mov    0xc(%esi),%eax
    9be9:	89 04 24             	mov    %eax,(%esp)
    9bec:	e8 3f e1 ff ff       	call   7d30 <glVertex3f@plt>
    9bf1:	8b 46 14             	mov    0x14(%esi),%eax
    9bf4:	89 44 24 08          	mov    %eax,0x8(%esp)
    9bf8:	8b 46 10             	mov    0x10(%esi),%eax
    9bfb:	89 44 24 04          	mov    %eax,0x4(%esp)
    9bff:	8b 46 0c             	mov    0xc(%esi),%eax
    9c02:	89 04 24             	mov    %eax,(%esp)
    9c05:	e8 26 e1 ff ff       	call   7d30 <glVertex3f@plt>
    9c0a:	8b 46 08             	mov    0x8(%esi),%eax
    9c0d:	89 44 24 08          	mov    %eax,0x8(%esp)
    9c11:	8b 46 04             	mov    0x4(%esi),%eax
    9c14:	89 44 24 04          	mov    %eax,0x4(%esp)
    9c18:	8b 06                	mov    (%esi),%eax
    9c1a:	89 04 24             	mov    %eax,(%esp)
    9c1d:	e8 0e e1 ff ff       	call   7d30 <glVertex3f@plt>
    9c22:	8b 46 14             	mov    0x14(%esi),%eax
    9c25:	89 44 24 08          	mov    %eax,0x8(%esp)
    9c29:	8b 46 04             	mov    0x4(%esi),%eax
    9c2c:	89 44 24 04          	mov    %eax,0x4(%esp)
    9c30:	8b 06                	mov    (%esi),%eax
    9c32:	89 04 24             	mov    %eax,(%esp)
    9c35:	e8 f6 e0 ff ff       	call   7d30 <glVertex3f@plt>
    9c3a:	8b 46 08             	mov    0x8(%esi),%eax
    9c3d:	89 44 24 08          	mov    %eax,0x8(%esp)
    9c41:	8b 46 04             	mov    0x4(%esi),%eax
    9c44:	89 44 24 04          	mov    %eax,0x4(%esp)
    9c48:	8b 46 0c             	mov    0xc(%esi),%eax
    9c4b:	89 04 24             	mov    %eax,(%esp)
    9c4e:	e8 dd e0 ff ff       	call   7d30 <glVertex3f@plt>
    9c53:	8b 46 14             	mov    0x14(%esi),%eax
    9c56:	89 44 24 08          	mov    %eax,0x8(%esp)
    9c5a:	8b 46 04             	mov    0x4(%esi),%eax
    9c5d:	89 44 24 04          	mov    %eax,0x4(%esp)
    9c61:	8b 46 0c             	mov    0xc(%esi),%eax
    9c64:	89 04 24             	mov    %eax,(%esp)
    9c67:	e8 c4 e0 ff ff       	call   7d30 <glVertex3f@plt>
    9c6c:	e8 ef da ff ff       	call   7760 <glEnd@plt>
    9c71:	e8 ca d1 ff ff       	call   6e40 <glPopAttrib@plt>
    9c76:	8d 64 24 40          	lea    0x40(%esp),%esp
    9c7a:	5b                   	pop    %ebx
    9c7b:	5e                   	pop    %esi
    9c7c:	5d                   	pop    %ebp
    9c7d:	c3                   	ret    
    9c7e:	66 90                	xchg   %ax,%ax

00009c80 <_ZN3Box6RenderEv>:
    9c80:	55                   	push   %ebp
    9c81:	d9 e8                	fld1   
    9c83:	89 e5                	mov    %esp,%ebp
    9c85:	53                   	push   %ebx
    9c86:	e8 ae e1 ff ff       	call   7e39 <__i686.get_pc_thunk.bx>
    9c8b:	81 c3 19 f8 00 00    	add    $0xf819,%ebx
    9c91:	8d 64 24 cc          	lea    -0x34(%esp),%esp
    9c95:	d9 14 24             	fsts   (%esp)
    9c98:	d9 5d e8             	fstps  -0x18(%ebp)
    9c9b:	e8 50 df ff ff       	call   7bf0 <glLineWidth@plt>
    9ca0:	d9 45 e8             	flds   -0x18(%ebp)
    9ca3:	8b 45 08             	mov    0x8(%ebp),%eax
    9ca6:	dd 54 24 14          	fstl   0x14(%esp)
    9caa:	89 04 24             	mov    %eax,(%esp)
    9cad:	dd 54 24 0c          	fstl   0xc(%esp)
    9cb1:	dd 5c 24 04          	fstpl  0x4(%esp)
    9cb5:	e8 76 db ff ff       	call   7830 <_ZN3Box6RenderEddd@plt>
    9cba:	8d 64 24 34          	lea    0x34(%esp),%esp
    9cbe:	5b                   	pop    %ebx
    9cbf:	5d                   	pop    %ebp
    9cc0:	c3                   	ret    
    9cc1:	90                   	nop
    9cc2:	8d b4 26 00 00 00 00 	lea    0x0(%esi,%eiz,1),%esi
    9cc9:	8d bc 27 00 00 00 00 	lea    0x0(%edi,%eiz,1),%edi

00009cd0 <_ZNK3Box9getPointsEv>:
    9cd0:	55                   	push   %ebp
    9cd1:	89 e5                	mov    %esp,%ebp
    9cd3:	57                   	push   %edi
    9cd4:	56                   	push   %esi
    9cd5:	53                   	push   %ebx
    9cd6:	e8 5e e1 ff ff       	call   7e39 <__i686.get_pc_thunk.bx>
    9cdb:	81 c3 c9 f7 00 00    	add    $0xf7c9,%ebx
    9ce1:	8d a4 24 74 ff ff ff 	lea    -0x8c(%esp),%esp
    9ce8:	8b 75 0c             	mov    0xc(%ebp),%esi
    9ceb:	8b 7d 08             	mov    0x8(%ebp),%edi
    9cee:	8b 46 14             	mov    0x14(%esi),%eax
    9cf1:	c7 07 00 00 00 00    	movl   $0x0,(%edi)
    9cf7:	c7 47 04 00 00 00 00 	movl   $0x0,0x4(%edi)
    9cfe:	c7 47 08 00 00 00 00 	movl   $0x0,0x8(%edi)
    9d05:	89 44 24 0c          	mov    %eax,0xc(%esp)
    9d09:	8b 46 04             	mov    0x4(%esi),%eax
    9d0c:	89 44 24 08          	mov    %eax,0x8(%esp)
    9d10:	8b 06                	mov    (%esi),%eax
    9d12:	89 44 24 04          	mov    %eax,0x4(%esp)
    9d16:	8d 45 dc             	lea    -0x24(%ebp),%eax
    9d19:	89 45 84             	mov    %eax,-0x7c(%ebp)
    9d1c:	89 04 24             	mov    %eax,(%esp)
    9d1f:	e8 3c d8 ff ff       	call   7560 <_ZN5PointC1Efff@plt>
    9d24:	8b 47 04             	mov    0x4(%edi),%eax
    9d27:	3b 47 08             	cmp    0x8(%edi),%eax
    9d2a:	0f 84 58 02 00 00    	je     9f88 <_ZNK3Box9getPointsEv+0x2b8>
    9d30:	31 d2                	xor    %edx,%edx
    9d32:	85 c0                	test   %eax,%eax
    9d34:	74 14                	je     9d4a <_ZNK3Box9getPointsEv+0x7a>
    9d36:	8b 55 dc             	mov    -0x24(%ebp),%edx
    9d39:	89 10                	mov    %edx,(%eax)
    9d3b:	8b 55 e0             	mov    -0x20(%ebp),%edx
    9d3e:	89 50 04             	mov    %edx,0x4(%eax)
    9d41:	8b 55 e4             	mov    -0x1c(%ebp),%edx
    9d44:	89 50 08             	mov    %edx,0x8(%eax)
    9d47:	8b 57 04             	mov    0x4(%edi),%edx
    9d4a:	8d 52 0c             	lea    0xc(%edx),%edx
    9d4d:	89 57 04             	mov    %edx,0x4(%edi)
    9d50:	8b 46 08             	mov    0x8(%esi),%eax
    9d53:	89 44 24 0c          	mov    %eax,0xc(%esp)
    9d57:	8b 46 04             	mov    0x4(%esi),%eax
    9d5a:	89 44 24 08          	mov    %eax,0x8(%esp)
    9d5e:	8b 06                	mov    (%esi),%eax
    9d60:	89 44 24 04          	mov    %eax,0x4(%esp)
    9d64:	8d 45 d0             	lea    -0x30(%ebp),%eax
    9d67:	89 45 84             	mov    %eax,-0x7c(%ebp)
    9d6a:	89 04 24             	mov    %eax,(%esp)
    9d6d:	e8 ee d7 ff ff       	call   7560 <_ZN5PointC1Efff@plt>
    9d72:	8b 47 04             	mov    0x4(%edi),%eax
    9d75:	3b 47 08             	cmp    0x8(%edi),%eax
    9d78:	0f 84 22 02 00 00    	je     9fa0 <_ZNK3Box9getPointsEv+0x2d0>
    9d7e:	31 d2                	xor    %edx,%edx
    9d80:	85 c0                	test   %eax,%eax
    9d82:	74 14                	je     9d98 <_ZNK3Box9getPointsEv+0xc8>
    9d84:	8b 55 d0             	mov    -0x30(%ebp),%edx
    9d87:	89 10                	mov    %edx,(%eax)
    9d89:	8b 55 d4             	mov    -0x2c(%ebp),%edx
    9d8c:	89 50 04             	mov    %edx,0x4(%eax)
    9d8f:	8b 55 d8             	mov    -0x28(%ebp),%edx
    9d92:	89 50 08             	mov    %edx,0x8(%eax)
    9d95:	8b 57 04             	mov    0x4(%edi),%edx
    9d98:	8d 52 0c             	lea    0xc(%edx),%edx
    9d9b:	89 57 04             	mov    %edx,0x4(%edi)
    9d9e:	8b 46 14             	mov    0x14(%esi),%eax
    9da1:	89 44 24 0c          	mov    %eax,0xc(%esp)
    9da5:	8b 46 10             	mov    0x10(%esi),%eax
    9da8:	89 44 24 08          	mov    %eax,0x8(%esp)
    9dac:	8b 06                	mov    (%esi),%eax
    9dae:	89 44 24 04          	mov    %eax,0x4(%esp)
    9db2:	8d 45 c4             	lea    -0x3c(%ebp),%eax
    9db5:	89 45 84             	mov    %eax,-0x7c(%ebp)
    9db8:	89 04 24             	mov    %eax,(%esp)
    9dbb:	e8 a0 d7 ff ff       	call   7560 <_ZN5PointC1Efff@plt>
    9dc0:	8b 47 04             	mov    0x4(%edi),%eax
    9dc3:	3b 47 08             	cmp    0x8(%edi),%eax
    9dc6:	0f 84 ec 01 00 00    	je     9fb8 <_ZNK3Box9getPointsEv+0x2e8>
    9dcc:	31 d2                	xor    %edx,%edx
    9dce:	85 c0                	test   %eax,%eax
    9dd0:	74 14                	je     9de6 <_ZNK3Box9getPointsEv+0x116>
    9dd2:	8b 55 c4             	mov    -0x3c(%ebp),%edx
    9dd5:	89 10                	mov    %edx,(%eax)
    9dd7:	8b 55 c8             	mov    -0x38(%ebp),%edx
    9dda:	89 50 04             	mov    %edx,0x4(%eax)
    9ddd:	8b 55 cc             	mov    -0x34(%ebp),%edx
    9de0:	89 50 08             	mov    %edx,0x8(%eax)
    9de3:	8b 57 04             	mov    0x4(%edi),%edx
    9de6:	8d 52 0c             	lea    0xc(%edx),%edx
    9de9:	89 57 04             	mov    %edx,0x4(%edi)
    9dec:	8b 46 08             	mov    0x8(%esi),%eax
    9def:	89 44 24 0c          	mov    %eax,0xc(%esp)
    9df3:	8b 46 10             	mov    0x10(%esi),%eax
    9df6:	89 44 24 08          	mov    %eax,0x8(%esp)
    9dfa:	8b 06                	mov    (%esi),%eax
    9dfc:	89 44 24 04          	mov    %eax,0x4(%esp)
    9e00:	8d 45 b8             	lea    -0x48(%ebp),%eax
    9e03:	89 45 84             	mov    %eax,-0x7c(%ebp)
    9e06:	89 04 24             	mov    %eax,(%esp)
    9e09:	e8 52 d7 ff ff       	call   7560 <_ZN5PointC1Efff@plt>
    9e0e:	8b 47 04             	mov    0x4(%edi),%eax
    9e11:	3b 47 08             	cmp    0x8(%edi),%eax
    9e14:	0f 84 b6 01 00 00    	je     9fd0 <_ZNK3Box9getPointsEv+0x300>
    9e1a:	31 d2                	xor    %edx,%edx
    9e1c:	85 c0                	test   %eax,%eax
    9e1e:	74 14                	je     9e34 <_ZNK3Box9getPointsEv+0x164>
    9e20:	8b 55 b8             	mov    -0x48(%ebp),%edx
    9e23:	89 10                	mov    %edx,(%eax)
    9e25:	8b 55 bc             	mov    -0x44(%ebp),%edx
    9e28:	89 50 04             	mov    %edx,0x4(%eax)
    9e2b:	8b 55 c0             	mov    -0x40(%ebp),%edx
    9e2e:	89 50 08             	mov    %edx,0x8(%eax)
    9e31:	8b 57 04             	mov    0x4(%edi),%edx
    9e34:	8d 52 0c             	lea    0xc(%edx),%edx
    9e37:	89 57 04             	mov    %edx,0x4(%edi)
    9e3a:	8b 46 14             	mov    0x14(%esi),%eax
    9e3d:	89 44 24 0c          	mov    %eax,0xc(%esp)
    9e41:	8b 46 04             	mov    0x4(%esi),%eax
    9e44:	89 44 24 08          	mov    %eax,0x8(%esp)
    9e48:	8b 46 0c             	mov    0xc(%esi),%eax
    9e4b:	89 44 24 04          	mov    %eax,0x4(%esp)
    9e4f:	8d 45 ac             	lea    -0x54(%ebp),%eax
    9e52:	89 45 84             	mov    %eax,-0x7c(%ebp)
    9e55:	89 04 24             	mov    %eax,(%esp)
    9e58:	e8 03 d7 ff ff       	call   7560 <_ZN5PointC1Efff@plt>
    9e5d:	8b 47 04             	mov    0x4(%edi),%eax
    9e60:	3b 47 08             	cmp    0x8(%edi),%eax
    9e63:	0f 84 7f 01 00 00    	je     9fe8 <_ZNK3Box9getPointsEv+0x318>
    9e69:	31 d2                	xor    %edx,%edx
    9e6b:	85 c0                	test   %eax,%eax
    9e6d:	74 14                	je     9e83 <_ZNK3Box9getPointsEv+0x1b3>
    9e6f:	8b 55 ac             	mov    -0x54(%ebp),%edx
    9e72:	89 10                	mov    %edx,(%eax)
    9e74:	8b 55 b0             	mov    -0x50(%ebp),%edx
    9e77:	89 50 04             	mov    %edx,0x4(%eax)
    9e7a:	8b 55 b4             	mov    -0x4c(%ebp),%edx
    9e7d:	89 50 08             	mov    %edx,0x8(%eax)
    9e80:	8b 57 04             	mov    0x4(%edi),%edx
    9e83:	8d 52 0c             	lea    0xc(%edx),%edx
    9e86:	89 57 04             	mov    %edx,0x4(%edi)
    9e89:	8b 46 08             	mov    0x8(%esi),%eax
    9e8c:	89 44 24 0c          	mov    %eax,0xc(%esp)
    9e90:	8b 46 04             	mov    0x4(%esi),%eax
    9e93:	89 44 24 08          	mov    %eax,0x8(%esp)
    9e97:	8b 46 0c             	mov    0xc(%esi),%eax
    9e9a:	89 44 24 04          	mov    %eax,0x4(%esp)
    9e9e:	8d 45 a0             	lea    -0x60(%ebp),%eax
    9ea1:	89 45 84             	mov    %eax,-0x7c(%ebp)
    9ea4:	89 04 24             	mov    %eax,(%esp)
    9ea7:	e8 b4 d6 ff ff       	call   7560 <_ZN5PointC1Efff@plt>
    9eac:	8b 47 04             	mov    0x4(%edi),%eax
    9eaf:	3b 47 08             	cmp    0x8(%edi),%eax
    9eb2:	0f 84 48 01 00 00    	je     a000 <_ZNK3Box9getPointsEv+0x330>
    9eb8:	31 d2                	xor    %edx,%edx
    9eba:	85 c0                	test   %eax,%eax
    9ebc:	74 14                	je     9ed2 <_ZNK3Box9getPointsEv+0x202>
    9ebe:	8b 55 a0             	mov    -0x60(%ebp),%edx
    9ec1:	89 10                	mov    %edx,(%eax)
    9ec3:	8b 55 a4             	mov    -0x5c(%ebp),%edx
    9ec6:	89 50 04             	mov    %edx,0x4(%eax)
    9ec9:	8b 55 a8             	mov    -0x58(%ebp),%edx
    9ecc:	89 50 08             	mov    %edx,0x8(%eax)
    9ecf:	8b 57 04             	mov    0x4(%edi),%edx
    9ed2:	8d 52 0c             	lea    0xc(%edx),%edx
    9ed5:	89 57 04             	mov    %edx,0x4(%edi)
    9ed8:	8b 46 14             	mov    0x14(%esi),%eax
    9edb:	89 44 24 0c          	mov    %eax,0xc(%esp)
    9edf:	8b 46 10             	mov    0x10(%esi),%eax
    9ee2:	89 44 24 08          	mov    %eax,0x8(%esp)
    9ee6:	8b 46 0c             	mov    0xc(%esi),%eax
    9ee9:	89 44 24 04          	mov    %eax,0x4(%esp)
    9eed:	8d 45 94             	lea    -0x6c(%ebp),%eax
    9ef0:	89 45 84             	mov    %eax,-0x7c(%ebp)
    9ef3:	89 04 24             	mov    %eax,(%esp)
    9ef6:	e8 65 d6 ff ff       	call   7560 <_ZN5PointC1Efff@plt>
    9efb:	8b 47 04             	mov    0x4(%edi),%eax
    9efe:	3b 47 08             	cmp    0x8(%edi),%eax
    9f01:	0f 84 11 01 00 00    	je     a018 <_ZNK3Box9getPointsEv+0x348>
    9f07:	31 d2                	xor    %edx,%edx
    9f09:	85 c0                	test   %eax,%eax
    9f0b:	74 14                	je     9f21 <_ZNK3Box9getPointsEv+0x251>
    9f0d:	8b 55 94             	mov    -0x6c(%ebp),%edx
    9f10:	89 10                	mov    %edx,(%eax)
    9f12:	8b 55 98             	mov    -0x68(%ebp),%edx
    9f15:	89 50 04             	mov    %edx,0x4(%eax)
    9f18:	8b 55 9c             	mov    -0x64(%ebp),%edx
    9f1b:	89 50 08             	mov    %edx,0x8(%eax)
    9f1e:	8b 57 04             	mov    0x4(%edi),%edx
    9f21:	8d 52 0c             	lea    0xc(%edx),%edx
    9f24:	89 57 04             	mov    %edx,0x4(%edi)
    9f27:	8b 46 08             	mov    0x8(%esi),%eax
    9f2a:	89 44 24 0c          	mov    %eax,0xc(%esp)
    9f2e:	8b 46 10             	mov    0x10(%esi),%eax
    9f31:	89 44 24 08          	mov    %eax,0x8(%esp)
    9f35:	8b 46 0c             	mov    0xc(%esi),%eax
    9f38:	89 44 24 04          	mov    %eax,0x4(%esp)
    9f3c:	8d 75 88             	lea    -0x78(%ebp),%esi
    9f3f:	89 34 24             	mov    %esi,(%esp)
    9f42:	e8 19 d6 ff ff       	call   7560 <_ZN5PointC1Efff@plt>
    9f47:	8b 47 04             	mov    0x4(%edi),%eax
    9f4a:	3b 47 08             	cmp    0x8(%edi),%eax
    9f4d:	0f 84 dd 00 00 00    	je     a030 <_ZNK3Box9getPointsEv+0x360>
    9f53:	31 d2                	xor    %edx,%edx
    9f55:	85 c0                	test   %eax,%eax
    9f57:	74 14                	je     9f6d <_ZNK3Box9getPointsEv+0x29d>
    9f59:	8b 55 88             	mov    -0x78(%ebp),%edx
    9f5c:	89 10                	mov    %edx,(%eax)
    9f5e:	8b 55 8c             	mov    -0x74(%ebp),%edx
    9f61:	89 50 04             	mov    %edx,0x4(%eax)
    9f64:	8b 55 90             	mov    -0x70(%ebp),%edx
    9f67:	89 50 08             	mov    %edx,0x8(%eax)
    9f6a:	8b 57 04             	mov    0x4(%edi),%edx
    9f6d:	8d 52 0c             	lea    0xc(%edx),%edx
    9f70:	89 57 04             	mov    %edx,0x4(%edi)
    9f73:	8d a4 24 8c 00 00 00 	lea    0x8c(%esp),%esp
    9f7a:	89 f8                	mov    %edi,%eax
    9f7c:	5b                   	pop    %ebx
    9f7d:	5e                   	pop    %esi
    9f7e:	5f                   	pop    %edi
    9f7f:	5d                   	pop    %ebp
    9f80:	c2 04 00             	ret    $0x4
    9f83:	90                   	nop
    9f84:	8d 74 26 00          	lea    0x0(%esi,%eiz,1),%esi
    9f88:	8b 55 84             	mov    -0x7c(%ebp),%edx
    9f8b:	89 44 24 04          	mov    %eax,0x4(%esp)
    9f8f:	89 54 24 08          	mov    %edx,0x8(%esp)
    9f93:	89 3c 24             	mov    %edi,(%esp)
    9f96:	e8 15 cf ff ff       	call   6eb0 <_ZNSt6vectorI5PointSaIS0_EE13_M_insert_auxEN9__gnu_cxx17__normal_iteratorIPS0_S2_EERKS0_@plt>
    9f9b:	e9 b0 fd ff ff       	jmp    9d50 <_ZNK3Box9getPointsEv+0x80>
    9fa0:	8b 55 84             	mov    -0x7c(%ebp),%edx
    9fa3:	89 44 24 04          	mov    %eax,0x4(%esp)
    9fa7:	89 54 24 08          	mov    %edx,0x8(%esp)
    9fab:	89 3c 24             	mov    %edi,(%esp)
    9fae:	e8 fd ce ff ff       	call   6eb0 <_ZNSt6vectorI5PointSaIS0_EE13_M_insert_auxEN9__gnu_cxx17__normal_iteratorIPS0_S2_EERKS0_@plt>
    9fb3:	e9 e6 fd ff ff       	jmp    9d9e <_ZNK3Box9getPointsEv+0xce>
    9fb8:	8b 55 84             	mov    -0x7c(%ebp),%edx
    9fbb:	89 44 24 04          	mov    %eax,0x4(%esp)
    9fbf:	89 54 24 08          	mov    %edx,0x8(%esp)
    9fc3:	89 3c 24             	mov    %edi,(%esp)
    9fc6:	e8 e5 ce ff ff       	call   6eb0 <_ZNSt6vectorI5PointSaIS0_EE13_M_insert_auxEN9__gnu_cxx17__normal_iteratorIPS0_S2_EERKS0_@plt>
    9fcb:	e9 1c fe ff ff       	jmp    9dec <_ZNK3Box9getPointsEv+0x11c>
    9fd0:	8b 55 84             	mov    -0x7c(%ebp),%edx
    9fd3:	89 44 24 04          	mov    %eax,0x4(%esp)
    9fd7:	89 54 24 08          	mov    %edx,0x8(%esp)
    9fdb:	89 3c 24             	mov    %edi,(%esp)
    9fde:	e8 cd ce ff ff       	call   6eb0 <_ZNSt6vectorI5PointSaIS0_EE13_M_insert_auxEN9__gnu_cxx17__normal_iteratorIPS0_S2_EERKS0_@plt>
    9fe3:	e9 52 fe ff ff       	jmp    9e3a <_ZNK3Box9getPointsEv+0x16a>
    9fe8:	8b 55 84             	mov    -0x7c(%ebp),%edx
    9feb:	89 44 24 04          	mov    %eax,0x4(%esp)
    9fef:	89 54 24 08          	mov    %edx,0x8(%esp)
    9ff3:	89 3c 24             	mov    %edi,(%esp)
    9ff6:	e8 b5 ce ff ff       	call   6eb0 <_ZNSt6vectorI5PointSaIS0_EE13_M_insert_auxEN9__gnu_cxx17__normal_iteratorIPS0_S2_EERKS0_@plt>
    9ffb:	e9 89 fe ff ff       	jmp    9e89 <_ZNK3Box9getPointsEv+0x1b9>
    a000:	8b 55 84             	mov    -0x7c(%ebp),%edx
    a003:	89 44 24 04          	mov    %eax,0x4(%esp)
    a007:	89 54 24 08          	mov    %edx,0x8(%esp)
    a00b:	89 3c 24             	mov    %edi,(%esp)
    a00e:	e8 9d ce ff ff       	call   6eb0 <_ZNSt6vectorI5PointSaIS0_EE13_M_insert_auxEN9__gnu_cxx17__normal_iteratorIPS0_S2_EERKS0_@plt>
    a013:	e9 c0 fe ff ff       	jmp    9ed8 <_ZNK3Box9getPointsEv+0x208>
    a018:	8b 55 84             	mov    -0x7c(%ebp),%edx
    a01b:	89 44 24 04          	mov    %eax,0x4(%esp)
    a01f:	89 54 24 08          	mov    %edx,0x8(%esp)
    a023:	89 3c 24             	mov    %edi,(%esp)
    a026:	e8 85 ce ff ff       	call   6eb0 <_ZNSt6vectorI5PointSaIS0_EE13_M_insert_auxEN9__gnu_cxx17__normal_iteratorIPS0_S2_EERKS0_@plt>
    a02b:	e9 f7 fe ff ff       	jmp    9f27 <_ZNK3Box9getPointsEv+0x257>
    a030:	89 74 24 08          	mov    %esi,0x8(%esp)
    a034:	89 44 24 04          	mov    %eax,0x4(%esp)
    a038:	89 3c 24             	mov    %edi,(%esp)
    a03b:	e8 70 ce ff ff       	call   6eb0 <_ZNSt6vectorI5PointSaIS0_EE13_M_insert_auxEN9__gnu_cxx17__normal_iteratorIPS0_S2_EERKS0_@plt>
    a040:	e9 2e ff ff ff       	jmp    9f73 <_ZNK3Box9getPointsEv+0x2a3>
    a045:	8b 17                	mov    (%edi),%edx
    a047:	89 c6                	mov    %eax,%esi
    a049:	85 d2                	test   %edx,%edx
    a04b:	74 08                	je     a055 <_ZNK3Box9getPointsEv+0x385>
    a04d:	89 14 24             	mov    %edx,(%esp)
    a050:	e8 7b d4 ff ff       	call   74d0 <_ZdlPv@plt>
    a055:	89 34 24             	mov    %esi,(%esp)
    a058:	e8 23 db ff ff       	call   7b80 <_Unwind_Resume@plt>
    a05d:	90                   	nop
    a05e:	90                   	nop
    a05f:	90                   	nop

0000a060 <_ZNSt6vectorI5PointSaIS0_EE13_M_insert_auxEN9__gnu_cxx17__normal_iteratorIPS0_S2_EERKS0_>:
    a060:	55                   	push   %ebp
    a061:	89 e5                	mov    %esp,%ebp
    a063:	57                   	push   %edi
    a064:	56                   	push   %esi
    a065:	53                   	push   %ebx
    a066:	e8 ce dd ff ff       	call   7e39 <__i686.get_pc_thunk.bx>
    a06b:	81 c3 39 f4 00 00    	add    $0xf439,%ebx
    a071:	8d 64 24 c4          	lea    -0x3c(%esp),%esp
    a075:	8b 7d 08             	mov    0x8(%ebp),%edi
    a078:	8b 75 0c             	mov    0xc(%ebp),%esi
    a07b:	8b 55 10             	mov    0x10(%ebp),%edx
    a07e:	8b 4f 04             	mov    0x4(%edi),%ecx
    a081:	3b 4f 08             	cmp    0x8(%edi),%ecx
    a084:	74 7a                	je     a100 <_ZNSt6vectorI5PointSaIS0_EE13_M_insert_auxEN9__gnu_cxx17__normal_iteratorIPS0_S2_EERKS0_+0xa0>
    a086:	31 c0                	xor    %eax,%eax
    a088:	85 c9                	test   %ecx,%ecx
    a08a:	74 14                	je     a0a0 <_ZNSt6vectorI5PointSaIS0_EE13_M_insert_auxEN9__gnu_cxx17__normal_iteratorIPS0_S2_EERKS0_+0x40>
    a08c:	8b 41 f4             	mov    -0xc(%ecx),%eax
    a08f:	89 01                	mov    %eax,(%ecx)
    a091:	8b 41 f8             	mov    -0x8(%ecx),%eax
    a094:	89 41 04             	mov    %eax,0x4(%ecx)
    a097:	8b 41 fc             	mov    -0x4(%ecx),%eax
    a09a:	89 41 08             	mov    %eax,0x8(%ecx)
    a09d:	8b 47 04             	mov    0x4(%edi),%eax
    a0a0:	8d 48 0c             	lea    0xc(%eax),%ecx
    a0a3:	89 4f 04             	mov    %ecx,0x4(%edi)
    a0a6:	8b 4a 08             	mov    0x8(%edx),%ecx
    a0a9:	8b 3a                	mov    (%edx),%edi
    a0ab:	89 4d e4             	mov    %ecx,-0x1c(%ebp)
    a0ae:	8d 40 f4             	lea    -0xc(%eax),%eax
    a0b1:	8b 4a 04             	mov    0x4(%edx),%ecx
    a0b4:	89 c2                	mov    %eax,%edx
    a0b6:	29 f2                	sub    %esi,%edx
    a0b8:	89 4d e0             	mov    %ecx,-0x20(%ebp)
    a0bb:	c1 fa 02             	sar    $0x2,%edx
    a0be:	69 d2 ab aa aa aa    	imul   $0xaaaaaaab,%edx,%edx
    a0c4:	85 d2                	test   %edx,%edx
    a0c6:	7f 0b                	jg     a0d3 <_ZNSt6vectorI5PointSaIS0_EE13_M_insert_auxEN9__gnu_cxx17__normal_iteratorIPS0_S2_EERKS0_+0x73>
    a0c8:	eb 1f                	jmp    a0e9 <_ZNSt6vectorI5PointSaIS0_EE13_M_insert_auxEN9__gnu_cxx17__normal_iteratorIPS0_S2_EERKS0_+0x89>
    a0ca:	8d b6 00 00 00 00    	lea    0x0(%esi),%esi
    a0d0:	8d 40 f4             	lea    -0xc(%eax),%eax
    a0d3:	8b 48 f4             	mov    -0xc(%eax),%ecx
    a0d6:	83 ea 01             	sub    $0x1,%edx
    a0d9:	89 08                	mov    %ecx,(%eax)
    a0db:	8b 48 f8             	mov    -0x8(%eax),%ecx
    a0de:	89 48 04             	mov    %ecx,0x4(%eax)
    a0e1:	8b 48 fc             	mov    -0x4(%eax),%ecx
    a0e4:	89 48 08             	mov    %ecx,0x8(%eax)
    a0e7:	75 e7                	jne    a0d0 <_ZNSt6vectorI5PointSaIS0_EE13_M_insert_auxEN9__gnu_cxx17__normal_iteratorIPS0_S2_EERKS0_+0x70>
    a0e9:	8b 45 e4             	mov    -0x1c(%ebp),%eax
    a0ec:	8b 55 e0             	mov    -0x20(%ebp),%edx
    a0ef:	89 46 08             	mov    %eax,0x8(%esi)
    a0f2:	89 56 04             	mov    %edx,0x4(%esi)
    a0f5:	89 3e                	mov    %edi,(%esi)
    a0f7:	8d 64 24 3c          	lea    0x3c(%esp),%esp
    a0fb:	5b                   	pop    %ebx
    a0fc:	5e                   	pop    %esi
    a0fd:	5f                   	pop    %edi
    a0fe:	5d                   	pop    %ebp
    a0ff:	c3                   	ret    
    a100:	8b 07                	mov    (%edi),%eax
    a102:	29 c1                	sub    %eax,%ecx
    a104:	89 45 e0             	mov    %eax,-0x20(%ebp)
    a107:	c1 f9 02             	sar    $0x2,%ecx
    a10a:	69 c9 ab aa aa aa    	imul   $0xaaaaaaab,%ecx,%ecx
    a110:	85 c9                	test   %ecx,%ecx
    a112:	0f 84 33 01 00 00    	je     a24b <_ZNSt6vectorI5PointSaIS0_EE13_M_insert_auxEN9__gnu_cxx17__normal_iteratorIPS0_S2_EERKS0_+0x1eb>
    a118:	8d 04 09             	lea    (%ecx,%ecx,1),%eax
    a11b:	89 45 e4             	mov    %eax,-0x1c(%ebp)
    a11e:	39 c1                	cmp    %eax,%ecx
    a120:	0f 86 46 01 00 00    	jbe    a26c <_ZNSt6vectorI5PointSaIS0_EE13_M_insert_auxEN9__gnu_cxx17__normal_iteratorIPS0_S2_EERKS0_+0x20c>
    a126:	89 f0                	mov    %esi,%eax
    a128:	2b 45 e0             	sub    -0x20(%ebp),%eax
    a12b:	c1 f8 02             	sar    $0x2,%eax
    a12e:	c7 45 d8 fc ff ff ff 	movl   $0xfffffffc,-0x28(%ebp)
    a135:	69 c8 ab aa aa aa    	imul   $0xaaaaaaab,%eax,%ecx
    a13b:	8b 45 d8             	mov    -0x28(%ebp),%eax
    a13e:	89 55 d0             	mov    %edx,-0x30(%ebp)
    a141:	89 4d d4             	mov    %ecx,-0x2c(%ebp)
    a144:	89 04 24             	mov    %eax,(%esp)
    a147:	e8 04 cd ff ff       	call   6e50 <_Znwj@plt>
    a14c:	89 45 e0             	mov    %eax,-0x20(%ebp)
    a14f:	8b 4d d4             	mov    -0x2c(%ebp),%ecx
    a152:	8b 55 d0             	mov    -0x30(%ebp),%edx
    a155:	8d 04 49             	lea    (%ecx,%ecx,2),%eax
    a158:	8b 4d e0             	mov    -0x20(%ebp),%ecx
    a15b:	8d 04 81             	lea    (%ecx,%eax,4),%eax
    a15e:	85 c0                	test   %eax,%eax
    a160:	74 10                	je     a172 <_ZNSt6vectorI5PointSaIS0_EE13_M_insert_auxEN9__gnu_cxx17__normal_iteratorIPS0_S2_EERKS0_+0x112>
    a162:	8b 0a                	mov    (%edx),%ecx
    a164:	89 08                	mov    %ecx,(%eax)
    a166:	8b 4a 04             	mov    0x4(%edx),%ecx
    a169:	89 48 04             	mov    %ecx,0x4(%eax)
    a16c:	8b 52 08             	mov    0x8(%edx),%edx
    a16f:	89 50 08             	mov    %edx,0x8(%eax)
    a172:	8b 07                	mov    (%edi),%eax
    a174:	89 c2                	mov    %eax,%edx
    a176:	89 45 e4             	mov    %eax,-0x1c(%ebp)
    a179:	39 f2                	cmp    %esi,%edx
    a17b:	8b 45 e0             	mov    -0x20(%ebp),%eax
    a17e:	89 c1                	mov    %eax,%ecx
    a180:	74 47                	je     a1c9 <_ZNSt6vectorI5PointSaIS0_EE13_M_insert_auxEN9__gnu_cxx17__normal_iteratorIPS0_S2_EERKS0_+0x169>
    a182:	8d b6 00 00 00 00    	lea    0x0(%esi),%esi
    a188:	85 c0                	test   %eax,%eax
    a18a:	74 10                	je     a19c <_ZNSt6vectorI5PointSaIS0_EE13_M_insert_auxEN9__gnu_cxx17__normal_iteratorIPS0_S2_EERKS0_+0x13c>
    a18c:	8b 0a                	mov    (%edx),%ecx
    a18e:	89 08                	mov    %ecx,(%eax)
    a190:	8b 4a 04             	mov    0x4(%edx),%ecx
    a193:	89 48 04             	mov    %ecx,0x4(%eax)
    a196:	8b 4a 08             	mov    0x8(%edx),%ecx
    a199:	89 48 08             	mov    %ecx,0x8(%eax)
    a19c:	8d 52 0c             	lea    0xc(%edx),%edx
    a19f:	8d 40 0c             	lea    0xc(%eax),%eax
    a1a2:	39 d6                	cmp    %edx,%esi
    a1a4:	75 e2                	jne    a188 <_ZNSt6vectorI5PointSaIS0_EE13_M_insert_auxEN9__gnu_cxx17__normal_iteratorIPS0_S2_EERKS0_+0x128>
    a1a6:	8b 45 e4             	mov    -0x1c(%ebp),%eax
    a1a9:	83 c0 0c             	add    $0xc,%eax
    a1ac:	29 c6                	sub    %eax,%esi
    a1ae:	c1 ee 02             	shr    $0x2,%esi
    a1b1:	69 c6 ab aa aa 2a    	imul   $0x2aaaaaab,%esi,%eax
    a1b7:	25 ff ff ff 3f       	and    $0x3fffffff,%eax
    a1bc:	8d 4c 40 03          	lea    0x3(%eax,%eax,2),%ecx
    a1c0:	c1 e1 02             	shl    $0x2,%ecx
    a1c3:	01 4d e4             	add    %ecx,-0x1c(%ebp)
    a1c6:	03 4d e0             	add    -0x20(%ebp),%ecx
    a1c9:	8b 77 04             	mov    0x4(%edi),%esi
    a1cc:	3b 75 e4             	cmp    -0x1c(%ebp),%esi
    a1cf:	8d 49 0c             	lea    0xc(%ecx),%ecx
    a1d2:	89 4d dc             	mov    %ecx,-0x24(%ebp)
    a1d5:	74 4a                	je     a221 <_ZNSt6vectorI5PointSaIS0_EE13_M_insert_auxEN9__gnu_cxx17__normal_iteratorIPS0_S2_EERKS0_+0x1c1>
    a1d7:	8b 55 e4             	mov    -0x1c(%ebp),%edx
    a1da:	89 c8                	mov    %ecx,%eax
    a1dc:	8d 74 26 00          	lea    0x0(%esi,%eiz,1),%esi
    a1e0:	85 c0                	test   %eax,%eax
    a1e2:	74 10                	je     a1f4 <_ZNSt6vectorI5PointSaIS0_EE13_M_insert_auxEN9__gnu_cxx17__normal_iteratorIPS0_S2_EERKS0_+0x194>
    a1e4:	8b 0a                	mov    (%edx),%ecx
    a1e6:	89 08                	mov    %ecx,(%eax)
    a1e8:	8b 4a 04             	mov    0x4(%edx),%ecx
    a1eb:	89 48 04             	mov    %ecx,0x4(%eax)
    a1ee:	8b 4a 08             	mov    0x8(%edx),%ecx
    a1f1:	89 48 08             	mov    %ecx,0x8(%eax)
    a1f4:	8d 52 0c             	lea    0xc(%edx),%edx
    a1f7:	8d 40 0c             	lea    0xc(%eax),%eax
    a1fa:	39 d6                	cmp    %edx,%esi
    a1fc:	75 e2                	jne    a1e0 <_ZNSt6vectorI5PointSaIS0_EE13_M_insert_auxEN9__gnu_cxx17__normal_iteratorIPS0_S2_EERKS0_+0x180>
    a1fe:	8b 45 e4             	mov    -0x1c(%ebp),%eax
    a201:	8b 55 dc             	mov    -0x24(%ebp),%edx
    a204:	83 c0 0c             	add    $0xc,%eax
    a207:	29 c6                	sub    %eax,%esi
    a209:	c1 ee 02             	shr    $0x2,%esi
    a20c:	69 c6 ab aa aa 2a    	imul   $0x2aaaaaab,%esi,%eax
    a212:	25 ff ff ff 3f       	and    $0x3fffffff,%eax
    a217:	8d 44 40 03          	lea    0x3(%eax,%eax,2),%eax
    a21b:	8d 14 82             	lea    (%edx,%eax,4),%edx
    a21e:	89 55 dc             	mov    %edx,-0x24(%ebp)
    a221:	8b 07                	mov    (%edi),%eax
    a223:	85 c0                	test   %eax,%eax
    a225:	74 08                	je     a22f <_ZNSt6vectorI5PointSaIS0_EE13_M_insert_auxEN9__gnu_cxx17__normal_iteratorIPS0_S2_EERKS0_+0x1cf>
    a227:	89 04 24             	mov    %eax,(%esp)
    a22a:	e8 a1 d2 ff ff       	call   74d0 <_ZdlPv@plt>
    a22f:	8b 45 dc             	mov    -0x24(%ebp),%eax
    a232:	8b 4d e0             	mov    -0x20(%ebp),%ecx
    a235:	89 47 04             	mov    %eax,0x4(%edi)
    a238:	8b 45 d8             	mov    -0x28(%ebp),%eax
    a23b:	01 c8                	add    %ecx,%eax
    a23d:	89 0f                	mov    %ecx,(%edi)
    a23f:	89 47 08             	mov    %eax,0x8(%edi)
    a242:	8d 64 24 3c          	lea    0x3c(%esp),%esp
    a246:	5b                   	pop    %ebx
    a247:	5e                   	pop    %esi
    a248:	5f                   	pop    %edi
    a249:	5d                   	pop    %ebp
    a24a:	c3                   	ret    
    a24b:	89 f0                	mov    %esi,%eax
    a24d:	2b 45 e0             	sub    -0x20(%ebp),%eax
    a250:	c1 f8 02             	sar    $0x2,%eax
    a253:	c7 45 e4 01 00 00 00 	movl   $0x1,-0x1c(%ebp)
    a25a:	69 c8 ab aa aa aa    	imul   $0xaaaaaaab,%eax,%ecx
    a260:	6b 45 e4 0c          	imul   $0xc,-0x1c(%ebp),%eax
    a264:	89 45 d8             	mov    %eax,-0x28(%ebp)
    a267:	e9 cf fe ff ff       	jmp    a13b <_ZNSt6vectorI5PointSaIS0_EE13_M_insert_auxEN9__gnu_cxx17__normal_iteratorIPS0_S2_EERKS0_+0xdb>
    a26c:	3d 55 55 55 15       	cmp    $0x15555555,%eax
    a271:	0f 87 af fe ff ff    	ja     a126 <_ZNSt6vectorI5PointSaIS0_EE13_M_insert_auxEN9__gnu_cxx17__normal_iteratorIPS0_S2_EERKS0_+0xc6>
    a277:	89 f0                	mov    %esi,%eax
    a279:	2b 45 e0             	sub    -0x20(%ebp),%eax
    a27c:	c1 f8 02             	sar    $0x2,%eax
    a27f:	69 c8 ab aa aa aa    	imul   $0xaaaaaaab,%eax,%ecx
    a285:	83 7d e4 00          	cmpl   $0x0,-0x1c(%ebp)
    a289:	75 d5                	jne    a260 <_ZNSt6vectorI5PointSaIS0_EE13_M_insert_auxEN9__gnu_cxx17__normal_iteratorIPS0_S2_EERKS0_+0x200>
    a28b:	c7 45 d8 00 00 00 00 	movl   $0x0,-0x28(%ebp)
    a292:	c7 45 e0 00 00 00 00 	movl   $0x0,-0x20(%ebp)
    a299:	e9 b7 fe ff ff       	jmp    a155 <_ZNSt6vectorI5PointSaIS0_EE13_M_insert_auxEN9__gnu_cxx17__normal_iteratorIPS0_S2_EERKS0_+0xf5>
    a29e:	90                   	nop
    a29f:	90                   	nop

0000a2a0 <_ZN5ColorC1Effff>:
    a2a0:	55                   	push   %ebp
    a2a1:	89 e5                	mov    %esp,%ebp
    a2a3:	8b 45 08             	mov    0x8(%ebp),%eax
    a2a6:	8b 55 0c             	mov    0xc(%ebp),%edx
    a2a9:	89 10                	mov    %edx,(%eax)
    a2ab:	8b 55 10             	mov    0x10(%ebp),%edx
    a2ae:	89 50 04             	mov    %edx,0x4(%eax)
    a2b1:	8b 55 14             	mov    0x14(%ebp),%edx
    a2b4:	89 50 08             	mov    %edx,0x8(%eax)
    a2b7:	8b 55 18             	mov    0x18(%ebp),%edx
    a2ba:	89 50 0c             	mov    %edx,0xc(%eax)
    a2bd:	5d                   	pop    %ebp
    a2be:	c3                   	ret    
    a2bf:	90                   	nop

0000a2c0 <_GLOBAL__I_color.cpp>:
    a2c0:	55                   	push   %ebp
    a2c1:	89 e5                	mov    %esp,%ebp
    a2c3:	8d 64 24 e8          	lea    -0x18(%esp),%esp
    a2c7:	89 5d f8             	mov    %ebx,-0x8(%ebp)
    a2ca:	89 75 fc             	mov    %esi,-0x4(%ebp)
    a2cd:	e8 67 db ff ff       	call   7e39 <__i686.get_pc_thunk.bx>
    a2d2:	81 c3 d2 f1 00 00    	add    $0xf1d2,%ebx
    a2d8:	8d b3 2c 04 00 00    	lea    0x42c(%ebx),%esi
    a2de:	89 34 24             	mov    %esi,(%esp)
    a2e1:	e8 ca d6 ff ff       	call   79b0 <_ZNSt8ios_base4InitC1Ev@plt>
    a2e6:	8b 83 b0 ff ff ff    	mov    -0x50(%ebx),%eax
    a2ec:	89 74 24 04          	mov    %esi,0x4(%esp)
    a2f0:	89 44 24 08          	mov    %eax,0x8(%esp)
    a2f4:	8b 83 fc ff ff ff    	mov    -0x4(%ebx),%eax
    a2fa:	89 04 24             	mov    %eax,(%esp)
    a2fd:	e8 ee cf ff ff       	call   72f0 <__cxa_atexit@plt>
    a302:	8b 5d f8             	mov    -0x8(%ebp),%ebx
    a305:	8b 75 fc             	mov    -0x4(%ebp),%esi
    a308:	89 ec                	mov    %ebp,%esp
    a30a:	5d                   	pop    %ebp
    a30b:	c3                   	ret    
    a30c:	8d 74 26 00          	lea    0x0(%esi,%eiz,1),%esi

0000a310 <_ZlsRSoRK5Color>:
    a310:	55                   	push   %ebp
    a311:	89 e5                	mov    %esp,%ebp
    a313:	57                   	push   %edi
    a314:	56                   	push   %esi
    a315:	53                   	push   %ebx
    a316:	e8 1e db ff ff       	call   7e39 <__i686.get_pc_thunk.bx>
    a31b:	81 c3 89 f1 00 00    	add    $0xf189,%ebx
    a321:	8d 64 24 b4          	lea    -0x4c(%esp),%esp
    a325:	8b 45 0c             	mov    0xc(%ebp),%eax
    a328:	8b 7d 08             	mov    0x8(%ebp),%edi
    a32b:	8d b3 b0 bf ff ff    	lea    -0x4050(%ebx),%esi
    a331:	d9 40 0c             	flds   0xc(%eax)
    a334:	d9 40 08             	flds   0x8(%eax)
    a337:	d9 40 04             	flds   0x4(%eax)
    a33a:	d9 00                	flds   (%eax)
    a33c:	89 3c 24             	mov    %edi,(%esp)
    a33f:	dd 5c 24 04          	fstpl  0x4(%esp)
    a343:	d9 ca                	fxch   %st(2)
    a345:	d9 5d d8             	fstps  -0x28(%ebp)
    a348:	d9 5d c8             	fstps  -0x38(%ebp)
    a34b:	d9 5d b8             	fstps  -0x48(%ebp)
    a34e:	e8 3d d7 ff ff       	call   7a90 <_ZNSo9_M_insertIdEERSoT_@plt>
    a353:	89 04 24             	mov    %eax,(%esp)
    a356:	89 74 24 04          	mov    %esi,0x4(%esp)
    a35a:	c7 44 24 08 02 00 00 	movl   $0x2,0x8(%esp)
    a361:	00 
    a362:	89 45 c4             	mov    %eax,-0x3c(%ebp)
    a365:	e8 b6 d3 ff ff       	call   7720 <_ZSt16__ostream_insertIcSt11char_traitsIcEERSt13basic_ostreamIT_T0_ES6_PKS3_i@plt>
    a36a:	d9 45 b8             	flds   -0x48(%ebp)
    a36d:	8b 55 c4             	mov    -0x3c(%ebp),%edx
    a370:	dd 5c 24 04          	fstpl  0x4(%esp)
    a374:	89 14 24             	mov    %edx,(%esp)
    a377:	e8 14 d7 ff ff       	call   7a90 <_ZNSo9_M_insertIdEERSoT_@plt>
    a37c:	89 04 24             	mov    %eax,(%esp)
    a37f:	89 74 24 04          	mov    %esi,0x4(%esp)
    a383:	c7 44 24 08 02 00 00 	movl   $0x2,0x8(%esp)
    a38a:	00 
    a38b:	89 45 c4             	mov    %eax,-0x3c(%ebp)
    a38e:	e8 8d d3 ff ff       	call   7720 <_ZSt16__ostream_insertIcSt11char_traitsIcEERSt13basic_ostreamIT_T0_ES6_PKS3_i@plt>
    a393:	d9 45 c8             	flds   -0x38(%ebp)
    a396:	8b 55 c4             	mov    -0x3c(%ebp),%edx
    a399:	dd 5c 24 04          	fstpl  0x4(%esp)
    a39d:	89 14 24             	mov    %edx,(%esp)
    a3a0:	e8 eb d6 ff ff       	call   7a90 <_ZNSo9_M_insertIdEERSoT_@plt>
    a3a5:	89 04 24             	mov    %eax,(%esp)
    a3a8:	89 74 24 04          	mov    %esi,0x4(%esp)
    a3ac:	c7 44 24 08 02 00 00 	movl   $0x2,0x8(%esp)
    a3b3:	00 
    a3b4:	89 45 c4             	mov    %eax,-0x3c(%ebp)
    a3b7:	e8 64 d3 ff ff       	call   7720 <_ZSt16__ostream_insertIcSt11char_traitsIcEERSt13basic_ostreamIT_T0_ES6_PKS3_i@plt>
    a3bc:	d9 45 d8             	flds   -0x28(%ebp)
    a3bf:	8b 55 c4             	mov    -0x3c(%ebp),%edx
    a3c2:	dd 5c 24 04          	fstpl  0x4(%esp)
    a3c6:	89 14 24             	mov    %edx,(%esp)
    a3c9:	e8 c2 d6 ff ff       	call   7a90 <_ZNSo9_M_insertIdEERSoT_@plt>
    a3ce:	89 c6                	mov    %eax,%esi
    a3d0:	8b 00                	mov    (%eax),%eax
    a3d2:	8b 40 f4             	mov    -0xc(%eax),%eax
    a3d5:	8b 44 06 7c          	mov    0x7c(%esi,%eax,1),%eax
    a3d9:	85 c0                	test   %eax,%eax
    a3db:	74 53                	je     a430 <_ZlsRSoRK5Color+0x120>
    a3dd:	80 78 1c 00          	cmpb   $0x0,0x1c(%eax)
    a3e1:	74 2d                	je     a410 <_ZlsRSoRK5Color+0x100>
    a3e3:	0f b6 40 27          	movzbl 0x27(%eax),%eax
    a3e7:	0f be c0             	movsbl %al,%eax
    a3ea:	89 34 24             	mov    %esi,(%esp)
    a3ed:	89 44 24 04          	mov    %eax,0x4(%esp)
    a3f1:	e8 2a ca ff ff       	call   6e20 <_ZNSo3putEc@plt>
    a3f6:	89 04 24             	mov    %eax,(%esp)
    a3f9:	e8 e2 ce ff ff       	call   72e0 <_ZNSo5flushEv@plt>
    a3fe:	8d 64 24 4c          	lea    0x4c(%esp),%esp
    a402:	89 f8                	mov    %edi,%eax
    a404:	5b                   	pop    %ebx
    a405:	5e                   	pop    %esi
    a406:	5f                   	pop    %edi
    a407:	5d                   	pop    %ebp
    a408:	c3                   	ret    
    a409:	8d b4 26 00 00 00 00 	lea    0x0(%esi,%eiz,1),%esi
    a410:	89 04 24             	mov    %eax,(%esp)
    a413:	89 45 d8             	mov    %eax,-0x28(%ebp)
    a416:	e8 f5 d1 ff ff       	call   7610 <_ZNKSt5ctypeIcE13_M_widen_initEv@plt>
    a41b:	8b 45 d8             	mov    -0x28(%ebp),%eax
    a41e:	8b 10                	mov    (%eax),%edx
    a420:	c7 44 24 04 0a 00 00 	movl   $0xa,0x4(%esp)
    a427:	00 
    a428:	89 04 24             	mov    %eax,(%esp)
    a42b:	ff 52 18             	call   *0x18(%edx)
    a42e:	eb b7                	jmp    a3e7 <_ZlsRSoRK5Color+0xd7>
    a430:	e8 8b d2 ff ff       	call   76c0 <_ZSt16__throw_bad_castv@plt>
    a435:	90                   	nop
    a436:	90                   	nop
    a437:	90                   	nop
    a438:	90                   	nop
    a439:	90                   	nop
    a43a:	90                   	nop
    a43b:	90                   	nop
    a43c:	90                   	nop
    a43d:	90                   	nop
    a43e:	90                   	nop
    a43f:	90                   	nop

0000a440 <_GLOBAL__I_face.cpp>:
    a440:	55                   	push   %ebp
    a441:	89 e5                	mov    %esp,%ebp
    a443:	8d 64 24 e8          	lea    -0x18(%esp),%esp
    a447:	89 5d f8             	mov    %ebx,-0x8(%ebp)
    a44a:	89 75 fc             	mov    %esi,-0x4(%ebp)
    a44d:	e8 e7 d9 ff ff       	call   7e39 <__i686.get_pc_thunk.bx>
    a452:	81 c3 52 f0 00 00    	add    $0xf052,%ebx
    a458:	8d b3 30 04 00 00    	lea    0x430(%ebx),%esi
    a45e:	89 34 24             	mov    %esi,(%esp)
    a461:	e8 4a d5 ff ff       	call   79b0 <_ZNSt8ios_base4InitC1Ev@plt>
    a466:	8b 83 b0 ff ff ff    	mov    -0x50(%ebx),%eax
    a46c:	89 74 24 04          	mov    %esi,0x4(%esp)
    a470:	89 44 24 08          	mov    %eax,0x8(%esp)
    a474:	8b 83 fc ff ff ff    	mov    -0x4(%ebx),%eax
    a47a:	89 04 24             	mov    %eax,(%esp)
    a47d:	e8 6e ce ff ff       	call   72f0 <__cxa_atexit@plt>
    a482:	8b 5d f8             	mov    -0x8(%ebp),%ebx
    a485:	8b 75 fc             	mov    -0x4(%ebp),%esi
    a488:	89 ec                	mov    %ebp,%esp
    a48a:	5d                   	pop    %ebp
    a48b:	c3                   	ret    
    a48c:	8d 74 26 00          	lea    0x0(%esi,%eiz,1),%esi

0000a490 <_ZN4Face13computeNormalERSt6vectorI6VertexSaIS1_EE>:
    a490:	55                   	push   %ebp
    a491:	31 c0                	xor    %eax,%eax
    a493:	89 e5                	mov    %esp,%ebp
    a495:	57                   	push   %edi
    a496:	56                   	push   %esi
    a497:	53                   	push   %ebx
    a498:	e8 9c d9 ff ff       	call   7e39 <__i686.get_pc_thunk.bx>
    a49d:	81 c3 07 f0 00 00    	add    $0xf007,%ebx
    a4a3:	8d 64 24 c4          	lea    -0x3c(%esp),%esp
    a4a7:	8b 55 08             	mov    0x8(%ebp),%edx
    a4aa:	89 42 10             	mov    %eax,0x10(%edx)
    a4ad:	89 42 14             	mov    %eax,0x14(%edx)
    a4b0:	89 42 18             	mov    %eax,0x18(%edx)
    a4b3:	8b 7a 04             	mov    0x4(%edx),%edi
    a4b6:	8b 52 08             	mov    0x8(%edx),%edx
    a4b9:	89 45 d4             	mov    %eax,-0x2c(%ebp)
    a4bc:	29 fa                	sub    %edi,%edx
    a4be:	d9 45 d4             	flds   -0x2c(%ebp)
    a4c1:	c1 fa 02             	sar    $0x2,%edx
    a4c4:	85 d2                	test   %edx,%edx
    a4c6:	89 55 e4             	mov    %edx,-0x1c(%ebp)
    a4c9:	0f 8e 8c 00 00 00    	jle    a55b <_ZN4Face13computeNormalERSt6vectorI6VertexSaIS1_EE+0xcb>
    a4cf:	8b 55 0c             	mov    0xc(%ebp),%edx
    a4d2:	d9 c0                	fld    %st(0)
    a4d4:	d9 c1                	fld    %st(1)
    a4d6:	31 c9                	xor    %ecx,%ecx
    a4d8:	8b 12                	mov    (%edx),%edx
    a4da:	89 55 e0             	mov    %edx,-0x20(%ebp)
    a4dd:	eb 05                	jmp    a4e4 <_ZN4Face13computeNormalERSt6vectorI6VertexSaIS1_EE+0x54>
    a4df:	90                   	nop
    a4e0:	d9 c9                	fxch   %st(1)
    a4e2:	d9 ca                	fxch   %st(2)
    a4e4:	8d 49 01             	lea    0x1(%ecx),%ecx
    a4e7:	8b 55 e0             	mov    -0x20(%ebp),%edx
    a4ea:	8b 44 8f fc          	mov    -0x4(%edi,%ecx,4),%eax
    a4ee:	8d 04 40             	lea    (%eax,%eax,2),%eax
    a4f1:	8d 34 82             	lea    (%edx,%eax,4),%esi
    a4f4:	89 ca                	mov    %ecx,%edx
    a4f6:	c1 fa 1f             	sar    $0x1f,%edx
    a4f9:	89 c8                	mov    %ecx,%eax
    a4fb:	f7 7d e4             	idivl  -0x1c(%ebp)
    a4fe:	d9 46 08             	flds   0x8(%esi)
    a501:	3b 4d e4             	cmp    -0x1c(%ebp),%ecx
    a504:	8b 04 97             	mov    (%edi,%edx,4),%eax
    a507:	8b 55 e0             	mov    -0x20(%ebp),%edx
    a50a:	8d 04 40             	lea    (%eax,%eax,2),%eax
    a50d:	8d 04 82             	lea    (%edx,%eax,4),%eax
    a510:	d9 40 08             	flds   0x8(%eax)
    a513:	d8 c1                	fadd   %st(1),%st
    a515:	d9 46 04             	flds   0x4(%esi)
    a518:	d9 40 04             	flds   0x4(%eax)
    a51b:	d8 e9                	fsubr  %st(1),%st
    a51d:	de ca                	fmulp  %st,%st(2)
    a51f:	d9 cd                	fxch   %st(5)
    a521:	de c1                	faddp  %st,%st(1)
    a523:	d9 06                	flds   (%esi)
    a525:	d9 00                	flds   (%eax)
    a527:	d9 c1                	fld    %st(1)
    a529:	d8 c1                	fadd   %st(1),%st
    a52b:	d9 cc                	fxch   %st(4)
    a52d:	d8 60 08             	fsubs  0x8(%eax)
    a530:	de cc                	fmulp  %st,%st(4)
    a532:	d9 cd                	fxch   %st(5)
    a534:	de c3                	faddp  %st,%st(3)
    a536:	d9 cd                	fxch   %st(5)
    a538:	d8 40 04             	fadds  0x4(%eax)
    a53b:	d9 cc                	fxch   %st(4)
    a53d:	de ed                	fsubrp %st,%st(5)
    a53f:	d9 cb                	fxch   %st(3)
    a541:	de cc                	fmulp  %st,%st(4)
    a543:	d9 c9                	fxch   %st(1)
    a545:	de c3                	faddp  %st,%st(3)
    a547:	75 97                	jne    a4e0 <_ZN4Face13computeNormalERSt6vectorI6VertexSaIS1_EE+0x50>
    a549:	d9 c9                	fxch   %st(1)
    a54b:	8b 45 08             	mov    0x8(%ebp),%eax
    a54e:	d9 50 10             	fsts   0x10(%eax)
    a551:	d9 c9                	fxch   %st(1)
    a553:	d9 58 14             	fstps  0x14(%eax)
    a556:	d9 c9                	fxch   %st(1)
    a558:	d9 58 18             	fstps  0x18(%eax)
    a55b:	8b 55 08             	mov    0x8(%ebp),%edx
    a55e:	d9 83 b4 bf ff ff    	flds   -0x404c(%ebx)
    a564:	89 d0                	mov    %edx,%eax
    a566:	dc c9                	fmul   %st,%st(1)
    a568:	d9 c9                	fxch   %st(1)
    a56a:	83 c0 10             	add    $0x10,%eax
    a56d:	d9 5a 10             	fstps  0x10(%edx)
    a570:	d9 42 14             	flds   0x14(%edx)
    a573:	d8 c9                	fmul   %st(1),%st
    a575:	d9 5a 14             	fstps  0x14(%edx)
    a578:	d8 4a 18             	fmuls  0x18(%edx)
    a57b:	d9 5a 18             	fstps  0x18(%edx)
    a57e:	89 04 24             	mov    %eax,(%esp)
    a581:	e8 1a cb ff ff       	call   70a0 <_ZN6Vector9normalizeEv@plt>
    a586:	8d 64 24 3c          	lea    0x3c(%esp),%esp
    a58a:	5b                   	pop    %ebx
    a58b:	5e                   	pop    %esi
    a58c:	5f                   	pop    %edi
    a58d:	5d                   	pop    %ebp
    a58e:	c3                   	ret    
    a58f:	90                   	nop

0000a590 <_ZN4FaceC1Ev>:
    a590:	55                   	push   %ebp
    a591:	89 e5                	mov    %esp,%ebp
    a593:	8d 64 24 d8          	lea    -0x28(%esp),%esp
    a597:	89 5d f8             	mov    %ebx,-0x8(%ebp)
    a59a:	89 75 fc             	mov    %esi,-0x4(%ebp)
    a59d:	e8 97 d8 ff ff       	call   7e39 <__i686.get_pc_thunk.bx>
    a5a2:	81 c3 02 ef 00 00    	add    $0xef02,%ebx
    a5a8:	8b 75 08             	mov    0x8(%ebp),%esi
    a5ab:	c7 46 04 00 00 00 00 	movl   $0x0,0x4(%esi)
    a5b2:	c7 46 08 00 00 00 00 	movl   $0x0,0x8(%esi)
    a5b9:	c7 46 0c 00 00 00 00 	movl   $0x0,0xc(%esi)
    a5c0:	8d 46 10             	lea    0x10(%esi),%eax
    a5c3:	c7 44 24 0c 00 00 00 	movl   $0x0,0xc(%esp)
    a5ca:	00 
    a5cb:	c7 44 24 08 00 00 00 	movl   $0x0,0x8(%esp)
    a5d2:	00 
    a5d3:	c7 44 24 04 00 00 00 	movl   $0x0,0x4(%esp)
    a5da:	00 
    a5db:	89 04 24             	mov    %eax,(%esp)
    a5de:	e8 2d d1 ff ff       	call   7710 <_ZN6VectorC1Efff@plt>
    a5e3:	c7 46 10 00 00 00 00 	movl   $0x0,0x10(%esi)
    a5ea:	c7 46 14 00 00 00 00 	movl   $0x0,0x14(%esi)
    a5f1:	c7 46 18 00 00 00 00 	movl   $0x0,0x18(%esi)
    a5f8:	8b 5d f8             	mov    -0x8(%ebp),%ebx
    a5fb:	8b 75 fc             	mov    -0x4(%ebp),%esi
    a5fe:	89 ec                	mov    %ebp,%esp
    a600:	5d                   	pop    %ebp
    a601:	c3                   	ret    
    a602:	8b 56 04             	mov    0x4(%esi),%edx
    a605:	85 d2                	test   %edx,%edx
    a607:	74 0e                	je     a617 <_ZN4FaceC1Ev+0x87>
    a609:	89 45 f4             	mov    %eax,-0xc(%ebp)
    a60c:	89 14 24             	mov    %edx,(%esp)
    a60f:	e8 bc ce ff ff       	call   74d0 <_ZdlPv@plt>
    a614:	8b 45 f4             	mov    -0xc(%ebp),%eax
    a617:	89 04 24             	mov    %eax,(%esp)
    a61a:	e8 61 d5 ff ff       	call   7b80 <_Unwind_Resume@plt>
    a61f:	90                   	nop

0000a620 <_ZN4FaceC1Eiiii>:
    a620:	55                   	push   %ebp
    a621:	89 e5                	mov    %esp,%ebp
    a623:	57                   	push   %edi
    a624:	56                   	push   %esi
    a625:	53                   	push   %ebx
    a626:	e8 0e d8 ff ff       	call   7e39 <__i686.get_pc_thunk.bx>
    a62b:	81 c3 79 ee 00 00    	add    $0xee79,%ebx
    a631:	8d 64 24 e4          	lea    -0x1c(%esp),%esp
    a635:	8b 75 08             	mov    0x8(%ebp),%esi
    a638:	c7 46 04 00 00 00 00 	movl   $0x0,0x4(%esi)
    a63f:	c7 46 08 00 00 00 00 	movl   $0x0,0x8(%esi)
    a646:	c7 46 0c 00 00 00 00 	movl   $0x0,0xc(%esi)
    a64d:	8d 46 10             	lea    0x10(%esi),%eax
    a650:	c7 44 24 0c 00 00 00 	movl   $0x0,0xc(%esp)
    a657:	00 
    a658:	c7 44 24 08 00 00 00 	movl   $0x0,0x8(%esp)
    a65f:	00 
    a660:	c7 44 24 04 00 00 00 	movl   $0x0,0x4(%esp)
    a667:	00 
    a668:	89 04 24             	mov    %eax,(%esp)
    a66b:	e8 a0 d0 ff ff       	call   7710 <_ZN6VectorC1Efff@plt>
    a670:	8b 4e 08             	mov    0x8(%esi),%ecx
    a673:	8b 56 0c             	mov    0xc(%esi),%edx
    a676:	39 d1                	cmp    %edx,%ecx
    a678:	8d 7e 04             	lea    0x4(%esi),%edi
    a67b:	0f 84 8f 00 00 00    	je     a710 <_ZN4FaceC1Eiiii+0xf0>
    a681:	31 c0                	xor    %eax,%eax
    a683:	85 c9                	test   %ecx,%ecx
    a685:	74 0b                	je     a692 <_ZN4FaceC1Eiiii+0x72>
    a687:	8b 45 0c             	mov    0xc(%ebp),%eax
    a68a:	89 01                	mov    %eax,(%ecx)
    a68c:	8b 46 08             	mov    0x8(%esi),%eax
    a68f:	8b 56 0c             	mov    0xc(%esi),%edx
    a692:	8d 40 04             	lea    0x4(%eax),%eax
    a695:	89 46 08             	mov    %eax,0x8(%esi)
    a698:	39 c2                	cmp    %eax,%edx
    a69a:	0f 84 90 00 00 00    	je     a730 <_ZN4FaceC1Eiiii+0x110>
    a6a0:	85 c0                	test   %eax,%eax
    a6a2:	74 08                	je     a6ac <_ZN4FaceC1Eiiii+0x8c>
    a6a4:	8b 4d 10             	mov    0x10(%ebp),%ecx
    a6a7:	89 08                	mov    %ecx,(%eax)
    a6a9:	8b 46 08             	mov    0x8(%esi),%eax
    a6ac:	8d 40 04             	lea    0x4(%eax),%eax
    a6af:	89 46 08             	mov    %eax,0x8(%esi)
    a6b2:	39 d0                	cmp    %edx,%eax
    a6b4:	0f 84 96 00 00 00    	je     a750 <_ZN4FaceC1Eiiii+0x130>
    a6ba:	85 c0                	test   %eax,%eax
    a6bc:	74 08                	je     a6c6 <_ZN4FaceC1Eiiii+0xa6>
    a6be:	8b 55 14             	mov    0x14(%ebp),%edx
    a6c1:	89 10                	mov    %edx,(%eax)
    a6c3:	8b 46 08             	mov    0x8(%esi),%eax
    a6c6:	8d 40 04             	lea    0x4(%eax),%eax
    a6c9:	89 46 08             	mov    %eax,0x8(%esi)
    a6cc:	8b 45 18             	mov    0x18(%ebp),%eax
    a6cf:	83 f8 ff             	cmp    $0xffffffff,%eax
    a6d2:	74 1d                	je     a6f1 <_ZN4FaceC1Eiiii+0xd1>
    a6d4:	8b 56 08             	mov    0x8(%esi),%edx
    a6d7:	3b 56 0c             	cmp    0xc(%esi),%edx
    a6da:	0f 84 88 00 00 00    	je     a768 <_ZN4FaceC1Eiiii+0x148>
    a6e0:	31 c9                	xor    %ecx,%ecx
    a6e2:	85 d2                	test   %edx,%edx
    a6e4:	74 05                	je     a6eb <_ZN4FaceC1Eiiii+0xcb>
    a6e6:	89 02                	mov    %eax,(%edx)
    a6e8:	8b 4e 08             	mov    0x8(%esi),%ecx
    a6eb:	8d 49 04             	lea    0x4(%ecx),%ecx
    a6ee:	89 4e 08             	mov    %ecx,0x8(%esi)
    a6f1:	c7 46 10 00 00 00 00 	movl   $0x0,0x10(%esi)
    a6f8:	c7 46 14 00 00 00 00 	movl   $0x0,0x14(%esi)
    a6ff:	c7 46 18 00 00 00 00 	movl   $0x0,0x18(%esi)
    a706:	8d 64 24 1c          	lea    0x1c(%esp),%esp
    a70a:	5b                   	pop    %ebx
    a70b:	5e                   	pop    %esi
    a70c:	5f                   	pop    %edi
    a70d:	5d                   	pop    %ebp
    a70e:	c3                   	ret    
    a70f:	90                   	nop
    a710:	8d 45 0c             	lea    0xc(%ebp),%eax
    a713:	89 4c 24 04          	mov    %ecx,0x4(%esp)
    a717:	89 44 24 08          	mov    %eax,0x8(%esp)
    a71b:	89 3c 24             	mov    %edi,(%esp)
    a71e:	e8 2d d2 ff ff       	call   7950 <_ZNSt6vectorIiSaIiEE13_M_insert_auxEN9__gnu_cxx17__normal_iteratorIPiS1_EERKi@plt>
    a723:	8b 46 08             	mov    0x8(%esi),%eax
    a726:	8b 56 0c             	mov    0xc(%esi),%edx
    a729:	e9 6a ff ff ff       	jmp    a698 <_ZN4FaceC1Eiiii+0x78>
    a72e:	66 90                	xchg   %ax,%ax
    a730:	8d 45 10             	lea    0x10(%ebp),%eax
    a733:	89 54 24 04          	mov    %edx,0x4(%esp)
    a737:	89 44 24 08          	mov    %eax,0x8(%esp)
    a73b:	89 3c 24             	mov    %edi,(%esp)
    a73e:	e8 0d d2 ff ff       	call   7950 <_ZNSt6vectorIiSaIiEE13_M_insert_auxEN9__gnu_cxx17__normal_iteratorIPiS1_EERKi@plt>
    a743:	8b 46 08             	mov    0x8(%esi),%eax
    a746:	8b 56 0c             	mov    0xc(%esi),%edx
    a749:	e9 64 ff ff ff       	jmp    a6b2 <_ZN4FaceC1Eiiii+0x92>
    a74e:	66 90                	xchg   %ax,%ax
    a750:	8d 55 14             	lea    0x14(%ebp),%edx
    a753:	89 44 24 04          	mov    %eax,0x4(%esp)
    a757:	89 54 24 08          	mov    %edx,0x8(%esp)
    a75b:	89 3c 24             	mov    %edi,(%esp)
    a75e:	e8 ed d1 ff ff       	call   7950 <_ZNSt6vectorIiSaIiEE13_M_insert_auxEN9__gnu_cxx17__normal_iteratorIPiS1_EERKi@plt>
    a763:	e9 64 ff ff ff       	jmp    a6cc <_ZN4FaceC1Eiiii+0xac>
    a768:	8d 45 18             	lea    0x18(%ebp),%eax
    a76b:	89 54 24 04          	mov    %edx,0x4(%esp)
    a76f:	89 44 24 08          	mov    %eax,0x8(%esp)
    a773:	89 3c 24             	mov    %edi,(%esp)
    a776:	e8 d5 d1 ff ff       	call   7950 <_ZNSt6vectorIiSaIiEE13_M_insert_auxEN9__gnu_cxx17__normal_iteratorIPiS1_EERKi@plt>
    a77b:	e9 71 ff ff ff       	jmp    a6f1 <_ZN4FaceC1Eiiii+0xd1>
    a780:	8b 56 04             	mov    0x4(%esi),%edx
    a783:	89 c7                	mov    %eax,%edi
    a785:	85 d2                	test   %edx,%edx
    a787:	74 08                	je     a791 <_ZN4FaceC1Eiiii+0x171>
    a789:	89 14 24             	mov    %edx,(%esp)
    a78c:	e8 3f cd ff ff       	call   74d0 <_ZdlPv@plt>
    a791:	89 3c 24             	mov    %edi,(%esp)
    a794:	e8 e7 d3 ff ff       	call   7b80 <_Unwind_Resume@plt>
    a799:	90                   	nop
    a79a:	90                   	nop
    a79b:	90                   	nop
    a79c:	90                   	nop
    a79d:	90                   	nop
    a79e:	90                   	nop
    a79f:	90                   	nop

0000a7a0 <_ZNSt6vectorIiSaIiEE13_M_insert_auxEN9__gnu_cxx17__normal_iteratorIPiS1_EERKi>:
    a7a0:	55                   	push   %ebp
    a7a1:	89 e5                	mov    %esp,%ebp
    a7a3:	8d 64 24 c8          	lea    -0x38(%esp),%esp
    a7a7:	89 75 f8             	mov    %esi,-0x8(%ebp)
    a7aa:	8b 75 08             	mov    0x8(%ebp),%esi
    a7ad:	89 5d f4             	mov    %ebx,-0xc(%ebp)
    a7b0:	89 7d fc             	mov    %edi,-0x4(%ebp)
    a7b3:	e8 81 d6 ff ff       	call   7e39 <__i686.get_pc_thunk.bx>
    a7b8:	81 c3 ec ec 00 00    	add    $0xecec,%ebx
    a7be:	8b 46 04             	mov    0x4(%esi),%eax
    a7c1:	3b 46 08             	cmp    0x8(%esi),%eax
    a7c4:	8b 7d 0c             	mov    0xc(%ebp),%edi
    a7c7:	8b 55 10             	mov    0x10(%ebp),%edx
    a7ca:	74 44                	je     a810 <_ZNSt6vectorIiSaIiEE13_M_insert_auxEN9__gnu_cxx17__normal_iteratorIPiS1_EERKi+0x70>
    a7cc:	31 c9                	xor    %ecx,%ecx
    a7ce:	85 c0                	test   %eax,%eax
    a7d0:	74 08                	je     a7da <_ZNSt6vectorIiSaIiEE13_M_insert_auxEN9__gnu_cxx17__normal_iteratorIPiS1_EERKi+0x3a>
    a7d2:	8b 48 fc             	mov    -0x4(%eax),%ecx
    a7d5:	89 08                	mov    %ecx,(%eax)
    a7d7:	8b 4e 04             	mov    0x4(%esi),%ecx
    a7da:	8d 41 04             	lea    0x4(%ecx),%eax
    a7dd:	89 46 04             	mov    %eax,0x4(%esi)
    a7e0:	8d 41 fc             	lea    -0x4(%ecx),%eax
    a7e3:	29 f8                	sub    %edi,%eax
    a7e5:	83 e0 fc             	and    $0xfffffffc,%eax
    a7e8:	8b 32                	mov    (%edx),%esi
    a7ea:	29 c1                	sub    %eax,%ecx
    a7ec:	89 7c 24 04          	mov    %edi,0x4(%esp)
    a7f0:	89 44 24 08          	mov    %eax,0x8(%esp)
    a7f4:	89 0c 24             	mov    %ecx,(%esp)
    a7f7:	e8 04 d4 ff ff       	call   7c00 <memmove@plt>
    a7fc:	89 37                	mov    %esi,(%edi)
    a7fe:	8b 5d f4             	mov    -0xc(%ebp),%ebx
    a801:	8b 75 f8             	mov    -0x8(%ebp),%esi
    a804:	8b 7d fc             	mov    -0x4(%ebp),%edi
    a807:	89 ec                	mov    %ebp,%esp
    a809:	5d                   	pop    %ebp
    a80a:	c3                   	ret    
    a80b:	90                   	nop
    a80c:	8d 74 26 00          	lea    0x0(%esi,%eiz,1),%esi
    a810:	8b 0e                	mov    (%esi),%ecx
    a812:	29 c8                	sub    %ecx,%eax
    a814:	c1 f8 02             	sar    $0x2,%eax
    a817:	89 45 e0             	mov    %eax,-0x20(%ebp)
    a81a:	0f 84 c0 00 00 00    	je     a8e0 <_ZNSt6vectorIiSaIiEE13_M_insert_auxEN9__gnu_cxx17__normal_iteratorIPiS1_EERKi+0x140>
    a820:	01 c0                	add    %eax,%eax
    a822:	39 45 e0             	cmp    %eax,-0x20(%ebp)
    a825:	89 45 e4             	mov    %eax,-0x1c(%ebp)
    a828:	0f 86 d0 00 00 00    	jbe    a8fe <_ZNSt6vectorIiSaIiEE13_M_insert_auxEN9__gnu_cxx17__normal_iteratorIPiS1_EERKi+0x15e>
    a82e:	89 f8                	mov    %edi,%eax
    a830:	c7 45 e0 fc ff ff ff 	movl   $0xfffffffc,-0x20(%ebp)
    a837:	29 c8                	sub    %ecx,%eax
    a839:	89 c1                	mov    %eax,%ecx
    a83b:	c1 f9 02             	sar    $0x2,%ecx
    a83e:	8b 45 e0             	mov    -0x20(%ebp),%eax
    a841:	89 55 dc             	mov    %edx,-0x24(%ebp)
    a844:	89 4d d8             	mov    %ecx,-0x28(%ebp)
    a847:	89 04 24             	mov    %eax,(%esp)
    a84a:	e8 01 c6 ff ff       	call   6e50 <_Znwj@plt>
    a84f:	89 45 e4             	mov    %eax,-0x1c(%ebp)
    a852:	8b 4d d8             	mov    -0x28(%ebp),%ecx
    a855:	8b 55 dc             	mov    -0x24(%ebp),%edx
    a858:	8b 45 e4             	mov    -0x1c(%ebp),%eax
    a85b:	8d 0c 88             	lea    (%eax,%ecx,4),%ecx
    a85e:	85 c9                	test   %ecx,%ecx
    a860:	74 04                	je     a866 <_ZNSt6vectorIiSaIiEE13_M_insert_auxEN9__gnu_cxx17__normal_iteratorIPiS1_EERKi+0xc6>
    a862:	8b 12                	mov    (%edx),%edx
    a864:	89 11                	mov    %edx,(%ecx)
    a866:	8b 06                	mov    (%esi),%eax
    a868:	89 fa                	mov    %edi,%edx
    a86a:	29 c2                	sub    %eax,%edx
    a86c:	89 44 24 04          	mov    %eax,0x4(%esp)
    a870:	83 e2 fc             	and    $0xfffffffc,%edx
    a873:	8b 45 e4             	mov    -0x1c(%ebp),%eax
    a876:	89 54 24 08          	mov    %edx,0x8(%esp)
    a87a:	89 55 dc             	mov    %edx,-0x24(%ebp)
    a87d:	89 04 24             	mov    %eax,(%esp)
    a880:	e8 7b d3 ff ff       	call   7c00 <memmove@plt>
    a885:	8b 55 dc             	mov    -0x24(%ebp),%edx
    a888:	8b 45 e4             	mov    -0x1c(%ebp),%eax
    a88b:	8d 4c 10 04          	lea    0x4(%eax,%edx,1),%ecx
    a88f:	8b 56 04             	mov    0x4(%esi),%edx
    a892:	29 fa                	sub    %edi,%edx
    a894:	89 7c 24 04          	mov    %edi,0x4(%esp)
    a898:	83 e2 fc             	and    $0xfffffffc,%edx
    a89b:	89 0c 24             	mov    %ecx,(%esp)
    a89e:	89 54 24 08          	mov    %edx,0x8(%esp)
    a8a2:	89 55 dc             	mov    %edx,-0x24(%ebp)
    a8a5:	89 4d d8             	mov    %ecx,-0x28(%ebp)
    a8a8:	e8 53 d3 ff ff       	call   7c00 <memmove@plt>
    a8ad:	8b 55 dc             	mov    -0x24(%ebp),%edx
    a8b0:	8b 4d d8             	mov    -0x28(%ebp),%ecx
    a8b3:	8b 06                	mov    (%esi),%eax
    a8b5:	85 c0                	test   %eax,%eax
    a8b7:	8d 3c 11             	lea    (%ecx,%edx,1),%edi
    a8ba:	74 08                	je     a8c4 <_ZNSt6vectorIiSaIiEE13_M_insert_auxEN9__gnu_cxx17__normal_iteratorIPiS1_EERKi+0x124>
    a8bc:	89 04 24             	mov    %eax,(%esp)
    a8bf:	e8 0c cc ff ff       	call   74d0 <_ZdlPv@plt>
    a8c4:	8b 45 e4             	mov    -0x1c(%ebp),%eax
    a8c7:	89 7e 04             	mov    %edi,0x4(%esi)
    a8ca:	89 06                	mov    %eax,(%esi)
    a8cc:	03 45 e0             	add    -0x20(%ebp),%eax
    a8cf:	89 46 08             	mov    %eax,0x8(%esi)
    a8d2:	8b 5d f4             	mov    -0xc(%ebp),%ebx
    a8d5:	8b 75 f8             	mov    -0x8(%ebp),%esi
    a8d8:	8b 7d fc             	mov    -0x4(%ebp),%edi
    a8db:	89 ec                	mov    %ebp,%esp
    a8dd:	5d                   	pop    %ebp
    a8de:	c3                   	ret    
    a8df:	90                   	nop
    a8e0:	89 f8                	mov    %edi,%eax
    a8e2:	c7 45 e4 01 00 00 00 	movl   $0x1,-0x1c(%ebp)
    a8e9:	29 c8                	sub    %ecx,%eax
    a8eb:	89 c1                	mov    %eax,%ecx
    a8ed:	c1 f9 02             	sar    $0x2,%ecx
    a8f0:	8b 45 e4             	mov    -0x1c(%ebp),%eax
    a8f3:	c1 e0 02             	shl    $0x2,%eax
    a8f6:	89 45 e0             	mov    %eax,-0x20(%ebp)
    a8f9:	e9 40 ff ff ff       	jmp    a83e <_ZNSt6vectorIiSaIiEE13_M_insert_auxEN9__gnu_cxx17__normal_iteratorIPiS1_EERKi+0x9e>
    a8fe:	3d ff ff ff 3f       	cmp    $0x3fffffff,%eax
    a903:	0f 87 25 ff ff ff    	ja     a82e <_ZNSt6vectorIiSaIiEE13_M_insert_auxEN9__gnu_cxx17__normal_iteratorIPiS1_EERKi+0x8e>
    a909:	89 f8                	mov    %edi,%eax
    a90b:	29 c8                	sub    %ecx,%eax
    a90d:	89 c1                	mov    %eax,%ecx
    a90f:	c1 f9 02             	sar    $0x2,%ecx
    a912:	83 7d e4 00          	cmpl   $0x0,-0x1c(%ebp)
    a916:	75 d8                	jne    a8f0 <_ZNSt6vectorIiSaIiEE13_M_insert_auxEN9__gnu_cxx17__normal_iteratorIPiS1_EERKi+0x150>
    a918:	c7 45 e0 00 00 00 00 	movl   $0x0,-0x20(%ebp)
    a91f:	c7 45 e4 00 00 00 00 	movl   $0x0,-0x1c(%ebp)
    a926:	e9 2d ff ff ff       	jmp    a858 <_ZNSt6vectorIiSaIiEE13_M_insert_auxEN9__gnu_cxx17__normal_iteratorIPiS1_EERKi+0xb8>
    a92b:	90                   	nop
    a92c:	90                   	nop
    a92d:	90                   	nop
    a92e:	90                   	nop
    a92f:	90                   	nop

0000a930 <_ZN6VertexC1ERK5Point>:
    a930:	55                   	push   %ebp
    a931:	89 e5                	mov    %esp,%ebp
    a933:	8b 55 0c             	mov    0xc(%ebp),%edx
    a936:	8b 45 08             	mov    0x8(%ebp),%eax
    a939:	8b 0a                	mov    (%edx),%ecx
    a93b:	89 08                	mov    %ecx,(%eax)
    a93d:	8b 4a 04             	mov    0x4(%edx),%ecx
    a940:	89 48 04             	mov    %ecx,0x4(%eax)
    a943:	8b 52 08             	mov    0x8(%edx),%edx
    a946:	89 50 08             	mov    %edx,0x8(%eax)
    a949:	5d                   	pop    %ebp
    a94a:	c3                   	ret    
    a94b:	90                   	nop
    a94c:	8d 74 26 00          	lea    0x0(%esi,%eiz,1),%esi

0000a950 <_GLOBAL__I_vertex.cpp>:
    a950:	55                   	push   %ebp
    a951:	89 e5                	mov    %esp,%ebp
    a953:	8d 64 24 e8          	lea    -0x18(%esp),%esp
    a957:	89 5d f8             	mov    %ebx,-0x8(%ebp)
    a95a:	89 75 fc             	mov    %esi,-0x4(%ebp)
    a95d:	e8 d7 d4 ff ff       	call   7e39 <__i686.get_pc_thunk.bx>
    a962:	81 c3 42 eb 00 00    	add    $0xeb42,%ebx
    a968:	8d b3 34 04 00 00    	lea    0x434(%ebx),%esi
    a96e:	89 34 24             	mov    %esi,(%esp)
    a971:	e8 3a d0 ff ff       	call   79b0 <_ZNSt8ios_base4InitC1Ev@plt>
    a976:	8b 83 b0 ff ff ff    	mov    -0x50(%ebx),%eax
    a97c:	89 74 24 04          	mov    %esi,0x4(%esp)
    a980:	89 44 24 08          	mov    %eax,0x8(%esp)
    a984:	8b 83 fc ff ff ff    	mov    -0x4(%ebx),%eax
    a98a:	89 04 24             	mov    %eax,(%esp)
    a98d:	e8 5e c9 ff ff       	call   72f0 <__cxa_atexit@plt>
    a992:	8b 5d f8             	mov    -0x8(%ebp),%ebx
    a995:	8b 75 fc             	mov    -0x4(%ebp),%esi
    a998:	89 ec                	mov    %ebp,%esp
    a99a:	5d                   	pop    %ebp
    a99b:	c3                   	ret    
    a99c:	90                   	nop
    a99d:	90                   	nop
    a99e:	90                   	nop
    a99f:	90                   	nop

0000a9a0 <_ZNK5Model11boundingBoxEv>:
    a9a0:	55                   	push   %ebp
    a9a1:	89 e5                	mov    %esp,%ebp
    a9a3:	8b 55 0c             	mov    0xc(%ebp),%edx
    a9a6:	8b 45 08             	mov    0x8(%ebp),%eax
    a9a9:	8b 4a 1c             	mov    0x1c(%edx),%ecx
    a9ac:	89 08                	mov    %ecx,(%eax)
    a9ae:	8b 4a 20             	mov    0x20(%edx),%ecx
    a9b1:	89 48 04             	mov    %ecx,0x4(%eax)
    a9b4:	8b 4a 24             	mov    0x24(%edx),%ecx
    a9b7:	89 48 08             	mov    %ecx,0x8(%eax)
    a9ba:	8b 4a 28             	mov    0x28(%edx),%ecx
    a9bd:	89 48 0c             	mov    %ecx,0xc(%eax)
    a9c0:	8b 4a 2c             	mov    0x2c(%edx),%ecx
    a9c3:	89 48 10             	mov    %ecx,0x10(%eax)
    a9c6:	8b 52 30             	mov    0x30(%edx),%edx
    a9c9:	89 50 14             	mov    %edx,0x14(%eax)
    a9cc:	5d                   	pop    %ebp
    a9cd:	c2 04 00             	ret    $0x4

0000a9d0 <_GLOBAL__I_model.cpp>:
    a9d0:	55                   	push   %ebp
    a9d1:	89 e5                	mov    %esp,%ebp
    a9d3:	8d 64 24 e8          	lea    -0x18(%esp),%esp
    a9d7:	89 5d f8             	mov    %ebx,-0x8(%ebp)
    a9da:	89 75 fc             	mov    %esi,-0x4(%ebp)
    a9dd:	e8 57 d4 ff ff       	call   7e39 <__i686.get_pc_thunk.bx>
    a9e2:	81 c3 c2 ea 00 00    	add    $0xeac2,%ebx
    a9e8:	8d b3 3c 04 00 00    	lea    0x43c(%ebx),%esi
    a9ee:	89 34 24             	mov    %esi,(%esp)
    a9f1:	e8 ba cf ff ff       	call   79b0 <_ZNSt8ios_base4InitC1Ev@plt>
    a9f6:	8b 83 b0 ff ff ff    	mov    -0x50(%ebx),%eax
    a9fc:	89 74 24 04          	mov    %esi,0x4(%esp)
    aa00:	89 44 24 08          	mov    %eax,0x8(%esp)
    aa04:	8b 83 fc ff ff ff    	mov    -0x4(%ebx),%eax
    aa0a:	89 04 24             	mov    %eax,(%esp)
    aa0d:	e8 de c8 ff ff       	call   72f0 <__cxa_atexit@plt>
    aa12:	8b 5d f8             	mov    -0x8(%ebp),%ebx
    aa15:	8b 75 fc             	mov    -0x4(%ebp),%esi
    aa18:	89 ec                	mov    %ebp,%esp
    aa1a:	5d                   	pop    %ebp
    aa1b:	c3                   	ret    
    aa1c:	8d 74 26 00          	lea    0x0(%esi,%eiz,1),%esi

0000aa20 <_Z11fetch_wordsv>:
    aa20:	55                   	push   %ebp
    aa21:	89 e5                	mov    %esp,%ebp
    aa23:	56                   	push   %esi
    aa24:	53                   	push   %ebx
    aa25:	e8 0f d4 ff ff       	call   7e39 <__i686.get_pc_thunk.bx>
    aa2a:	81 c3 7a ea 00 00    	add    $0xea7a,%ebx
    aa30:	8d 64 24 f0          	lea    -0x10(%esp),%esp
    aa34:	8b 83 5c 14 00 00    	mov    0x145c(%ebx),%eax
    aa3a:	85 c0                	test   %eax,%eax
    aa3c:	0f 84 b2 00 00 00    	je     aaf4 <_Z11fetch_wordsv+0xd4>
    aa42:	0f b6 93 7c 14 00 00 	movzbl 0x147c(%ebx),%edx
    aa49:	31 c9                	xor    %ecx,%ecx
    aa4b:	84 d2                	test   %dl,%dl
    aa4d:	c7 83 7c 24 00 00 00 	movl   $0x0,0x247c(%ebx)
    aa54:	00 00 00 
    aa57:	8d b3 7c 14 00 00    	lea    0x147c(%ebx),%esi
    aa5d:	75 0f                	jne    aa6e <_Z11fetch_wordsv+0x4e>
    aa5f:	eb 4c                	jmp    aaad <_Z11fetch_wordsv+0x8d>
    aa61:	8d b4 26 00 00 00 00 	lea    0x0(%esi,%eiz,1),%esi
    aa68:	8d 76 01             	lea    0x1(%esi),%esi
    aa6b:	0f b6 16             	movzbl (%esi),%edx
    aa6e:	80 fa 20             	cmp    $0x20,%dl
    aa71:	74 f5                	je     aa68 <_Z11fetch_wordsv+0x48>
    aa73:	84 d2                	test   %dl,%dl
    aa75:	74 6d                	je     aae4 <_Z11fetch_wordsv+0xc4>
    aa77:	8b 83 5c 14 00 00    	mov    0x145c(%ebx),%eax
    aa7d:	39 c8                	cmp    %ecx,%eax
    aa7f:	7e 37                	jle    aab8 <_Z11fetch_wordsv+0x98>
    aa81:	8b 83 40 04 00 00    	mov    0x440(%ebx),%eax
    aa87:	89 34 88             	mov    %esi,(%eax,%ecx,4)
    aa8a:	80 3e 20             	cmpb   $0x20,(%esi)
    aa8d:	8d 49 01             	lea    0x1(%ecx),%ecx
    aa90:	89 8b 7c 24 00 00    	mov    %ecx,0x247c(%ebx)
    aa96:	74 08                	je     aaa0 <_Z11fetch_wordsv+0x80>
    aa98:	8d 76 01             	lea    0x1(%esi),%esi
    aa9b:	80 3e 20             	cmpb   $0x20,(%esi)
    aa9e:	75 f8                	jne    aa98 <_Z11fetch_wordsv+0x78>
    aaa0:	c6 06 00             	movb   $0x0,(%esi)
    aaa3:	8d 76 01             	lea    0x1(%esi),%esi
    aaa6:	0f b6 16             	movzbl (%esi),%edx
    aaa9:	84 d2                	test   %dl,%dl
    aaab:	75 c1                	jne    aa6e <_Z11fetch_wordsv+0x4e>
    aaad:	8d 64 24 10          	lea    0x10(%esp),%esp
    aab1:	89 c8                	mov    %ecx,%eax
    aab3:	5b                   	pop    %ebx
    aab4:	5e                   	pop    %esi
    aab5:	5d                   	pop    %ebp
    aab6:	c3                   	ret    
    aab7:	90                   	nop
    aab8:	8d 40 0a             	lea    0xa(%eax),%eax
    aabb:	89 83 5c 14 00 00    	mov    %eax,0x145c(%ebx)
    aac1:	c1 e0 02             	shl    $0x2,%eax
    aac4:	89 44 24 04          	mov    %eax,0x4(%esp)
    aac8:	8b 83 40 04 00 00    	mov    0x440(%ebx),%eax
    aace:	89 04 24             	mov    %eax,(%esp)
    aad1:	e8 6a d2 ff ff       	call   7d40 <realloc@plt>
    aad6:	89 83 40 04 00 00    	mov    %eax,0x440(%ebx)
    aadc:	8b 8b 7c 24 00 00    	mov    0x247c(%ebx),%ecx
    aae2:	eb a3                	jmp    aa87 <_Z11fetch_wordsv+0x67>
    aae4:	8b 8b 7c 24 00 00    	mov    0x247c(%ebx),%ecx
    aaea:	8d 64 24 10          	lea    0x10(%esp),%esp
    aaee:	89 c8                	mov    %ecx,%eax
    aaf0:	5b                   	pop    %ebx
    aaf1:	5e                   	pop    %esi
    aaf2:	5d                   	pop    %ebp
    aaf3:	c3                   	ret    
    aaf4:	c7 83 5c 14 00 00 14 	movl   $0x14,0x145c(%ebx)
    aafb:	00 00 00 
    aafe:	c7 04 24 50 00 00 00 	movl   $0x50,(%esp)
    ab05:	e8 86 c6 ff ff       	call   7190 <malloc@plt>
    ab0a:	89 83 40 04 00 00    	mov    %eax,0x440(%ebx)
    ab10:	e9 2d ff ff ff       	jmp    aa42 <_Z11fetch_wordsv+0x22>
    ab15:	8d 74 26 00          	lea    0x0(%esi,%eiz,1),%esi
    ab19:	8d bc 27 00 00 00 00 	lea    0x0(%edi,%eiz,1),%edi

0000ab20 <_Z10fetch_lineP8_IO_FILE>:
    ab20:	55                   	push   %ebp
    ab21:	89 e5                	mov    %esp,%ebp
    ab23:	57                   	push   %edi
    ab24:	56                   	push   %esi
    ab25:	53                   	push   %ebx
    ab26:	e8 0e d3 ff ff       	call   7e39 <__i686.get_pc_thunk.bx>
    ab2b:	81 c3 79 e9 00 00    	add    $0xe979,%ebx
    ab31:	8d 64 24 d4          	lea    -0x2c(%esp),%esp
    ab35:	8b 45 08             	mov    0x8(%ebp),%eax
    ab38:	89 44 24 08          	mov    %eax,0x8(%esp)
    ab3c:	c7 44 24 04 00 10 00 	movl   $0x1000,0x4(%esp)
    ab43:	00 
    ab44:	8d b3 7c 14 00 00    	lea    0x147c(%ebx),%esi
    ab4a:	89 34 24             	mov    %esi,(%esp)
    ab4d:	e8 ce c5 ff ff       	call   7120 <fgets@plt>
    ab52:	89 c2                	mov    %eax,%edx
    ab54:	b8 ff ff ff ff       	mov    $0xffffffff,%eax
    ab59:	85 d2                	test   %edx,%edx
    ab5b:	0f 84 c5 00 00 00    	je     ac26 <_Z10fetch_lineP8_IO_FILE+0x106>
    ab61:	0f b6 83 7c 14 00 00 	movzbl 0x147c(%ebx),%eax
    ab68:	c6 83 7a 24 00 00 20 	movb   $0x20,0x247a(%ebx)
    ab6f:	84 c0                	test   %al,%al
    ab71:	c6 83 7b 24 00 00 00 	movb   $0x0,0x247b(%ebx)
    ab78:	0f 84 04 01 00 00    	je     ac82 <_Z10fetch_lineP8_IO_FILE+0x162>
    ab7e:	89 f2                	mov    %esi,%edx
    ab80:	eb 18                	jmp    ab9a <_Z10fetch_lineP8_IO_FILE+0x7a>
    ab82:	8d b6 00 00 00 00    	lea    0x0(%esi),%esi
    ab88:	3c 0a                	cmp    $0xa,%al
    ab8a:	0f 84 b8 00 00 00    	je     ac48 <_Z10fetch_lineP8_IO_FILE+0x128>
    ab90:	8d 52 01             	lea    0x1(%edx),%edx
    ab93:	0f b6 02             	movzbl (%edx),%eax
    ab96:	84 c0                	test   %al,%al
    ab98:	74 16                	je     abb0 <_Z10fetch_lineP8_IO_FILE+0x90>
    ab9a:	3c 09                	cmp    $0x9,%al
    ab9c:	75 ea                	jne    ab88 <_Z10fetch_lineP8_IO_FILE+0x68>
    ab9e:	c6 02 20             	movb   $0x20,(%edx)
    aba1:	8d 52 01             	lea    0x1(%edx),%edx
    aba4:	0f b6 02             	movzbl (%edx),%eax
    aba7:	84 c0                	test   %al,%al
    aba9:	75 ef                	jne    ab9a <_Z10fetch_lineP8_IO_FILE+0x7a>
    abab:	90                   	nop
    abac:	8d 74 26 00          	lea    0x0(%esi,%eiz,1),%esi
    abb0:	0f b6 83 7c 14 00 00 	movzbl 0x147c(%ebx),%eax
    abb7:	84 c0                	test   %al,%al
    abb9:	88 45 e7             	mov    %al,-0x19(%ebp)
    abbc:	0f 84 c0 00 00 00    	je     ac82 <_Z10fetch_lineP8_IO_FILE+0x162>
    abc2:	0f b6 55 e7          	movzbl -0x19(%ebp),%edx
    abc6:	31 c0                	xor    %eax,%eax
    abc8:	8d bb 5d 04 00 00    	lea    0x45d(%ebx),%edi
    abce:	89 75 e0             	mov    %esi,-0x20(%ebp)
    abd1:	8d b4 26 00 00 00 00 	lea    0x0(%esi,%eiz,1),%esi
    abd8:	88 94 18 5c 04 00 00 	mov    %dl,0x45c(%eax,%ebx,1)
    abdf:	8d 0c 07             	lea    (%edi,%eax,1),%ecx
    abe2:	0f b6 54 06 01       	movzbl 0x1(%esi,%eax,1),%edx
    abe7:	8d 40 01             	lea    0x1(%eax),%eax
    abea:	84 d2                	test   %dl,%dl
    abec:	75 ea                	jne    abd8 <_Z10fetch_lineP8_IO_FILE+0xb8>
    abee:	c6 01 00             	movb   $0x0,(%ecx)
    abf1:	8b 55 e0             	mov    -0x20(%ebp),%edx
    abf4:	80 7d e7 23          	cmpb   $0x23,-0x19(%ebp)
    abf8:	8d 42 01             	lea    0x1(%edx),%eax
    abfb:	74 56                	je     ac53 <_Z10fetch_lineP8_IO_FILE+0x133>
    abfd:	80 7d e7 20          	cmpb   $0x20,-0x19(%ebp)
    ac01:	89 d0                	mov    %edx,%eax
    ac03:	74 15                	je     ac1a <_Z10fetch_lineP8_IO_FILE+0xfa>
    ac05:	e9 83 00 00 00       	jmp    ac8d <_Z10fetch_lineP8_IO_FILE+0x16d>
    ac0a:	8d b6 00 00 00 00    	lea    0x0(%esi),%esi
    ac10:	80 fa 23             	cmp    $0x23,%dl
    ac13:	74 3b                	je     ac50 <_Z10fetch_lineP8_IO_FILE+0x130>
    ac15:	80 fa 20             	cmp    $0x20,%dl
    ac18:	75 1b                	jne    ac35 <_Z10fetch_lineP8_IO_FILE+0x115>
    ac1a:	8d 40 01             	lea    0x1(%eax),%eax
    ac1d:	0f b6 10             	movzbl (%eax),%edx
    ac20:	84 d2                	test   %dl,%dl
    ac22:	75 ec                	jne    ac10 <_Z10fetch_lineP8_IO_FILE+0xf0>
    ac24:	31 c0                	xor    %eax,%eax
    ac26:	8d 64 24 2c          	lea    0x2c(%esp),%esp
    ac2a:	5b                   	pop    %ebx
    ac2b:	5e                   	pop    %esi
    ac2c:	5f                   	pop    %edi
    ac2d:	5d                   	pop    %ebp
    ac2e:	c3                   	ret    
    ac2f:	90                   	nop
    ac30:	80 fa 23             	cmp    $0x23,%dl
    ac33:	74 3b                	je     ac70 <_Z10fetch_lineP8_IO_FILE+0x150>
    ac35:	8d 40 01             	lea    0x1(%eax),%eax
    ac38:	0f b6 10             	movzbl (%eax),%edx
    ac3b:	84 d2                	test   %dl,%dl
    ac3d:	75 f1                	jne    ac30 <_Z10fetch_lineP8_IO_FILE+0x110>
    ac3f:	eb e3                	jmp    ac24 <_Z10fetch_lineP8_IO_FILE+0x104>
    ac41:	8d b4 26 00 00 00 00 	lea    0x0(%esi,%eiz,1),%esi
    ac48:	c6 02 20             	movb   $0x20,(%edx)
    ac4b:	e9 60 ff ff ff       	jmp    abb0 <_Z10fetch_lineP8_IO_FILE+0x90>
    ac50:	8d 40 01             	lea    0x1(%eax),%eax
    ac53:	80 38 20             	cmpb   $0x20,(%eax)
    ac56:	75 ce                	jne    ac26 <_Z10fetch_lineP8_IO_FILE+0x106>
    ac58:	8d 40 01             	lea    0x1(%eax),%eax
    ac5b:	80 38 20             	cmpb   $0x20,(%eax)
    ac5e:	74 f8                	je     ac58 <_Z10fetch_lineP8_IO_FILE+0x138>
    ac60:	8d 64 24 2c          	lea    0x2c(%esp),%esp
    ac64:	5b                   	pop    %ebx
    ac65:	5e                   	pop    %esi
    ac66:	5f                   	pop    %edi
    ac67:	5d                   	pop    %ebp
    ac68:	c3                   	ret    
    ac69:	8d b4 26 00 00 00 00 	lea    0x0(%esi,%eiz,1),%esi
    ac70:	c6 00 20             	movb   $0x20,(%eax)
    ac73:	c6 40 01 00          	movb   $0x0,0x1(%eax)
    ac77:	8d 64 24 2c          	lea    0x2c(%esp),%esp
    ac7b:	31 c0                	xor    %eax,%eax
    ac7d:	5b                   	pop    %ebx
    ac7e:	5e                   	pop    %esi
    ac7f:	5f                   	pop    %edi
    ac80:	5d                   	pop    %ebp
    ac81:	c3                   	ret    
    ac82:	c6 83 5c 04 00 00 00 	movb   $0x0,0x45c(%ebx)
    ac89:	31 c0                	xor    %eax,%eax
    ac8b:	eb 99                	jmp    ac26 <_Z10fetch_lineP8_IO_FILE+0x106>
    ac8d:	8b 45 e0             	mov    -0x20(%ebp),%eax
    ac90:	eb a3                	jmp    ac35 <_Z10fetch_lineP8_IO_FILE+0x115>
    ac92:	8d b4 26 00 00 00 00 	lea    0x0(%esi,%eiz,1),%esi
    ac99:	8d bc 27 00 00 00 00 	lea    0x0(%edi,%eiz,1),%edi

0000aca0 <_Z11get_indicesPcPiS0_S0_>:
    aca0:	55                   	push   %ebp
    aca1:	89 e5                	mov    %esp,%ebp
    aca3:	57                   	push   %edi
    aca4:	56                   	push   %esi
    aca5:	53                   	push   %ebx
    aca6:	e8 8e d1 ff ff       	call   7e39 <__i686.get_pc_thunk.bx>
    acab:	81 c3 f9 e7 00 00    	add    $0xe7f9,%ebx
    acb1:	8d 64 24 e4          	lea    -0x1c(%esp),%esp
    acb5:	8b 45 08             	mov    0x8(%ebp),%eax
    acb8:	8d b3 b1 bf ff ff    	lea    -0x404f(%ebx),%esi
    acbe:	89 f7                	mov    %esi,%edi
    acc0:	0f b6 10             	movzbl (%eax),%edx
    acc3:	84 d2                	test   %dl,%dl
    acc5:	74 2d                	je     acf4 <_Z11get_indicesPcPiS0_S0_+0x54>
    acc7:	89 f1                	mov    %esi,%ecx
    acc9:	eb 0f                	jmp    acda <_Z11get_indicesPcPiS0_S0_+0x3a>
    accb:	90                   	nop
    accc:	8d 74 26 00          	lea    0x0(%esi,%eiz,1),%esi
    acd0:	8d 40 01             	lea    0x1(%eax),%eax
    acd3:	0f b6 10             	movzbl (%eax),%edx
    acd6:	84 d2                	test   %dl,%dl
    acd8:	74 1a                	je     acf4 <_Z11get_indicesPcPiS0_S0_+0x54>
    acda:	80 fa 2f             	cmp    $0x2f,%dl
    acdd:	75 f1                	jne    acd0 <_Z11get_indicesPcPiS0_S0_+0x30>
    acdf:	39 cf                	cmp    %ecx,%edi
    ace1:	74 75                	je     ad58 <_Z11get_indicesPcPiS0_S0_+0xb8>
    ace3:	8d 70 01             	lea    0x1(%eax),%esi
    ace6:	89 f2                	mov    %esi,%edx
    ace8:	c6 00 00             	movb   $0x0,(%eax)
    aceb:	89 d0                	mov    %edx,%eax
    aced:	0f b6 10             	movzbl (%eax),%edx
    acf0:	84 d2                	test   %dl,%dl
    acf2:	75 e6                	jne    acda <_Z11get_indicesPcPiS0_S0_+0x3a>
    acf4:	8b 45 08             	mov    0x8(%ebp),%eax
    acf7:	c7 44 24 08 0a 00 00 	movl   $0xa,0x8(%esp)
    acfe:	00 
    acff:	c7 44 24 04 00 00 00 	movl   $0x0,0x4(%esp)
    ad06:	00 
    ad07:	89 04 24             	mov    %eax,(%esp)
    ad0a:	e8 11 c9 ff ff       	call   7620 <strtol@plt>
    ad0f:	8b 55 0c             	mov    0xc(%ebp),%edx
    ad12:	89 02                	mov    %eax,(%edx)
    ad14:	89 3c 24             	mov    %edi,(%esp)
    ad17:	c7 44 24 08 0a 00 00 	movl   $0xa,0x8(%esp)
    ad1e:	00 
    ad1f:	c7 44 24 04 00 00 00 	movl   $0x0,0x4(%esp)
    ad26:	00 
    ad27:	e8 f4 c8 ff ff       	call   7620 <strtol@plt>
    ad2c:	8b 55 10             	mov    0x10(%ebp),%edx
    ad2f:	89 02                	mov    %eax,(%edx)
    ad31:	89 34 24             	mov    %esi,(%esp)
    ad34:	c7 44 24 08 0a 00 00 	movl   $0xa,0x8(%esp)
    ad3b:	00 
    ad3c:	c7 44 24 04 00 00 00 	movl   $0x0,0x4(%esp)
    ad43:	00 
    ad44:	e8 d7 c8 ff ff       	call   7620 <strtol@plt>
    ad49:	8b 55 14             	mov    0x14(%ebp),%edx
    ad4c:	89 02                	mov    %eax,(%edx)
    ad4e:	8d 64 24 1c          	lea    0x1c(%esp),%esp
    ad52:	5b                   	pop    %ebx
    ad53:	5e                   	pop    %esi
    ad54:	5f                   	pop    %edi
    ad55:	5d                   	pop    %ebp
    ad56:	c3                   	ret    
    ad57:	90                   	nop
    ad58:	8d 78 01             	lea    0x1(%eax),%edi
    ad5b:	89 fa                	mov    %edi,%edx
    ad5d:	eb 89                	jmp    ace8 <_Z11get_indicesPcPiS0_S0_+0x48>
    ad5f:	90                   	nop

0000ad60 <_ZN5Model14computeNormalsEv>:
    ad60:	55                   	push   %ebp
    ad61:	89 e5                	mov    %esp,%ebp
    ad63:	57                   	push   %edi
    ad64:	56                   	push   %esi
    ad65:	53                   	push   %ebx
    ad66:	e8 ce d0 ff ff       	call   7e39 <__i686.get_pc_thunk.bx>
    ad6b:	81 c3 39 e7 00 00    	add    $0xe739,%ebx
    ad71:	8d 64 24 d4          	lea    -0x2c(%esp),%esp
    ad75:	8b 75 08             	mov    0x8(%ebp),%esi
    ad78:	8b 56 0c             	mov    0xc(%esi),%edx
    ad7b:	8b 46 10             	mov    0x10(%esi),%eax
    ad7e:	29 d0                	sub    %edx,%eax
    ad80:	c1 f8 02             	sar    $0x2,%eax
    ad83:	69 c0 b7 6d db b6    	imul   $0xb6db6db7,%eax,%eax
    ad89:	85 c0                	test   %eax,%eax
    ad8b:	74 3a                	je     adc7 <_ZN5Model14computeNormalsEv+0x67>
    ad8d:	31 c9                	xor    %ecx,%ecx
    ad8f:	31 ff                	xor    %edi,%edi
    ad91:	8d b4 26 00 00 00 00 	lea    0x0(%esi,%eiz,1),%esi
    ad98:	01 ca                	add    %ecx,%edx
    ad9a:	89 4d e4             	mov    %ecx,-0x1c(%ebp)
    ad9d:	89 14 24             	mov    %edx,(%esp)
    ada0:	89 74 24 04          	mov    %esi,0x4(%esp)
    ada4:	e8 57 c6 ff ff       	call   7400 <_ZN4Face13computeNormalERSt6vectorI6VertexSaIS1_EE@plt>
    ada9:	8b 56 0c             	mov    0xc(%esi),%edx
    adac:	8b 46 10             	mov    0x10(%esi),%eax
    adaf:	29 d0                	sub    %edx,%eax
    adb1:	8d 7f 01             	lea    0x1(%edi),%edi
    adb4:	c1 f8 02             	sar    $0x2,%eax
    adb7:	8b 4d e4             	mov    -0x1c(%ebp),%ecx
    adba:	69 c0 b7 6d db b6    	imul   $0xb6db6db7,%eax,%eax
    adc0:	83 c1 1c             	add    $0x1c,%ecx
    adc3:	39 c7                	cmp    %eax,%edi
    adc5:	72 d1                	jb     ad98 <_ZN5Model14computeNormalsEv+0x38>
    adc7:	8d 64 24 2c          	lea    0x2c(%esp),%esp
    adcb:	5b                   	pop    %ebx
    adcc:	5e                   	pop    %esi
    adcd:	5f                   	pop    %edi
    adce:	5d                   	pop    %ebp
    adcf:	c3                   	ret    

0000add0 <_ZN5Model11netejaDadesEv>:
    add0:	55                   	push   %ebp
    add1:	89 e5                	mov    %esp,%ebp
    add3:	57                   	push   %edi
    add4:	56                   	push   %esi
    add5:	53                   	push   %ebx
    add6:	e8 5e d0 ff ff       	call   7e39 <__i686.get_pc_thunk.bx>
    addb:	81 c3 c9 e6 00 00    	add    $0xe6c9,%ebx
    ade1:	8d 64 24 c4          	lea    -0x3c(%esp),%esp
    ade5:	8b 55 08             	mov    0x8(%ebp),%edx
    ade8:	8b 02                	mov    (%edx),%eax
    adea:	8b 7a 10             	mov    0x10(%edx),%edi
    aded:	89 42 04             	mov    %eax,0x4(%edx)
    adf0:	8b 42 0c             	mov    0xc(%edx),%eax
    adf3:	39 f8                	cmp    %edi,%eax
    adf5:	89 45 d4             	mov    %eax,-0x2c(%ebp)
    adf8:	74 1c                	je     ae16 <_ZN5Model11netejaDadesEv+0x46>
    adfa:	89 c6                	mov    %eax,%esi
    adfc:	8d 74 26 00          	lea    0x0(%esi,%eiz,1),%esi
    ae00:	8b 46 04             	mov    0x4(%esi),%eax
    ae03:	85 c0                	test   %eax,%eax
    ae05:	74 08                	je     ae0f <_ZN5Model11netejaDadesEv+0x3f>
    ae07:	89 04 24             	mov    %eax,(%esp)
    ae0a:	e8 c1 c6 ff ff       	call   74d0 <_ZdlPv@plt>
    ae0f:	8d 76 1c             	lea    0x1c(%esi),%esi
    ae12:	39 f7                	cmp    %esi,%edi
    ae14:	75 ea                	jne    ae00 <_ZN5Model11netejaDadesEv+0x30>
    ae16:	8b 55 08             	mov    0x8(%ebp),%edx
    ae19:	8b 45 d4             	mov    -0x2c(%ebp),%eax
    ae1c:	8d 75 dc             	lea    -0x24(%ebp),%esi
    ae1f:	89 42 10             	mov    %eax,0x10(%edx)
    ae22:	89 34 24             	mov    %esi,(%esp)
    ae25:	c7 44 24 0c 00 00 00 	movl   $0x0,0xc(%esp)
    ae2c:	00 
    ae2d:	c7 44 24 08 00 00 00 	movl   $0x0,0x8(%esp)
    ae34:	00 
    ae35:	c7 44 24 04 00 00 00 	movl   $0x0,0x4(%esp)
    ae3c:	00 
    ae3d:	e8 1e c7 ff ff       	call   7560 <_ZN5PointC1Efff@plt>
    ae42:	8b 45 08             	mov    0x8(%ebp),%eax
    ae45:	89 74 24 04          	mov    %esi,0x4(%esp)
    ae49:	83 c0 1c             	add    $0x1c,%eax
    ae4c:	89 04 24             	mov    %eax,(%esp)
    ae4f:	e8 bc c4 ff ff       	call   7310 <_ZN3Box4initERK5Point@plt>
    ae54:	8d 64 24 3c          	lea    0x3c(%esp),%esp
    ae58:	5b                   	pop    %ebx
    ae59:	5e                   	pop    %esi
    ae5a:	5f                   	pop    %edi
    ae5b:	5d                   	pop    %ebp
    ae5c:	c3                   	ret    
    ae5d:	90                   	nop
    ae5e:	66 90                	xchg   %ax,%ax

0000ae60 <_ZN5Model6RenderEv>:
    ae60:	55                   	push   %ebp
    ae61:	89 e5                	mov    %esp,%ebp
    ae63:	57                   	push   %edi
    ae64:	56                   	push   %esi
    ae65:	53                   	push   %ebx
    ae66:	e8 ce cf ff ff       	call   7e39 <__i686.get_pc_thunk.bx>
    ae6b:	81 c3 39 e6 00 00    	add    $0xe639,%ebx
    ae71:	8d 64 24 d4          	lea    -0x2c(%esp),%esp
    ae75:	8b 75 08             	mov    0x8(%ebp),%esi
    ae78:	8b 46 10             	mov    0x10(%esi),%eax
    ae7b:	2b 46 0c             	sub    0xc(%esi),%eax
    ae7e:	c1 f8 02             	sar    $0x2,%eax
    ae81:	69 c0 b7 6d db b6    	imul   $0xb6db6db7,%eax,%eax
    ae87:	85 c0                	test   %eax,%eax
    ae89:	0f 84 cd 00 00 00    	je     af5c <_ZN5Model6RenderEv+0xfc>
    ae8f:	31 ff                	xor    %edi,%edi
    ae91:	c7 45 e0 00 00 00 00 	movl   $0x0,-0x20(%ebp)
    ae98:	c7 04 24 09 00 00 00 	movl   $0x9,(%esp)
    ae9f:	e8 cc c0 ff ff       	call   6f70 <glBegin@plt>
    aea4:	8b 46 0c             	mov    0xc(%esi),%eax
    aea7:	8b 04 38             	mov    (%eax,%edi,1),%eax
    aeaa:	89 44 24 04          	mov    %eax,0x4(%esp)
    aeae:	8b 83 a4 ff ff ff    	mov    -0x5c(%ebx),%eax
    aeb4:	89 04 24             	mov    %eax,(%esp)
    aeb7:	e8 a4 c9 ff ff       	call   7860 <_ZNK11MaterialLib8materialEi@plt>
    aebc:	8b 50 1c             	mov    0x1c(%eax),%edx
    aebf:	89 54 24 08          	mov    %edx,0x8(%esp)
    aec3:	8b 50 18             	mov    0x18(%eax),%edx
    aec6:	89 54 24 04          	mov    %edx,0x4(%esp)
    aeca:	8b 40 14             	mov    0x14(%eax),%eax
    aecd:	89 04 24             	mov    %eax,(%esp)
    aed0:	e8 1b ce ff ff       	call   7cf0 <glColor3f@plt>
    aed5:	8b 46 0c             	mov    0xc(%esi),%eax
    aed8:	8d 04 38             	lea    (%eax,%edi,1),%eax
    aedb:	8b 48 04             	mov    0x4(%eax),%ecx
    aede:	8b 40 08             	mov    0x8(%eax),%eax
    aee1:	29 c8                	sub    %ecx,%eax
    aee3:	c1 e8 02             	shr    $0x2,%eax
    aee6:	74 50                	je     af38 <_ZN5Model6RenderEv+0xd8>
    aee8:	31 d2                	xor    %edx,%edx
    aeea:	89 7d e4             	mov    %edi,-0x1c(%ebp)
    aeed:	89 f7                	mov    %esi,%edi
    aeef:	89 d6                	mov    %edx,%esi
    aef1:	8d b4 26 00 00 00 00 	lea    0x0(%esi,%eiz,1),%esi
    aef8:	8b 04 b1             	mov    (%ecx,%esi,4),%eax
    aefb:	8d 76 01             	lea    0x1(%esi),%esi
    aefe:	8d 04 40             	lea    (%eax,%eax,2),%eax
    af01:	c1 e0 02             	shl    $0x2,%eax
    af04:	03 07                	add    (%edi),%eax
    af06:	8b 50 08             	mov    0x8(%eax),%edx
    af09:	89 54 24 08          	mov    %edx,0x8(%esp)
    af0d:	8b 50 04             	mov    0x4(%eax),%edx
    af10:	89 54 24 04          	mov    %edx,0x4(%esp)
    af14:	8b 00                	mov    (%eax),%eax
    af16:	89 04 24             	mov    %eax,(%esp)
    af19:	e8 12 ce ff ff       	call   7d30 <glVertex3f@plt>
    af1e:	8b 45 e4             	mov    -0x1c(%ebp),%eax
    af21:	03 47 0c             	add    0xc(%edi),%eax
    af24:	8b 48 04             	mov    0x4(%eax),%ecx
    af27:	8b 40 08             	mov    0x8(%eax),%eax
    af2a:	29 c8                	sub    %ecx,%eax
    af2c:	c1 f8 02             	sar    $0x2,%eax
    af2f:	39 c6                	cmp    %eax,%esi
    af31:	72 c5                	jb     aef8 <_ZN5Model6RenderEv+0x98>
    af33:	89 fe                	mov    %edi,%esi
    af35:	8b 7d e4             	mov    -0x1c(%ebp),%edi
    af38:	e8 23 c8 ff ff       	call   7760 <glEnd@plt>
    af3d:	8b 46 10             	mov    0x10(%esi),%eax
    af40:	2b 46 0c             	sub    0xc(%esi),%eax
    af43:	c1 f8 02             	sar    $0x2,%eax
    af46:	83 45 e0 01          	addl   $0x1,-0x20(%ebp)
    af4a:	69 c0 b7 6d db b6    	imul   $0xb6db6db7,%eax,%eax
    af50:	39 45 e0             	cmp    %eax,-0x20(%ebp)
    af53:	8d 7f 1c             	lea    0x1c(%edi),%edi
    af56:	0f 82 3c ff ff ff    	jb     ae98 <_ZN5Model6RenderEv+0x38>
    af5c:	8d 64 24 2c          	lea    0x2c(%esp),%esp
    af60:	5b                   	pop    %ebx
    af61:	5e                   	pop    %esi
    af62:	5f                   	pop    %edi
    af63:	5d                   	pop    %ebp
    af64:	c3                   	ret    
    af65:	90                   	nop
    af66:	8d 76 00             	lea    0x0(%esi),%esi
    af69:	8d bc 27 00 00 00 00 	lea    0x0(%edi,%eiz,1),%edi

0000af70 <_ZN5ModelC1ESs>:
    af70:	55                   	push   %ebp
    af71:	89 e5                	mov    %esp,%ebp
    af73:	8d 64 24 a8          	lea    -0x58(%esp),%esp
    af77:	89 5d f4             	mov    %ebx,-0xc(%ebp)
    af7a:	89 75 f8             	mov    %esi,-0x8(%ebp)
    af7d:	e8 b7 ce ff ff       	call   7e39 <__i686.get_pc_thunk.bx>
    af82:	81 c3 22 e5 00 00    	add    $0xe522,%ebx
    af88:	8b 75 08             	mov    0x8(%ebp),%esi
    af8b:	89 7d fc             	mov    %edi,-0x4(%ebp)
    af8e:	8d 46 18             	lea    0x18(%esi),%eax
    af91:	89 45 c0             	mov    %eax,-0x40(%ebp)
    af94:	8b 45 0c             	mov    0xc(%ebp),%eax
    af97:	c7 06 00 00 00 00    	movl   $0x0,(%esi)
    af9d:	c7 46 04 00 00 00 00 	movl   $0x0,0x4(%esi)
    afa4:	c7 46 08 00 00 00 00 	movl   $0x0,0x8(%esi)
    afab:	c7 46 0c 00 00 00 00 	movl   $0x0,0xc(%esi)
    afb2:	c7 46 10 00 00 00 00 	movl   $0x0,0x10(%esi)
    afb9:	c7 46 14 00 00 00 00 	movl   $0x0,0x14(%esi)
    afc0:	89 44 24 04          	mov    %eax,0x4(%esp)
    afc4:	8b 45 c0             	mov    -0x40(%ebp),%eax
    afc7:	89 04 24             	mov    %eax,(%esp)
    afca:	e8 21 c2 ff ff       	call   71f0 <_ZNSsC1ERKSs@plt>
    afcf:	8d 7d dc             	lea    -0x24(%ebp),%edi
    afd2:	c7 44 24 0c 00 00 00 	movl   $0x0,0xc(%esp)
    afd9:	00 
    afda:	c7 44 24 08 00 00 00 	movl   $0x0,0x8(%esp)
    afe1:	00 
    afe2:	c7 44 24 04 00 00 00 	movl   $0x0,0x4(%esp)
    afe9:	00 
    afea:	89 3c 24             	mov    %edi,(%esp)
    afed:	e8 6e c5 ff ff       	call   7560 <_ZN5PointC1Efff@plt>
    aff2:	8d 45 d0             	lea    -0x30(%ebp),%eax
    aff5:	c7 44 24 0c 00 00 00 	movl   $0x0,0xc(%esp)
    affc:	00 
    affd:	c7 44 24 08 00 00 00 	movl   $0x0,0x8(%esp)
    b004:	00 
    b005:	c7 44 24 04 00 00 00 	movl   $0x0,0x4(%esp)
    b00c:	00 
    b00d:	89 45 c4             	mov    %eax,-0x3c(%ebp)
    b010:	89 04 24             	mov    %eax,(%esp)
    b013:	e8 48 c5 ff ff       	call   7560 <_ZN5PointC1Efff@plt>
    b018:	8b 45 c4             	mov    -0x3c(%ebp),%eax
    b01b:	89 7c 24 08          	mov    %edi,0x8(%esp)
    b01f:	89 44 24 04          	mov    %eax,0x4(%esp)
    b023:	8d 46 1c             	lea    0x1c(%esi),%eax
    b026:	89 04 24             	mov    %eax,(%esp)
    b029:	e8 b2 c3 ff ff       	call   73e0 <_ZN3BoxC1ERK5PointS2_@plt>
    b02e:	8b 5d f4             	mov    -0xc(%ebp),%ebx
    b031:	8b 75 f8             	mov    -0x8(%ebp),%esi
    b034:	8b 7d fc             	mov    -0x4(%ebp),%edi
    b037:	89 ec                	mov    %ebp,%esp
    b039:	5d                   	pop    %ebp
    b03a:	c3                   	ret    
    b03b:	89 45 c4             	mov    %eax,-0x3c(%ebp)
    b03e:	8b 46 10             	mov    0x10(%esi),%eax
    b041:	8b 7e 0c             	mov    0xc(%esi),%edi
    b044:	89 45 c0             	mov    %eax,-0x40(%ebp)
    b047:	39 7d c0             	cmp    %edi,-0x40(%ebp)
    b04a:	74 14                	je     b060 <_ZN5ModelC1ESs+0xf0>
    b04c:	8b 47 04             	mov    0x4(%edi),%eax
    b04f:	85 c0                	test   %eax,%eax
    b051:	74 08                	je     b05b <_ZN5ModelC1ESs+0xeb>
    b053:	89 04 24             	mov    %eax,(%esp)
    b056:	e8 75 c4 ff ff       	call   74d0 <_ZdlPv@plt>
    b05b:	8d 7f 1c             	lea    0x1c(%edi),%edi
    b05e:	eb e7                	jmp    b047 <_ZN5ModelC1ESs+0xd7>
    b060:	8b 46 0c             	mov    0xc(%esi),%eax
    b063:	85 c0                	test   %eax,%eax
    b065:	74 08                	je     b06f <_ZN5ModelC1ESs+0xff>
    b067:	89 04 24             	mov    %eax,(%esp)
    b06a:	e8 61 c4 ff ff       	call   74d0 <_ZdlPv@plt>
    b06f:	8b 06                	mov    (%esi),%eax
    b071:	85 c0                	test   %eax,%eax
    b073:	74 08                	je     b07d <_ZN5ModelC1ESs+0x10d>
    b075:	89 04 24             	mov    %eax,(%esp)
    b078:	e8 53 c4 ff ff       	call   74d0 <_ZdlPv@plt>
    b07d:	8b 45 c4             	mov    -0x3c(%ebp),%eax
    b080:	89 04 24             	mov    %eax,(%esp)
    b083:	e8 f8 ca ff ff       	call   7b80 <_Unwind_Resume@plt>
    b088:	89 45 c4             	mov    %eax,-0x3c(%ebp)
    b08b:	8b 45 c0             	mov    -0x40(%ebp),%eax
    b08e:	89 04 24             	mov    %eax,(%esp)
    b091:	e8 5a c9 ff ff       	call   79f0 <_ZNSsD1Ev@plt>
    b096:	eb a6                	jmp    b03e <_ZN5ModelC1ESs+0xce>
    b098:	90                   	nop
    b099:	8d b4 26 00 00 00 00 	lea    0x0(%esi,%eiz,1),%esi

0000b0a0 <_ZN5Model17updateBoundingBoxEv>:
    b0a0:	55                   	push   %ebp
    b0a1:	89 e5                	mov    %esp,%ebp
    b0a3:	57                   	push   %edi
    b0a4:	56                   	push   %esi
    b0a5:	53                   	push   %ebx
    b0a6:	e8 8e cd ff ff       	call   7e39 <__i686.get_pc_thunk.bx>
    b0ab:	81 c3 f9 e3 00 00    	add    $0xe3f9,%ebx
    b0b1:	8d 64 24 a4          	lea    -0x5c(%esp),%esp
    b0b5:	8b 75 08             	mov    0x8(%ebp),%esi
    b0b8:	8b 16                	mov    (%esi),%edx
    b0ba:	8b 46 04             	mov    0x4(%esi),%eax
    b0bd:	29 d0                	sub    %edx,%eax
    b0bf:	c1 f8 02             	sar    $0x2,%eax
    b0c2:	69 c0 ab aa aa aa    	imul   $0xaaaaaaab,%eax,%eax
    b0c8:	85 c0                	test   %eax,%eax
    b0ca:	75 0c                	jne    b0d8 <_ZN5Model17updateBoundingBoxEv+0x38>
    b0cc:	8d 64 24 5c          	lea    0x5c(%esp),%esp
    b0d0:	5b                   	pop    %ebx
    b0d1:	5e                   	pop    %esi
    b0d2:	5f                   	pop    %edi
    b0d3:	5d                   	pop    %ebp
    b0d4:	c3                   	ret    
    b0d5:	8d 76 00             	lea    0x0(%esi),%esi
    b0d8:	8b 02                	mov    (%edx),%eax
    b0da:	89 45 dc             	mov    %eax,-0x24(%ebp)
    b0dd:	8b 42 04             	mov    0x4(%edx),%eax
    b0e0:	89 45 e0             	mov    %eax,-0x20(%ebp)
    b0e3:	8b 42 08             	mov    0x8(%edx),%eax
    b0e6:	89 45 e4             	mov    %eax,-0x1c(%ebp)
    b0e9:	8d 45 dc             	lea    -0x24(%ebp),%eax
    b0ec:	89 44 24 08          	mov    %eax,0x8(%esp)
    b0f0:	89 44 24 04          	mov    %eax,0x4(%esp)
    b0f4:	8d 45 c4             	lea    -0x3c(%ebp),%eax
    b0f7:	89 04 24             	mov    %eax,(%esp)
    b0fa:	e8 e1 c2 ff ff       	call   73e0 <_ZN3BoxC1ERK5PointS2_@plt>
    b0ff:	8b 45 c4             	mov    -0x3c(%ebp),%eax
    b102:	8b 16                	mov    (%esi),%edx
    b104:	89 46 1c             	mov    %eax,0x1c(%esi)
    b107:	8b 45 c8             	mov    -0x38(%ebp),%eax
    b10a:	89 46 20             	mov    %eax,0x20(%esi)
    b10d:	8b 45 cc             	mov    -0x34(%ebp),%eax
    b110:	89 46 24             	mov    %eax,0x24(%esi)
    b113:	8b 45 d0             	mov    -0x30(%ebp),%eax
    b116:	89 46 28             	mov    %eax,0x28(%esi)
    b119:	8b 45 d4             	mov    -0x2c(%ebp),%eax
    b11c:	89 46 2c             	mov    %eax,0x2c(%esi)
    b11f:	8b 45 d8             	mov    -0x28(%ebp),%eax
    b122:	89 46 30             	mov    %eax,0x30(%esi)
    b125:	8b 46 04             	mov    0x4(%esi),%eax
    b128:	29 d0                	sub    %edx,%eax
    b12a:	c1 f8 02             	sar    $0x2,%eax
    b12d:	69 c0 ab aa aa aa    	imul   $0xaaaaaaab,%eax,%eax
    b133:	83 f8 01             	cmp    $0x1,%eax
    b136:	76 94                	jbe    b0cc <_ZN5Model17updateBoundingBoxEv+0x2c>
    b138:	8d 46 1c             	lea    0x1c(%esi),%eax
    b13b:	b9 0c 00 00 00       	mov    $0xc,%ecx
    b140:	89 45 b4             	mov    %eax,-0x4c(%ebp)
    b143:	89 f0                	mov    %esi,%eax
    b145:	bf 01 00 00 00       	mov    $0x1,%edi
    b14a:	89 ce                	mov    %ecx,%esi
    b14c:	89 c1                	mov    %eax,%ecx
    b14e:	66 90                	xchg   %ax,%ax
    b150:	01 f2                	add    %esi,%edx
    b152:	8b 45 b4             	mov    -0x4c(%ebp),%eax
    b155:	89 54 24 04          	mov    %edx,0x4(%esp)
    b159:	89 04 24             	mov    %eax,(%esp)
    b15c:	89 4d b0             	mov    %ecx,-0x50(%ebp)
    b15f:	8d 7f 01             	lea    0x1(%edi),%edi
    b162:	e8 69 c1 ff ff       	call   72d0 <_ZN3Box6updateERK5Point@plt>
    b167:	8b 4d b0             	mov    -0x50(%ebp),%ecx
    b16a:	8d 76 0c             	lea    0xc(%esi),%esi
    b16d:	8b 11                	mov    (%ecx),%edx
    b16f:	8b 41 04             	mov    0x4(%ecx),%eax
    b172:	29 d0                	sub    %edx,%eax
    b174:	c1 f8 02             	sar    $0x2,%eax
    b177:	69 c0 ab aa aa aa    	imul   $0xaaaaaaab,%eax,%eax
    b17d:	39 c7                	cmp    %eax,%edi
    b17f:	72 cf                	jb     b150 <_ZN5Model17updateBoundingBoxEv+0xb0>
    b181:	8d 64 24 5c          	lea    0x5c(%esp),%esp
    b185:	5b                   	pop    %ebx
    b186:	5e                   	pop    %esi
    b187:	5f                   	pop    %edi
    b188:	5d                   	pop    %ebp
    b189:	c3                   	ret    
    b18a:	8d b6 00 00 00 00    	lea    0x0(%esi),%esi

0000b190 <_Z7getPathRKSs>:
    b190:	55                   	push   %ebp
    b191:	89 e5                	mov    %esp,%ebp
    b193:	57                   	push   %edi
    b194:	56                   	push   %esi
    b195:	53                   	push   %ebx
    b196:	e8 9e cc ff ff       	call   7e39 <__i686.get_pc_thunk.bx>
    b19b:	81 c3 09 e3 00 00    	add    $0xe309,%ebx
    b1a1:	8d 64 24 e4          	lea    -0x1c(%esp),%esp
    b1a5:	8b 45 0c             	mov    0xc(%ebp),%eax
    b1a8:	8b 7d 08             	mov    0x8(%ebp),%edi
    b1ab:	8b 30                	mov    (%eax),%esi
    b1ad:	8b 4e f4             	mov    -0xc(%esi),%ecx
    b1b0:	83 e9 01             	sub    $0x1,%ecx
    b1b3:	85 c9                	test   %ecx,%ecx
    b1b5:	78 19                	js     b1d0 <_Z7getPathRKSs+0x40>
    b1b7:	0f b6 14 0e          	movzbl (%esi,%ecx,1),%edx
    b1bb:	80 fa 2f             	cmp    $0x2f,%dl
    b1be:	74 10                	je     b1d0 <_Z7getPathRKSs+0x40>
    b1c0:	80 fa 5c             	cmp    $0x5c,%dl
    b1c3:	74 0b                	je     b1d0 <_Z7getPathRKSs+0x40>
    b1c5:	8d 49 ff             	lea    -0x1(%ecx),%ecx
    b1c8:	85 c9                	test   %ecx,%ecx
    b1ca:	79 eb                	jns    b1b7 <_Z7getPathRKSs+0x27>
    b1cc:	8d 74 26 00          	lea    0x0(%esi,%eiz,1),%esi
    b1d0:	89 44 24 04          	mov    %eax,0x4(%esp)
    b1d4:	89 3c 24             	mov    %edi,(%esp)
    b1d7:	8d 49 01             	lea    0x1(%ecx),%ecx
    b1da:	c7 44 24 08 00 00 00 	movl   $0x0,0x8(%esp)
    b1e1:	00 
    b1e2:	89 4c 24 0c          	mov    %ecx,0xc(%esp)
    b1e6:	e8 d5 c2 ff ff       	call   74c0 <_ZNSsC1ERKSsjj@plt>
    b1eb:	8d 64 24 1c          	lea    0x1c(%esp),%esp
    b1ef:	89 f8                	mov    %edi,%eax
    b1f1:	5b                   	pop    %ebx
    b1f2:	5e                   	pop    %esi
    b1f3:	5f                   	pop    %edi
    b1f4:	5d                   	pop    %ebp
    b1f5:	c2 04 00             	ret    $0x4
    b1f8:	90                   	nop
    b1f9:	8d b4 26 00 00 00 00 	lea    0x0(%esi,%eiz,1),%esi

0000b200 <_Z11read_mtllibPPciR11MaterialLibRKSs>:
    b200:	55                   	push   %ebp
    b201:	89 e5                	mov    %esp,%ebp
    b203:	57                   	push   %edi
    b204:	56                   	push   %esi
    b205:	8d 45 e0             	lea    -0x20(%ebp),%eax
    b208:	53                   	push   %ebx
    b209:	e8 2b cc ff ff       	call   7e39 <__i686.get_pc_thunk.bx>
    b20e:	81 c3 96 e2 00 00    	add    $0xe296,%ebx
    b214:	8d 64 24 c4          	lea    -0x3c(%esp),%esp
    b218:	89 45 d0             	mov    %eax,-0x30(%ebp)
    b21b:	8b 45 14             	mov    0x14(%ebp),%eax
    b21e:	8b 55 d0             	mov    -0x30(%ebp),%edx
    b221:	89 14 24             	mov    %edx,(%esp)
    b224:	89 44 24 04          	mov    %eax,0x4(%esp)
    b228:	e8 d3 c0 ff ff       	call   7300 <_Z7getPathRKSs@plt>
    b22d:	8b 55 0c             	mov    0xc(%ebp),%edx
    b230:	83 ec 04             	sub    $0x4,%esp
    b233:	85 d2                	test   %edx,%edx
    b235:	0f 8e bc 00 00 00    	jle    b2f7 <_Z11read_mtllibPPciR11MaterialLibRKSs+0xf7>
    b23b:	8d 45 dc             	lea    -0x24(%ebp),%eax
    b23e:	8d 55 e7             	lea    -0x19(%ebp),%edx
    b241:	31 ff                	xor    %edi,%edi
    b243:	89 45 d4             	mov    %eax,-0x2c(%ebp)
    b246:	89 55 cc             	mov    %edx,-0x34(%ebp)
    b249:	eb 66                	jmp    b2b1 <_Z11read_mtllibPPciR11MaterialLibRKSs+0xb1>
    b24b:	90                   	nop
    b24c:	8d 74 26 00          	lea    0x0(%esi,%eiz,1),%esi
    b250:	8b 45 08             	mov    0x8(%ebp),%eax
    b253:	8b 34 b8             	mov    (%eax,%edi,4),%esi
    b256:	8b 45 d0             	mov    -0x30(%ebp),%eax
    b259:	8b 55 d4             	mov    -0x2c(%ebp),%edx
    b25c:	89 44 24 04          	mov    %eax,0x4(%esp)
    b260:	89 14 24             	mov    %edx,(%esp)
    b263:	e8 88 bf ff ff       	call   71f0 <_ZNSsC1ERKSs@plt>
    b268:	89 34 24             	mov    %esi,(%esp)
    b26b:	e8 70 bf ff ff       	call   71e0 <strlen@plt>
    b270:	8b 55 d4             	mov    -0x2c(%ebp),%edx
    b273:	89 44 24 08          	mov    %eax,0x8(%esp)
    b277:	89 74 24 04          	mov    %esi,0x4(%esp)
    b27b:	89 14 24             	mov    %edx,(%esp)
    b27e:	e8 3d c3 ff ff       	call   75c0 <_ZNSs6appendEPKcj@plt>
    b283:	8b 45 dc             	mov    -0x24(%ebp),%eax
    b286:	89 44 24 04          	mov    %eax,0x4(%esp)
    b28a:	8b 45 10             	mov    0x10(%ebp),%eax
    b28d:	89 04 24             	mov    %eax,(%esp)
    b290:	e8 9b bd ff ff       	call   7030 <_ZN11MaterialLib7readMtlEPKc@plt>
    b295:	8b 55 dc             	mov    -0x24(%ebp),%edx
    b298:	8b b3 94 ff ff ff    	mov    -0x6c(%ebx),%esi
    b29e:	83 ea 0c             	sub    $0xc,%edx
    b2a1:	39 f2                	cmp    %esi,%edx
    b2a3:	0f 85 99 00 00 00    	jne    b342 <_Z11read_mtllibPPciR11MaterialLibRKSs+0x142>
    b2a9:	8d 7f 01             	lea    0x1(%edi),%edi
    b2ac:	39 7d 0c             	cmp    %edi,0xc(%ebp)
    b2af:	7e 4c                	jle    b2fd <_Z11read_mtllibPPciR11MaterialLibRKSs+0xfd>
    b2b1:	8b 45 08             	mov    0x8(%ebp),%eax
    b2b4:	8b 34 b8             	mov    (%eax,%edi,4),%esi
    b2b7:	89 34 24             	mov    %esi,(%esp)
    b2ba:	e8 21 bf ff ff       	call   71e0 <strlen@plt>
    b2bf:	89 c2                	mov    %eax,%edx
    b2c1:	83 e8 01             	sub    $0x1,%eax
    b2c4:	74 90                	je     b256 <_Z11read_mtllibPPciR11MaterialLibRKSs+0x56>
    b2c6:	0f b6 54 16 ff       	movzbl -0x1(%esi,%edx,1),%edx
    b2cb:	80 fa 0d             	cmp    $0xd,%dl
    b2ce:	75 1c                	jne    b2ec <_Z11read_mtllibPPciR11MaterialLibRKSs+0xec>
    b2d0:	c6 04 06 00          	movb   $0x0,(%esi,%eax,1)
    b2d4:	83 e8 01             	sub    $0x1,%eax
    b2d7:	0f 84 73 ff ff ff    	je     b250 <_Z11read_mtllibPPciR11MaterialLibRKSs+0x50>
    b2dd:	8b 55 08             	mov    0x8(%ebp),%edx
    b2e0:	8b 34 ba             	mov    (%edx,%edi,4),%esi
    b2e3:	0f b6 14 06          	movzbl (%esi,%eax,1),%edx
    b2e7:	80 fa 0d             	cmp    $0xd,%dl
    b2ea:	74 e4                	je     b2d0 <_Z11read_mtllibPPciR11MaterialLibRKSs+0xd0>
    b2ec:	80 fa 0a             	cmp    $0xa,%dl
    b2ef:	0f 85 61 ff ff ff    	jne    b256 <_Z11read_mtllibPPciR11MaterialLibRKSs+0x56>
    b2f5:	eb d9                	jmp    b2d0 <_Z11read_mtllibPPciR11MaterialLibRKSs+0xd0>
    b2f7:	8b b3 94 ff ff ff    	mov    -0x6c(%ebx),%esi
    b2fd:	8b 45 e0             	mov    -0x20(%ebp),%eax
    b300:	83 e8 0c             	sub    $0xc,%eax
    b303:	39 c6                	cmp    %eax,%esi
    b305:	75 68                	jne    b36f <_Z11read_mtllibPPciR11MaterialLibRKSs+0x16f>
    b307:	8d 65 f4             	lea    -0xc(%ebp),%esp
    b30a:	5b                   	pop    %ebx
    b30b:	5e                   	pop    %esi
    b30c:	5f                   	pop    %edi
    b30d:	5d                   	pop    %ebp
    b30e:	c3                   	ret    
    b30f:	89 c6                	mov    %eax,%esi
    b311:	8b 55 d0             	mov    -0x30(%ebp),%edx
    b314:	89 14 24             	mov    %edx,(%esp)
    b317:	e8 d4 c6 ff ff       	call   79f0 <_ZNSsD1Ev@plt>
    b31c:	89 34 24             	mov    %esi,(%esp)
    b31f:	e8 5c c8 ff ff       	call   7b80 <_Unwind_Resume@plt>
    b324:	8b 55 d4             	mov    -0x2c(%ebp),%edx
    b327:	89 c6                	mov    %eax,%esi
    b329:	89 14 24             	mov    %edx,(%esp)
    b32c:	e8 bf c6 ff ff       	call   79f0 <_ZNSsD1Ev@plt>
    b331:	eb de                	jmp    b311 <_Z11read_mtllibPPciR11MaterialLibRKSs+0x111>
    b333:	89 c6                	mov    %eax,%esi
    b335:	8b 45 d4             	mov    -0x2c(%ebp),%eax
    b338:	89 04 24             	mov    %eax,(%esp)
    b33b:	e8 b0 c6 ff ff       	call   79f0 <_ZNSsD1Ev@plt>
    b340:	eb cf                	jmp    b311 <_Z11read_mtllibPPciR11MaterialLibRKSs+0x111>
    b342:	83 bb a0 ff ff ff 00 	cmpl   $0x0,-0x60(%ebx)
    b349:	74 4d                	je     b398 <_Z11read_mtllibPPciR11MaterialLibRKSs+0x198>
    b34b:	83 c8 ff             	or     $0xffffffff,%eax
    b34e:	f0 0f c1 42 08       	lock xadd %eax,0x8(%edx)
    b353:	85 c0                	test   %eax,%eax
    b355:	0f 8f 4e ff ff ff    	jg     b2a9 <_Z11read_mtllibPPciR11MaterialLibRKSs+0xa9>
    b35b:	8b 45 cc             	mov    -0x34(%ebp),%eax
    b35e:	89 14 24             	mov    %edx,(%esp)
    b361:	89 44 24 04          	mov    %eax,0x4(%esp)
    b365:	e8 e6 bf ff ff       	call   7350 <_ZNSs4_Rep10_M_destroyERKSaIcE@plt>
    b36a:	e9 3a ff ff ff       	jmp    b2a9 <_Z11read_mtllibPPciR11MaterialLibRKSs+0xa9>
    b36f:	83 bb a0 ff ff ff 00 	cmpl   $0x0,-0x60(%ebx)
    b376:	74 2b                	je     b3a3 <_Z11read_mtllibPPciR11MaterialLibRKSs+0x1a3>
    b378:	83 ca ff             	or     $0xffffffff,%edx
    b37b:	f0 0f c1 50 08       	lock xadd %edx,0x8(%eax)
    b380:	85 d2                	test   %edx,%edx
    b382:	7f 83                	jg     b307 <_Z11read_mtllibPPciR11MaterialLibRKSs+0x107>
    b384:	8d 55 e6             	lea    -0x1a(%ebp),%edx
    b387:	89 04 24             	mov    %eax,(%esp)
    b38a:	89 54 24 04          	mov    %edx,0x4(%esp)
    b38e:	e8 bd bf ff ff       	call   7350 <_ZNSs4_Rep10_M_destroyERKSaIcE@plt>
    b393:	e9 6f ff ff ff       	jmp    b307 <_Z11read_mtllibPPciR11MaterialLibRKSs+0x107>
    b398:	8b 42 08             	mov    0x8(%edx),%eax
    b39b:	8d 48 ff             	lea    -0x1(%eax),%ecx
    b39e:	89 4a 08             	mov    %ecx,0x8(%edx)
    b3a1:	eb b0                	jmp    b353 <_Z11read_mtllibPPciR11MaterialLibRKSs+0x153>
    b3a3:	8b 50 08             	mov    0x8(%eax),%edx
    b3a6:	8d 4a ff             	lea    -0x1(%edx),%ecx
    b3a9:	89 48 08             	mov    %ecx,0x8(%eax)
    b3ac:	eb d2                	jmp    b380 <_Z11read_mtllibPPciR11MaterialLibRKSs+0x180>
    b3ae:	66 90                	xchg   %ax,%ax

0000b3b0 <_ZN5Model9make_faceEPPcii>:
    b3b0:	55                   	push   %ebp
    b3b1:	89 e5                	mov    %esp,%ebp
    b3b3:	57                   	push   %edi
    b3b4:	56                   	push   %esi
    b3b5:	8d 45 b8             	lea    -0x48(%ebp),%eax
    b3b8:	53                   	push   %ebx
    b3b9:	e8 7b ca ff ff       	call   7e39 <__i686.get_pc_thunk.bx>
    b3be:	81 c3 e6 e0 00 00    	add    $0xe0e6,%ebx
    b3c4:	8d 64 24 94          	lea    -0x6c(%esp),%esp
    b3c8:	89 45 a8             	mov    %eax,-0x58(%ebp)
    b3cb:	89 04 24             	mov    %eax,(%esp)
    b3ce:	8b 7d 0c             	mov    0xc(%ebp),%edi
    b3d1:	e8 ba bf ff ff       	call   7390 <_ZN4FaceC1Ev@plt>
    b3d6:	8b 45 10             	mov    0x10(%ebp),%eax
    b3d9:	85 c0                	test   %eax,%eax
    b3db:	0f 8e 89 00 00 00    	jle    b46a <_ZN5Model9make_faceEPPcii+0xba>
    b3e1:	8d 55 e0             	lea    -0x20(%ebp),%edx
    b3e4:	8d 4d dc             	lea    -0x24(%ebp),%ecx
    b3e7:	89 55 b4             	mov    %edx,-0x4c(%ebp)
    b3ea:	8d 45 e4             	lea    -0x1c(%ebp),%eax
    b3ed:	8d 55 d4             	lea    -0x2c(%ebp),%edx
    b3f0:	31 f6                	xor    %esi,%esi
    b3f2:	89 4d b0             	mov    %ecx,-0x50(%ebp)
    b3f5:	89 45 ac             	mov    %eax,-0x54(%ebp)
    b3f8:	89 55 a4             	mov    %edx,-0x5c(%ebp)
    b3fb:	eb 0b                	jmp    b408 <_ZN5Model9make_faceEPPcii+0x58>
    b3fd:	8d 76 00             	lea    0x0(%esi),%esi
    b400:	8d 76 01             	lea    0x1(%esi),%esi
    b403:	39 75 10             	cmp    %esi,0x10(%ebp)
    b406:	7e 62                	jle    b46a <_ZN5Model9make_faceEPPcii+0xba>
    b408:	8b 04 b7             	mov    (%edi,%esi,4),%eax
    b40b:	0f b6 10             	movzbl (%eax),%edx
    b40e:	83 ea 30             	sub    $0x30,%edx
    b411:	80 fa 09             	cmp    $0x9,%dl
    b414:	77 ea                	ja     b400 <_ZN5Model9make_faceEPPcii+0x50>
    b416:	8b 4d b4             	mov    -0x4c(%ebp),%ecx
    b419:	8b 55 b0             	mov    -0x50(%ebp),%edx
    b41c:	89 4c 24 0c          	mov    %ecx,0xc(%esp)
    b420:	8b 4d ac             	mov    -0x54(%ebp),%ecx
    b423:	89 54 24 08          	mov    %edx,0x8(%esp)
    b427:	89 4c 24 04          	mov    %ecx,0x4(%esp)
    b42b:	89 04 24             	mov    %eax,(%esp)
    b42e:	e8 5d c1 ff ff       	call   7590 <_Z11get_indicesPcPiS0_S0_@plt>
    b433:	8b 55 e4             	mov    -0x1c(%ebp),%edx
    b436:	83 fa 00             	cmp    $0x0,%edx
    b439:	0f 8e f9 00 00 00    	jle    b538 <_ZN5Model9make_faceEPPcii+0x188>
    b43f:	8b 45 c0             	mov    -0x40(%ebp),%eax
    b442:	3b 45 c4             	cmp    -0x3c(%ebp),%eax
    b445:	8d 52 ff             	lea    -0x1(%edx),%edx
    b448:	89 55 d8             	mov    %edx,-0x28(%ebp)
    b44b:	0f 84 17 01 00 00    	je     b568 <_ZN5Model9make_faceEPPcii+0x1b8>
    b451:	31 c9                	xor    %ecx,%ecx
    b453:	85 c0                	test   %eax,%eax
    b455:	74 05                	je     b45c <_ZN5Model9make_faceEPPcii+0xac>
    b457:	89 10                	mov    %edx,(%eax)
    b459:	8b 4d c0             	mov    -0x40(%ebp),%ecx
    b45c:	8d 76 01             	lea    0x1(%esi),%esi
    b45f:	39 75 10             	cmp    %esi,0x10(%ebp)
    b462:	8d 49 04             	lea    0x4(%ecx),%ecx
    b465:	89 4d c0             	mov    %ecx,-0x40(%ebp)
    b468:	7f 9e                	jg     b408 <_ZN5Model9make_faceEPPcii+0x58>
    b46a:	8b 45 08             	mov    0x8(%ebp),%eax
    b46d:	8b 4d 14             	mov    0x14(%ebp),%ecx
    b470:	89 4d b8             	mov    %ecx,-0x48(%ebp)
    b473:	8b 70 10             	mov    0x10(%eax),%esi
    b476:	3b 70 14             	cmp    0x14(%eax),%esi
    b479:	0f 84 40 01 00 00    	je     b5bf <_ZN5Model9make_faceEPPcii+0x20f>
    b47f:	85 f6                	test   %esi,%esi
    b481:	0f 84 fc 00 00 00    	je     b583 <_ZN5Model9make_faceEPPcii+0x1d3>
    b487:	8b 45 c0             	mov    -0x40(%ebp),%eax
    b48a:	2b 45 bc             	sub    -0x44(%ebp),%eax
    b48d:	31 ff                	xor    %edi,%edi
    b48f:	31 d2                	xor    %edx,%edx
    b491:	c1 f8 02             	sar    $0x2,%eax
    b494:	89 0e                	mov    %ecx,(%esi)
    b496:	c7 46 04 00 00 00 00 	movl   $0x0,0x4(%esi)
    b49d:	c7 46 08 00 00 00 00 	movl   $0x0,0x8(%esi)
    b4a4:	c7 46 0c 00 00 00 00 	movl   $0x0,0xc(%esi)
    b4ab:	74 1c                	je     b4c9 <_ZN5Model9make_faceEPPcii+0x119>
    b4ad:	3d ff ff ff 3f       	cmp    $0x3fffffff,%eax
    b4b2:	0f 87 3e 01 00 00    	ja     b5f6 <_ZN5Model9make_faceEPPcii+0x246>
    b4b8:	8d 3c 85 00 00 00 00 	lea    0x0(,%eax,4),%edi
    b4bf:	89 3c 24             	mov    %edi,(%esp)
    b4c2:	e8 89 b9 ff ff       	call   6e50 <_Znwj@plt>
    b4c7:	89 c2                	mov    %eax,%edx
    b4c9:	89 56 04             	mov    %edx,0x4(%esi)
    b4cc:	89 56 08             	mov    %edx,0x8(%esi)
    b4cf:	8d 3c 3a             	lea    (%edx,%edi,1),%edi
    b4d2:	8b 45 bc             	mov    -0x44(%ebp),%eax
    b4d5:	89 7e 0c             	mov    %edi,0xc(%esi)
    b4d8:	8b 7d c0             	mov    -0x40(%ebp),%edi
    b4db:	29 c7                	sub    %eax,%edi
    b4dd:	89 14 24             	mov    %edx,(%esp)
    b4e0:	83 e7 fc             	and    $0xfffffffc,%edi
    b4e3:	89 55 a0             	mov    %edx,-0x60(%ebp)
    b4e6:	89 7c 24 08          	mov    %edi,0x8(%esp)
    b4ea:	89 44 24 04          	mov    %eax,0x4(%esp)
    b4ee:	e8 0d c7 ff ff       	call   7c00 <memmove@plt>
    b4f3:	8b 45 c8             	mov    -0x38(%ebp),%eax
    b4f6:	8b 55 a0             	mov    -0x60(%ebp),%edx
    b4f9:	89 46 10             	mov    %eax,0x10(%esi)
    b4fc:	8b 45 cc             	mov    -0x34(%ebp),%eax
    b4ff:	89 46 14             	mov    %eax,0x14(%esi)
    b502:	01 fa                	add    %edi,%edx
    b504:	8b 45 d0             	mov    -0x30(%ebp),%eax
    b507:	89 56 08             	mov    %edx,0x8(%esi)
    b50a:	89 46 18             	mov    %eax,0x18(%esi)
    b50d:	8b 55 08             	mov    0x8(%ebp),%edx
    b510:	8b 42 10             	mov    0x10(%edx),%eax
    b513:	8b 4d 08             	mov    0x8(%ebp),%ecx
    b516:	8d 40 1c             	lea    0x1c(%eax),%eax
    b519:	89 41 10             	mov    %eax,0x10(%ecx)
    b51c:	8b 45 bc             	mov    -0x44(%ebp),%eax
    b51f:	85 c0                	test   %eax,%eax
    b521:	74 08                	je     b52b <_ZN5Model9make_faceEPPcii+0x17b>
    b523:	89 04 24             	mov    %eax,(%esp)
    b526:	e8 a5 bf ff ff       	call   74d0 <_ZdlPv@plt>
    b52b:	8d 64 24 6c          	lea    0x6c(%esp),%esp
    b52f:	5b                   	pop    %ebx
    b530:	5e                   	pop    %esi
    b531:	5f                   	pop    %edi
    b532:	5d                   	pop    %ebp
    b533:	c3                   	ret    
    b534:	8d 74 26 00          	lea    0x0(%esi,%eiz,1),%esi
    b538:	74 4d                	je     b587 <_ZN5Model9make_faceEPPcii+0x1d7>
    b53a:	8b 4d 08             	mov    0x8(%ebp),%ecx
    b53d:	8b 41 04             	mov    0x4(%ecx),%eax
    b540:	2b 01                	sub    (%ecx),%eax
    b542:	c1 f8 02             	sar    $0x2,%eax
    b545:	69 c0 ab aa aa aa    	imul   $0xaaaaaaab,%eax,%eax
    b54b:	01 c2                	add    %eax,%edx
    b54d:	8b 45 c0             	mov    -0x40(%ebp),%eax
    b550:	3b 45 c4             	cmp    -0x3c(%ebp),%eax
    b553:	89 55 d4             	mov    %edx,-0x2c(%ebp)
    b556:	0f 85 f5 fe ff ff    	jne    b451 <_ZN5Model9make_faceEPPcii+0xa1>
    b55c:	8b 55 a4             	mov    -0x5c(%ebp),%edx
    b55f:	eb 0a                	jmp    b56b <_ZN5Model9make_faceEPPcii+0x1bb>
    b561:	8d b4 26 00 00 00 00 	lea    0x0(%esi,%eiz,1),%esi
    b568:	8d 55 d8             	lea    -0x28(%ebp),%edx
    b56b:	89 44 24 04          	mov    %eax,0x4(%esp)
    b56f:	89 54 24 08          	mov    %edx,0x8(%esp)
    b573:	8d 45 bc             	lea    -0x44(%ebp),%eax
    b576:	89 04 24             	mov    %eax,(%esp)
    b579:	e8 d2 c3 ff ff       	call   7950 <_ZNSt6vectorIiSaIiEE13_M_insert_auxEN9__gnu_cxx17__normal_iteratorIPiS1_EERKi@plt>
    b57e:	e9 7d fe ff ff       	jmp    b400 <_ZN5Model9make_faceEPPcii+0x50>
    b583:	31 c0                	xor    %eax,%eax
    b585:	eb 8c                	jmp    b513 <_ZN5Model9make_faceEPPcii+0x163>
    b587:	8d 83 5c 04 00 00    	lea    0x45c(%ebx),%eax
    b58d:	89 44 24 0c          	mov    %eax,0xc(%esp)
    b591:	8d 83 08 c0 ff ff    	lea    -0x3ff8(%ebx),%eax
    b597:	89 44 24 08          	mov    %eax,0x8(%esp)
    b59b:	8b 83 ec ff ff ff    	mov    -0x14(%ebx),%eax
    b5a1:	c7 44 24 04 01 00 00 	movl   $0x1,0x4(%esp)
    b5a8:	00 
    b5a9:	8b 00                	mov    (%eax),%eax
    b5ab:	89 04 24             	mov    %eax,(%esp)
    b5ae:	e8 fd c4 ff ff       	call   7ab0 <__fprintf_chk@plt>
    b5b3:	c7 04 24 ff ff ff ff 	movl   $0xffffffff,(%esp)
    b5ba:	e8 11 c3 ff ff       	call   78d0 <exit@plt>
    b5bf:	8b 45 a8             	mov    -0x58(%ebp),%eax
    b5c2:	89 74 24 04          	mov    %esi,0x4(%esp)
    b5c6:	89 44 24 08          	mov    %eax,0x8(%esp)
    b5ca:	8b 45 08             	mov    0x8(%ebp),%eax
    b5cd:	83 c0 0c             	add    $0xc,%eax
    b5d0:	89 04 24             	mov    %eax,(%esp)
    b5d3:	e8 e8 bd ff ff       	call   73c0 <_ZNSt6vectorI4FaceSaIS0_EE13_M_insert_auxEN9__gnu_cxx17__normal_iteratorIPS0_S2_EERKS0_@plt>
    b5d8:	e9 3f ff ff ff       	jmp    b51c <_ZN5Model9make_faceEPPcii+0x16c>
    b5dd:	89 c6                	mov    %eax,%esi
    b5df:	8b 45 bc             	mov    -0x44(%ebp),%eax
    b5e2:	85 c0                	test   %eax,%eax
    b5e4:	74 08                	je     b5ee <_ZN5Model9make_faceEPPcii+0x23e>
    b5e6:	89 04 24             	mov    %eax,(%esp)
    b5e9:	e8 e2 be ff ff       	call   74d0 <_ZdlPv@plt>
    b5ee:	89 34 24             	mov    %esi,(%esp)
    b5f1:	e8 8a c5 ff ff       	call   7b80 <_Unwind_Resume@plt>
    b5f6:	e8 b5 ba ff ff       	call   70b0 <_ZSt17__throw_bad_allocv@plt>
    b5fb:	eb e0                	jmp    b5dd <_ZN5Model9make_faceEPPcii+0x22d>
    b5fd:	90                   	nop
    b5fe:	66 90                	xchg   %ax,%ax

0000b600 <_ZN5Model7readObjEPKcR11MaterialLib>:
    b600:	55                   	push   %ebp
    b601:	89 e5                	mov    %esp,%ebp
    b603:	57                   	push   %edi
    b604:	56                   	push   %esi
    b605:	53                   	push   %ebx
    b606:	e8 2e c8 ff ff       	call   7e39 <__i686.get_pc_thunk.bx>
    b60b:	81 c3 99 de 00 00    	add    $0xde99,%ebx
    b611:	8d a4 24 54 ff ff ff 	lea    -0xac(%esp),%esp
    b618:	8d 83 b8 bf ff ff    	lea    -0x4048(%ebx),%eax
    b61e:	89 44 24 04          	mov    %eax,0x4(%esp)
    b622:	8b 45 0c             	mov    0xc(%ebp),%eax
    b625:	89 04 24             	mov    %eax,(%esp)
    b628:	e8 23 c7 ff ff       	call   7d50 <fopen@plt>
    b62d:	85 c0                	test   %eax,%eax
    b62f:	89 45 b0             	mov    %eax,-0x50(%ebp)
    b632:	0f 84 78 02 00 00    	je     b8b0 <_ZN5Model7readObjEPKcR11MaterialLib+0x2b0>
    b638:	8b 55 08             	mov    0x8(%ebp),%edx
    b63b:	89 14 24             	mov    %edx,(%esp)
    b63e:	e8 cd b8 ff ff       	call   6f10 <_ZN5Model11netejaDadesEv@plt>
    b643:	8d 83 d3 bf ff ff    	lea    -0x402d(%ebx),%eax
    b649:	8d 93 ef bf ff ff    	lea    -0x4011(%ebx),%edx
    b64f:	89 45 a0             	mov    %eax,-0x60(%ebp)
    b652:	89 55 9c             	mov    %edx,-0x64(%ebp)
    b655:	8d 83 f2 bf ff ff    	lea    -0x400e(%ebx),%eax
    b65b:	8d 93 f5 bf ff ff    	lea    -0x400b(%ebx),%edx
    b661:	c7 45 90 ff ff ff ff 	movl   $0xffffffff,-0x70(%ebp)
    b668:	89 45 98             	mov    %eax,-0x68(%ebp)
    b66b:	89 55 94             	mov    %edx,-0x6c(%ebp)
    b66e:	66 90                	xchg   %ax,%ax
    b670:	8b 45 b0             	mov    -0x50(%ebp),%eax
    b673:	89 04 24             	mov    %eax,(%esp)
    b676:	e8 95 c2 ff ff       	call   7910 <_Z10fetch_lineP8_IO_FILE@plt>
    b67b:	83 f8 ff             	cmp    $0xffffffff,%eax
    b67e:	0f 84 2c 01 00 00    	je     b7b0 <_ZN5Model7readObjEPKcR11MaterialLib+0x1b0>
    b684:	85 c0                	test   %eax,%eax
    b686:	75 e8                	jne    b670 <_ZN5Model7readObjEPKcR11MaterialLib+0x70>
    b688:	e8 f3 c3 ff ff       	call   7a80 <_Z11fetch_wordsv@plt>
    b68d:	85 c0                	test   %eax,%eax
    b68f:	89 45 ac             	mov    %eax,-0x54(%ebp)
    b692:	74 dc                	je     b670 <_ZN5Model7readObjEPKcR11MaterialLib+0x70>
    b694:	8b 93 40 04 00 00    	mov    0x440(%ebx),%edx
    b69a:	b9 02 00 00 00       	mov    $0x2,%ecx
    b69f:	89 55 a4             	mov    %edx,-0x5c(%ebp)
    b6a2:	8b 7d a0             	mov    -0x60(%ebp),%edi
    b6a5:	8b 02                	mov    (%edx),%eax
    b6a7:	89 45 a8             	mov    %eax,-0x58(%ebp)
    b6aa:	89 c6                	mov    %eax,%esi
    b6ac:	f3 a6                	repz cmpsb %es:(%edi),%ds:(%esi)
    b6ae:	0f 85 24 01 00 00    	jne    b7d8 <_ZN5Model7readObjEPKcR11MaterialLib+0x1d8>
    b6b4:	83 7d ac 03          	cmpl   $0x3,-0x54(%ebp)
    b6b8:	0f 8e a7 03 00 00    	jle    ba65 <_ZN5Model7readObjEPKcR11MaterialLib+0x465>
    b6be:	8b 55 a4             	mov    -0x5c(%ebp),%edx
    b6c1:	c7 44 24 04 00 00 00 	movl   $0x0,0x4(%esp)
    b6c8:	00 
    b6c9:	8b 42 04             	mov    0x4(%edx),%eax
    b6cc:	89 04 24             	mov    %eax,(%esp)
    b6cf:	e8 fc c5 ff ff       	call   7cd0 <strtod@plt>
    b6d4:	8b 83 40 04 00 00    	mov    0x440(%ebx),%eax
    b6da:	d9 5d b4             	fstps  -0x4c(%ebp)
    b6dd:	d9 45 b4             	flds   -0x4c(%ebp)
    b6e0:	c7 44 24 04 00 00 00 	movl   $0x0,0x4(%esp)
    b6e7:	00 
    b6e8:	d9 9d 78 ff ff ff    	fstps  -0x88(%ebp)
    b6ee:	8b 40 08             	mov    0x8(%eax),%eax
    b6f1:	89 04 24             	mov    %eax,(%esp)
    b6f4:	e8 d7 c5 ff ff       	call   7cd0 <strtod@plt>
    b6f9:	8b 83 40 04 00 00    	mov    0x440(%ebx),%eax
    b6ff:	d9 5d b4             	fstps  -0x4c(%ebp)
    b702:	d9 45 b4             	flds   -0x4c(%ebp)
    b705:	c7 44 24 04 00 00 00 	movl   $0x0,0x4(%esp)
    b70c:	00 
    b70d:	d9 9d 68 ff ff ff    	fstps  -0x98(%ebp)
    b713:	8b 40 0c             	mov    0xc(%eax),%eax
    b716:	89 04 24             	mov    %eax,(%esp)
    b719:	e8 b2 c5 ff ff       	call   7cd0 <strtod@plt>
    b71e:	d9 5d b4             	fstps  -0x4c(%ebp)
    b721:	83 7d ac 05          	cmpl   $0x5,-0x54(%ebp)
    b725:	d9 45 b4             	flds   -0x4c(%ebp)
    b728:	d9 85 78 ff ff ff    	flds   -0x88(%ebp)
    b72e:	d9 85 68 ff ff ff    	flds   -0x98(%ebp)
    b734:	0f 84 fa 01 00 00    	je     b934 <_ZN5Model7readObjEPKcR11MaterialLib+0x334>
    b73a:	d9 ca                	fxch   %st(2)
    b73c:	d9 5c 24 0c          	fstps  0xc(%esp)
    b740:	d9 c9                	fxch   %st(1)
    b742:	8d 75 d0             	lea    -0x30(%ebp),%esi
    b745:	d9 5c 24 08          	fstps  0x8(%esp)
    b749:	89 34 24             	mov    %esi,(%esp)
    b74c:	d9 5c 24 04          	fstps  0x4(%esp)
    b750:	e8 0b be ff ff       	call   7560 <_ZN5PointC1Efff@plt>
    b755:	89 74 24 04          	mov    %esi,0x4(%esp)
    b759:	8d 75 c4             	lea    -0x3c(%ebp),%esi
    b75c:	89 34 24             	mov    %esi,(%esp)
    b75f:	e8 2c c4 ff ff       	call   7b90 <_ZN6VertexC1ERK5Point@plt>
    b764:	8b 55 08             	mov    0x8(%ebp),%edx
    b767:	8b 42 04             	mov    0x4(%edx),%eax
    b76a:	3b 42 08             	cmp    0x8(%edx),%eax
    b76d:	0f 84 34 02 00 00    	je     b9a7 <_ZN5Model7readObjEPKcR11MaterialLib+0x3a7>
    b773:	31 d2                	xor    %edx,%edx
    b775:	85 c0                	test   %eax,%eax
    b777:	74 17                	je     b790 <_ZN5Model7readObjEPKcR11MaterialLib+0x190>
    b779:	8b 55 c4             	mov    -0x3c(%ebp),%edx
    b77c:	89 10                	mov    %edx,(%eax)
    b77e:	8b 55 c8             	mov    -0x38(%ebp),%edx
    b781:	89 50 04             	mov    %edx,0x4(%eax)
    b784:	8b 55 cc             	mov    -0x34(%ebp),%edx
    b787:	89 50 08             	mov    %edx,0x8(%eax)
    b78a:	8b 45 08             	mov    0x8(%ebp),%eax
    b78d:	8b 50 04             	mov    0x4(%eax),%edx
    b790:	8b 45 08             	mov    0x8(%ebp),%eax
    b793:	8d 52 0c             	lea    0xc(%edx),%edx
    b796:	89 50 04             	mov    %edx,0x4(%eax)
    b799:	8b 45 b0             	mov    -0x50(%ebp),%eax
    b79c:	89 04 24             	mov    %eax,(%esp)
    b79f:	e8 6c c1 ff ff       	call   7910 <_Z10fetch_lineP8_IO_FILE@plt>
    b7a4:	83 f8 ff             	cmp    $0xffffffff,%eax
    b7a7:	0f 85 d7 fe ff ff    	jne    b684 <_ZN5Model7readObjEPKcR11MaterialLib+0x84>
    b7ad:	8d 76 00             	lea    0x0(%esi),%esi
    b7b0:	8b 55 08             	mov    0x8(%ebp),%edx
    b7b3:	89 14 24             	mov    %edx,(%esp)
    b7b6:	e8 c5 be ff ff       	call   7680 <_ZN5Model14computeNormalsEv@plt>
    b7bb:	8b 45 08             	mov    0x8(%ebp),%eax
    b7be:	89 04 24             	mov    %eax,(%esp)
    b7c1:	e8 9a ba ff ff       	call   7260 <_ZN5Model17updateBoundingBoxEv@plt>
    b7c6:	8d a4 24 ac 00 00 00 	lea    0xac(%esp),%esp
    b7cd:	5b                   	pop    %ebx
    b7ce:	5e                   	pop    %esi
    b7cf:	5f                   	pop    %edi
    b7d0:	5d                   	pop    %ebp
    b7d1:	c3                   	ret    
    b7d2:	8d b6 00 00 00 00    	lea    0x0(%esi),%esi
    b7d8:	b9 03 00 00 00       	mov    $0x3,%ecx
    b7dd:	8b 75 a8             	mov    -0x58(%ebp),%esi
    b7e0:	8b 7d 9c             	mov    -0x64(%ebp),%edi
    b7e3:	f3 a6                	repz cmpsb %es:(%edi),%ds:(%esi)
    b7e5:	0f 84 85 fe ff ff    	je     b670 <_ZN5Model7readObjEPKcR11MaterialLib+0x70>
    b7eb:	b9 03 00 00 00       	mov    $0x3,%ecx
    b7f0:	8b 75 a8             	mov    -0x58(%ebp),%esi
    b7f3:	8b 7d 98             	mov    -0x68(%ebp),%edi
    b7f6:	f3 a6                	repz cmpsb %es:(%edi),%ds:(%esi)
    b7f8:	0f 84 72 fe ff ff    	je     b670 <_ZN5Model7readObjEPKcR11MaterialLib+0x70>
    b7fe:	b9 02 00 00 00       	mov    $0x2,%ecx
    b803:	8b 75 a8             	mov    -0x58(%ebp),%esi
    b806:	8b 7d 94             	mov    -0x6c(%ebp),%edi
    b809:	f3 a6                	repz cmpsb %es:(%edi),%ds:(%esi)
    b80b:	0f 84 6b 01 00 00    	je     b97c <_ZN5Model7readObjEPKcR11MaterialLib+0x37c>
    b811:	b9 07 00 00 00       	mov    $0x7,%ecx
    b816:	8d bb f7 bf ff ff    	lea    -0x4009(%ebx),%edi
    b81c:	8b 75 a8             	mov    -0x58(%ebp),%esi
    b81f:	f3 a6                	repz cmpsb %es:(%edi),%ds:(%esi)
    b821:	0f 84 d3 01 00 00    	je     b9fa <_ZN5Model7readObjEPKcR11MaterialLib+0x3fa>
    b827:	b9 07 00 00 00       	mov    $0x7,%ecx
    b82c:	8d bb fe bf ff ff    	lea    -0x4002(%ebx),%edi
    b832:	8b 75 a8             	mov    -0x58(%ebp),%esi
    b835:	f3 a6                	repz cmpsb %es:(%edi),%ds:(%esi)
    b837:	0f 85 33 fe ff ff    	jne    b670 <_ZN5Model7readObjEPKcR11MaterialLib+0x70>
    b83d:	8b 45 a4             	mov    -0x5c(%ebp),%eax
    b840:	8b 7d a4             	mov    -0x5c(%ebp),%edi
    b843:	83 c7 04             	add    $0x4,%edi
    b846:	8b 70 04             	mov    0x4(%eax),%esi
    b849:	89 34 24             	mov    %esi,(%esp)
    b84c:	e8 8f b9 ff ff       	call   71e0 <strlen@plt>
    b851:	89 c2                	mov    %eax,%edx
    b853:	8d 40 ff             	lea    -0x1(%eax),%eax
    b856:	85 c0                	test   %eax,%eax
    b858:	74 21                	je     b87b <_ZN5Model7readObjEPKcR11MaterialLib+0x27b>
    b85a:	0f b6 54 16 ff       	movzbl -0x1(%esi,%edx,1),%edx
    b85f:	80 fa 0d             	cmp    $0xd,%dl
    b862:	0f 85 66 01 00 00    	jne    b9ce <_ZN5Model7readObjEPKcR11MaterialLib+0x3ce>
    b868:	c6 04 06 00          	movb   $0x0,(%esi,%eax,1)
    b86c:	83 e8 01             	sub    $0x1,%eax
    b86f:	0f 85 4a 01 00 00    	jne    b9bf <_ZN5Model7readObjEPKcR11MaterialLib+0x3bf>
    b875:	8b 55 a4             	mov    -0x5c(%ebp),%edx
    b878:	8b 72 04             	mov    0x4(%edx),%esi
    b87b:	8d 45 e6             	lea    -0x1a(%ebp),%eax
    b87e:	89 74 24 04          	mov    %esi,0x4(%esp)
    b882:	89 44 24 08          	mov    %eax,0x8(%esp)
    b886:	8d 75 dc             	lea    -0x24(%ebp),%esi
    b889:	89 34 24             	mov    %esi,(%esp)
    b88c:	e8 6f bd ff ff       	call   7600 <_ZNSsC1EPKcRKSaIcE@plt>
    b891:	8b 45 10             	mov    0x10(%ebp),%eax
    b894:	89 74 24 04          	mov    %esi,0x4(%esp)
    b898:	89 04 24             	mov    %eax,(%esp)
    b89b:	e8 f0 b9 ff ff       	call   7290 <_ZNK11MaterialLib5indexERKSs@plt>
    b8a0:	89 45 90             	mov    %eax,-0x70(%ebp)
    b8a3:	89 34 24             	mov    %esi,(%esp)
    b8a6:	e8 45 c1 ff ff       	call   79f0 <_ZNSsD1Ev@plt>
    b8ab:	e9 c0 fd ff ff       	jmp    b670 <_ZN5Model7readObjEPKcR11MaterialLib+0x70>
    b8b0:	8b b3 dc ff ff ff    	mov    -0x24(%ebx),%esi
    b8b6:	8d 83 bb bf ff ff    	lea    -0x4045(%ebx),%eax
    b8bc:	c7 44 24 08 17 00 00 	movl   $0x17,0x8(%esp)
    b8c3:	00 
    b8c4:	89 44 24 04          	mov    %eax,0x4(%esp)
    b8c8:	89 34 24             	mov    %esi,(%esp)
    b8cb:	e8 50 be ff ff       	call   7720 <_ZSt16__ostream_insertIcSt11char_traitsIcEERSt13basic_ostreamIT_T0_ES6_PKS3_i@plt>
    b8d0:	8b 55 0c             	mov    0xc(%ebp),%edx
    b8d3:	85 d2                	test   %edx,%edx
    b8d5:	0f 84 6b 01 00 00    	je     ba46 <_ZN5Model7readObjEPKcR11MaterialLib+0x446>
    b8db:	8b 55 0c             	mov    0xc(%ebp),%edx
    b8de:	89 14 24             	mov    %edx,(%esp)
    b8e1:	e8 fa b8 ff ff       	call   71e0 <strlen@plt>
    b8e6:	89 44 24 08          	mov    %eax,0x8(%esp)
    b8ea:	8b 45 0c             	mov    0xc(%ebp),%eax
    b8ed:	89 44 24 04          	mov    %eax,0x4(%esp)
    b8f1:	89 34 24             	mov    %esi,(%esp)
    b8f4:	e8 27 be ff ff       	call   7720 <_ZSt16__ostream_insertIcSt11char_traitsIcEERSt13basic_ostreamIT_T0_ES6_PKS3_i@plt>
    b8f9:	8b 06                	mov    (%esi),%eax
    b8fb:	8b 40 f4             	mov    -0xc(%eax),%eax
    b8fe:	8b 7c 06 7c          	mov    0x7c(%esi,%eax,1),%edi
    b902:	85 ff                	test   %edi,%edi
    b904:	0f 84 93 01 00 00    	je     ba9d <_ZN5Model7readObjEPKcR11MaterialLib+0x49d>
    b90a:	80 7f 1c 00          	cmpb   $0x0,0x1c(%edi)
    b90e:	0f 84 c8 00 00 00    	je     b9dc <_ZN5Model7readObjEPKcR11MaterialLib+0x3dc>
    b914:	0f b6 47 27          	movzbl 0x27(%edi),%eax
    b918:	0f be c0             	movsbl %al,%eax
    b91b:	89 34 24             	mov    %esi,(%esp)
    b91e:	89 44 24 04          	mov    %eax,0x4(%esp)
    b922:	e8 f9 b4 ff ff       	call   6e20 <_ZNSo3putEc@plt>
    b927:	89 04 24             	mov    %eax,(%esp)
    b92a:	e8 b1 b9 ff ff       	call   72e0 <_ZNSo5flushEv@plt>
    b92f:	e9 7c fe ff ff       	jmp    b7b0 <_ZN5Model7readObjEPKcR11MaterialLib+0x1b0>
    b934:	dd d8                	fstp   %st(0)
    b936:	dd d8                	fstp   %st(0)
    b938:	8b 83 40 04 00 00    	mov    0x440(%ebx),%eax
    b93e:	c7 44 24 04 00 00 00 	movl   $0x0,0x4(%esp)
    b945:	00 
    b946:	d9 9d 58 ff ff ff    	fstps  -0xa8(%ebp)
    b94c:	8b 40 10             	mov    0x10(%eax),%eax
    b94f:	89 04 24             	mov    %eax,(%esp)
    b952:	e8 79 c3 ff ff       	call   7cd0 <strtod@plt>
    b957:	d9 5d b4             	fstps  -0x4c(%ebp)
    b95a:	d9 45 b4             	flds   -0x4c(%ebp)
    b95d:	d9 85 78 ff ff ff    	flds   -0x88(%ebp)
    b963:	d8 f1                	fdiv   %st(1),%st
    b965:	d9 85 68 ff ff ff    	flds   -0x98(%ebp)
    b96b:	d8 f2                	fdiv   %st(2),%st
    b96d:	d9 85 58 ff ff ff    	flds   -0xa8(%ebp)
    b973:	de f3                	fdivp  %st,%st(3)
    b975:	d9 ca                	fxch   %st(2)
    b977:	e9 c0 fd ff ff       	jmp    b73c <_ZN5Model7readObjEPKcR11MaterialLib+0x13c>
    b97c:	8b 45 90             	mov    -0x70(%ebp),%eax
    b97f:	8b 55 08             	mov    0x8(%ebp),%edx
    b982:	89 44 24 0c          	mov    %eax,0xc(%esp)
    b986:	8b 45 ac             	mov    -0x54(%ebp),%eax
    b989:	83 e8 01             	sub    $0x1,%eax
    b98c:	89 14 24             	mov    %edx,(%esp)
    b98f:	89 44 24 08          	mov    %eax,0x8(%esp)
    b993:	8b 45 a4             	mov    -0x5c(%ebp),%eax
    b996:	83 c0 04             	add    $0x4,%eax
    b999:	89 44 24 04          	mov    %eax,0x4(%esp)
    b99d:	e8 1e bf ff ff       	call   78c0 <_ZN5Model9make_faceEPPcii@plt>
    b9a2:	e9 c9 fc ff ff       	jmp    b670 <_ZN5Model7readObjEPKcR11MaterialLib+0x70>
    b9a7:	8b 55 08             	mov    0x8(%ebp),%edx
    b9aa:	89 74 24 08          	mov    %esi,0x8(%esp)
    b9ae:	89 44 24 04          	mov    %eax,0x4(%esp)
    b9b2:	89 14 24             	mov    %edx,(%esp)
    b9b5:	e8 26 bf ff ff       	call   78e0 <_ZNSt6vectorI6VertexSaIS0_EE13_M_insert_auxEN9__gnu_cxx17__normal_iteratorIPS0_S2_EERKS0_@plt>
    b9ba:	e9 b1 fc ff ff       	jmp    b670 <_ZN5Model7readObjEPKcR11MaterialLib+0x70>
    b9bf:	8b 37                	mov    (%edi),%esi
    b9c1:	0f b6 14 06          	movzbl (%esi,%eax,1),%edx
    b9c5:	80 fa 0d             	cmp    $0xd,%dl
    b9c8:	0f 84 9a fe ff ff    	je     b868 <_ZN5Model7readObjEPKcR11MaterialLib+0x268>
    b9ce:	80 fa 0a             	cmp    $0xa,%dl
    b9d1:	0f 85 a4 fe ff ff    	jne    b87b <_ZN5Model7readObjEPKcR11MaterialLib+0x27b>
    b9d7:	e9 8c fe ff ff       	jmp    b868 <_ZN5Model7readObjEPKcR11MaterialLib+0x268>
    b9dc:	89 3c 24             	mov    %edi,(%esp)
    b9df:	90                   	nop
    b9e0:	e8 2b bc ff ff       	call   7610 <_ZNKSt5ctypeIcE13_M_widen_initEv@plt>
    b9e5:	8b 07                	mov    (%edi),%eax
    b9e7:	c7 44 24 04 0a 00 00 	movl   $0xa,0x4(%esp)
    b9ee:	00 
    b9ef:	89 3c 24             	mov    %edi,(%esp)
    b9f2:	ff 50 18             	call   *0x18(%eax)
    b9f5:	e9 1e ff ff ff       	jmp    b918 <_ZN5Model7readObjEPKcR11MaterialLib+0x318>
    b9fa:	8d 45 e7             	lea    -0x19(%ebp),%eax
    b9fd:	89 44 24 08          	mov    %eax,0x8(%esp)
    ba01:	8b 45 0c             	mov    0xc(%ebp),%eax
    ba04:	8d 75 e0             	lea    -0x20(%ebp),%esi
    ba07:	89 44 24 04          	mov    %eax,0x4(%esp)
    ba0b:	89 34 24             	mov    %esi,(%esp)
    ba0e:	e8 ed bb ff ff       	call   7600 <_ZNSsC1EPKcRKSaIcE@plt>
    ba13:	8b 45 ac             	mov    -0x54(%ebp),%eax
    ba16:	8b 55 10             	mov    0x10(%ebp),%edx
    ba19:	83 e8 01             	sub    $0x1,%eax
    ba1c:	89 74 24 0c          	mov    %esi,0xc(%esp)
    ba20:	89 44 24 04          	mov    %eax,0x4(%esp)
    ba24:	8b 83 40 04 00 00    	mov    0x440(%ebx),%eax
    ba2a:	83 c0 04             	add    $0x4,%eax
    ba2d:	89 54 24 08          	mov    %edx,0x8(%esp)
    ba31:	89 04 24             	mov    %eax,(%esp)
    ba34:	e8 67 bc ff ff       	call   76a0 <_Z11read_mtllibPPciR11MaterialLibRKSs@plt>
    ba39:	89 34 24             	mov    %esi,(%esp)
    ba3c:	e8 af bf ff ff       	call   79f0 <_ZNSsD1Ev@plt>
    ba41:	e9 2a fc ff ff       	jmp    b670 <_ZN5Model7readObjEPKcR11MaterialLib+0x70>
    ba46:	8b 06                	mov    (%esi),%eax
    ba48:	8b 50 f4             	mov    -0xc(%eax),%edx
    ba4b:	8d 14 32             	lea    (%edx,%esi,1),%edx
    ba4e:	8b 42 14             	mov    0x14(%edx),%eax
    ba51:	89 14 24             	mov    %edx,(%esp)
    ba54:	83 c8 01             	or     $0x1,%eax
    ba57:	89 44 24 04          	mov    %eax,0x4(%esp)
    ba5b:	e8 b0 c0 ff ff       	call   7b10 <_ZNSt9basic_iosIcSt11char_traitsIcEE5clearESt12_Ios_Iostate@plt>
    ba60:	e9 94 fe ff ff       	jmp    b8f9 <_ZN5Model7readObjEPKcR11MaterialLib+0x2f9>
    ba65:	8d 83 5c 04 00 00    	lea    0x45c(%ebx),%eax
    ba6b:	89 44 24 0c          	mov    %eax,0xc(%esp)
    ba6f:	8d 83 d5 bf ff ff    	lea    -0x402b(%ebx),%eax
    ba75:	89 44 24 08          	mov    %eax,0x8(%esp)
    ba79:	8b 83 ec ff ff ff    	mov    -0x14(%ebx),%eax
    ba7f:	c7 44 24 04 01 00 00 	movl   $0x1,0x4(%esp)
    ba86:	00 
    ba87:	8b 00                	mov    (%eax),%eax
    ba89:	89 04 24             	mov    %eax,(%esp)
    ba8c:	e8 1f c0 ff ff       	call   7ab0 <__fprintf_chk@plt>
    ba91:	c7 04 24 ff ff ff ff 	movl   $0xffffffff,(%esp)
    ba98:	e8 33 be ff ff       	call   78d0 <exit@plt>
    ba9d:	e8 1e bc ff ff       	call   76c0 <_ZSt16__throw_bad_castv@plt>
    baa2:	89 c7                	mov    %eax,%edi
    baa4:	89 34 24             	mov    %esi,(%esp)
    baa7:	e8 44 bf ff ff       	call   79f0 <_ZNSsD1Ev@plt>
    baac:	89 3c 24             	mov    %edi,(%esp)
    baaf:	e8 cc c0 ff ff       	call   7b80 <_Unwind_Resume@plt>
    bab4:	89 c7                	mov    %eax,%edi
    bab6:	eb f4                	jmp    baac <_ZN5Model7readObjEPKcR11MaterialLib+0x4ac>
    bab8:	eb e8                	jmp    baa2 <_ZN5Model7readObjEPKcR11MaterialLib+0x4a2>
    baba:	8d b6 00 00 00 00    	lea    0x0(%esi),%esi
    bac0:	eb f2                	jmp    bab4 <_ZN5Model7readObjEPKcR11MaterialLib+0x4b4>
    bac2:	90                   	nop
    bac3:	90                   	nop
    bac4:	90                   	nop
    bac5:	90                   	nop
    bac6:	90                   	nop
    bac7:	90                   	nop
    bac8:	90                   	nop
    bac9:	90                   	nop
    baca:	90                   	nop
    bacb:	90                   	nop
    bacc:	90                   	nop
    bacd:	90                   	nop
    bace:	90                   	nop
    bacf:	90                   	nop

0000bad0 <_ZNSt6vectorI6VertexSaIS0_EE13_M_insert_auxEN9__gnu_cxx17__normal_iteratorIPS0_S2_EERKS0_>:
    bad0:	55                   	push   %ebp
    bad1:	89 e5                	mov    %esp,%ebp
    bad3:	57                   	push   %edi
    bad4:	56                   	push   %esi
    bad5:	53                   	push   %ebx
    bad6:	e8 5e c3 ff ff       	call   7e39 <__i686.get_pc_thunk.bx>
    badb:	81 c3 c9 d9 00 00    	add    $0xd9c9,%ebx
    bae1:	8d 64 24 c4          	lea    -0x3c(%esp),%esp
    bae5:	8b 7d 08             	mov    0x8(%ebp),%edi
    bae8:	8b 75 0c             	mov    0xc(%ebp),%esi
    baeb:	8b 55 10             	mov    0x10(%ebp),%edx
    baee:	8b 4f 04             	mov    0x4(%edi),%ecx
    baf1:	3b 4f 08             	cmp    0x8(%edi),%ecx
    baf4:	74 7a                	je     bb70 <_ZNSt6vectorI6VertexSaIS0_EE13_M_insert_auxEN9__gnu_cxx17__normal_iteratorIPS0_S2_EERKS0_+0xa0>
    baf6:	31 c0                	xor    %eax,%eax
    baf8:	85 c9                	test   %ecx,%ecx
    bafa:	74 14                	je     bb10 <_ZNSt6vectorI6VertexSaIS0_EE13_M_insert_auxEN9__gnu_cxx17__normal_iteratorIPS0_S2_EERKS0_+0x40>
    bafc:	8b 41 f4             	mov    -0xc(%ecx),%eax
    baff:	89 01                	mov    %eax,(%ecx)
    bb01:	8b 41 f8             	mov    -0x8(%ecx),%eax
    bb04:	89 41 04             	mov    %eax,0x4(%ecx)
    bb07:	8b 41 fc             	mov    -0x4(%ecx),%eax
    bb0a:	89 41 08             	mov    %eax,0x8(%ecx)
    bb0d:	8b 47 04             	mov    0x4(%edi),%eax
    bb10:	8d 48 0c             	lea    0xc(%eax),%ecx
    bb13:	89 4f 04             	mov    %ecx,0x4(%edi)
    bb16:	8b 4a 08             	mov    0x8(%edx),%ecx
    bb19:	8b 3a                	mov    (%edx),%edi
    bb1b:	89 4d e4             	mov    %ecx,-0x1c(%ebp)
    bb1e:	8d 40 f4             	lea    -0xc(%eax),%eax
    bb21:	8b 4a 04             	mov    0x4(%edx),%ecx
    bb24:	89 c2                	mov    %eax,%edx
    bb26:	29 f2                	sub    %esi,%edx
    bb28:	89 4d e0             	mov    %ecx,-0x20(%ebp)
    bb2b:	c1 fa 02             	sar    $0x2,%edx
    bb2e:	69 d2 ab aa aa aa    	imul   $0xaaaaaaab,%edx,%edx
    bb34:	85 d2                	test   %edx,%edx
    bb36:	7f 0b                	jg     bb43 <_ZNSt6vectorI6VertexSaIS0_EE13_M_insert_auxEN9__gnu_cxx17__normal_iteratorIPS0_S2_EERKS0_+0x73>
    bb38:	eb 1f                	jmp    bb59 <_ZNSt6vectorI6VertexSaIS0_EE13_M_insert_auxEN9__gnu_cxx17__normal_iteratorIPS0_S2_EERKS0_+0x89>
    bb3a:	8d b6 00 00 00 00    	lea    0x0(%esi),%esi
    bb40:	8d 40 f4             	lea    -0xc(%eax),%eax
    bb43:	8b 48 f4             	mov    -0xc(%eax),%ecx
    bb46:	83 ea 01             	sub    $0x1,%edx
    bb49:	89 08                	mov    %ecx,(%eax)
    bb4b:	8b 48 f8             	mov    -0x8(%eax),%ecx
    bb4e:	89 48 04             	mov    %ecx,0x4(%eax)
    bb51:	8b 48 fc             	mov    -0x4(%eax),%ecx
    bb54:	89 48 08             	mov    %ecx,0x8(%eax)
    bb57:	75 e7                	jne    bb40 <_ZNSt6vectorI6VertexSaIS0_EE13_M_insert_auxEN9__gnu_cxx17__normal_iteratorIPS0_S2_EERKS0_+0x70>
    bb59:	8b 45 e4             	mov    -0x1c(%ebp),%eax
    bb5c:	8b 55 e0             	mov    -0x20(%ebp),%edx
    bb5f:	89 46 08             	mov    %eax,0x8(%esi)
    bb62:	89 56 04             	mov    %edx,0x4(%esi)
    bb65:	89 3e                	mov    %edi,(%esi)
    bb67:	8d 64 24 3c          	lea    0x3c(%esp),%esp
    bb6b:	5b                   	pop    %ebx
    bb6c:	5e                   	pop    %esi
    bb6d:	5f                   	pop    %edi
    bb6e:	5d                   	pop    %ebp
    bb6f:	c3                   	ret    
    bb70:	8b 07                	mov    (%edi),%eax
    bb72:	29 c1                	sub    %eax,%ecx
    bb74:	89 45 e0             	mov    %eax,-0x20(%ebp)
    bb77:	c1 f9 02             	sar    $0x2,%ecx
    bb7a:	69 c9 ab aa aa aa    	imul   $0xaaaaaaab,%ecx,%ecx
    bb80:	85 c9                	test   %ecx,%ecx
    bb82:	0f 84 33 01 00 00    	je     bcbb <_ZNSt6vectorI6VertexSaIS0_EE13_M_insert_auxEN9__gnu_cxx17__normal_iteratorIPS0_S2_EERKS0_+0x1eb>
    bb88:	8d 04 09             	lea    (%ecx,%ecx,1),%eax
    bb8b:	89 45 e4             	mov    %eax,-0x1c(%ebp)
    bb8e:	39 c1                	cmp    %eax,%ecx
    bb90:	0f 86 46 01 00 00    	jbe    bcdc <_ZNSt6vectorI6VertexSaIS0_EE13_M_insert_auxEN9__gnu_cxx17__normal_iteratorIPS0_S2_EERKS0_+0x20c>
    bb96:	89 f0                	mov    %esi,%eax
    bb98:	2b 45 e0             	sub    -0x20(%ebp),%eax
    bb9b:	c1 f8 02             	sar    $0x2,%eax
    bb9e:	c7 45 d8 fc ff ff ff 	movl   $0xfffffffc,-0x28(%ebp)
    bba5:	69 c8 ab aa aa aa    	imul   $0xaaaaaaab,%eax,%ecx
    bbab:	8b 45 d8             	mov    -0x28(%ebp),%eax
    bbae:	89 55 d0             	mov    %edx,-0x30(%ebp)
    bbb1:	89 4d d4             	mov    %ecx,-0x2c(%ebp)
    bbb4:	89 04 24             	mov    %eax,(%esp)
    bbb7:	e8 94 b2 ff ff       	call   6e50 <_Znwj@plt>
    bbbc:	89 45 e0             	mov    %eax,-0x20(%ebp)
    bbbf:	8b 4d d4             	mov    -0x2c(%ebp),%ecx
    bbc2:	8b 55 d0             	mov    -0x30(%ebp),%edx
    bbc5:	8d 04 49             	lea    (%ecx,%ecx,2),%eax
    bbc8:	8b 4d e0             	mov    -0x20(%ebp),%ecx
    bbcb:	8d 04 81             	lea    (%ecx,%eax,4),%eax
    bbce:	85 c0                	test   %eax,%eax
    bbd0:	74 10                	je     bbe2 <_ZNSt6vectorI6VertexSaIS0_EE13_M_insert_auxEN9__gnu_cxx17__normal_iteratorIPS0_S2_EERKS0_+0x112>
    bbd2:	8b 0a                	mov    (%edx),%ecx
    bbd4:	89 08                	mov    %ecx,(%eax)
    bbd6:	8b 4a 04             	mov    0x4(%edx),%ecx
    bbd9:	89 48 04             	mov    %ecx,0x4(%eax)
    bbdc:	8b 52 08             	mov    0x8(%edx),%edx
    bbdf:	89 50 08             	mov    %edx,0x8(%eax)
    bbe2:	8b 07                	mov    (%edi),%eax
    bbe4:	89 c2                	mov    %eax,%edx
    bbe6:	89 45 e4             	mov    %eax,-0x1c(%ebp)
    bbe9:	39 f2                	cmp    %esi,%edx
    bbeb:	8b 45 e0             	mov    -0x20(%ebp),%eax
    bbee:	89 c1                	mov    %eax,%ecx
    bbf0:	74 47                	je     bc39 <_ZNSt6vectorI6VertexSaIS0_EE13_M_insert_auxEN9__gnu_cxx17__normal_iteratorIPS0_S2_EERKS0_+0x169>
    bbf2:	8d b6 00 00 00 00    	lea    0x0(%esi),%esi
    bbf8:	85 c0                	test   %eax,%eax
    bbfa:	74 10                	je     bc0c <_ZNSt6vectorI6VertexSaIS0_EE13_M_insert_auxEN9__gnu_cxx17__normal_iteratorIPS0_S2_EERKS0_+0x13c>
    bbfc:	8b 0a                	mov    (%edx),%ecx
    bbfe:	89 08                	mov    %ecx,(%eax)
    bc00:	8b 4a 04             	mov    0x4(%edx),%ecx
    bc03:	89 48 04             	mov    %ecx,0x4(%eax)
    bc06:	8b 4a 08             	mov    0x8(%edx),%ecx
    bc09:	89 48 08             	mov    %ecx,0x8(%eax)
    bc0c:	8d 52 0c             	lea    0xc(%edx),%edx
    bc0f:	8d 40 0c             	lea    0xc(%eax),%eax
    bc12:	39 d6                	cmp    %edx,%esi
    bc14:	75 e2                	jne    bbf8 <_ZNSt6vectorI6VertexSaIS0_EE13_M_insert_auxEN9__gnu_cxx17__normal_iteratorIPS0_S2_EERKS0_+0x128>
    bc16:	8b 45 e4             	mov    -0x1c(%ebp),%eax
    bc19:	83 c0 0c             	add    $0xc,%eax
    bc1c:	29 c6                	sub    %eax,%esi
    bc1e:	c1 ee 02             	shr    $0x2,%esi
    bc21:	69 c6 ab aa aa 2a    	imul   $0x2aaaaaab,%esi,%eax
    bc27:	25 ff ff ff 3f       	and    $0x3fffffff,%eax
    bc2c:	8d 4c 40 03          	lea    0x3(%eax,%eax,2),%ecx
    bc30:	c1 e1 02             	shl    $0x2,%ecx
    bc33:	01 4d e4             	add    %ecx,-0x1c(%ebp)
    bc36:	03 4d e0             	add    -0x20(%ebp),%ecx
    bc39:	8b 77 04             	mov    0x4(%edi),%esi
    bc3c:	3b 75 e4             	cmp    -0x1c(%ebp),%esi
    bc3f:	8d 49 0c             	lea    0xc(%ecx),%ecx
    bc42:	89 4d dc             	mov    %ecx,-0x24(%ebp)
    bc45:	74 4a                	je     bc91 <_ZNSt6vectorI6VertexSaIS0_EE13_M_insert_auxEN9__gnu_cxx17__normal_iteratorIPS0_S2_EERKS0_+0x1c1>
    bc47:	8b 55 e4             	mov    -0x1c(%ebp),%edx
    bc4a:	89 c8                	mov    %ecx,%eax
    bc4c:	8d 74 26 00          	lea    0x0(%esi,%eiz,1),%esi
    bc50:	85 c0                	test   %eax,%eax
    bc52:	74 10                	je     bc64 <_ZNSt6vectorI6VertexSaIS0_EE13_M_insert_auxEN9__gnu_cxx17__normal_iteratorIPS0_S2_EERKS0_+0x194>
    bc54:	8b 0a                	mov    (%edx),%ecx
    bc56:	89 08                	mov    %ecx,(%eax)
    bc58:	8b 4a 04             	mov    0x4(%edx),%ecx
    bc5b:	89 48 04             	mov    %ecx,0x4(%eax)
    bc5e:	8b 4a 08             	mov    0x8(%edx),%ecx
    bc61:	89 48 08             	mov    %ecx,0x8(%eax)
    bc64:	8d 52 0c             	lea    0xc(%edx),%edx
    bc67:	8d 40 0c             	lea    0xc(%eax),%eax
    bc6a:	39 d6                	cmp    %edx,%esi
    bc6c:	75 e2                	jne    bc50 <_ZNSt6vectorI6VertexSaIS0_EE13_M_insert_auxEN9__gnu_cxx17__normal_iteratorIPS0_S2_EERKS0_+0x180>
    bc6e:	8b 45 e4             	mov    -0x1c(%ebp),%eax
    bc71:	8b 55 dc             	mov    -0x24(%ebp),%edx
    bc74:	83 c0 0c             	add    $0xc,%eax
    bc77:	29 c6                	sub    %eax,%esi
    bc79:	c1 ee 02             	shr    $0x2,%esi
    bc7c:	69 c6 ab aa aa 2a    	imul   $0x2aaaaaab,%esi,%eax
    bc82:	25 ff ff ff 3f       	and    $0x3fffffff,%eax
    bc87:	8d 44 40 03          	lea    0x3(%eax,%eax,2),%eax
    bc8b:	8d 14 82             	lea    (%edx,%eax,4),%edx
    bc8e:	89 55 dc             	mov    %edx,-0x24(%ebp)
    bc91:	8b 07                	mov    (%edi),%eax
    bc93:	85 c0                	test   %eax,%eax
    bc95:	74 08                	je     bc9f <_ZNSt6vectorI6VertexSaIS0_EE13_M_insert_auxEN9__gnu_cxx17__normal_iteratorIPS0_S2_EERKS0_+0x1cf>
    bc97:	89 04 24             	mov    %eax,(%esp)
    bc9a:	e8 31 b8 ff ff       	call   74d0 <_ZdlPv@plt>
    bc9f:	8b 45 dc             	mov    -0x24(%ebp),%eax
    bca2:	8b 4d e0             	mov    -0x20(%ebp),%ecx
    bca5:	89 47 04             	mov    %eax,0x4(%edi)
    bca8:	8b 45 d8             	mov    -0x28(%ebp),%eax
    bcab:	01 c8                	add    %ecx,%eax
    bcad:	89 0f                	mov    %ecx,(%edi)
    bcaf:	89 47 08             	mov    %eax,0x8(%edi)
    bcb2:	8d 64 24 3c          	lea    0x3c(%esp),%esp
    bcb6:	5b                   	pop    %ebx
    bcb7:	5e                   	pop    %esi
    bcb8:	5f                   	pop    %edi
    bcb9:	5d                   	pop    %ebp
    bcba:	c3                   	ret    
    bcbb:	89 f0                	mov    %esi,%eax
    bcbd:	2b 45 e0             	sub    -0x20(%ebp),%eax
    bcc0:	c1 f8 02             	sar    $0x2,%eax
    bcc3:	c7 45 e4 01 00 00 00 	movl   $0x1,-0x1c(%ebp)
    bcca:	69 c8 ab aa aa aa    	imul   $0xaaaaaaab,%eax,%ecx
    bcd0:	6b 45 e4 0c          	imul   $0xc,-0x1c(%ebp),%eax
    bcd4:	89 45 d8             	mov    %eax,-0x28(%ebp)
    bcd7:	e9 cf fe ff ff       	jmp    bbab <_ZNSt6vectorI6VertexSaIS0_EE13_M_insert_auxEN9__gnu_cxx17__normal_iteratorIPS0_S2_EERKS0_+0xdb>
    bcdc:	3d 55 55 55 15       	cmp    $0x15555555,%eax
    bce1:	0f 87 af fe ff ff    	ja     bb96 <_ZNSt6vectorI6VertexSaIS0_EE13_M_insert_auxEN9__gnu_cxx17__normal_iteratorIPS0_S2_EERKS0_+0xc6>
    bce7:	89 f0                	mov    %esi,%eax
    bce9:	2b 45 e0             	sub    -0x20(%ebp),%eax
    bcec:	c1 f8 02             	sar    $0x2,%eax
    bcef:	69 c8 ab aa aa aa    	imul   $0xaaaaaaab,%eax,%ecx
    bcf5:	83 7d e4 00          	cmpl   $0x0,-0x1c(%ebp)
    bcf9:	75 d5                	jne    bcd0 <_ZNSt6vectorI6VertexSaIS0_EE13_M_insert_auxEN9__gnu_cxx17__normal_iteratorIPS0_S2_EERKS0_+0x200>
    bcfb:	c7 45 d8 00 00 00 00 	movl   $0x0,-0x28(%ebp)
    bd02:	c7 45 e0 00 00 00 00 	movl   $0x0,-0x20(%ebp)
    bd09:	e9 b7 fe ff ff       	jmp    bbc5 <_ZNSt6vectorI6VertexSaIS0_EE13_M_insert_auxEN9__gnu_cxx17__normal_iteratorIPS0_S2_EERKS0_+0xf5>
    bd0e:	90                   	nop
    bd0f:	90                   	nop

0000bd10 <_ZNSt6vectorIiSaIiEEaSERKS1_>:
    bd10:	55                   	push   %ebp
    bd11:	89 e5                	mov    %esp,%ebp
    bd13:	8d 64 24 c8          	lea    -0x38(%esp),%esp
    bd17:	89 75 f8             	mov    %esi,-0x8(%ebp)
    bd1a:	8b 55 0c             	mov    0xc(%ebp),%edx
    bd1d:	8b 75 08             	mov    0x8(%ebp),%esi
    bd20:	89 5d f4             	mov    %ebx,-0xc(%ebp)
    bd23:	e8 11 c1 ff ff       	call   7e39 <__i686.get_pc_thunk.bx>
    bd28:	81 c3 7c d7 00 00    	add    $0xd77c,%ebx
    bd2e:	39 f2                	cmp    %esi,%edx
    bd30:	89 7d fc             	mov    %edi,-0x4(%ebp)
    bd33:	74 73                	je     bda8 <_ZNSt6vectorIiSaIiEEaSERKS1_+0x98>
    bd35:	8b 02                	mov    (%edx),%eax
    bd37:	8b 7a 04             	mov    0x4(%edx),%edi
    bd3a:	29 c7                	sub    %eax,%edi
    bd3c:	89 45 e4             	mov    %eax,-0x1c(%ebp)
    bd3f:	8b 0e                	mov    (%esi),%ecx
    bd41:	8b 46 08             	mov    0x8(%esi),%eax
    bd44:	29 c8                	sub    %ecx,%eax
    bd46:	c1 ff 02             	sar    $0x2,%edi
    bd49:	c1 f8 02             	sar    $0x2,%eax
    bd4c:	39 c7                	cmp    %eax,%edi
    bd4e:	0f 87 84 00 00 00    	ja     bdd8 <_ZNSt6vectorIiSaIiEEaSERKS1_+0xc8>
    bd54:	8b 46 04             	mov    0x4(%esi),%eax
    bd57:	29 c8                	sub    %ecx,%eax
    bd59:	c1 f8 02             	sar    $0x2,%eax
    bd5c:	39 c7                	cmp    %eax,%edi
    bd5e:	76 58                	jbe    bdb8 <_ZNSt6vectorIiSaIiEEaSERKS1_+0xa8>
    bd60:	c1 e0 02             	shl    $0x2,%eax
    bd63:	89 0c 24             	mov    %ecx,(%esp)
    bd66:	89 44 24 08          	mov    %eax,0x8(%esp)
    bd6a:	8b 45 e4             	mov    -0x1c(%ebp),%eax
    bd6d:	89 55 dc             	mov    %edx,-0x24(%ebp)
    bd70:	89 44 24 04          	mov    %eax,0x4(%esp)
    bd74:	e8 87 be ff ff       	call   7c00 <memmove@plt>
    bd79:	8b 55 dc             	mov    -0x24(%ebp),%edx
    bd7c:	8b 4e 04             	mov    0x4(%esi),%ecx
    bd7f:	89 c8                	mov    %ecx,%eax
    bd81:	2b 06                	sub    (%esi),%eax
    bd83:	83 e0 fc             	and    $0xfffffffc,%eax
    bd86:	c1 e7 02             	shl    $0x2,%edi
    bd89:	03 02                	add    (%edx),%eax
    bd8b:	8b 52 04             	mov    0x4(%edx),%edx
    bd8e:	29 c2                	sub    %eax,%edx
    bd90:	89 44 24 04          	mov    %eax,0x4(%esp)
    bd94:	83 e2 fc             	and    $0xfffffffc,%edx
    bd97:	89 0c 24             	mov    %ecx,(%esp)
    bd9a:	89 54 24 08          	mov    %edx,0x8(%esp)
    bd9e:	e8 5d be ff ff       	call   7c00 <memmove@plt>
    bda3:	03 3e                	add    (%esi),%edi
    bda5:	89 7e 04             	mov    %edi,0x4(%esi)
    bda8:	89 f0                	mov    %esi,%eax
    bdaa:	8b 5d f4             	mov    -0xc(%ebp),%ebx
    bdad:	8b 75 f8             	mov    -0x8(%ebp),%esi
    bdb0:	8b 7d fc             	mov    -0x4(%ebp),%edi
    bdb3:	89 ec                	mov    %ebp,%esp
    bdb5:	5d                   	pop    %ebp
    bdb6:	c3                   	ret    
    bdb7:	90                   	nop
    bdb8:	c1 e7 02             	shl    $0x2,%edi
    bdbb:	8b 45 e4             	mov    -0x1c(%ebp),%eax
    bdbe:	89 7c 24 08          	mov    %edi,0x8(%esp)
    bdc2:	89 44 24 04          	mov    %eax,0x4(%esp)
    bdc6:	89 0c 24             	mov    %ecx,(%esp)
    bdc9:	e8 32 be ff ff       	call   7c00 <memmove@plt>
    bdce:	03 3e                	add    (%esi),%edi
    bdd0:	eb d3                	jmp    bda5 <_ZNSt6vectorIiSaIiEEaSERKS1_+0x95>
    bdd2:	8d b6 00 00 00 00    	lea    0x0(%esi),%esi
    bdd8:	31 d2                	xor    %edx,%edx
    bdda:	85 ff                	test   %edi,%edi
    bddc:	c7 45 e0 00 00 00 00 	movl   $0x0,-0x20(%ebp)
    bde3:	74 18                	je     bdfd <_ZNSt6vectorIiSaIiEEaSERKS1_+0xed>
    bde5:	81 ff ff ff ff 3f    	cmp    $0x3fffffff,%edi
    bdeb:	77 4c                	ja     be39 <_ZNSt6vectorIiSaIiEEaSERKS1_+0x129>
    bded:	c1 e7 02             	shl    $0x2,%edi
    bdf0:	89 7d e0             	mov    %edi,-0x20(%ebp)
    bdf3:	89 3c 24             	mov    %edi,(%esp)
    bdf6:	e8 55 b0 ff ff       	call   6e50 <_Znwj@plt>
    bdfb:	89 c2                	mov    %eax,%edx
    bdfd:	8b 45 e0             	mov    -0x20(%ebp),%eax
    be00:	89 14 24             	mov    %edx,(%esp)
    be03:	89 44 24 08          	mov    %eax,0x8(%esp)
    be07:	8b 45 e4             	mov    -0x1c(%ebp),%eax
    be0a:	89 55 dc             	mov    %edx,-0x24(%ebp)
    be0d:	89 44 24 04          	mov    %eax,0x4(%esp)
    be11:	e8 ea bd ff ff       	call   7c00 <memmove@plt>
    be16:	8b 06                	mov    (%esi),%eax
    be18:	8b 55 dc             	mov    -0x24(%ebp),%edx
    be1b:	85 c0                	test   %eax,%eax
    be1d:	74 0b                	je     be2a <_ZNSt6vectorIiSaIiEEaSERKS1_+0x11a>
    be1f:	89 04 24             	mov    %eax,(%esp)
    be22:	e8 a9 b6 ff ff       	call   74d0 <_ZdlPv@plt>
    be27:	8b 55 dc             	mov    -0x24(%ebp),%edx
    be2a:	8b 7d e0             	mov    -0x20(%ebp),%edi
    be2d:	89 16                	mov    %edx,(%esi)
    be2f:	01 d7                	add    %edx,%edi
    be31:	89 7e 08             	mov    %edi,0x8(%esi)
    be34:	e9 6c ff ff ff       	jmp    bda5 <_ZNSt6vectorIiSaIiEEaSERKS1_+0x95>
    be39:	e8 72 b2 ff ff       	call   70b0 <_ZSt17__throw_bad_allocv@plt>
    be3e:	90                   	nop
    be3f:	90                   	nop

0000be40 <_ZNSt6vectorI4FaceSaIS0_EE13_M_insert_auxEN9__gnu_cxx17__normal_iteratorIPS0_S2_EERKS0_>:
    be40:	55                   	push   %ebp
    be41:	89 e5                	mov    %esp,%ebp
    be43:	57                   	push   %edi
    be44:	56                   	push   %esi
    be45:	53                   	push   %ebx
    be46:	e8 ee bf ff ff       	call   7e39 <__i686.get_pc_thunk.bx>
    be4b:	81 c3 59 d6 00 00    	add    $0xd659,%ebx
    be51:	8d 64 24 94          	lea    -0x6c(%esp),%esp
    be55:	8b 55 08             	mov    0x8(%ebp),%edx
    be58:	8b 45 0c             	mov    0xc(%ebp),%eax
    be5b:	8b 7d 10             	mov    0x10(%ebp),%edi
    be5e:	89 45 b8             	mov    %eax,-0x48(%ebp)
    be61:	8b 72 04             	mov    0x4(%edx),%esi
    be64:	3b 72 08             	cmp    0x8(%edx),%esi
    be67:	0f 84 f2 01 00 00    	je     c05f <_ZNSt6vectorI4FaceSaIS0_EE13_M_insert_auxEN9__gnu_cxx17__normal_iteratorIPS0_S2_EERKS0_+0x21f>
    be6d:	85 f6                	test   %esi,%esi
    be6f:	0f 84 0e 05 00 00    	je     c383 <_ZNSt6vectorI4FaceSaIS0_EE13_M_insert_auxEN9__gnu_cxx17__normal_iteratorIPS0_S2_EERKS0_+0x543>
    be75:	8d 4e e4             	lea    -0x1c(%esi),%ecx
    be78:	89 4d c4             	mov    %ecx,-0x3c(%ebp)
    be7b:	8b 46 e4             	mov    -0x1c(%esi),%eax
    be7e:	31 d2                	xor    %edx,%edx
    be80:	89 06                	mov    %eax,(%esi)
    be82:	8b 41 08             	mov    0x8(%ecx),%eax
    be85:	2b 41 04             	sub    0x4(%ecx),%eax
    be88:	c7 46 08 00 00 00 00 	movl   $0x0,0x8(%esi)
    be8f:	c1 f8 02             	sar    $0x2,%eax
    be92:	c7 46 04 00 00 00 00 	movl   $0x0,0x4(%esi)
    be99:	c7 46 0c 00 00 00 00 	movl   $0x0,0xc(%esi)
    bea0:	c7 45 c0 00 00 00 00 	movl   $0x0,-0x40(%ebp)
    bea7:	74 1b                	je     bec4 <_ZNSt6vectorI4FaceSaIS0_EE13_M_insert_auxEN9__gnu_cxx17__normal_iteratorIPS0_S2_EERKS0_+0x84>
    bea9:	3d ff ff ff 3f       	cmp    $0x3fffffff,%eax
    beae:	0f 87 31 05 00 00    	ja     c3e5 <_ZNSt6vectorI4FaceSaIS0_EE13_M_insert_auxEN9__gnu_cxx17__normal_iteratorIPS0_S2_EERKS0_+0x5a5>
    beb4:	c1 e0 02             	shl    $0x2,%eax
    beb7:	89 45 c0             	mov    %eax,-0x40(%ebp)
    beba:	89 04 24             	mov    %eax,(%esp)
    bebd:	e8 8e af ff ff       	call   6e50 <_Znwj@plt>
    bec2:	89 c2                	mov    %eax,%edx
    bec4:	89 56 04             	mov    %edx,0x4(%esi)
    bec7:	89 56 08             	mov    %edx,0x8(%esi)
    beca:	8b 45 c0             	mov    -0x40(%ebp),%eax
    becd:	01 d0                	add    %edx,%eax
    becf:	89 46 0c             	mov    %eax,0xc(%esi)
    bed2:	8b 45 c4             	mov    -0x3c(%ebp),%eax
    bed5:	8b 40 04             	mov    0x4(%eax),%eax
    bed8:	89 45 c0             	mov    %eax,-0x40(%ebp)
    bedb:	8b 45 c4             	mov    -0x3c(%ebp),%eax
    bede:	8b 48 08             	mov    0x8(%eax),%ecx
    bee1:	2b 4d c0             	sub    -0x40(%ebp),%ecx
    bee4:	83 e1 fc             	and    $0xfffffffc,%ecx
    bee7:	8b 45 c0             	mov    -0x40(%ebp),%eax
    beea:	89 4c 24 08          	mov    %ecx,0x8(%esp)
    beee:	89 14 24             	mov    %edx,(%esp)
    bef1:	89 55 a4             	mov    %edx,-0x5c(%ebp)
    bef4:	89 4d a0             	mov    %ecx,-0x60(%ebp)
    bef7:	89 44 24 04          	mov    %eax,0x4(%esp)
    befb:	e8 00 bd ff ff       	call   7c00 <memmove@plt>
    bf00:	8b 4d a0             	mov    -0x60(%ebp),%ecx
    bf03:	8b 55 a4             	mov    -0x5c(%ebp),%edx
    bf06:	01 ca                	add    %ecx,%edx
    bf08:	89 56 08             	mov    %edx,0x8(%esi)
    bf0b:	8b 55 c4             	mov    -0x3c(%ebp),%edx
    bf0e:	8b 42 10             	mov    0x10(%edx),%eax
    bf11:	89 46 10             	mov    %eax,0x10(%esi)
    bf14:	8b 42 14             	mov    0x14(%edx),%eax
    bf17:	89 46 14             	mov    %eax,0x14(%esi)
    bf1a:	8b 42 18             	mov    0x18(%edx),%eax
    bf1d:	89 46 18             	mov    %eax,0x18(%esi)
    bf20:	8b 4d 08             	mov    0x8(%ebp),%ecx
    bf23:	8b 41 04             	mov    0x4(%ecx),%eax
    bf26:	8b 55 08             	mov    0x8(%ebp),%edx
    bf29:	8d 40 1c             	lea    0x1c(%eax),%eax
    bf2c:	31 f6                	xor    %esi,%esi
    bf2e:	89 42 04             	mov    %eax,0x4(%edx)
    bf31:	8b 07                	mov    (%edi),%eax
    bf33:	8b 57 08             	mov    0x8(%edi),%edx
    bf36:	89 45 cc             	mov    %eax,-0x34(%ebp)
    bf39:	89 d1                	mov    %edx,%ecx
    bf3b:	8b 47 04             	mov    0x4(%edi),%eax
    bf3e:	29 c1                	sub    %eax,%ecx
    bf40:	c7 45 d0 00 00 00 00 	movl   $0x0,-0x30(%ebp)
    bf47:	c1 f9 02             	sar    $0x2,%ecx
    bf4a:	c7 45 d4 00 00 00 00 	movl   $0x0,-0x2c(%ebp)
    bf51:	c7 45 d8 00 00 00 00 	movl   $0x0,-0x28(%ebp)
    bf58:	c7 45 c4 00 00 00 00 	movl   $0x0,-0x3c(%ebp)
    bf5f:	74 22                	je     bf83 <_ZNSt6vectorI4FaceSaIS0_EE13_M_insert_auxEN9__gnu_cxx17__normal_iteratorIPS0_S2_EERKS0_+0x143>
    bf61:	81 f9 ff ff ff 3f    	cmp    $0x3fffffff,%ecx
    bf67:	0f 87 72 04 00 00    	ja     c3df <_ZNSt6vectorI4FaceSaIS0_EE13_M_insert_auxEN9__gnu_cxx17__normal_iteratorIPS0_S2_EERKS0_+0x59f>
    bf6d:	c1 e1 02             	shl    $0x2,%ecx
    bf70:	89 4d c4             	mov    %ecx,-0x3c(%ebp)
    bf73:	89 0c 24             	mov    %ecx,(%esp)
    bf76:	e8 d5 ae ff ff       	call   6e50 <_Znwj@plt>
    bf7b:	89 c6                	mov    %eax,%esi
    bf7d:	8b 57 08             	mov    0x8(%edi),%edx
    bf80:	8b 47 04             	mov    0x4(%edi),%eax
    bf83:	29 c2                	sub    %eax,%edx
    bf85:	8b 4d c4             	mov    -0x3c(%ebp),%ecx
    bf88:	01 f1                	add    %esi,%ecx
    bf8a:	83 e2 fc             	and    $0xfffffffc,%edx
    bf8d:	89 75 d0             	mov    %esi,-0x30(%ebp)
    bf90:	89 75 d4             	mov    %esi,-0x2c(%ebp)
    bf93:	89 4d d8             	mov    %ecx,-0x28(%ebp)
    bf96:	89 54 24 08          	mov    %edx,0x8(%esp)
    bf9a:	89 34 24             	mov    %esi,(%esp)
    bf9d:	89 55 a4             	mov    %edx,-0x5c(%ebp)
    bfa0:	89 44 24 04          	mov    %eax,0x4(%esp)
    bfa4:	e8 57 bc ff ff       	call   7c00 <memmove@plt>
    bfa9:	8b 4d 08             	mov    0x8(%ebp),%ecx
    bfac:	8b 47 10             	mov    0x10(%edi),%eax
    bfaf:	89 45 dc             	mov    %eax,-0x24(%ebp)
    bfb2:	8b 55 a4             	mov    -0x5c(%ebp),%edx
    bfb5:	8b 47 14             	mov    0x14(%edi),%eax
    bfb8:	01 f2                	add    %esi,%edx
    bfba:	89 45 e0             	mov    %eax,-0x20(%ebp)
    bfbd:	8b 47 18             	mov    0x18(%edi),%eax
    bfc0:	89 55 d4             	mov    %edx,-0x2c(%ebp)
    bfc3:	89 45 e4             	mov    %eax,-0x1c(%ebp)
    bfc6:	8b 71 04             	mov    0x4(%ecx),%esi
    bfc9:	8d 7e c8             	lea    -0x38(%esi),%edi
    bfcc:	2b 7d 0c             	sub    0xc(%ebp),%edi
    bfcf:	c1 ff 02             	sar    $0x2,%edi
    bfd2:	69 ff b7 6d db b6    	imul   $0xb6db6db7,%edi,%edi
    bfd8:	85 ff                	test   %edi,%edi
    bfda:	7e 3a                	jle    c016 <_ZNSt6vectorI4FaceSaIS0_EE13_M_insert_auxEN9__gnu_cxx17__normal_iteratorIPS0_S2_EERKS0_+0x1d6>
    bfdc:	8d 76 e4             	lea    -0x1c(%esi),%esi
    bfdf:	90                   	nop
    bfe0:	8d 46 c8             	lea    -0x38(%esi),%eax
    bfe3:	8d 76 e4             	lea    -0x1c(%esi),%esi
    bfe6:	8b 56 e4             	mov    -0x1c(%esi),%edx
    bfe9:	83 c0 04             	add    $0x4,%eax
    bfec:	89 16                	mov    %edx,(%esi)
    bfee:	89 44 24 04          	mov    %eax,0x4(%esp)
    bff2:	8d 46 04             	lea    0x4(%esi),%eax
    bff5:	89 04 24             	mov    %eax,(%esp)
    bff8:	e8 93 b6 ff ff       	call   7690 <_ZNSt6vectorIiSaIiEEaSERKS1_@plt>
    bffd:	8b 46 f4             	mov    -0xc(%esi),%eax
    c000:	8d 7f ff             	lea    -0x1(%edi),%edi
    c003:	89 46 10             	mov    %eax,0x10(%esi)
    c006:	8b 46 f8             	mov    -0x8(%esi),%eax
    c009:	89 46 14             	mov    %eax,0x14(%esi)
    c00c:	85 ff                	test   %edi,%edi
    c00e:	8b 46 fc             	mov    -0x4(%esi),%eax
    c011:	89 46 18             	mov    %eax,0x18(%esi)
    c014:	7f ca                	jg     bfe0 <_ZNSt6vectorI4FaceSaIS0_EE13_M_insert_auxEN9__gnu_cxx17__normal_iteratorIPS0_S2_EERKS0_+0x1a0>
    c016:	8b 55 0c             	mov    0xc(%ebp),%edx
    c019:	8b 45 cc             	mov    -0x34(%ebp),%eax
    c01c:	89 02                	mov    %eax,(%edx)
    c01e:	8d 45 d0             	lea    -0x30(%ebp),%eax
    c021:	89 44 24 04          	mov    %eax,0x4(%esp)
    c025:	89 d0                	mov    %edx,%eax
    c027:	83 c0 04             	add    $0x4,%eax
    c02a:	89 04 24             	mov    %eax,(%esp)
    c02d:	e8 5e b6 ff ff       	call   7690 <_ZNSt6vectorIiSaIiEEaSERKS1_@plt>
    c032:	8b 4d 0c             	mov    0xc(%ebp),%ecx
    c035:	8b 45 dc             	mov    -0x24(%ebp),%eax
    c038:	89 41 10             	mov    %eax,0x10(%ecx)
    c03b:	8b 45 e0             	mov    -0x20(%ebp),%eax
    c03e:	89 41 14             	mov    %eax,0x14(%ecx)
    c041:	8b 45 e4             	mov    -0x1c(%ebp),%eax
    c044:	89 41 18             	mov    %eax,0x18(%ecx)
    c047:	8b 45 d0             	mov    -0x30(%ebp),%eax
    c04a:	85 c0                	test   %eax,%eax
    c04c:	74 08                	je     c056 <_ZNSt6vectorI4FaceSaIS0_EE13_M_insert_auxEN9__gnu_cxx17__normal_iteratorIPS0_S2_EERKS0_+0x216>
    c04e:	89 04 24             	mov    %eax,(%esp)
    c051:	e8 7a b4 ff ff       	call   74d0 <_ZdlPv@plt>
    c056:	8d 64 24 6c          	lea    0x6c(%esp),%esp
    c05a:	5b                   	pop    %ebx
    c05b:	5e                   	pop    %esi
    c05c:	5f                   	pop    %edi
    c05d:	5d                   	pop    %ebp
    c05e:	c3                   	ret    
    c05f:	8b 55 08             	mov    0x8(%ebp),%edx
    c062:	8b 02                	mov    (%edx),%eax
    c064:	29 c6                	sub    %eax,%esi
    c066:	c1 fe 02             	sar    $0x2,%esi
    c069:	69 f6 b7 6d db b6    	imul   $0xb6db6db7,%esi,%esi
    c06f:	85 f6                	test   %esi,%esi
    c071:	0f 84 13 03 00 00    	je     c38a <_ZNSt6vectorI4FaceSaIS0_EE13_M_insert_auxEN9__gnu_cxx17__normal_iteratorIPS0_S2_EERKS0_+0x54a>
    c077:	8d 0c 36             	lea    (%esi,%esi,1),%ecx
    c07a:	89 4d a8             	mov    %ecx,-0x58(%ebp)
    c07d:	39 ce                	cmp    %ecx,%esi
    c07f:	0f 86 25 03 00 00    	jbe    c3aa <_ZNSt6vectorI4FaceSaIS0_EE13_M_insert_auxEN9__gnu_cxx17__normal_iteratorIPS0_S2_EERKS0_+0x56a>
    c085:	8b 55 0c             	mov    0xc(%ebp),%edx
    c088:	c7 45 a8 49 92 24 09 	movl   $0x9249249,-0x58(%ebp)
    c08f:	29 c2                	sub    %eax,%edx
    c091:	89 d0                	mov    %edx,%eax
    c093:	c1 f8 02             	sar    $0x2,%eax
    c096:	69 f0 b7 6d db b6    	imul   $0xb6db6db7,%eax,%esi
    c09c:	b8 fc ff ff ff       	mov    $0xfffffffc,%eax
    c0a1:	89 04 24             	mov    %eax,(%esp)
    c0a4:	e8 a7 ad ff ff       	call   6e50 <_Znwj@plt>
    c0a9:	89 45 b0             	mov    %eax,-0x50(%ebp)
    c0ac:	6b f6 1c             	imul   $0x1c,%esi,%esi
    c0af:	8b 4d b0             	mov    -0x50(%ebp),%ecx
    c0b2:	01 ce                	add    %ecx,%esi
    c0b4:	89 4d ac             	mov    %ecx,-0x54(%ebp)
    c0b7:	89 75 b4             	mov    %esi,-0x4c(%ebp)
    c0ba:	0f 84 9a 00 00 00    	je     c15a <_ZNSt6vectorI4FaceSaIS0_EE13_M_insert_auxEN9__gnu_cxx17__normal_iteratorIPS0_S2_EERKS0_+0x31a>
    c0c0:	8b 07                	mov    (%edi),%eax
    c0c2:	89 06                	mov    %eax,(%esi)
    c0c4:	8b 55 b4             	mov    -0x4c(%ebp),%edx
    c0c7:	8b 47 08             	mov    0x8(%edi),%eax
    c0ca:	2b 47 04             	sub    0x4(%edi),%eax
    c0cd:	31 f6                	xor    %esi,%esi
    c0cf:	c1 f8 02             	sar    $0x2,%eax
    c0d2:	c7 42 04 00 00 00 00 	movl   $0x0,0x4(%edx)
    c0d9:	c7 42 08 00 00 00 00 	movl   $0x0,0x8(%edx)
    c0e0:	c7 42 0c 00 00 00 00 	movl   $0x0,0xc(%edx)
    c0e7:	c7 45 c4 00 00 00 00 	movl   $0x0,-0x3c(%ebp)
    c0ee:	74 1b                	je     c10b <_ZNSt6vectorI4FaceSaIS0_EE13_M_insert_auxEN9__gnu_cxx17__normal_iteratorIPS0_S2_EERKS0_+0x2cb>
    c0f0:	3d ff ff ff 3f       	cmp    $0x3fffffff,%eax
    c0f5:	0f 87 ea 03 00 00    	ja     c4e5 <_ZNSt6vectorI4FaceSaIS0_EE13_M_insert_auxEN9__gnu_cxx17__normal_iteratorIPS0_S2_EERKS0_+0x6a5>
    c0fb:	c1 e0 02             	shl    $0x2,%eax
    c0fe:	89 45 c4             	mov    %eax,-0x3c(%ebp)
    c101:	89 04 24             	mov    %eax,(%esp)
    c104:	e8 47 ad ff ff       	call   6e50 <_Znwj@plt>
    c109:	89 c6                	mov    %eax,%esi
    c10b:	8b 4d b4             	mov    -0x4c(%ebp),%ecx
    c10e:	89 71 04             	mov    %esi,0x4(%ecx)
    c111:	89 71 08             	mov    %esi,0x8(%ecx)
    c114:	8b 45 c4             	mov    -0x3c(%ebp),%eax
    c117:	8b 57 08             	mov    0x8(%edi),%edx
    c11a:	01 f0                	add    %esi,%eax
    c11c:	89 41 0c             	mov    %eax,0xc(%ecx)
    c11f:	8b 47 04             	mov    0x4(%edi),%eax
    c122:	29 c2                	sub    %eax,%edx
    c124:	89 44 24 04          	mov    %eax,0x4(%esp)
    c128:	83 e2 fc             	and    $0xfffffffc,%edx
    c12b:	89 34 24             	mov    %esi,(%esp)
    c12e:	89 54 24 08          	mov    %edx,0x8(%esp)
    c132:	89 55 a4             	mov    %edx,-0x5c(%ebp)
    c135:	e8 c6 ba ff ff       	call   7c00 <memmove@plt>
    c13a:	8b 45 b4             	mov    -0x4c(%ebp),%eax
    c13d:	8b 55 a4             	mov    -0x5c(%ebp),%edx
    c140:	01 f2                	add    %esi,%edx
    c142:	89 50 08             	mov    %edx,0x8(%eax)
    c145:	8b 55 b4             	mov    -0x4c(%ebp),%edx
    c148:	8b 47 10             	mov    0x10(%edi),%eax
    c14b:	89 42 10             	mov    %eax,0x10(%edx)
    c14e:	8b 47 14             	mov    0x14(%edi),%eax
    c151:	89 42 14             	mov    %eax,0x14(%edx)
    c154:	8b 47 18             	mov    0x18(%edi),%eax
    c157:	89 42 18             	mov    %eax,0x18(%edx)
    c15a:	8b 4d 08             	mov    0x8(%ebp),%ecx
    c15d:	8b 45 b0             	mov    -0x50(%ebp),%eax
    c160:	c7 45 ac 00 00 00 00 	movl   $0x0,-0x54(%ebp)
    c167:	8b 31                	mov    (%ecx),%esi
    c169:	3b 75 0c             	cmp    0xc(%ebp),%esi
    c16c:	89 45 c0             	mov    %eax,-0x40(%ebp)
    c16f:	89 45 c4             	mov    %eax,-0x3c(%ebp)
    c172:	0f 84 bb 00 00 00    	je     c233 <_ZNSt6vectorI4FaceSaIS0_EE13_M_insert_auxEN9__gnu_cxx17__normal_iteratorIPS0_S2_EERKS0_+0x3f3>
    c178:	8b 7d c4             	mov    -0x3c(%ebp),%edi
    c17b:	85 ff                	test   %edi,%edi
    c17d:	0f 84 9a 00 00 00    	je     c21d <_ZNSt6vectorI4FaceSaIS0_EE13_M_insert_auxEN9__gnu_cxx17__normal_iteratorIPS0_S2_EERKS0_+0x3dd>
    c183:	8b 55 c4             	mov    -0x3c(%ebp),%edx
    c186:	8b 06                	mov    (%esi),%eax
    c188:	31 ff                	xor    %edi,%edi
    c18a:	89 02                	mov    %eax,(%edx)
    c18c:	8b 46 08             	mov    0x8(%esi),%eax
    c18f:	2b 46 04             	sub    0x4(%esi),%eax
    c192:	c7 42 08 00 00 00 00 	movl   $0x0,0x8(%edx)
    c199:	c1 f8 02             	sar    $0x2,%eax
    c19c:	c7 42 04 00 00 00 00 	movl   $0x0,0x4(%edx)
    c1a3:	c7 42 0c 00 00 00 00 	movl   $0x0,0xc(%edx)
    c1aa:	c7 45 bc 00 00 00 00 	movl   $0x0,-0x44(%ebp)
    c1b1:	74 1b                	je     c1ce <_ZNSt6vectorI4FaceSaIS0_EE13_M_insert_auxEN9__gnu_cxx17__normal_iteratorIPS0_S2_EERKS0_+0x38e>
    c1b3:	3d ff ff ff 3f       	cmp    $0x3fffffff,%eax
    c1b8:	0f 87 10 03 00 00    	ja     c4ce <_ZNSt6vectorI4FaceSaIS0_EE13_M_insert_auxEN9__gnu_cxx17__normal_iteratorIPS0_S2_EERKS0_+0x68e>
    c1be:	c1 e0 02             	shl    $0x2,%eax
    c1c1:	89 45 bc             	mov    %eax,-0x44(%ebp)
    c1c4:	89 04 24             	mov    %eax,(%esp)
    c1c7:	e8 84 ac ff ff       	call   6e50 <_Znwj@plt>
    c1cc:	89 c7                	mov    %eax,%edi
    c1ce:	8b 4d c4             	mov    -0x3c(%ebp),%ecx
    c1d1:	8b 45 bc             	mov    -0x44(%ebp),%eax
    c1d4:	01 f8                	add    %edi,%eax
    c1d6:	89 79 04             	mov    %edi,0x4(%ecx)
    c1d9:	89 79 08             	mov    %edi,0x8(%ecx)
    c1dc:	89 41 0c             	mov    %eax,0xc(%ecx)
    c1df:	8b 56 08             	mov    0x8(%esi),%edx
    c1e2:	8b 46 04             	mov    0x4(%esi),%eax
    c1e5:	89 3c 24             	mov    %edi,(%esp)
    c1e8:	29 c2                	sub    %eax,%edx
    c1ea:	89 44 24 04          	mov    %eax,0x4(%esp)
    c1ee:	83 e2 fc             	and    $0xfffffffc,%edx
    c1f1:	89 54 24 08          	mov    %edx,0x8(%esp)
    c1f5:	89 55 a4             	mov    %edx,-0x5c(%ebp)
    c1f8:	e8 03 ba ff ff       	call   7c00 <memmove@plt>
    c1fd:	8b 55 a4             	mov    -0x5c(%ebp),%edx
    c200:	8b 45 c4             	mov    -0x3c(%ebp),%eax
    c203:	01 d7                	add    %edx,%edi
    c205:	8b 55 c4             	mov    -0x3c(%ebp),%edx
    c208:	89 78 08             	mov    %edi,0x8(%eax)
    c20b:	8b 46 10             	mov    0x10(%esi),%eax
    c20e:	89 42 10             	mov    %eax,0x10(%edx)
    c211:	8b 46 14             	mov    0x14(%esi),%eax
    c214:	89 42 14             	mov    %eax,0x14(%edx)
    c217:	8b 46 18             	mov    0x18(%esi),%eax
    c21a:	89 42 18             	mov    %eax,0x18(%edx)
    c21d:	83 45 c0 1c          	addl   $0x1c,-0x40(%ebp)
    c221:	8d 76 1c             	lea    0x1c(%esi),%esi
    c224:	8b 4d c0             	mov    -0x40(%ebp),%ecx
    c227:	3b 75 0c             	cmp    0xc(%ebp),%esi
    c22a:	89 4d c4             	mov    %ecx,-0x3c(%ebp)
    c22d:	0f 85 45 ff ff ff    	jne    c178 <_ZNSt6vectorI4FaceSaIS0_EE13_M_insert_auxEN9__gnu_cxx17__normal_iteratorIPS0_S2_EERKS0_+0x338>
    c233:	8b 55 08             	mov    0x8(%ebp),%edx
    c236:	8b 45 c4             	mov    -0x3c(%ebp),%eax
    c239:	83 c0 1c             	add    $0x1c,%eax
    c23c:	8b 4d 0c             	mov    0xc(%ebp),%ecx
    c23f:	89 45 ac             	mov    %eax,-0x54(%ebp)
    c242:	89 c6                	mov    %eax,%esi
    c244:	8b 52 04             	mov    0x4(%edx),%edx
    c247:	39 ca                	cmp    %ecx,%edx
    c249:	89 55 bc             	mov    %edx,-0x44(%ebp)
    c24c:	0f 84 c8 00 00 00    	je     c31a <_ZNSt6vectorI4FaceSaIS0_EE13_M_insert_auxEN9__gnu_cxx17__normal_iteratorIPS0_S2_EERKS0_+0x4da>
    c252:	8b 45 c4             	mov    -0x3c(%ebp),%eax
    c255:	8b 7d 0c             	mov    0xc(%ebp),%edi
    c258:	83 c0 38             	add    $0x38,%eax
    c25b:	89 45 c0             	mov    %eax,-0x40(%ebp)
    c25e:	66 90                	xchg   %ax,%ax
    c260:	85 f6                	test   %esi,%esi
    c262:	0f 84 94 00 00 00    	je     c2fc <_ZNSt6vectorI4FaceSaIS0_EE13_M_insert_auxEN9__gnu_cxx17__normal_iteratorIPS0_S2_EERKS0_+0x4bc>
    c268:	8b 07                	mov    (%edi),%eax
    c26a:	31 d2                	xor    %edx,%edx
    c26c:	89 06                	mov    %eax,(%esi)
    c26e:	8b 47 08             	mov    0x8(%edi),%eax
    c271:	2b 47 04             	sub    0x4(%edi),%eax
    c274:	c7 46 08 00 00 00 00 	movl   $0x0,0x8(%esi)
    c27b:	c1 f8 02             	sar    $0x2,%eax
    c27e:	c7 46 04 00 00 00 00 	movl   $0x0,0x4(%esi)
    c285:	c7 46 0c 00 00 00 00 	movl   $0x0,0xc(%esi)
    c28c:	c7 45 c4 00 00 00 00 	movl   $0x0,-0x3c(%ebp)
    c293:	74 1b                	je     c2b0 <_ZNSt6vectorI4FaceSaIS0_EE13_M_insert_auxEN9__gnu_cxx17__normal_iteratorIPS0_S2_EERKS0_+0x470>
    c295:	3d ff ff ff 3f       	cmp    $0x3fffffff,%eax
    c29a:	0f 87 8d 01 00 00    	ja     c42d <_ZNSt6vectorI4FaceSaIS0_EE13_M_insert_auxEN9__gnu_cxx17__normal_iteratorIPS0_S2_EERKS0_+0x5ed>
    c2a0:	c1 e0 02             	shl    $0x2,%eax
    c2a3:	89 45 c4             	mov    %eax,-0x3c(%ebp)
    c2a6:	89 04 24             	mov    %eax,(%esp)
    c2a9:	e8 a2 ab ff ff       	call   6e50 <_Znwj@plt>
    c2ae:	89 c2                	mov    %eax,%edx
    c2b0:	8b 45 c4             	mov    -0x3c(%ebp),%eax
    c2b3:	89 56 04             	mov    %edx,0x4(%esi)
    c2b6:	01 d0                	add    %edx,%eax
    c2b8:	89 56 08             	mov    %edx,0x8(%esi)
    c2bb:	89 46 0c             	mov    %eax,0xc(%esi)
    c2be:	8b 4f 08             	mov    0x8(%edi),%ecx
    c2c1:	8b 47 04             	mov    0x4(%edi),%eax
    c2c4:	89 14 24             	mov    %edx,(%esp)
    c2c7:	29 c1                	sub    %eax,%ecx
    c2c9:	89 55 a4             	mov    %edx,-0x5c(%ebp)
    c2cc:	83 e1 fc             	and    $0xfffffffc,%ecx
    c2cf:	89 44 24 04          	mov    %eax,0x4(%esp)
    c2d3:	89 4c 24 08          	mov    %ecx,0x8(%esp)
    c2d7:	89 4d a0             	mov    %ecx,-0x60(%ebp)
    c2da:	e8 21 b9 ff ff       	call   7c00 <memmove@plt>
    c2df:	8b 47 10             	mov    0x10(%edi),%eax
    c2e2:	8b 55 a4             	mov    -0x5c(%ebp),%edx
    c2e5:	89 46 10             	mov    %eax,0x10(%esi)
    c2e8:	8b 4d a0             	mov    -0x60(%ebp),%ecx
    c2eb:	8b 47 14             	mov    0x14(%edi),%eax
    c2ee:	01 ca                	add    %ecx,%edx
    c2f0:	89 46 14             	mov    %eax,0x14(%esi)
    c2f3:	8b 47 18             	mov    0x18(%edi),%eax
    c2f6:	89 56 08             	mov    %edx,0x8(%esi)
    c2f9:	89 46 18             	mov    %eax,0x18(%esi)
    c2fc:	8b 75 c0             	mov    -0x40(%ebp),%esi
    c2ff:	8d 7f 1c             	lea    0x1c(%edi),%edi
    c302:	39 7d bc             	cmp    %edi,-0x44(%ebp)
    c305:	8d 56 1c             	lea    0x1c(%esi),%edx
    c308:	89 55 c0             	mov    %edx,-0x40(%ebp)
    c30b:	0f 85 4f ff ff ff    	jne    c260 <_ZNSt6vectorI4FaceSaIS0_EE13_M_insert_auxEN9__gnu_cxx17__normal_iteratorIPS0_S2_EERKS0_+0x420>
    c311:	8b 4d 08             	mov    0x8(%ebp),%ecx
    c314:	8b 49 04             	mov    0x4(%ecx),%ecx
    c317:	89 4d b8             	mov    %ecx,-0x48(%ebp)
    c31a:	8b 45 08             	mov    0x8(%ebp),%eax
    c31d:	8b 38                	mov    (%eax),%edi
    c31f:	3b 7d b8             	cmp    -0x48(%ebp),%edi
    c322:	74 2d                	je     c351 <_ZNSt6vectorI4FaceSaIS0_EE13_M_insert_auxEN9__gnu_cxx17__normal_iteratorIPS0_S2_EERKS0_+0x511>
    c324:	89 75 c4             	mov    %esi,-0x3c(%ebp)
    c327:	8b 75 b8             	mov    -0x48(%ebp),%esi
    c32a:	8d b6 00 00 00 00    	lea    0x0(%esi),%esi
    c330:	8b 47 04             	mov    0x4(%edi),%eax
    c333:	85 c0                	test   %eax,%eax
    c335:	74 08                	je     c33f <_ZNSt6vectorI4FaceSaIS0_EE13_M_insert_auxEN9__gnu_cxx17__normal_iteratorIPS0_S2_EERKS0_+0x4ff>
    c337:	89 04 24             	mov    %eax,(%esp)
    c33a:	e8 91 b1 ff ff       	call   74d0 <_ZdlPv@plt>
    c33f:	8d 7f 1c             	lea    0x1c(%edi),%edi
    c342:	39 f7                	cmp    %esi,%edi
    c344:	75 ea                	jne    c330 <_ZNSt6vectorI4FaceSaIS0_EE13_M_insert_auxEN9__gnu_cxx17__normal_iteratorIPS0_S2_EERKS0_+0x4f0>
    c346:	8b 55 08             	mov    0x8(%ebp),%edx
    c349:	8b 75 c4             	mov    -0x3c(%ebp),%esi
    c34c:	8b 12                	mov    (%edx),%edx
    c34e:	89 55 b8             	mov    %edx,-0x48(%ebp)
    c351:	8b 4d b8             	mov    -0x48(%ebp),%ecx
    c354:	85 c9                	test   %ecx,%ecx
    c356:	74 0b                	je     c363 <_ZNSt6vectorI4FaceSaIS0_EE13_M_insert_auxEN9__gnu_cxx17__normal_iteratorIPS0_S2_EERKS0_+0x523>
    c358:	8b 4d b8             	mov    -0x48(%ebp),%ecx
    c35b:	89 0c 24             	mov    %ecx,(%esp)
    c35e:	e8 6d b1 ff ff       	call   74d0 <_ZdlPv@plt>
    c363:	8b 45 08             	mov    0x8(%ebp),%eax
    c366:	8b 55 b0             	mov    -0x50(%ebp),%edx
    c369:	89 10                	mov    %edx,(%eax)
    c36b:	89 70 04             	mov    %esi,0x4(%eax)
    c36e:	6b 45 a8 1c          	imul   $0x1c,-0x58(%ebp),%eax
    c372:	8b 4d 08             	mov    0x8(%ebp),%ecx
    c375:	01 d0                	add    %edx,%eax
    c377:	89 41 08             	mov    %eax,0x8(%ecx)
    c37a:	8d 64 24 6c          	lea    0x6c(%esp),%esp
    c37e:	5b                   	pop    %ebx
    c37f:	5e                   	pop    %esi
    c380:	5f                   	pop    %edi
    c381:	5d                   	pop    %ebp
    c382:	c3                   	ret    
    c383:	31 c0                	xor    %eax,%eax
    c385:	e9 9c fb ff ff       	jmp    bf26 <_ZNSt6vectorI4FaceSaIS0_EE13_M_insert_auxEN9__gnu_cxx17__normal_iteratorIPS0_S2_EERKS0_+0xe6>
    c38a:	8b 4d 0c             	mov    0xc(%ebp),%ecx
    c38d:	c7 45 a8 01 00 00 00 	movl   $0x1,-0x58(%ebp)
    c394:	29 c1                	sub    %eax,%ecx
    c396:	89 c8                	mov    %ecx,%eax
    c398:	c1 f8 02             	sar    $0x2,%eax
    c39b:	69 f0 b7 6d db b6    	imul   $0xb6db6db7,%eax,%esi
    c3a1:	6b 45 a8 1c          	imul   $0x1c,-0x58(%ebp),%eax
    c3a5:	e9 f7 fc ff ff       	jmp    c0a1 <_ZNSt6vectorI4FaceSaIS0_EE13_M_insert_auxEN9__gnu_cxx17__normal_iteratorIPS0_S2_EERKS0_+0x261>
    c3aa:	81 f9 49 92 24 09    	cmp    $0x9249249,%ecx
    c3b0:	0f 87 cf fc ff ff    	ja     c085 <_ZNSt6vectorI4FaceSaIS0_EE13_M_insert_auxEN9__gnu_cxx17__normal_iteratorIPS0_S2_EERKS0_+0x245>
    c3b6:	8b 55 0c             	mov    0xc(%ebp),%edx
    c3b9:	c7 45 b0 00 00 00 00 	movl   $0x0,-0x50(%ebp)
    c3c0:	29 c2                	sub    %eax,%edx
    c3c2:	89 d0                	mov    %edx,%eax
    c3c4:	c1 f8 02             	sar    $0x2,%eax
    c3c7:	69 f0 b7 6d db b6    	imul   $0xb6db6db7,%eax,%esi
    c3cd:	85 c9                	test   %ecx,%ecx
    c3cf:	0f 84 d7 fc ff ff    	je     c0ac <_ZNSt6vectorI4FaceSaIS0_EE13_M_insert_auxEN9__gnu_cxx17__normal_iteratorIPS0_S2_EERKS0_+0x26c>
    c3d5:	eb ca                	jmp    c3a1 <_ZNSt6vectorI4FaceSaIS0_EE13_M_insert_auxEN9__gnu_cxx17__normal_iteratorIPS0_S2_EERKS0_+0x561>
    c3d7:	89 04 24             	mov    %eax,(%esp)
    c3da:	e8 a1 b7 ff ff       	call   7b80 <_Unwind_Resume@plt>
    c3df:	90                   	nop
    c3e0:	e8 cb ac ff ff       	call   70b0 <_ZSt17__throw_bad_allocv@plt>
    c3e5:	e8 c6 ac ff ff       	call   70b0 <_ZSt17__throw_bad_allocv@plt>
    c3ea:	eb eb                	jmp    c3d7 <_ZNSt6vectorI4FaceSaIS0_EE13_M_insert_auxEN9__gnu_cxx17__normal_iteratorIPS0_S2_EERKS0_+0x597>
    c3ec:	8b 55 d0             	mov    -0x30(%ebp),%edx
    c3ef:	89 c6                	mov    %eax,%esi
    c3f1:	85 d2                	test   %edx,%edx
    c3f3:	74 08                	je     c3fd <_ZNSt6vectorI4FaceSaIS0_EE13_M_insert_auxEN9__gnu_cxx17__normal_iteratorIPS0_S2_EERKS0_+0x5bd>
    c3f5:	89 14 24             	mov    %edx,(%esp)
    c3f8:	e8 d3 b0 ff ff       	call   74d0 <_ZdlPv@plt>
    c3fd:	89 34 24             	mov    %esi,(%esp)
    c400:	e8 7b b7 ff ff       	call   7b80 <_Unwind_Resume@plt>
    c405:	89 04 24             	mov    %eax,(%esp)
    c408:	e8 c3 ac ff ff       	call   70d0 <__cxa_begin_catch@plt>
    c40d:	8b 7d ac             	mov    -0x54(%ebp),%edi
    c410:	39 fe                	cmp    %edi,%esi
    c412:	74 14                	je     c428 <_ZNSt6vectorI4FaceSaIS0_EE13_M_insert_auxEN9__gnu_cxx17__normal_iteratorIPS0_S2_EERKS0_+0x5e8>
    c414:	8b 47 04             	mov    0x4(%edi),%eax
    c417:	85 c0                	test   %eax,%eax
    c419:	74 08                	je     c423 <_ZNSt6vectorI4FaceSaIS0_EE13_M_insert_auxEN9__gnu_cxx17__normal_iteratorIPS0_S2_EERKS0_+0x5e3>
    c41b:	89 04 24             	mov    %eax,(%esp)
    c41e:	e8 ad b0 ff ff       	call   74d0 <_ZdlPv@plt>
    c423:	8d 7f 1c             	lea    0x1c(%edi),%edi
    c426:	eb e8                	jmp    c410 <_ZNSt6vectorI4FaceSaIS0_EE13_M_insert_auxEN9__gnu_cxx17__normal_iteratorIPS0_S2_EERKS0_+0x5d0>
    c428:	e8 d3 b4 ff ff       	call   7900 <__cxa_rethrow@plt>
    c42d:	8d 76 00             	lea    0x0(%esi),%esi
    c430:	e8 7b ac ff ff       	call   70b0 <_ZSt17__throw_bad_allocv@plt>
    c435:	89 45 a4             	mov    %eax,-0x5c(%ebp)
    c438:	e8 63 b6 ff ff       	call   7aa0 <__cxa_end_catch@plt>
    c43d:	8b 45 a4             	mov    -0x5c(%ebp),%eax
    c440:	89 04 24             	mov    %eax,(%esp)
    c443:	e8 88 ac ff ff       	call   70d0 <__cxa_begin_catch@plt>
    c448:	83 7d ac 00          	cmpl   $0x0,-0x54(%ebp)
    c44c:	8b 75 b0             	mov    -0x50(%ebp),%esi
    c44f:	74 19                	je     c46a <_ZNSt6vectorI4FaceSaIS0_EE13_M_insert_auxEN9__gnu_cxx17__normal_iteratorIPS0_S2_EERKS0_+0x62a>
    c451:	39 75 ac             	cmp    %esi,-0x54(%ebp)
    c454:	74 26                	je     c47c <_ZNSt6vectorI4FaceSaIS0_EE13_M_insert_auxEN9__gnu_cxx17__normal_iteratorIPS0_S2_EERKS0_+0x63c>
    c456:	8b 46 04             	mov    0x4(%esi),%eax
    c459:	85 c0                	test   %eax,%eax
    c45b:	74 08                	je     c465 <_ZNSt6vectorI4FaceSaIS0_EE13_M_insert_auxEN9__gnu_cxx17__normal_iteratorIPS0_S2_EERKS0_+0x625>
    c45d:	89 04 24             	mov    %eax,(%esp)
    c460:	e8 6b b0 ff ff       	call   74d0 <_ZdlPv@plt>
    c465:	8d 76 1c             	lea    0x1c(%esi),%esi
    c468:	eb e7                	jmp    c451 <_ZNSt6vectorI4FaceSaIS0_EE13_M_insert_auxEN9__gnu_cxx17__normal_iteratorIPS0_S2_EERKS0_+0x611>
    c46a:	8b 55 b4             	mov    -0x4c(%ebp),%edx
    c46d:	8b 42 04             	mov    0x4(%edx),%eax
    c470:	85 c0                	test   %eax,%eax
    c472:	74 08                	je     c47c <_ZNSt6vectorI4FaceSaIS0_EE13_M_insert_auxEN9__gnu_cxx17__normal_iteratorIPS0_S2_EERKS0_+0x63c>
    c474:	89 04 24             	mov    %eax,(%esp)
    c477:	e8 54 b0 ff ff       	call   74d0 <_ZdlPv@plt>
    c47c:	83 7d b0 00          	cmpl   $0x0,-0x50(%ebp)
    c480:	74 0b                	je     c48d <_ZNSt6vectorI4FaceSaIS0_EE13_M_insert_auxEN9__gnu_cxx17__normal_iteratorIPS0_S2_EERKS0_+0x64d>
    c482:	8b 4d b0             	mov    -0x50(%ebp),%ecx
    c485:	89 0c 24             	mov    %ecx,(%esp)
    c488:	e8 43 b0 ff ff       	call   74d0 <_ZdlPv@plt>
    c48d:	e8 6e b4 ff ff       	call   7900 <__cxa_rethrow@plt>
    c492:	89 45 a4             	mov    %eax,-0x5c(%ebp)
    c495:	e8 06 b6 ff ff       	call   7aa0 <__cxa_end_catch@plt>
    c49a:	8b 45 a4             	mov    -0x5c(%ebp),%eax
    c49d:	89 04 24             	mov    %eax,(%esp)
    c4a0:	e8 db b6 ff ff       	call   7b80 <_Unwind_Resume@plt>
    c4a5:	89 04 24             	mov    %eax,(%esp)
    c4a8:	e8 23 ac ff ff       	call   70d0 <__cxa_begin_catch@plt>
    c4ad:	8b 75 b0             	mov    -0x50(%ebp),%esi
    c4b0:	39 75 c4             	cmp    %esi,-0x3c(%ebp)
    c4b3:	74 14                	je     c4c9 <_ZNSt6vectorI4FaceSaIS0_EE13_M_insert_auxEN9__gnu_cxx17__normal_iteratorIPS0_S2_EERKS0_+0x689>
    c4b5:	8b 46 04             	mov    0x4(%esi),%eax
    c4b8:	85 c0                	test   %eax,%eax
    c4ba:	74 08                	je     c4c4 <_ZNSt6vectorI4FaceSaIS0_EE13_M_insert_auxEN9__gnu_cxx17__normal_iteratorIPS0_S2_EERKS0_+0x684>
    c4bc:	89 04 24             	mov    %eax,(%esp)
    c4bf:	e8 0c b0 ff ff       	call   74d0 <_ZdlPv@plt>
    c4c4:	8d 76 1c             	lea    0x1c(%esi),%esi
    c4c7:	eb e7                	jmp    c4b0 <_ZNSt6vectorI4FaceSaIS0_EE13_M_insert_auxEN9__gnu_cxx17__normal_iteratorIPS0_S2_EERKS0_+0x670>
    c4c9:	e8 32 b4 ff ff       	call   7900 <__cxa_rethrow@plt>
    c4ce:	66 90                	xchg   %ax,%ax
    c4d0:	e8 db ab ff ff       	call   70b0 <_ZSt17__throw_bad_allocv@plt>
    c4d5:	e9 5b ff ff ff       	jmp    c435 <_ZNSt6vectorI4FaceSaIS0_EE13_M_insert_auxEN9__gnu_cxx17__normal_iteratorIPS0_S2_EERKS0_+0x5f5>
    c4da:	8d b6 00 00 00 00    	lea    0x0(%esi),%esi
    c4e0:	e9 5b ff ff ff       	jmp    c440 <_ZNSt6vectorI4FaceSaIS0_EE13_M_insert_auxEN9__gnu_cxx17__normal_iteratorIPS0_S2_EERKS0_+0x600>
    c4e5:	8d 74 26 00          	lea    0x0(%esi,%eiz,1),%esi
    c4e9:	8d bc 27 00 00 00 00 	lea    0x0(%edi,%eiz,1),%edi
    c4f0:	e8 bb ab ff ff       	call   70b0 <_ZSt17__throw_bad_allocv@plt>
    c4f5:	90                   	nop
    c4f6:	90                   	nop
    c4f7:	90                   	nop
    c4f8:	90                   	nop
    c4f9:	90                   	nop
    c4fa:	90                   	nop
    c4fb:	90                   	nop
    c4fc:	90                   	nop
    c4fd:	90                   	nop
    c4fe:	90                   	nop
    c4ff:	90                   	nop

0000c500 <_GLOBAL__I_material.cpp>:
    c500:	55                   	push   %ebp
    c501:	89 e5                	mov    %esp,%ebp
    c503:	8d 64 24 e8          	lea    -0x18(%esp),%esp
    c507:	89 5d f8             	mov    %ebx,-0x8(%ebp)
    c50a:	89 75 fc             	mov    %esi,-0x4(%ebp)
    c50d:	e8 27 b9 ff ff       	call   7e39 <__i686.get_pc_thunk.bx>
    c512:	81 c3 92 cf 00 00    	add    $0xcf92,%ebx
    c518:	8d b3 80 24 00 00    	lea    0x2480(%ebx),%esi
    c51e:	89 34 24             	mov    %esi,(%esp)
    c521:	e8 8a b4 ff ff       	call   79b0 <_ZNSt8ios_base4InitC1Ev@plt>
    c526:	8b 83 b0 ff ff ff    	mov    -0x50(%ebx),%eax
    c52c:	89 74 24 04          	mov    %esi,0x4(%esp)
    c530:	89 44 24 08          	mov    %eax,0x8(%esp)
    c534:	8b 83 fc ff ff ff    	mov    -0x4(%ebx),%eax
    c53a:	89 04 24             	mov    %eax,(%esp)
    c53d:	e8 ae ad ff ff       	call   72f0 <__cxa_atexit@plt>
    c542:	8b 5d f8             	mov    -0x8(%ebp),%ebx
    c545:	8b 75 fc             	mov    -0x4(%ebp),%esi
    c548:	89 ec                	mov    %ebp,%esp
    c54a:	5d                   	pop    %ebp
    c54b:	c3                   	ret    
    c54c:	8d 74 26 00          	lea    0x0(%esi,%eiz,1),%esi

0000c550 <_ZN8MaterialC1ERKSsRK5ColorS4_S4_f>:
    c550:	55                   	push   %ebp
    c551:	89 e5                	mov    %esp,%ebp
    c553:	8d 64 24 c8          	lea    -0x38(%esp),%esp
    c557:	89 5d f4             	mov    %ebx,-0xc(%ebp)
    c55a:	8b 55 10             	mov    0x10(%ebp),%edx
    c55d:	e8 d7 b8 ff ff       	call   7e39 <__i686.get_pc_thunk.bx>
    c562:	81 c3 42 cf 00 00    	add    $0xcf42,%ebx
    c568:	8b 45 14             	mov    0x14(%ebp),%eax
    c56b:	8b 4d 0c             	mov    0xc(%ebp),%ecx
    c56e:	89 75 f8             	mov    %esi,-0x8(%ebp)
    c571:	8b 75 08             	mov    0x8(%ebp),%esi
    c574:	89 7d fc             	mov    %edi,-0x4(%ebp)
    c577:	89 4c 24 04          	mov    %ecx,0x4(%esp)
    c57b:	8b 7d 18             	mov    0x18(%ebp),%edi
    c57e:	89 34 24             	mov    %esi,(%esp)
    c581:	89 45 e0             	mov    %eax,-0x20(%ebp)
    c584:	89 55 e4             	mov    %edx,-0x1c(%ebp)
    c587:	e8 64 ac ff ff       	call   71f0 <_ZNSsC1ERKSs@plt>
    c58c:	8b 55 e4             	mov    -0x1c(%ebp),%edx
    c58f:	8b 45 e0             	mov    -0x20(%ebp),%eax
    c592:	8b 0a                	mov    (%edx),%ecx
    c594:	89 4e 04             	mov    %ecx,0x4(%esi)
    c597:	8b 4a 04             	mov    0x4(%edx),%ecx
    c59a:	89 4e 08             	mov    %ecx,0x8(%esi)
    c59d:	8b 4a 08             	mov    0x8(%edx),%ecx
    c5a0:	89 4e 0c             	mov    %ecx,0xc(%esi)
    c5a3:	8b 52 0c             	mov    0xc(%edx),%edx
    c5a6:	89 56 10             	mov    %edx,0x10(%esi)
    c5a9:	8b 10                	mov    (%eax),%edx
    c5ab:	89 56 14             	mov    %edx,0x14(%esi)
    c5ae:	8b 50 04             	mov    0x4(%eax),%edx
    c5b1:	89 56 18             	mov    %edx,0x18(%esi)
    c5b4:	8b 50 08             	mov    0x8(%eax),%edx
    c5b7:	89 56 1c             	mov    %edx,0x1c(%esi)
    c5ba:	8b 40 0c             	mov    0xc(%eax),%eax
    c5bd:	89 46 20             	mov    %eax,0x20(%esi)
    c5c0:	8b 07                	mov    (%edi),%eax
    c5c2:	89 46 24             	mov    %eax,0x24(%esi)
    c5c5:	8b 47 04             	mov    0x4(%edi),%eax
    c5c8:	89 46 28             	mov    %eax,0x28(%esi)
    c5cb:	8b 47 08             	mov    0x8(%edi),%eax
    c5ce:	89 46 2c             	mov    %eax,0x2c(%esi)
    c5d1:	8b 47 0c             	mov    0xc(%edi),%eax
    c5d4:	89 46 30             	mov    %eax,0x30(%esi)
    c5d7:	8b 45 1c             	mov    0x1c(%ebp),%eax
    c5da:	89 46 34             	mov    %eax,0x34(%esi)
    c5dd:	8b 5d f4             	mov    -0xc(%ebp),%ebx
    c5e0:	8b 75 f8             	mov    -0x8(%ebp),%esi
    c5e3:	8b 7d fc             	mov    -0x4(%ebp),%edi
    c5e6:	89 ec                	mov    %ebp,%esp
    c5e8:	5d                   	pop    %ebp
    c5e9:	c3                   	ret    
    c5ea:	8d b6 00 00 00 00    	lea    0x0(%esi),%esi

0000c5f0 <_ZlsRSoRK8Material>:
    c5f0:	55                   	push   %ebp
    c5f1:	89 e5                	mov    %esp,%ebp
    c5f3:	57                   	push   %edi
    c5f4:	56                   	push   %esi
    c5f5:	53                   	push   %ebx
    c5f6:	e8 3e b8 ff ff       	call   7e39 <__i686.get_pc_thunk.bx>
    c5fb:	81 c3 a9 ce 00 00    	add    $0xcea9,%ebx
    c601:	8d 64 24 c4          	lea    -0x3c(%esp),%esp
    c605:	8b 7d 0c             	mov    0xc(%ebp),%edi
    c608:	8b 75 08             	mov    0x8(%ebp),%esi
    c60b:	8d 83 28 c0 ff ff    	lea    -0x3fd8(%ebx),%eax
    c611:	c7 44 24 08 0a 00 00 	movl   $0xa,0x8(%esp)
    c618:	00 
    c619:	89 44 24 04          	mov    %eax,0x4(%esp)
    c61d:	89 34 24             	mov    %esi,(%esp)
    c620:	e8 fb b0 ff ff       	call   7720 <_ZSt16__ostream_insertIcSt11char_traitsIcEERSt13basic_ostreamIT_T0_ES6_PKS3_i@plt>
    c625:	8b 07                	mov    (%edi),%eax
    c627:	8b 50 f4             	mov    -0xc(%eax),%edx
    c62a:	89 44 24 04          	mov    %eax,0x4(%esp)
    c62e:	89 54 24 08          	mov    %edx,0x8(%esp)
    c632:	89 34 24             	mov    %esi,(%esp)
    c635:	e8 e6 b0 ff ff       	call   7720 <_ZSt16__ostream_insertIcSt11char_traitsIcEERSt13basic_ostreamIT_T0_ES6_PKS3_i@plt>
    c63a:	89 c2                	mov    %eax,%edx
    c63c:	8b 00                	mov    (%eax),%eax
    c63e:	8b 40 f4             	mov    -0xc(%eax),%eax
    c641:	8b 44 02 7c          	mov    0x7c(%edx,%eax,1),%eax
    c645:	85 c0                	test   %eax,%eax
    c647:	0f 84 9e 02 00 00    	je     c8eb <_ZlsRSoRK8Material+0x2fb>
    c64d:	80 78 1c 00          	cmpb   $0x0,0x1c(%eax)
    c651:	0f 84 b1 01 00 00    	je     c808 <_ZlsRSoRK8Material+0x218>
    c657:	0f b6 40 27          	movzbl 0x27(%eax),%eax
    c65b:	0f be c0             	movsbl %al,%eax
    c65e:	89 14 24             	mov    %edx,(%esp)
    c661:	89 44 24 04          	mov    %eax,0x4(%esp)
    c665:	e8 b6 a7 ff ff       	call   6e20 <_ZNSo3putEc@plt>
    c66a:	89 04 24             	mov    %eax,(%esp)
    c66d:	e8 6e ac ff ff       	call   72e0 <_ZNSo5flushEv@plt>
    c672:	8d 83 33 c0 ff ff    	lea    -0x3fcd(%ebx),%eax
    c678:	c7 44 24 08 04 00 00 	movl   $0x4,0x8(%esp)
    c67f:	00 
    c680:	89 44 24 04          	mov    %eax,0x4(%esp)
    c684:	89 34 24             	mov    %esi,(%esp)
    c687:	e8 94 b0 ff ff       	call   7720 <_ZSt16__ostream_insertIcSt11char_traitsIcEERSt13basic_ostreamIT_T0_ES6_PKS3_i@plt>
    c68c:	8d 47 04             	lea    0x4(%edi),%eax
    c68f:	89 34 24             	mov    %esi,(%esp)
    c692:	89 44 24 04          	mov    %eax,0x4(%esp)
    c696:	e8 b5 a9 ff ff       	call   7050 <_ZlsRSoRK5Color@plt>
    c69b:	89 c2                	mov    %eax,%edx
    c69d:	8b 00                	mov    (%eax),%eax
    c69f:	8b 40 f4             	mov    -0xc(%eax),%eax
    c6a2:	8b 44 02 7c          	mov    0x7c(%edx,%eax,1),%eax
    c6a6:	85 c0                	test   %eax,%eax
    c6a8:	0f 84 3d 02 00 00    	je     c8eb <_ZlsRSoRK8Material+0x2fb>
    c6ae:	80 78 1c 00          	cmpb   $0x0,0x1c(%eax)
    c6b2:	0f 84 80 01 00 00    	je     c838 <_ZlsRSoRK8Material+0x248>
    c6b8:	0f b6 40 27          	movzbl 0x27(%eax),%eax
    c6bc:	0f be c0             	movsbl %al,%eax
    c6bf:	89 14 24             	mov    %edx,(%esp)
    c6c2:	89 44 24 04          	mov    %eax,0x4(%esp)
    c6c6:	e8 55 a7 ff ff       	call   6e20 <_ZNSo3putEc@plt>
    c6cb:	89 04 24             	mov    %eax,(%esp)
    c6ce:	e8 0d ac ff ff       	call   72e0 <_ZNSo5flushEv@plt>
    c6d3:	8d 83 38 c0 ff ff    	lea    -0x3fc8(%ebx),%eax
    c6d9:	c7 44 24 08 04 00 00 	movl   $0x4,0x8(%esp)
    c6e0:	00 
    c6e1:	89 44 24 04          	mov    %eax,0x4(%esp)
    c6e5:	89 34 24             	mov    %esi,(%esp)
    c6e8:	e8 33 b0 ff ff       	call   7720 <_ZSt16__ostream_insertIcSt11char_traitsIcEERSt13basic_ostreamIT_T0_ES6_PKS3_i@plt>
    c6ed:	8d 47 14             	lea    0x14(%edi),%eax
    c6f0:	89 34 24             	mov    %esi,(%esp)
    c6f3:	89 44 24 04          	mov    %eax,0x4(%esp)
    c6f7:	e8 54 a9 ff ff       	call   7050 <_ZlsRSoRK5Color@plt>
    c6fc:	89 c2                	mov    %eax,%edx
    c6fe:	8b 00                	mov    (%eax),%eax
    c700:	8b 40 f4             	mov    -0xc(%eax),%eax
    c703:	8b 44 02 7c          	mov    0x7c(%edx,%eax,1),%eax
    c707:	85 c0                	test   %eax,%eax
    c709:	0f 84 dc 01 00 00    	je     c8eb <_ZlsRSoRK8Material+0x2fb>
    c70f:	80 78 1c 00          	cmpb   $0x0,0x1c(%eax)
    c713:	0f 84 4f 01 00 00    	je     c868 <_ZlsRSoRK8Material+0x278>
    c719:	0f b6 40 27          	movzbl 0x27(%eax),%eax
    c71d:	0f be c0             	movsbl %al,%eax
    c720:	89 14 24             	mov    %edx,(%esp)
    c723:	89 44 24 04          	mov    %eax,0x4(%esp)
    c727:	e8 f4 a6 ff ff       	call   6e20 <_ZNSo3putEc@plt>
    c72c:	89 04 24             	mov    %eax,(%esp)
    c72f:	e8 ac ab ff ff       	call   72e0 <_ZNSo5flushEv@plt>
    c734:	8d 83 3d c0 ff ff    	lea    -0x3fc3(%ebx),%eax
    c73a:	c7 44 24 08 04 00 00 	movl   $0x4,0x8(%esp)
    c741:	00 
    c742:	89 44 24 04          	mov    %eax,0x4(%esp)
    c746:	89 34 24             	mov    %esi,(%esp)
    c749:	e8 d2 af ff ff       	call   7720 <_ZSt16__ostream_insertIcSt11char_traitsIcEERSt13basic_ostreamIT_T0_ES6_PKS3_i@plt>
    c74e:	8d 47 24             	lea    0x24(%edi),%eax
    c751:	89 34 24             	mov    %esi,(%esp)
    c754:	89 44 24 04          	mov    %eax,0x4(%esp)
    c758:	e8 f3 a8 ff ff       	call   7050 <_ZlsRSoRK5Color@plt>
    c75d:	89 c2                	mov    %eax,%edx
    c75f:	8b 00                	mov    (%eax),%eax
    c761:	8b 40 f4             	mov    -0xc(%eax),%eax
    c764:	8b 44 02 7c          	mov    0x7c(%edx,%eax,1),%eax
    c768:	85 c0                	test   %eax,%eax
    c76a:	0f 84 7b 01 00 00    	je     c8eb <_ZlsRSoRK8Material+0x2fb>
    c770:	80 78 1c 00          	cmpb   $0x0,0x1c(%eax)
    c774:	0f 84 1e 01 00 00    	je     c898 <_ZlsRSoRK8Material+0x2a8>
    c77a:	0f b6 40 27          	movzbl 0x27(%eax),%eax
    c77e:	0f be c0             	movsbl %al,%eax
    c781:	89 14 24             	mov    %edx,(%esp)
    c784:	89 44 24 04          	mov    %eax,0x4(%esp)
    c788:	e8 93 a6 ff ff       	call   6e20 <_ZNSo3putEc@plt>
    c78d:	89 04 24             	mov    %eax,(%esp)
    c790:	e8 4b ab ff ff       	call   72e0 <_ZNSo5flushEv@plt>
    c795:	d9 47 34             	flds   0x34(%edi)
    c798:	8d 83 42 c0 ff ff    	lea    -0x3fbe(%ebx),%eax
    c79e:	d9 5d c8             	fstps  -0x38(%ebp)
    c7a1:	c7 44 24 08 0b 00 00 	movl   $0xb,0x8(%esp)
    c7a8:	00 
    c7a9:	89 44 24 04          	mov    %eax,0x4(%esp)
    c7ad:	89 34 24             	mov    %esi,(%esp)
    c7b0:	e8 6b af ff ff       	call   7720 <_ZSt16__ostream_insertIcSt11char_traitsIcEERSt13basic_ostreamIT_T0_ES6_PKS3_i@plt>
    c7b5:	d9 45 c8             	flds   -0x38(%ebp)
    c7b8:	89 34 24             	mov    %esi,(%esp)
    c7bb:	dd 5c 24 04          	fstpl  0x4(%esp)
    c7bf:	e8 cc b2 ff ff       	call   7a90 <_ZNSo9_M_insertIdEERSoT_@plt>
    c7c4:	89 c7                	mov    %eax,%edi
    c7c6:	8b 00                	mov    (%eax),%eax
    c7c8:	8b 40 f4             	mov    -0xc(%eax),%eax
    c7cb:	8b 44 07 7c          	mov    0x7c(%edi,%eax,1),%eax
    c7cf:	85 c0                	test   %eax,%eax
    c7d1:	0f 84 14 01 00 00    	je     c8eb <_ZlsRSoRK8Material+0x2fb>
    c7d7:	80 78 1c 00          	cmpb   $0x0,0x1c(%eax)
    c7db:	0f 84 e7 00 00 00    	je     c8c8 <_ZlsRSoRK8Material+0x2d8>
    c7e1:	0f b6 40 27          	movzbl 0x27(%eax),%eax
    c7e5:	0f be c0             	movsbl %al,%eax
    c7e8:	89 3c 24             	mov    %edi,(%esp)
    c7eb:	89 44 24 04          	mov    %eax,0x4(%esp)
    c7ef:	e8 2c a6 ff ff       	call   6e20 <_ZNSo3putEc@plt>
    c7f4:	89 04 24             	mov    %eax,(%esp)
    c7f7:	e8 e4 aa ff ff       	call   72e0 <_ZNSo5flushEv@plt>
    c7fc:	8d 64 24 3c          	lea    0x3c(%esp),%esp
    c800:	89 f0                	mov    %esi,%eax
    c802:	5b                   	pop    %ebx
    c803:	5e                   	pop    %esi
    c804:	5f                   	pop    %edi
    c805:	5d                   	pop    %ebp
    c806:	c3                   	ret    
    c807:	90                   	nop
    c808:	89 55 e4             	mov    %edx,-0x1c(%ebp)
    c80b:	89 04 24             	mov    %eax,(%esp)
    c80e:	89 45 e0             	mov    %eax,-0x20(%ebp)
    c811:	e8 fa ad ff ff       	call   7610 <_ZNKSt5ctypeIcE13_M_widen_initEv@plt>
    c816:	8b 45 e0             	mov    -0x20(%ebp),%eax
    c819:	8b 08                	mov    (%eax),%ecx
    c81b:	c7 44 24 04 0a 00 00 	movl   $0xa,0x4(%esp)
    c822:	00 
    c823:	89 04 24             	mov    %eax,(%esp)
    c826:	ff 51 18             	call   *0x18(%ecx)
    c829:	8b 55 e4             	mov    -0x1c(%ebp),%edx
    c82c:	e9 2a fe ff ff       	jmp    c65b <_ZlsRSoRK8Material+0x6b>
    c831:	8d b4 26 00 00 00 00 	lea    0x0(%esi,%eiz,1),%esi
    c838:	89 55 e4             	mov    %edx,-0x1c(%ebp)
    c83b:	89 04 24             	mov    %eax,(%esp)
    c83e:	89 45 e0             	mov    %eax,-0x20(%ebp)
    c841:	e8 ca ad ff ff       	call   7610 <_ZNKSt5ctypeIcE13_M_widen_initEv@plt>
    c846:	8b 45 e0             	mov    -0x20(%ebp),%eax
    c849:	8b 08                	mov    (%eax),%ecx
    c84b:	c7 44 24 04 0a 00 00 	movl   $0xa,0x4(%esp)
    c852:	00 
    c853:	89 04 24             	mov    %eax,(%esp)
    c856:	ff 51 18             	call   *0x18(%ecx)
    c859:	8b 55 e4             	mov    -0x1c(%ebp),%edx
    c85c:	e9 5b fe ff ff       	jmp    c6bc <_ZlsRSoRK8Material+0xcc>
    c861:	8d b4 26 00 00 00 00 	lea    0x0(%esi,%eiz,1),%esi
    c868:	89 55 e4             	mov    %edx,-0x1c(%ebp)
    c86b:	89 04 24             	mov    %eax,(%esp)
    c86e:	89 45 e0             	mov    %eax,-0x20(%ebp)
    c871:	e8 9a ad ff ff       	call   7610 <_ZNKSt5ctypeIcE13_M_widen_initEv@plt>
    c876:	8b 45 e0             	mov    -0x20(%ebp),%eax
    c879:	8b 08                	mov    (%eax),%ecx
    c87b:	c7 44 24 04 0a 00 00 	movl   $0xa,0x4(%esp)
    c882:	00 
    c883:	89 04 24             	mov    %eax,(%esp)
    c886:	ff 51 18             	call   *0x18(%ecx)
    c889:	8b 55 e4             	mov    -0x1c(%ebp),%edx
    c88c:	e9 8c fe ff ff       	jmp    c71d <_ZlsRSoRK8Material+0x12d>
    c891:	8d b4 26 00 00 00 00 	lea    0x0(%esi,%eiz,1),%esi
    c898:	89 55 e4             	mov    %edx,-0x1c(%ebp)
    c89b:	89 04 24             	mov    %eax,(%esp)
    c89e:	89 45 e0             	mov    %eax,-0x20(%ebp)
    c8a1:	e8 6a ad ff ff       	call   7610 <_ZNKSt5ctypeIcE13_M_widen_initEv@plt>
    c8a6:	8b 45 e0             	mov    -0x20(%ebp),%eax
    c8a9:	8b 08                	mov    (%eax),%ecx
    c8ab:	c7 44 24 04 0a 00 00 	movl   $0xa,0x4(%esp)
    c8b2:	00 
    c8b3:	89 04 24             	mov    %eax,(%esp)
    c8b6:	ff 51 18             	call   *0x18(%ecx)
    c8b9:	8b 55 e4             	mov    -0x1c(%ebp),%edx
    c8bc:	e9 bd fe ff ff       	jmp    c77e <_ZlsRSoRK8Material+0x18e>
    c8c1:	8d b4 26 00 00 00 00 	lea    0x0(%esi,%eiz,1),%esi
    c8c8:	89 04 24             	mov    %eax,(%esp)
    c8cb:	89 45 e0             	mov    %eax,-0x20(%ebp)
    c8ce:	e8 3d ad ff ff       	call   7610 <_ZNKSt5ctypeIcE13_M_widen_initEv@plt>
    c8d3:	8b 45 e0             	mov    -0x20(%ebp),%eax
    c8d6:	8b 10                	mov    (%eax),%edx
    c8d8:	c7 44 24 04 0a 00 00 	movl   $0xa,0x4(%esp)
    c8df:	00 
    c8e0:	89 04 24             	mov    %eax,(%esp)
    c8e3:	ff 52 18             	call   *0x18(%edx)
    c8e6:	e9 fa fe ff ff       	jmp    c7e5 <_ZlsRSoRK8Material+0x1f5>
    c8eb:	e8 d0 ad ff ff       	call   76c0 <_ZSt16__throw_bad_castv@plt>

0000c8f0 <_ZNK11MaterialLib8materialEi>:
    c8f0:	55                   	push   %ebp
    c8f1:	89 e5                	mov    %esp,%ebp
    c8f3:	8b 4d 0c             	mov    0xc(%ebp),%ecx
    c8f6:	8b 55 08             	mov    0x8(%ebp),%edx
    c8f9:	85 c9                	test   %ecx,%ecx
    c8fb:	78 1b                	js     c918 <_ZNK11MaterialLib8materialEi+0x28>
    c8fd:	8b 02                	mov    (%edx),%eax
    c8ff:	8b 52 04             	mov    0x4(%edx),%edx
    c902:	29 c2                	sub    %eax,%edx
    c904:	c1 fa 03             	sar    $0x3,%edx
    c907:	69 d2 b7 6d db b6    	imul   $0xb6db6db7,%edx,%edx
    c90d:	39 d1                	cmp    %edx,%ecx
    c90f:	7d 05                	jge    c916 <_ZNK11MaterialLib8materialEi+0x26>
    c911:	6b c9 38             	imul   $0x38,%ecx,%ecx
    c914:	01 c8                	add    %ecx,%eax
    c916:	5d                   	pop    %ebp
    c917:	c3                   	ret    
    c918:	8b 02                	mov    (%edx),%eax
    c91a:	5d                   	pop    %ebp
    c91b:	c3                   	ret    
    c91c:	8d 74 26 00          	lea    0x0(%esi,%eiz,1),%esi

0000c920 <_GLOBAL__I_material_lib.cpp>:
    c920:	55                   	push   %ebp
    c921:	89 e5                	mov    %esp,%ebp
    c923:	8d 64 24 e8          	lea    -0x18(%esp),%esp
    c927:	89 5d f8             	mov    %ebx,-0x8(%ebp)
    c92a:	89 75 fc             	mov    %esi,-0x4(%ebp)
    c92d:	e8 07 b5 ff ff       	call   7e39 <__i686.get_pc_thunk.bx>
    c932:	81 c3 72 cb 00 00    	add    $0xcb72,%ebx
    c938:	8d b3 84 24 00 00    	lea    0x2484(%ebx),%esi
    c93e:	89 34 24             	mov    %esi,(%esp)
    c941:	e8 6a b0 ff ff       	call   79b0 <_ZNSt8ios_base4InitC1Ev@plt>
    c946:	8b 83 b0 ff ff ff    	mov    -0x50(%ebx),%eax
    c94c:	89 74 24 04          	mov    %esi,0x4(%esp)
    c950:	89 44 24 08          	mov    %eax,0x8(%esp)
    c954:	8b 83 fc ff ff ff    	mov    -0x4(%ebx),%eax
    c95a:	89 04 24             	mov    %eax,(%esp)
    c95d:	e8 8e a9 ff ff       	call   72f0 <__cxa_atexit@plt>
    c962:	8b 5d f8             	mov    -0x8(%ebp),%ebx
    c965:	8b 75 fc             	mov    -0x4(%ebp),%esi
    c968:	89 ec                	mov    %ebp,%esp
    c96a:	5d                   	pop    %ebp
    c96b:	c3                   	ret    
    c96c:	8d 74 26 00          	lea    0x0(%esi,%eiz,1),%esi

0000c970 <_ZlsRSoRK11MaterialLib>:
    c970:	55                   	push   %ebp
    c971:	89 e5                	mov    %esp,%ebp
    c973:	57                   	push   %edi
    c974:	56                   	push   %esi
    c975:	53                   	push   %ebx
    c976:	e8 be b4 ff ff       	call   7e39 <__i686.get_pc_thunk.bx>
    c97b:	81 c3 29 cb 00 00    	add    $0xcb29,%ebx
    c981:	8d 64 24 d4          	lea    -0x2c(%esp),%esp
    c985:	8d 83 4e c0 ff ff    	lea    -0x3fb2(%ebx),%eax
    c98b:	89 44 24 04          	mov    %eax,0x4(%esp)
    c98f:	8b 45 08             	mov    0x8(%ebp),%eax
    c992:	c7 44 24 08 0e 00 00 	movl   $0xe,0x8(%esp)
    c999:	00 
    c99a:	89 04 24             	mov    %eax,(%esp)
    c99d:	e8 7e ad ff ff       	call   7720 <_ZSt16__ostream_insertIcSt11char_traitsIcEERSt13basic_ostreamIT_T0_ES6_PKS3_i@plt>
    c9a2:	8b 55 08             	mov    0x8(%ebp),%edx
    c9a5:	8b 02                	mov    (%edx),%eax
    c9a7:	8b 40 f4             	mov    -0xc(%eax),%eax
    c9aa:	8b 74 02 7c          	mov    0x7c(%edx,%eax,1),%esi
    c9ae:	85 f6                	test   %esi,%esi
    c9b0:	0f 84 07 01 00 00    	je     cabd <_ZlsRSoRK11MaterialLib+0x14d>
    c9b6:	80 7e 1c 00          	cmpb   $0x0,0x1c(%esi)
    c9ba:	0f 84 e0 00 00 00    	je     caa0 <_ZlsRSoRK11MaterialLib+0x130>
    c9c0:	0f b6 46 27          	movzbl 0x27(%esi),%eax
    c9c4:	8b 4d 08             	mov    0x8(%ebp),%ecx
    c9c7:	0f be c0             	movsbl %al,%eax
    c9ca:	89 0c 24             	mov    %ecx,(%esp)
    c9cd:	89 44 24 04          	mov    %eax,0x4(%esp)
    c9d1:	e8 4a a4 ff ff       	call   6e20 <_ZNSo3putEc@plt>
    c9d6:	89 04 24             	mov    %eax,(%esp)
    c9d9:	e8 02 a9 ff ff       	call   72e0 <_ZNSo5flushEv@plt>
    c9de:	8b 45 0c             	mov    0xc(%ebp),%eax
    c9e1:	8b 10                	mov    (%eax),%edx
    c9e3:	8b 40 04             	mov    0x4(%eax),%eax
    c9e6:	29 d0                	sub    %edx,%eax
    c9e8:	c1 f8 03             	sar    $0x3,%eax
    c9eb:	69 c0 b7 6d db b6    	imul   $0xb6db6db7,%eax,%eax
    c9f1:	85 c0                	test   %eax,%eax
    c9f3:	0f 84 97 00 00 00    	je     ca90 <_ZlsRSoRK11MaterialLib+0x120>
    c9f9:	31 ff                	xor    %edi,%edi
    c9fb:	c7 45 e4 00 00 00 00 	movl   $0x0,-0x1c(%ebp)
    ca02:	eb 3e                	jmp    ca42 <_ZlsRSoRK11MaterialLib+0xd2>
    ca04:	8d 74 26 00          	lea    0x0(%esi,%eiz,1),%esi
    ca08:	0f b6 40 27          	movzbl 0x27(%eax),%eax
    ca0c:	0f be c0             	movsbl %al,%eax
    ca0f:	89 34 24             	mov    %esi,(%esp)
    ca12:	89 44 24 04          	mov    %eax,0x4(%esp)
    ca16:	8d 7f 38             	lea    0x38(%edi),%edi
    ca19:	e8 02 a4 ff ff       	call   6e20 <_ZNSo3putEc@plt>
    ca1e:	89 04 24             	mov    %eax,(%esp)
    ca21:	e8 ba a8 ff ff       	call   72e0 <_ZNSo5flushEv@plt>
    ca26:	8b 4d 0c             	mov    0xc(%ebp),%ecx
    ca29:	83 45 e4 01          	addl   $0x1,-0x1c(%ebp)
    ca2d:	8b 11                	mov    (%ecx),%edx
    ca2f:	8b 41 04             	mov    0x4(%ecx),%eax
    ca32:	29 d0                	sub    %edx,%eax
    ca34:	c1 f8 03             	sar    $0x3,%eax
    ca37:	69 c0 b7 6d db b6    	imul   $0xb6db6db7,%eax,%eax
    ca3d:	39 45 e4             	cmp    %eax,-0x1c(%ebp)
    ca40:	73 4e                	jae    ca90 <_ZlsRSoRK11MaterialLib+0x120>
    ca42:	8b 45 08             	mov    0x8(%ebp),%eax
    ca45:	8d 14 3a             	lea    (%edx,%edi,1),%edx
    ca48:	89 04 24             	mov    %eax,(%esp)
    ca4b:	89 54 24 04          	mov    %edx,0x4(%esp)
    ca4f:	e8 9c a5 ff ff       	call   6ff0 <_ZlsRSoRK8Material@plt>
    ca54:	89 c6                	mov    %eax,%esi
    ca56:	8b 00                	mov    (%eax),%eax
    ca58:	8b 40 f4             	mov    -0xc(%eax),%eax
    ca5b:	8b 44 06 7c          	mov    0x7c(%esi,%eax,1),%eax
    ca5f:	85 c0                	test   %eax,%eax
    ca61:	74 5a                	je     cabd <_ZlsRSoRK11MaterialLib+0x14d>
    ca63:	80 78 1c 00          	cmpb   $0x0,0x1c(%eax)
    ca67:	75 9f                	jne    ca08 <_ZlsRSoRK11MaterialLib+0x98>
    ca69:	89 04 24             	mov    %eax,(%esp)
    ca6c:	89 45 e0             	mov    %eax,-0x20(%ebp)
    ca6f:	e8 9c ab ff ff       	call   7610 <_ZNKSt5ctypeIcE13_M_widen_initEv@plt>
    ca74:	8b 45 e0             	mov    -0x20(%ebp),%eax
    ca77:	8b 10                	mov    (%eax),%edx
    ca79:	c7 44 24 04 0a 00 00 	movl   $0xa,0x4(%esp)
    ca80:	00 
    ca81:	89 04 24             	mov    %eax,(%esp)
    ca84:	ff 52 18             	call   *0x18(%edx)
    ca87:	eb 83                	jmp    ca0c <_ZlsRSoRK11MaterialLib+0x9c>
    ca89:	8d b4 26 00 00 00 00 	lea    0x0(%esi,%eiz,1),%esi
    ca90:	8b 45 08             	mov    0x8(%ebp),%eax
    ca93:	8d 64 24 2c          	lea    0x2c(%esp),%esp
    ca97:	5b                   	pop    %ebx
    ca98:	5e                   	pop    %esi
    ca99:	5f                   	pop    %edi
    ca9a:	5d                   	pop    %ebp
    ca9b:	c3                   	ret    
    ca9c:	8d 74 26 00          	lea    0x0(%esi,%eiz,1),%esi
    caa0:	89 34 24             	mov    %esi,(%esp)
    caa3:	e8 68 ab ff ff       	call   7610 <_ZNKSt5ctypeIcE13_M_widen_initEv@plt>
    caa8:	8b 06                	mov    (%esi),%eax
    caaa:	c7 44 24 04 0a 00 00 	movl   $0xa,0x4(%esp)
    cab1:	00 
    cab2:	89 34 24             	mov    %esi,(%esp)
    cab5:	ff 50 18             	call   *0x18(%eax)
    cab8:	e9 07 ff ff ff       	jmp    c9c4 <_ZlsRSoRK11MaterialLib+0x54>
    cabd:	e8 fe ab ff ff       	call   76c0 <_ZSt16__throw_bad_castv@plt>
    cac2:	8d b4 26 00 00 00 00 	lea    0x0(%esi,%eiz,1),%esi
    cac9:	8d bc 27 00 00 00 00 	lea    0x0(%edi,%eiz,1),%edi

0000cad0 <_ZNK11MaterialLib5indexERKSs>:
    cad0:	55                   	push   %ebp
    cad1:	89 e5                	mov    %esp,%ebp
    cad3:	57                   	push   %edi
    cad4:	56                   	push   %esi
    cad5:	53                   	push   %ebx
    cad6:	e8 5e b3 ff ff       	call   7e39 <__i686.get_pc_thunk.bx>
    cadb:	81 c3 c9 c9 00 00    	add    $0xc9c9,%ebx
    cae1:	8d 64 24 a4          	lea    -0x5c(%esp),%esp
    cae5:	8b 55 08             	mov    0x8(%ebp),%edx
    cae8:	8b 45 08             	mov    0x8(%ebp),%eax
    caeb:	83 c0 10             	add    $0x10,%eax
    caee:	89 45 c4             	mov    %eax,-0x3c(%ebp)
    caf1:	89 45 c8             	mov    %eax,-0x38(%ebp)
    caf4:	8b 42 14             	mov    0x14(%edx),%eax
    caf7:	85 c0                	test   %eax,%eax
    caf9:	74 59                	je     cb54 <_ZNK11MaterialLib5indexERKSs+0x84>
    cafb:	8b 4d 0c             	mov    0xc(%ebp),%ecx
    cafe:	8b 09                	mov    (%ecx),%ecx
    cb00:	89 4d cc             	mov    %ecx,-0x34(%ebp)
    cb03:	8b 51 f4             	mov    -0xc(%ecx),%edx
    cb06:	89 55 d0             	mov    %edx,-0x30(%ebp)
    cb09:	eb 11                	jmp    cb1c <_ZNK11MaterialLib5indexERKSs+0x4c>
    cb0b:	90                   	nop
    cb0c:	8d 74 26 00          	lea    0x0(%esi,%eiz,1),%esi
    cb10:	8b 50 08             	mov    0x8(%eax),%edx
    cb13:	89 45 c8             	mov    %eax,-0x38(%ebp)
    cb16:	85 d2                	test   %edx,%edx
    cb18:	74 3a                	je     cb54 <_ZNK11MaterialLib5indexERKSs+0x84>
    cb1a:	89 d0                	mov    %edx,%eax
    cb1c:	8b 70 10             	mov    0x10(%eax),%esi
    cb1f:	8b 7d cc             	mov    -0x34(%ebp),%edi
    cb22:	8b 4e f4             	mov    -0xc(%esi),%ecx
    cb25:	39 4d d0             	cmp    %ecx,-0x30(%ebp)
    cb28:	89 4d b4             	mov    %ecx,-0x4c(%ebp)
    cb2b:	0f 46 4d d0          	cmovbe -0x30(%ebp),%ecx
    cb2f:	39 c9                	cmp    %ecx,%ecx
    cb31:	f3 a6                	repz cmpsb %es:(%edi),%ds:(%esi)
    cb33:	0f 97 c2             	seta   %dl
    cb36:	0f 92 c1             	setb   %cl
    cb39:	28 ca                	sub    %cl,%dl
    cb3b:	0f be f2             	movsbl %dl,%esi
    cb3e:	8b 55 b4             	mov    -0x4c(%ebp),%edx
    cb41:	2b 55 d0             	sub    -0x30(%ebp),%edx
    cb44:	85 f6                	test   %esi,%esi
    cb46:	0f 44 f2             	cmove  %edx,%esi
    cb49:	85 f6                	test   %esi,%esi
    cb4b:	79 c3                	jns    cb10 <_ZNK11MaterialLib5indexERKSs+0x40>
    cb4d:	8b 50 0c             	mov    0xc(%eax),%edx
    cb50:	85 d2                	test   %edx,%edx
    cb52:	75 c6                	jne    cb1a <_ZNK11MaterialLib5indexERKSs+0x4a>
    cb54:	8b 45 c8             	mov    -0x38(%ebp),%eax
    cb57:	39 45 c4             	cmp    %eax,-0x3c(%ebp)
    cb5a:	74 44                	je     cba0 <_ZNK11MaterialLib5indexERKSs+0xd0>
    cb5c:	8b 55 0c             	mov    0xc(%ebp),%edx
    cb5f:	8b 78 10             	mov    0x10(%eax),%edi
    cb62:	8b 32                	mov    (%edx),%esi
    cb64:	8b 57 f4             	mov    -0xc(%edi),%edx
    cb67:	89 55 d0             	mov    %edx,-0x30(%ebp)
    cb6a:	8b 4e f4             	mov    -0xc(%esi),%ecx
    cb6d:	39 ca                	cmp    %ecx,%edx
    cb6f:	89 4d cc             	mov    %ecx,-0x34(%ebp)
    cb72:	0f 46 ca             	cmovbe %edx,%ecx
    cb75:	39 c9                	cmp    %ecx,%ecx
    cb77:	f3 a6                	repz cmpsb %es:(%edi),%ds:(%esi)
    cb79:	0f 92 c2             	setb   %dl
    cb7c:	0f 97 c1             	seta   %cl
    cb7f:	28 d1                	sub    %dl,%cl
    cb81:	8b 55 cc             	mov    -0x34(%ebp),%edx
    cb84:	0f be c9             	movsbl %cl,%ecx
    cb87:	2b 55 d0             	sub    -0x30(%ebp),%edx
    cb8a:	85 c9                	test   %ecx,%ecx
    cb8c:	0f 44 ca             	cmove  %edx,%ecx
    cb8f:	85 c9                	test   %ecx,%ecx
    cb91:	78 0d                	js     cba0 <_ZNK11MaterialLib5indexERKSs+0xd0>
    cb93:	8b 40 14             	mov    0x14(%eax),%eax
    cb96:	8d 65 f4             	lea    -0xc(%ebp),%esp
    cb99:	5b                   	pop    %ebx
    cb9a:	5e                   	pop    %esi
    cb9b:	5f                   	pop    %edi
    cb9c:	5d                   	pop    %ebp
    cb9d:	c3                   	ret    
    cb9e:	66 90                	xchg   %ax,%ax
    cba0:	8b 4d 0c             	mov    0xc(%ebp),%ecx
    cba3:	8d 75 dc             	lea    -0x24(%ebp),%esi
    cba6:	89 4c 24 04          	mov    %ecx,0x4(%esp)
    cbaa:	89 34 24             	mov    %esi,(%esp)
    cbad:	e8 3e a6 ff ff       	call   71f0 <_ZNSsC1ERKSs@plt>
    cbb2:	8b 55 c8             	mov    -0x38(%ebp),%edx
    cbb5:	8d 45 d4             	lea    -0x2c(%ebp),%eax
    cbb8:	89 54 24 08          	mov    %edx,0x8(%esp)
    cbbc:	8b 55 08             	mov    0x8(%ebp),%edx
    cbbf:	83 c2 0c             	add    $0xc,%edx
    cbc2:	c7 45 e0 00 00 00 00 	movl   $0x0,-0x20(%ebp)
    cbc9:	89 74 24 0c          	mov    %esi,0xc(%esp)
    cbcd:	89 54 24 04          	mov    %edx,0x4(%esp)
    cbd1:	89 04 24             	mov    %eax,(%esp)
    cbd4:	e8 97 a8 ff ff       	call   7470 <_ZNSt8_Rb_treeISsSt4pairIKSsiESt10_Select1stIS2_ESt4lessISsESaIS2_EE17_M_insert_unique_ESt23_Rb_tree_const_iteratorIS2_ERKS2_@plt>
    cbd9:	8b 55 dc             	mov    -0x24(%ebp),%edx
    cbdc:	8d 64 24 fc          	lea    -0x4(%esp),%esp
    cbe0:	83 ea 0c             	sub    $0xc,%edx
    cbe3:	3b 93 94 ff ff ff    	cmp    -0x6c(%ebx),%edx
    cbe9:	8b 45 d4             	mov    -0x2c(%ebp),%eax
    cbec:	74 a5                	je     cb93 <_ZNK11MaterialLib5indexERKSs+0xc3>
    cbee:	83 bb a0 ff ff ff 00 	cmpl   $0x0,-0x60(%ebx)
    cbf5:	74 38                	je     cc2f <_ZNK11MaterialLib5indexERKSs+0x15f>
    cbf7:	83 c9 ff             	or     $0xffffffff,%ecx
    cbfa:	f0 0f c1 4a 08       	lock xadd %ecx,0x8(%edx)
    cbff:	85 c9                	test   %ecx,%ecx
    cc01:	7f 90                	jg     cb93 <_ZNK11MaterialLib5indexERKSs+0xc3>
    cc03:	8d 4d e7             	lea    -0x19(%ebp),%ecx
    cc06:	89 45 c0             	mov    %eax,-0x40(%ebp)
    cc09:	89 4c 24 04          	mov    %ecx,0x4(%esp)
    cc0d:	89 14 24             	mov    %edx,(%esp)
    cc10:	e8 3b a7 ff ff       	call   7350 <_ZNSs4_Rep10_M_destroyERKSaIcE@plt>
    cc15:	8b 45 c0             	mov    -0x40(%ebp),%eax
    cc18:	e9 76 ff ff ff       	jmp    cb93 <_ZNK11MaterialLib5indexERKSs+0xc3>
    cc1d:	89 c7                	mov    %eax,%edi
    cc1f:	89 34 24             	mov    %esi,(%esp)
    cc22:	e8 c9 ad ff ff       	call   79f0 <_ZNSsD1Ev@plt>
    cc27:	89 3c 24             	mov    %edi,(%esp)
    cc2a:	e8 51 af ff ff       	call   7b80 <_Unwind_Resume@plt>
    cc2f:	8b 4a 08             	mov    0x8(%edx),%ecx
    cc32:	8d 71 ff             	lea    -0x1(%ecx),%esi
    cc35:	89 72 08             	mov    %esi,0x8(%edx)
    cc38:	eb c5                	jmp    cbff <_ZNK11MaterialLib5indexERKSs+0x12f>
    cc3a:	8d b6 00 00 00 00    	lea    0x0(%esi),%esi

0000cc40 <_ZN11MaterialLib7readMtlEPKc>:
    cc40:	55                   	push   %ebp
    cc41:	89 e5                	mov    %esp,%ebp
    cc43:	57                   	push   %edi
    cc44:	56                   	push   %esi
    cc45:	8d b5 cc fe ff ff    	lea    -0x134(%ebp),%esi
    cc4b:	53                   	push   %ebx
    cc4c:	e8 e8 b1 ff ff       	call   7e39 <__i686.get_pc_thunk.bx>
    cc51:	81 c3 53 c8 00 00    	add    $0xc853,%ebx
    cc57:	8d a4 24 d4 fd ff ff 	lea    -0x22c(%esp),%esp
    cc5e:	8b 45 08             	mov    0x8(%ebp),%eax
    cc61:	8b 55 0c             	mov    0xc(%ebp),%edx
    cc64:	89 85 34 fe ff ff    	mov    %eax,-0x1cc(%ebp)
    cc6a:	89 95 40 fe ff ff    	mov    %edx,-0x1c0(%ebp)
    cc70:	8d 85 5c ff ff ff    	lea    -0xa4(%ebp),%eax
    cc76:	65 8b 0d 14 00 00 00 	mov    %gs:0x14,%ecx
    cc7d:	89 4d e4             	mov    %ecx,-0x1c(%ebp)
    cc80:	31 c9                	xor    %ecx,%ecx
    cc82:	89 b5 28 fe ff ff    	mov    %esi,-0x1d8(%ebp)
    cc88:	89 85 10 fe ff ff    	mov    %eax,-0x1f0(%ebp)
    cc8e:	89 04 24             	mov    %eax,(%esp)
    cc91:	e8 8a a3 ff ff       	call   7020 <_ZNSt8ios_baseC2Ev@plt>
    cc96:	8b 8b f8 ff ff ff    	mov    -0x8(%ebx),%ecx
    cc9c:	8b 93 90 ff ff ff    	mov    -0x70(%ebx),%edx
    cca2:	c6 45 d0 00          	movb   $0x0,-0x30(%ebp)
    cca6:	c7 45 cc 00 00 00 00 	movl   $0x0,-0x34(%ebp)
    ccad:	c6 45 d1 00          	movb   $0x0,-0x2f(%ebp)
    ccb1:	c7 45 d4 00 00 00 00 	movl   $0x0,-0x2c(%ebp)
    ccb8:	c7 45 d8 00 00 00 00 	movl   $0x0,-0x28(%ebp)
    ccbf:	c7 45 dc 00 00 00 00 	movl   $0x0,-0x24(%ebp)
    ccc6:	8b 71 04             	mov    0x4(%ecx),%esi
    ccc9:	8d 42 08             	lea    0x8(%edx),%eax
    cccc:	89 85 5c ff ff ff    	mov    %eax,-0xa4(%ebp)
    ccd2:	8b 79 08             	mov    0x8(%ecx),%edi
    ccd5:	89 b5 cc fe ff ff    	mov    %esi,-0x134(%ebp)
    ccdb:	c7 45 e0 00 00 00 00 	movl   $0x0,-0x20(%ebp)
    cce2:	8b 46 f4             	mov    -0xc(%esi),%eax
    cce5:	c7 85 d0 fe ff ff 00 	movl   $0x0,-0x130(%ebp)
    ccec:	00 00 00 
    ccef:	c7 44 24 04 00 00 00 	movl   $0x0,0x4(%esp)
    ccf6:	00 
    ccf7:	89 bc 05 cc fe ff ff 	mov    %edi,-0x134(%ebp,%eax,1)
    ccfe:	8b 85 cc fe ff ff    	mov    -0x134(%ebp),%eax
    cd04:	8b 40 f4             	mov    -0xc(%eax),%eax
    cd07:	03 85 28 fe ff ff    	add    -0x1d8(%ebp),%eax
    cd0d:	89 04 24             	mov    %eax,(%esp)
    cd10:	e8 8b aa ff ff       	call   77a0 <_ZNSt9basic_iosIcSt11char_traitsIcEE4initEPSt15basic_streambufIcS1_E@plt>
    cd15:	8b 93 c8 ff ff ff    	mov    -0x38(%ebx),%edx
    cd1b:	8d 8d d4 fe ff ff    	lea    -0x12c(%ebp),%ecx
    cd21:	89 8d 14 fe ff ff    	mov    %ecx,-0x1ec(%ebp)
    cd27:	89 0c 24             	mov    %ecx,(%esp)
    cd2a:	8d 42 0c             	lea    0xc(%edx),%eax
    cd2d:	89 85 cc fe ff ff    	mov    %eax,-0x134(%ebp)
    cd33:	8d 42 20             	lea    0x20(%edx),%eax
    cd36:	89 85 5c ff ff ff    	mov    %eax,-0xa4(%ebp)
    cd3c:	e8 bf a7 ff ff       	call   7500 <_ZNSt13basic_filebufIcSt11char_traitsIcEEC1Ev@plt>
    cd41:	8b 85 14 fe ff ff    	mov    -0x1ec(%ebp),%eax
    cd47:	8b 95 10 fe ff ff    	mov    -0x1f0(%ebp),%edx
    cd4d:	89 44 24 04          	mov    %eax,0x4(%esp)
    cd51:	89 14 24             	mov    %edx,(%esp)
    cd54:	e8 47 aa ff ff       	call   77a0 <_ZNSt9basic_iosIcSt11char_traitsIcEE4initEPSt15basic_streambufIcS1_E@plt>
    cd59:	8b 8d 40 fe ff ff    	mov    -0x1c0(%ebp),%ecx
    cd5f:	8b 85 14 fe ff ff    	mov    -0x1ec(%ebp),%eax
    cd65:	c7 44 24 08 08 00 00 	movl   $0x8,0x8(%esp)
    cd6c:	00 
    cd6d:	89 4c 24 04          	mov    %ecx,0x4(%esp)
    cd71:	89 04 24             	mov    %eax,(%esp)
    cd74:	e8 b7 a6 ff ff       	call   7430 <_ZNSt13basic_filebufIcSt11char_traitsIcEE4openEPKcSt13_Ios_Openmode@plt>
    cd79:	85 c0                	test   %eax,%eax
    cd7b:	0f 84 f0 07 00 00    	je     d571 <_ZN11MaterialLib7readMtlEPKc+0x931>
    cd81:	8b 85 cc fe ff ff    	mov    -0x134(%ebp),%eax
    cd87:	c7 44 24 04 00 00 00 	movl   $0x0,0x4(%esp)
    cd8e:	00 
    cd8f:	8b 40 f4             	mov    -0xc(%eax),%eax
    cd92:	03 85 28 fe ff ff    	add    -0x1d8(%ebp),%eax
    cd98:	89 04 24             	mov    %eax,(%esp)
    cd9b:	e8 70 ad ff ff       	call   7b10 <_ZNSt9basic_iosIcSt11char_traitsIcEE5clearESt12_Ios_Iostate@plt>
    cda0:	f6 85 70 ff ff ff 05 	testb  $0x5,-0x90(%ebp)
    cda7:	0f 85 03 07 00 00    	jne    d4b0 <_ZN11MaterialLib7readMtlEPKc+0x870>
    cdad:	8b 93 94 ff ff ff    	mov    -0x6c(%ebx),%edx
    cdb3:	8b b5 28 fe ff ff    	mov    -0x1d8(%ebp),%esi
    cdb9:	83 c2 0c             	add    $0xc,%edx
    cdbc:	8d 8d c4 fe ff ff    	lea    -0x13c(%ebp),%ecx
    cdc2:	89 95 1c fe ff ff    	mov    %edx,-0x1e4(%ebp)
    cdc8:	89 95 c4 fe ff ff    	mov    %edx,-0x13c(%ebp)
    cdce:	89 8d 30 fe ff ff    	mov    %ecx,-0x1d0(%ebp)
    cdd4:	89 4c 24 04          	mov    %ecx,0x4(%esp)
    cdd8:	89 34 24             	mov    %esi,(%esp)
    cddb:	e8 10 a3 ff ff       	call   70f0 <_ZStrsIcSt11char_traitsIcESaIcEERSt13basic_istreamIT_T0_ES7_RSbIS4_S5_T1_E@plt>
    cde0:	8b 85 34 fe ff ff    	mov    -0x1cc(%ebp),%eax
    cde6:	8b 95 34 fe ff ff    	mov    -0x1cc(%ebp),%edx
    cdec:	83 c0 10             	add    $0x10,%eax
    cdef:	83 c2 0c             	add    $0xc,%edx
    cdf2:	89 85 24 fe ff ff    	mov    %eax,-0x1dc(%ebp)
    cdf8:	31 f6                	xor    %esi,%esi
    cdfa:	8b 83 a0 ff ff ff    	mov    -0x60(%ebx),%eax
    ce00:	f6 85 70 ff ff ff 02 	testb  $0x2,-0x90(%ebp)
    ce07:	8d 8b 5f c0 ff ff    	lea    -0x3fa1(%ebx),%ecx
    ce0d:	89 95 18 fe ff ff    	mov    %edx,-0x1e8(%ebp)
    ce13:	89 8d 20 fe ff ff    	mov    %ecx,-0x1e0(%ebp)
    ce19:	89 85 0c fe ff ff    	mov    %eax,-0x1f4(%ebp)
    ce1f:	89 85 08 fe ff ff    	mov    %eax,-0x1f8(%ebp)
    ce25:	0f 85 46 03 00 00    	jne    d171 <_ZN11MaterialLib7readMtlEPKc+0x531>
    ce2b:	90                   	nop
    ce2c:	8d 74 26 00          	lea    0x0(%esi,%eiz,1),%esi
    ce30:	8b 95 20 fe ff ff    	mov    -0x1e0(%ebp),%edx
    ce36:	8b 8d 30 fe ff ff    	mov    -0x1d0(%ebp),%ecx
    ce3c:	89 54 24 04          	mov    %edx,0x4(%esp)
    ce40:	89 0c 24             	mov    %ecx,(%esp)
    ce43:	e8 e8 a0 ff ff       	call   6f30 <_ZNKSs7compareEPKc@plt>
    ce48:	85 c0                	test   %eax,%eax
    ce4a:	0f 85 f8 03 00 00    	jne    d248 <_ZN11MaterialLib7readMtlEPKc+0x608>
    ce50:	8b b5 1c fe ff ff    	mov    -0x1e4(%ebp),%esi
    ce56:	8b 95 28 fe ff ff    	mov    -0x1d8(%ebp),%edx
    ce5c:	8d 85 c0 fe ff ff    	lea    -0x140(%ebp),%eax
    ce62:	89 b5 c0 fe ff ff    	mov    %esi,-0x140(%ebp)
    ce68:	89 85 2c fe ff ff    	mov    %eax,-0x1d4(%ebp)
    ce6e:	89 44 24 04          	mov    %eax,0x4(%esp)
    ce72:	89 14 24             	mov    %edx,(%esp)
    ce75:	e8 76 a2 ff ff       	call   70f0 <_ZStrsIcSt11char_traitsIcESaIcEERSt13basic_istreamIT_T0_ES7_RSbIS4_S5_T1_E@plt>
    ce7a:	8b 8d 34 fe ff ff    	mov    -0x1cc(%ebp),%ecx
    ce80:	8b 49 14             	mov    0x14(%ecx),%ecx
    ce83:	85 c9                	test   %ecx,%ecx
    ce85:	89 8d 40 fe ff ff    	mov    %ecx,-0x1c0(%ebp)
    ce8b:	0f 84 71 05 00 00    	je     d402 <_ZN11MaterialLib7readMtlEPKc+0x7c2>
    ce91:	8b b5 c0 fe ff ff    	mov    -0x140(%ebp),%esi
    ce97:	8b 85 24 fe ff ff    	mov    -0x1dc(%ebp),%eax
    ce9d:	89 85 3c fe ff ff    	mov    %eax,-0x1c4(%ebp)
    cea3:	89 b5 38 fe ff ff    	mov    %esi,-0x1c8(%ebp)
    cea9:	89 c8                	mov    %ecx,%eax
    ceab:	8b 56 f4             	mov    -0xc(%esi),%edx
    ceae:	89 95 40 fe ff ff    	mov    %edx,-0x1c0(%ebp)
    ceb4:	eb 11                	jmp    cec7 <_ZN11MaterialLib7readMtlEPKc+0x287>
    ceb6:	66 90                	xchg   %ax,%ax
    ceb8:	8b 50 08             	mov    0x8(%eax),%edx
    cebb:	85 d2                	test   %edx,%edx
    cebd:	74 5a                	je     cf19 <_ZN11MaterialLib7readMtlEPKc+0x2d9>
    cebf:	89 85 3c fe ff ff    	mov    %eax,-0x1c4(%ebp)
    cec5:	89 d0                	mov    %edx,%eax
    cec7:	8b 70 10             	mov    0x10(%eax),%esi
    ceca:	8b bd 38 fe ff ff    	mov    -0x1c8(%ebp),%edi
    ced0:	8b 56 f4             	mov    -0xc(%esi),%edx
    ced3:	39 95 40 fe ff ff    	cmp    %edx,-0x1c0(%ebp)
    ced9:	89 d1                	mov    %edx,%ecx
    cedb:	0f 46 8d 40 fe ff ff 	cmovbe -0x1c0(%ebp),%ecx
    cee2:	89 95 f4 fd ff ff    	mov    %edx,-0x20c(%ebp)
    cee8:	39 c9                	cmp    %ecx,%ecx
    ceea:	f3 a6                	repz cmpsb %es:(%edi),%ds:(%esi)
    ceec:	0f 92 c2             	setb   %dl
    ceef:	0f 97 c1             	seta   %cl
    cef2:	28 d1                	sub    %dl,%cl
    cef4:	8b 95 f4 fd ff ff    	mov    -0x20c(%ebp),%edx
    cefa:	0f be f1             	movsbl %cl,%esi
    cefd:	2b 95 40 fe ff ff    	sub    -0x1c0(%ebp),%edx
    cf03:	85 f6                	test   %esi,%esi
    cf05:	0f 44 f2             	cmove  %edx,%esi
    cf08:	85 f6                	test   %esi,%esi
    cf0a:	79 ac                	jns    ceb8 <_ZN11MaterialLib7readMtlEPKc+0x278>
    cf0c:	8b 50 0c             	mov    0xc(%eax),%edx
    cf0f:	8b 85 3c fe ff ff    	mov    -0x1c4(%ebp),%eax
    cf15:	85 d2                	test   %edx,%edx
    cf17:	75 a6                	jne    cebf <_ZN11MaterialLib7readMtlEPKc+0x27f>
    cf19:	89 85 40 fe ff ff    	mov    %eax,-0x1c0(%ebp)
    cf1f:	8b 85 40 fe ff ff    	mov    -0x1c0(%ebp),%eax
    cf25:	39 85 24 fe ff ff    	cmp    %eax,-0x1dc(%ebp)
    cf2b:	0f 84 7f 03 00 00    	je     d2b0 <_ZN11MaterialLib7readMtlEPKc+0x670>
    cf31:	8b b5 c0 fe ff ff    	mov    -0x140(%ebp),%esi
    cf37:	8b 78 10             	mov    0x10(%eax),%edi
    cf3a:	8b 56 f4             	mov    -0xc(%esi),%edx
    cf3d:	8b 4f f4             	mov    -0xc(%edi),%ecx
    cf40:	89 8d 3c fe ff ff    	mov    %ecx,-0x1c4(%ebp)
    cf46:	39 d1                	cmp    %edx,%ecx
    cf48:	89 d1                	mov    %edx,%ecx
    cf4a:	0f 46 8d 3c fe ff ff 	cmovbe -0x1c4(%ebp),%ecx
    cf51:	89 95 38 fe ff ff    	mov    %edx,-0x1c8(%ebp)
    cf57:	39 c9                	cmp    %ecx,%ecx
    cf59:	f3 a6                	repz cmpsb %es:(%edi),%ds:(%esi)
    cf5b:	0f 92 c1             	setb   %cl
    cf5e:	0f 97 c2             	seta   %dl
    cf61:	89 ce                	mov    %ecx,%esi
    cf63:	89 d1                	mov    %edx,%ecx
    cf65:	89 f2                	mov    %esi,%edx
    cf67:	28 d1                	sub    %dl,%cl
    cf69:	8b 95 38 fe ff ff    	mov    -0x1c8(%ebp),%edx
    cf6f:	0f be c9             	movsbl %cl,%ecx
    cf72:	2b 95 3c fe ff ff    	sub    -0x1c4(%ebp),%edx
    cf78:	85 c9                	test   %ecx,%ecx
    cf7a:	0f 44 ca             	cmove  %edx,%ecx
    cf7d:	85 c9                	test   %ecx,%ecx
    cf7f:	0f 88 2b 03 00 00    	js     d2b0 <_ZN11MaterialLib7readMtlEPKc+0x670>
    cf85:	8b b5 34 fe ff ff    	mov    -0x1cc(%ebp),%esi
    cf8b:	8b 56 04             	mov    0x4(%esi),%edx
    cf8e:	2b 16                	sub    (%esi),%edx
    cf90:	c1 fa 03             	sar    $0x3,%edx
    cf93:	8d b5 84 fe ff ff    	lea    -0x17c(%ebp),%esi
    cf99:	69 d2 b7 6d db b6    	imul   $0xb6db6db7,%edx,%edx
    cf9f:	89 50 14             	mov    %edx,0x14(%eax)
    cfa2:	c7 44 24 10 00 00 80 	movl   $0x3f800000,0x10(%esp)
    cfa9:	3f 
    cfaa:	c7 44 24 0c 00 00 80 	movl   $0x3f800000,0xc(%esp)
    cfb1:	3f 
    cfb2:	c7 44 24 08 00 00 80 	movl   $0x3f800000,0x8(%esp)
    cfb9:	3f 
    cfba:	c7 44 24 04 00 00 80 	movl   $0x3f800000,0x4(%esp)
    cfc1:	3f 
    cfc2:	89 34 24             	mov    %esi,(%esp)
    cfc5:	e8 96 a4 ff ff       	call   7460 <_ZN5ColorC1Effff@plt>
    cfca:	8d bd 94 fe ff ff    	lea    -0x16c(%ebp),%edi
    cfd0:	c7 44 24 10 00 00 80 	movl   $0x3f800000,0x10(%esp)
    cfd7:	3f 
    cfd8:	c7 44 24 0c cd cc 4c 	movl   $0x3f4ccccd,0xc(%esp)
    cfdf:	3f 
    cfe0:	c7 44 24 08 cd cc 4c 	movl   $0x3f4ccccd,0x8(%esp)
    cfe7:	3f 
    cfe8:	c7 44 24 04 cd cc 4c 	movl   $0x3f4ccccd,0x4(%esp)
    cfef:	3f 
    cff0:	89 3c 24             	mov    %edi,(%esp)
    cff3:	e8 68 a4 ff ff       	call   7460 <_ZN5ColorC1Effff@plt>
    cff8:	8d 85 a4 fe ff ff    	lea    -0x15c(%ebp),%eax
    cffe:	c7 44 24 10 00 00 80 	movl   $0x3f800000,0x10(%esp)
    d005:	3f 
    d006:	c7 44 24 0c cd cc 4c 	movl   $0x3e4ccccd,0xc(%esp)
    d00d:	3e 
    d00e:	c7 44 24 08 cd cc 4c 	movl   $0x3e4ccccd,0x8(%esp)
    d015:	3e 
    d016:	c7 44 24 04 cd cc 4c 	movl   $0x3e4ccccd,0x4(%esp)
    d01d:	3e 
    d01e:	89 85 40 fe ff ff    	mov    %eax,-0x1c0(%ebp)
    d024:	89 04 24             	mov    %eax,(%esp)
    d027:	e8 34 a4 ff ff       	call   7460 <_ZN5ColorC1Effff@plt>
    d02c:	8b 95 40 fe ff ff    	mov    -0x1c0(%ebp),%edx
    d032:	8b 8d 2c fe ff ff    	mov    -0x1d4(%ebp),%ecx
    d038:	89 7c 24 0c          	mov    %edi,0xc(%esp)
    d03c:	c7 44 24 14 00 00 20 	movl   $0x41200000,0x14(%esp)
    d043:	41 
    d044:	8d bd 4c fe ff ff    	lea    -0x1b4(%ebp),%edi
    d04a:	89 74 24 10          	mov    %esi,0x10(%esp)
    d04e:	89 54 24 08          	mov    %edx,0x8(%esp)
    d052:	89 4c 24 04          	mov    %ecx,0x4(%esp)
    d056:	89 3c 24             	mov    %edi,(%esp)
    d059:	e8 e2 a7 ff ff       	call   7840 <_ZN8MaterialC1ERKSsRK5ColorS4_S4_f@plt>
    d05e:	8b 85 34 fe ff ff    	mov    -0x1cc(%ebp),%eax
    d064:	8b 70 04             	mov    0x4(%eax),%esi
    d067:	3b 70 08             	cmp    0x8(%eax),%esi
    d06a:	0f 84 a3 03 00 00    	je     d413 <_ZN11MaterialLib7readMtlEPKc+0x7d3>
    d070:	85 f6                	test   %esi,%esi
    d072:	0f 84 40 03 00 00    	je     d3b8 <_ZN11MaterialLib7readMtlEPKc+0x778>
    d078:	89 7c 24 04          	mov    %edi,0x4(%esp)
    d07c:	89 34 24             	mov    %esi,(%esp)
    d07f:	e8 6c a1 ff ff       	call   71f0 <_ZNSsC1ERKSs@plt>
    d084:	8b 85 50 fe ff ff    	mov    -0x1b0(%ebp),%eax
    d08a:	89 46 04             	mov    %eax,0x4(%esi)
    d08d:	8b 85 54 fe ff ff    	mov    -0x1ac(%ebp),%eax
    d093:	89 46 08             	mov    %eax,0x8(%esi)
    d096:	8b 85 58 fe ff ff    	mov    -0x1a8(%ebp),%eax
    d09c:	89 46 0c             	mov    %eax,0xc(%esi)
    d09f:	8b 85 5c fe ff ff    	mov    -0x1a4(%ebp),%eax
    d0a5:	89 46 10             	mov    %eax,0x10(%esi)
    d0a8:	8b 85 60 fe ff ff    	mov    -0x1a0(%ebp),%eax
    d0ae:	89 46 14             	mov    %eax,0x14(%esi)
    d0b1:	8b 85 64 fe ff ff    	mov    -0x19c(%ebp),%eax
    d0b7:	89 46 18             	mov    %eax,0x18(%esi)
    d0ba:	8b 85 68 fe ff ff    	mov    -0x198(%ebp),%eax
    d0c0:	89 46 1c             	mov    %eax,0x1c(%esi)
    d0c3:	8b 85 6c fe ff ff    	mov    -0x194(%ebp),%eax
    d0c9:	89 46 20             	mov    %eax,0x20(%esi)
    d0cc:	8b 85 70 fe ff ff    	mov    -0x190(%ebp),%eax
    d0d2:	89 46 24             	mov    %eax,0x24(%esi)
    d0d5:	8b 85 74 fe ff ff    	mov    -0x18c(%ebp),%eax
    d0db:	89 46 28             	mov    %eax,0x28(%esi)
    d0de:	8b 85 78 fe ff ff    	mov    -0x188(%ebp),%eax
    d0e4:	89 46 2c             	mov    %eax,0x2c(%esi)
    d0e7:	8b 85 7c fe ff ff    	mov    -0x184(%ebp),%eax
    d0ed:	89 46 30             	mov    %eax,0x30(%esi)
    d0f0:	8b 85 80 fe ff ff    	mov    -0x180(%ebp),%eax
    d0f6:	89 46 34             	mov    %eax,0x34(%esi)
    d0f9:	8b 95 34 fe ff ff    	mov    -0x1cc(%ebp),%edx
    d0ff:	8b 42 04             	mov    0x4(%edx),%eax
    d102:	8b 8d 34 fe ff ff    	mov    -0x1cc(%ebp),%ecx
    d108:	8d 40 38             	lea    0x38(%eax),%eax
    d10b:	89 41 04             	mov    %eax,0x4(%ecx)
    d10e:	8b 85 4c fe ff ff    	mov    -0x1b4(%ebp),%eax
    d114:	83 e8 0c             	sub    $0xc,%eax
    d117:	3b 83 94 ff ff ff    	cmp    -0x6c(%ebx),%eax
    d11d:	0f 85 03 06 00 00    	jne    d726 <_ZN11MaterialLib7readMtlEPKc+0xae6>
    d123:	8b 85 34 fe ff ff    	mov    -0x1cc(%ebp),%eax
    d129:	8b 10                	mov    (%eax),%edx
    d12b:	8b 40 04             	mov    0x4(%eax),%eax
    d12e:	29 d0                	sub    %edx,%eax
    d130:	c1 f8 03             	sar    $0x3,%eax
    d133:	8d 74 c2 c8          	lea    -0x38(%edx,%eax,8),%esi
    d137:	8b 85 c0 fe ff ff    	mov    -0x140(%ebp),%eax
    d13d:	83 e8 0c             	sub    $0xc,%eax
    d140:	39 83 94 ff ff ff    	cmp    %eax,-0x6c(%ebx)
    d146:	0f 85 aa 05 00 00    	jne    d6f6 <_ZN11MaterialLib7readMtlEPKc+0xab6>
    d14c:	8b 85 30 fe ff ff    	mov    -0x1d0(%ebp),%eax
    d152:	8b 95 28 fe ff ff    	mov    -0x1d8(%ebp),%edx
    d158:	89 44 24 04          	mov    %eax,0x4(%esp)
    d15c:	89 14 24             	mov    %edx,(%esp)
    d15f:	e8 8c 9f ff ff       	call   70f0 <_ZStrsIcSt11char_traitsIcESaIcEERSt13basic_istreamIT_T0_ES7_RSbIS4_S5_T1_E@plt>
    d164:	f6 85 70 ff ff ff 02 	testb  $0x2,-0x90(%ebp)
    d16b:	0f 84 bf fc ff ff    	je     ce30 <_ZN11MaterialLib7readMtlEPKc+0x1f0>
    d171:	8b 85 c4 fe ff ff    	mov    -0x13c(%ebp),%eax
    d177:	83 e8 0c             	sub    $0xc,%eax
    d17a:	3b 83 94 ff ff ff    	cmp    -0x6c(%ebx),%eax
    d180:	0f 85 c4 04 00 00    	jne    d64a <_ZN11MaterialLib7readMtlEPKc+0xa0a>
    d186:	8b 93 c8 ff ff ff    	mov    -0x38(%ebx),%edx
    d18c:	8b 8d 14 fe ff ff    	mov    -0x1ec(%ebp),%ecx
    d192:	89 0c 24             	mov    %ecx,(%esp)
    d195:	8d 42 0c             	lea    0xc(%edx),%eax
    d198:	89 85 cc fe ff ff    	mov    %eax,-0x134(%ebp)
    d19e:	8d 42 20             	lea    0x20(%edx),%eax
    d1a1:	89 85 5c ff ff ff    	mov    %eax,-0xa4(%ebp)
    d1a7:	8b 83 e4 ff ff ff    	mov    -0x1c(%ebx),%eax
    d1ad:	83 c0 08             	add    $0x8,%eax
    d1b0:	89 85 d4 fe ff ff    	mov    %eax,-0x12c(%ebp)
    d1b6:	e8 95 9d ff ff       	call   6f50 <_ZNSt13basic_filebufIcSt11char_traitsIcEE5closeEv@plt>
    d1bb:	8d 85 0c ff ff ff    	lea    -0xf4(%ebp),%eax
    d1c1:	89 04 24             	mov    %eax,(%esp)
    d1c4:	e8 67 aa ff ff       	call   7c30 <_ZNSt12__basic_fileIcED1Ev@plt>
    d1c9:	8b 83 bc ff ff ff    	mov    -0x44(%ebx),%eax
    d1cf:	83 c0 08             	add    $0x8,%eax
    d1d2:	89 85 d4 fe ff ff    	mov    %eax,-0x12c(%ebp)
    d1d8:	8d 85 f0 fe ff ff    	lea    -0x110(%ebp),%eax
    d1de:	89 04 24             	mov    %eax,(%esp)
    d1e1:	e8 8a a6 ff ff       	call   7870 <_ZNSt6localeD1Ev@plt>
    d1e6:	8b 8b f8 ff ff ff    	mov    -0x8(%ebx),%ecx
    d1ec:	8b b5 28 fe ff ff    	mov    -0x1d8(%ebp),%esi
    d1f2:	8b 41 04             	mov    0x4(%ecx),%eax
    d1f5:	8b 51 08             	mov    0x8(%ecx),%edx
    d1f8:	89 85 cc fe ff ff    	mov    %eax,-0x134(%ebp)
    d1fe:	8b 8d 10 fe ff ff    	mov    -0x1f0(%ebp),%ecx
    d204:	8b 40 f4             	mov    -0xc(%eax),%eax
    d207:	c7 85 d0 fe ff ff 00 	movl   $0x0,-0x130(%ebp)
    d20e:	00 00 00 
    d211:	89 14 06             	mov    %edx,(%esi,%eax,1)
    d214:	8b 93 90 ff ff ff    	mov    -0x70(%ebx),%edx
    d21a:	89 0c 24             	mov    %ecx,(%esp)
    d21d:	8d 42 08             	lea    0x8(%edx),%eax
    d220:	89 85 5c ff ff ff    	mov    %eax,-0xa4(%ebp)
    d226:	e8 55 9e ff ff       	call   7080 <_ZNSt8ios_baseD2Ev@plt>
    d22b:	8b 75 e4             	mov    -0x1c(%ebp),%esi
    d22e:	65 33 35 14 00 00 00 	xor    %gs:0x14,%esi
    d235:	0f 85 31 05 00 00    	jne    d76c <_ZN11MaterialLib7readMtlEPKc+0xb2c>
    d23b:	8d 65 f4             	lea    -0xc(%ebp),%esp
    d23e:	5b                   	pop    %ebx
    d23f:	5e                   	pop    %esi
    d240:	5f                   	pop    %edi
    d241:	5d                   	pop    %ebp
    d242:	c3                   	ret    
    d243:	90                   	nop
    d244:	8d 74 26 00          	lea    0x0(%esi,%eiz,1),%esi
    d248:	8d 83 66 c0 ff ff    	lea    -0x3f9a(%ebx),%eax
    d24e:	89 44 24 04          	mov    %eax,0x4(%esp)
    d252:	8b 85 30 fe ff ff    	mov    -0x1d0(%ebp),%eax
    d258:	89 04 24             	mov    %eax,(%esp)
    d25b:	e8 d0 9c ff ff       	call   6f30 <_ZNKSs7compareEPKc@plt>
    d260:	85 c0                	test   %eax,%eax
    d262:	0f 85 f0 00 00 00    	jne    d358 <_ZN11MaterialLib7readMtlEPKc+0x718>
    d268:	8b 8d 28 fe ff ff    	mov    -0x1d8(%ebp),%ecx
    d26e:	8d 56 0c             	lea    0xc(%esi),%edx
    d271:	8d 46 04             	lea    0x4(%esi),%eax
    d274:	89 95 40 fe ff ff    	mov    %edx,-0x1c0(%ebp)
    d27a:	8d 7e 08             	lea    0x8(%esi),%edi
    d27d:	89 44 24 04          	mov    %eax,0x4(%esp)
    d281:	89 0c 24             	mov    %ecx,(%esp)
    d284:	e8 97 aa ff ff       	call   7d20 <_ZNSi10_M_extractIfEERSiRT_@plt>
    d289:	89 7c 24 04          	mov    %edi,0x4(%esp)
    d28d:	89 04 24             	mov    %eax,(%esp)
    d290:	e8 8b aa ff ff       	call   7d20 <_ZNSi10_M_extractIfEERSiRT_@plt>
    d295:	8b 95 40 fe ff ff    	mov    -0x1c0(%ebp),%edx
    d29b:	89 04 24             	mov    %eax,(%esp)
    d29e:	89 54 24 04          	mov    %edx,0x4(%esp)
    d2a2:	e8 79 aa ff ff       	call   7d20 <_ZNSi10_M_extractIfEERSiRT_@plt>
    d2a7:	e9 a0 fe ff ff       	jmp    d14c <_ZN11MaterialLib7readMtlEPKc+0x50c>
    d2ac:	8d 74 26 00          	lea    0x0(%esi,%eiz,1),%esi
    d2b0:	8b 8d 2c fe ff ff    	mov    -0x1d4(%ebp),%ecx
    d2b6:	8d b5 b4 fe ff ff    	lea    -0x14c(%ebp),%esi
    d2bc:	89 4c 24 04          	mov    %ecx,0x4(%esp)
    d2c0:	89 34 24             	mov    %esi,(%esp)
    d2c3:	e8 28 9f ff ff       	call   71f0 <_ZNSsC1ERKSs@plt>
    d2c8:	8b 95 40 fe ff ff    	mov    -0x1c0(%ebp),%edx
    d2ce:	8b 8d 18 fe ff ff    	mov    -0x1e8(%ebp),%ecx
    d2d4:	8d 85 44 fe ff ff    	lea    -0x1bc(%ebp),%eax
    d2da:	c7 85 b8 fe ff ff 00 	movl   $0x0,-0x148(%ebp)
    d2e1:	00 00 00 
    d2e4:	89 74 24 0c          	mov    %esi,0xc(%esp)
    d2e8:	89 54 24 08          	mov    %edx,0x8(%esp)
    d2ec:	89 4c 24 04          	mov    %ecx,0x4(%esp)
    d2f0:	89 04 24             	mov    %eax,(%esp)
    d2f3:	e8 78 a1 ff ff       	call   7470 <_ZNSt8_Rb_treeISsSt4pairIKSsiESt10_Select1stIS2_ESt4lessISsESaIS2_EE17_M_insert_unique_ESt23_Rb_tree_const_iteratorIS2_ERKS2_@plt>
    d2f8:	8b 95 b4 fe ff ff    	mov    -0x14c(%ebp),%edx
    d2fe:	8d 64 24 fc          	lea    -0x4(%esp),%esp
    d302:	83 ea 0c             	sub    $0xc,%edx
    d305:	3b 93 94 ff ff ff    	cmp    -0x6c(%ebx),%edx
    d30b:	8b 85 44 fe ff ff    	mov    -0x1bc(%ebp),%eax
    d311:	0f 84 6e fc ff ff    	je     cf85 <_ZN11MaterialLib7readMtlEPKc+0x345>
    d317:	83 bd 08 fe ff ff 00 	cmpl   $0x0,-0x1f8(%ebp)
    d31e:	0f 84 c4 03 00 00    	je     d6e8 <_ZN11MaterialLib7readMtlEPKc+0xaa8>
    d324:	83 c9 ff             	or     $0xffffffff,%ecx
    d327:	f0 0f c1 4a 08       	lock xadd %ecx,0x8(%edx)
    d32c:	85 c9                	test   %ecx,%ecx
    d32e:	0f 8f 51 fc ff ff    	jg     cf85 <_ZN11MaterialLib7readMtlEPKc+0x345>
    d334:	8d 8d cb fe ff ff    	lea    -0x135(%ebp),%ecx
    d33a:	89 85 04 fe ff ff    	mov    %eax,-0x1fc(%ebp)
    d340:	89 4c 24 04          	mov    %ecx,0x4(%esp)
    d344:	89 14 24             	mov    %edx,(%esp)
    d347:	e8 04 a0 ff ff       	call   7350 <_ZNSs4_Rep10_M_destroyERKSaIcE@plt>
    d34c:	8b 85 04 fe ff ff    	mov    -0x1fc(%ebp),%eax
    d352:	e9 2e fc ff ff       	jmp    cf85 <_ZN11MaterialLib7readMtlEPKc+0x345>
    d357:	90                   	nop
    d358:	8b 8d 30 fe ff ff    	mov    -0x1d0(%ebp),%ecx
    d35e:	8d 83 69 c0 ff ff    	lea    -0x3f97(%ebx),%eax
    d364:	89 0c 24             	mov    %ecx,(%esp)
    d367:	89 44 24 04          	mov    %eax,0x4(%esp)
    d36b:	e8 c0 9b ff ff       	call   6f30 <_ZNKSs7compareEPKc@plt>
    d370:	85 c0                	test   %eax,%eax
    d372:	75 4c                	jne    d3c0 <_ZN11MaterialLib7readMtlEPKc+0x780>
    d374:	8b 95 28 fe ff ff    	mov    -0x1d8(%ebp),%edx
    d37a:	8d 46 1c             	lea    0x1c(%esi),%eax
    d37d:	8d 7e 18             	lea    0x18(%esi),%edi
    d380:	89 85 40 fe ff ff    	mov    %eax,-0x1c0(%ebp)
    d386:	89 14 24             	mov    %edx,(%esp)
    d389:	8d 46 14             	lea    0x14(%esi),%eax
    d38c:	89 44 24 04          	mov    %eax,0x4(%esp)
    d390:	e8 8b a9 ff ff       	call   7d20 <_ZNSi10_M_extractIfEERSiRT_@plt>
    d395:	89 7c 24 04          	mov    %edi,0x4(%esp)
    d399:	89 04 24             	mov    %eax,(%esp)
    d39c:	e8 7f a9 ff ff       	call   7d20 <_ZNSi10_M_extractIfEERSiRT_@plt>
    d3a1:	8b 8d 40 fe ff ff    	mov    -0x1c0(%ebp),%ecx
    d3a7:	89 04 24             	mov    %eax,(%esp)
    d3aa:	89 4c 24 04          	mov    %ecx,0x4(%esp)
    d3ae:	e8 6d a9 ff ff       	call   7d20 <_ZNSi10_M_extractIfEERSiRT_@plt>
    d3b3:	e9 94 fd ff ff       	jmp    d14c <_ZN11MaterialLib7readMtlEPKc+0x50c>
    d3b8:	31 c0                	xor    %eax,%eax
    d3ba:	e9 43 fd ff ff       	jmp    d102 <_ZN11MaterialLib7readMtlEPKc+0x4c2>
    d3bf:	90                   	nop
    d3c0:	8d 83 6c c0 ff ff    	lea    -0x3f94(%ebx),%eax
    d3c6:	89 44 24 04          	mov    %eax,0x4(%esp)
    d3ca:	8b 85 30 fe ff ff    	mov    -0x1d0(%ebp),%eax
    d3d0:	89 04 24             	mov    %eax,(%esp)
    d3d3:	e8 58 9b ff ff       	call   6f30 <_ZNKSs7compareEPKc@plt>
    d3d8:	85 c0                	test   %eax,%eax
    d3da:	75 52                	jne    d42e <_ZN11MaterialLib7readMtlEPKc+0x7ee>
    d3dc:	8b 8d 28 fe ff ff    	mov    -0x1d8(%ebp),%ecx
    d3e2:	8d 56 2c             	lea    0x2c(%esi),%edx
    d3e5:	8d 46 24             	lea    0x24(%esi),%eax
    d3e8:	89 95 40 fe ff ff    	mov    %edx,-0x1c0(%ebp)
    d3ee:	8d 7e 28             	lea    0x28(%esi),%edi
    d3f1:	89 44 24 04          	mov    %eax,0x4(%esp)
    d3f5:	89 0c 24             	mov    %ecx,(%esp)
    d3f8:	e8 23 a9 ff ff       	call   7d20 <_ZNSi10_M_extractIfEERSiRT_@plt>
    d3fd:	e9 87 fe ff ff       	jmp    d289 <_ZN11MaterialLib7readMtlEPKc+0x649>
    d402:	8b 8d 24 fe ff ff    	mov    -0x1dc(%ebp),%ecx
    d408:	89 8d 40 fe ff ff    	mov    %ecx,-0x1c0(%ebp)
    d40e:	e9 0c fb ff ff       	jmp    cf1f <_ZN11MaterialLib7readMtlEPKc+0x2df>
    d413:	89 74 24 04          	mov    %esi,0x4(%esp)
    d417:	8b b5 34 fe ff ff    	mov    -0x1cc(%ebp),%esi
    d41d:	89 7c 24 08          	mov    %edi,0x8(%esp)
    d421:	89 34 24             	mov    %esi,(%esp)
    d424:	e8 77 a8 ff ff       	call   7ca0 <_ZNSt6vectorI8MaterialSaIS0_EE13_M_insert_auxEN9__gnu_cxx17__normal_iteratorIPS0_S2_EERKS0_@plt>
    d429:	e9 e0 fc ff ff       	jmp    d10e <_ZN11MaterialLib7readMtlEPKc+0x4ce>
    d42e:	8b 8d 30 fe ff ff    	mov    -0x1d0(%ebp),%ecx
    d434:	8d 83 6a c0 ff ff    	lea    -0x3f96(%ebx),%eax
    d43a:	89 0c 24             	mov    %ecx,(%esp)
    d43d:	89 44 24 04          	mov    %eax,0x4(%esp)
    d441:	e8 ea 9a ff ff       	call   6f30 <_ZNKSs7compareEPKc@plt>
    d446:	85 c0                	test   %eax,%eax
    d448:	75 2c                	jne    d476 <_ZN11MaterialLib7readMtlEPKc+0x836>
    d44a:	8d 85 bc fe ff ff    	lea    -0x144(%ebp),%eax
    d450:	89 44 24 04          	mov    %eax,0x4(%esp)
    d454:	8b 85 28 fe ff ff    	mov    -0x1d8(%ebp),%eax
    d45a:	89 04 24             	mov    %eax,(%esp)
    d45d:	e8 be a8 ff ff       	call   7d20 <_ZNSi10_M_extractIfEERSiRT_@plt>
    d462:	8b 85 bc fe ff ff    	mov    -0x144(%ebp),%eax
    d468:	89 46 30             	mov    %eax,0x30(%esi)
    d46b:	89 46 20             	mov    %eax,0x20(%esi)
    d46e:	89 46 10             	mov    %eax,0x10(%esi)
    d471:	e9 d6 fc ff ff       	jmp    d14c <_ZN11MaterialLib7readMtlEPKc+0x50c>
    d476:	8b 95 30 fe ff ff    	mov    -0x1d0(%ebp),%edx
    d47c:	8d 83 6f c0 ff ff    	lea    -0x3f91(%ebx),%eax
    d482:	89 14 24             	mov    %edx,(%esp)
    d485:	89 44 24 04          	mov    %eax,0x4(%esp)
    d489:	e8 a2 9a ff ff       	call   6f30 <_ZNKSs7compareEPKc@plt>
    d48e:	85 c0                	test   %eax,%eax
    d490:	0f 85 b6 fc ff ff    	jne    d14c <_ZN11MaterialLib7readMtlEPKc+0x50c>
    d496:	8b 8d 28 fe ff ff    	mov    -0x1d8(%ebp),%ecx
    d49c:	8d 46 34             	lea    0x34(%esi),%eax
    d49f:	89 0c 24             	mov    %ecx,(%esp)
    d4a2:	89 44 24 04          	mov    %eax,0x4(%esp)
    d4a6:	e8 75 a8 ff ff       	call   7d20 <_ZNSi10_M_extractIfEERSiRT_@plt>
    d4ab:	e9 9c fc ff ff       	jmp    d14c <_ZN11MaterialLib7readMtlEPKc+0x50c>
    d4b0:	8b b3 f4 ff ff ff    	mov    -0xc(%ebx),%esi
    d4b6:	8d 83 98 c0 ff ff    	lea    -0x3f68(%ebx),%eax
    d4bc:	c7 44 24 08 25 00 00 	movl   $0x25,0x8(%esp)
    d4c3:	00 
    d4c4:	89 44 24 04          	mov    %eax,0x4(%esp)
    d4c8:	89 34 24             	mov    %esi,(%esp)
    d4cb:	e8 50 a2 ff ff       	call   7720 <_ZSt16__ostream_insertIcSt11char_traitsIcEERSt13basic_ostreamIT_T0_ES6_PKS3_i@plt>
    d4d0:	8b bd 40 fe ff ff    	mov    -0x1c0(%ebp),%edi
    d4d6:	85 ff                	test   %edi,%edi
    d4d8:	0f 84 b7 00 00 00    	je     d595 <_ZN11MaterialLib7readMtlEPKc+0x955>
    d4de:	31 c0                	xor    %eax,%eax
    d4e0:	83 c9 ff             	or     $0xffffffff,%ecx
    d4e3:	8b bd 40 fe ff ff    	mov    -0x1c0(%ebp),%edi
    d4e9:	f2 ae                	repnz scas %es:(%edi),%al
    d4eb:	f7 d1                	not    %ecx
    d4ed:	8b 85 40 fe ff ff    	mov    -0x1c0(%ebp),%eax
    d4f3:	83 e9 01             	sub    $0x1,%ecx
    d4f6:	89 44 24 04          	mov    %eax,0x4(%esp)
    d4fa:	89 4c 24 08          	mov    %ecx,0x8(%esp)
    d4fe:	89 34 24             	mov    %esi,(%esp)
    d501:	e8 1a a2 ff ff       	call   7720 <_ZSt16__ostream_insertIcSt11char_traitsIcEERSt13basic_ostreamIT_T0_ES6_PKS3_i@plt>
    d506:	8d 83 5d c0 ff ff    	lea    -0x3fa3(%ebx),%eax
    d50c:	c7 44 24 08 01 00 00 	movl   $0x1,0x8(%esp)
    d513:	00 
    d514:	89 44 24 04          	mov    %eax,0x4(%esp)
    d518:	89 34 24             	mov    %esi,(%esp)
    d51b:	e8 00 a2 ff ff       	call   7720 <_ZSt16__ostream_insertIcSt11char_traitsIcEERSt13basic_ostreamIT_T0_ES6_PKS3_i@plt>
    d520:	8b 06                	mov    (%esi),%eax
    d522:	8b 40 f4             	mov    -0xc(%eax),%eax
    d525:	8b 7c 30 7c          	mov    0x7c(%eax,%esi,1),%edi
    d529:	85 ff                	test   %edi,%edi
    d52b:	0f 84 b0 02 00 00    	je     d7e1 <_ZN11MaterialLib7readMtlEPKc+0xba1>
    d531:	80 7f 1c 00          	cmpb   $0x0,0x1c(%edi)
    d535:	74 20                	je     d557 <_ZN11MaterialLib7readMtlEPKc+0x917>
    d537:	0f b6 47 27          	movzbl 0x27(%edi),%eax
    d53b:	0f be c0             	movsbl %al,%eax
    d53e:	89 34 24             	mov    %esi,(%esp)
    d541:	89 44 24 04          	mov    %eax,0x4(%esp)
    d545:	e8 d6 98 ff ff       	call   6e20 <_ZNSo3putEc@plt>
    d54a:	89 04 24             	mov    %eax,(%esp)
    d54d:	e8 8e 9d ff ff       	call   72e0 <_ZNSo5flushEv@plt>
    d552:	e9 2f fc ff ff       	jmp    d186 <_ZN11MaterialLib7readMtlEPKc+0x546>
    d557:	89 3c 24             	mov    %edi,(%esp)
    d55a:	e8 b1 a0 ff ff       	call   7610 <_ZNKSt5ctypeIcE13_M_widen_initEv@plt>
    d55f:	8b 07                	mov    (%edi),%eax
    d561:	c7 44 24 04 0a 00 00 	movl   $0xa,0x4(%esp)
    d568:	00 
    d569:	89 3c 24             	mov    %edi,(%esp)
    d56c:	ff 50 18             	call   *0x18(%eax)
    d56f:	eb ca                	jmp    d53b <_ZN11MaterialLib7readMtlEPKc+0x8fb>
    d571:	8b 85 cc fe ff ff    	mov    -0x134(%ebp),%eax
    d577:	c7 44 24 04 04 00 00 	movl   $0x4,0x4(%esp)
    d57e:	00 
    d57f:	8b 40 f4             	mov    -0xc(%eax),%eax
    d582:	03 85 28 fe ff ff    	add    -0x1d8(%ebp),%eax
    d588:	89 04 24             	mov    %eax,(%esp)
    d58b:	e8 b0 9c ff ff       	call   7240 <_ZNSt9basic_iosIcSt11char_traitsIcEE8setstateESt12_Ios_Iostate@plt>
    d590:	e9 0b f8 ff ff       	jmp    cda0 <_ZN11MaterialLib7readMtlEPKc+0x160>
    d595:	8b 06                	mov    (%esi),%eax
    d597:	8b 50 f4             	mov    -0xc(%eax),%edx
    d59a:	8d 14 32             	lea    (%edx,%esi,1),%edx
    d59d:	8b 42 14             	mov    0x14(%edx),%eax
    d5a0:	89 14 24             	mov    %edx,(%esp)
    d5a3:	83 c8 01             	or     $0x1,%eax
    d5a6:	89 44 24 04          	mov    %eax,0x4(%esp)
    d5aa:	e8 61 a5 ff ff       	call   7b10 <_ZNSt9basic_iosIcSt11char_traitsIcEE5clearESt12_Ios_Iostate@plt>
    d5af:	e9 52 ff ff ff       	jmp    d506 <_ZN11MaterialLib7readMtlEPKc+0x8c6>
    d5b4:	8b b5 28 fe ff ff    	mov    -0x1d8(%ebp),%esi
    d5ba:	89 85 04 fe ff ff    	mov    %eax,-0x1fc(%ebp)
    d5c0:	89 34 24             	mov    %esi,(%esp)
    d5c3:	e8 c8 99 ff ff       	call   6f90 <_ZNSt14basic_ifstreamIcSt11char_traitsIcEED1Ev@plt>
    d5c8:	8b 85 04 fe ff ff    	mov    -0x1fc(%ebp),%eax
    d5ce:	89 04 24             	mov    %eax,(%esp)
    d5d1:	e8 aa a5 ff ff       	call   7b80 <_Unwind_Resume@plt>
    d5d6:	8b b5 14 fe ff ff    	mov    -0x1ec(%ebp),%esi
    d5dc:	89 85 04 fe ff ff    	mov    %eax,-0x1fc(%ebp)
    d5e2:	89 34 24             	mov    %esi,(%esp)
    d5e5:	e8 76 a7 ff ff       	call   7d60 <_ZNSt15basic_streambufIcSt11char_traitsIcEED2Ev@plt>
    d5ea:	8b 8b f8 ff ff ff    	mov    -0x8(%ebx),%ecx
    d5f0:	8b b5 28 fe ff ff    	mov    -0x1d8(%ebp),%esi
    d5f6:	8b 51 04             	mov    0x4(%ecx),%edx
    d5f9:	8b 49 08             	mov    0x8(%ecx),%ecx
    d5fc:	89 95 cc fe ff ff    	mov    %edx,-0x134(%ebp)
    d602:	8b 52 f4             	mov    -0xc(%edx),%edx
    d605:	c7 85 d0 fe ff ff 00 	movl   $0x0,-0x130(%ebp)
    d60c:	00 00 00 
    d60f:	89 0c 16             	mov    %ecx,(%esi,%edx,1)
    d612:	8b 95 10 fe ff ff    	mov    -0x1f0(%ebp),%edx
    d618:	89 14 24             	mov    %edx,(%esp)
    d61b:	e8 90 a5 ff ff       	call   7bb0 <_ZNSt9basic_iosIcSt11char_traitsIcEED2Ev@plt>
    d620:	8b 85 04 fe ff ff    	mov    -0x1fc(%ebp),%eax
    d626:	89 04 24             	mov    %eax,(%esp)
    d629:	e8 52 a5 ff ff       	call   7b80 <_Unwind_Resume@plt>
    d62e:	8d 95 0c ff ff ff    	lea    -0xf4(%ebp),%edx
    d634:	89 85 04 fe ff ff    	mov    %eax,-0x1fc(%ebp)
    d63a:	89 14 24             	mov    %edx,(%esp)
    d63d:	e8 ee a5 ff ff       	call   7c30 <_ZNSt12__basic_fileIcED1Ev@plt>
    d642:	8b 85 04 fe ff ff    	mov    -0x1fc(%ebp),%eax
    d648:	eb 8c                	jmp    d5d6 <_ZN11MaterialLib7readMtlEPKc+0x996>
    d64a:	83 bb a0 ff ff ff 00 	cmpl   $0x0,-0x60(%ebx)
    d651:	74 74                	je     d6c7 <_ZN11MaterialLib7readMtlEPKc+0xa87>
    d653:	83 ca ff             	or     $0xffffffff,%edx
    d656:	f0 0f c1 50 08       	lock xadd %edx,0x8(%eax)
    d65b:	85 d2                	test   %edx,%edx
    d65d:	0f 8f 23 fb ff ff    	jg     d186 <_ZN11MaterialLib7readMtlEPKc+0x546>
    d663:	8d 95 c8 fe ff ff    	lea    -0x138(%ebp),%edx
    d669:	89 04 24             	mov    %eax,(%esp)
    d66c:	89 54 24 04          	mov    %edx,0x4(%esp)
    d670:	e8 db 9c ff ff       	call   7350 <_ZNSs4_Rep10_M_destroyERKSaIcE@plt>
    d675:	e9 0c fb ff ff       	jmp    d186 <_ZN11MaterialLib7readMtlEPKc+0x546>
    d67a:	89 85 04 fe ff ff    	mov    %eax,-0x1fc(%ebp)
    d680:	89 3c 24             	mov    %edi,(%esp)
    d683:	e8 68 a3 ff ff       	call   79f0 <_ZNSsD1Ev@plt>
    d688:	8b 85 04 fe ff ff    	mov    -0x1fc(%ebp),%eax
    d68e:	8b b5 2c fe ff ff    	mov    -0x1d4(%ebp),%esi
    d694:	89 85 04 fe ff ff    	mov    %eax,-0x1fc(%ebp)
    d69a:	89 34 24             	mov    %esi,(%esp)
    d69d:	e8 4e a3 ff ff       	call   79f0 <_ZNSsD1Ev@plt>
    d6a2:	8b 85 04 fe ff ff    	mov    -0x1fc(%ebp),%eax
    d6a8:	8b 8d 30 fe ff ff    	mov    -0x1d0(%ebp),%ecx
    d6ae:	89 85 04 fe ff ff    	mov    %eax,-0x1fc(%ebp)
    d6b4:	89 0c 24             	mov    %ecx,(%esp)
    d6b7:	e8 34 a3 ff ff       	call   79f0 <_ZNSsD1Ev@plt>
    d6bc:	8b 85 04 fe ff ff    	mov    -0x1fc(%ebp),%eax
    d6c2:	e9 ed fe ff ff       	jmp    d5b4 <_ZN11MaterialLib7readMtlEPKc+0x974>
    d6c7:	8b 50 08             	mov    0x8(%eax),%edx
    d6ca:	8d 4a ff             	lea    -0x1(%edx),%ecx
    d6cd:	89 48 08             	mov    %ecx,0x8(%eax)
    d6d0:	eb 89                	jmp    d65b <_ZN11MaterialLib7readMtlEPKc+0xa1b>
    d6d2:	89 85 04 fe ff ff    	mov    %eax,-0x1fc(%ebp)
    d6d8:	89 34 24             	mov    %esi,(%esp)
    d6db:	e8 10 a3 ff ff       	call   79f0 <_ZNSsD1Ev@plt>
    d6e0:	8b 85 04 fe ff ff    	mov    -0x1fc(%ebp),%eax
    d6e6:	eb a6                	jmp    d68e <_ZN11MaterialLib7readMtlEPKc+0xa4e>
    d6e8:	8b 4a 08             	mov    0x8(%edx),%ecx
    d6eb:	8d 71 ff             	lea    -0x1(%ecx),%esi
    d6ee:	89 72 08             	mov    %esi,0x8(%edx)
    d6f1:	e9 36 fc ff ff       	jmp    d32c <_ZN11MaterialLib7readMtlEPKc+0x6ec>
    d6f6:	83 bb a0 ff ff ff 00 	cmpl   $0x0,-0x60(%ebx)
    d6fd:	74 57                	je     d756 <_ZN11MaterialLib7readMtlEPKc+0xb16>
    d6ff:	83 ca ff             	or     $0xffffffff,%edx
    d702:	f0 0f c1 50 08       	lock xadd %edx,0x8(%eax)
    d707:	85 d2                	test   %edx,%edx
    d709:	0f 8f 3d fa ff ff    	jg     d14c <_ZN11MaterialLib7readMtlEPKc+0x50c>
    d70f:	8d 95 c9 fe ff ff    	lea    -0x137(%ebp),%edx
    d715:	89 04 24             	mov    %eax,(%esp)
    d718:	89 54 24 04          	mov    %edx,0x4(%esp)
    d71c:	e8 2f 9c ff ff       	call   7350 <_ZNSs4_Rep10_M_destroyERKSaIcE@plt>
    d721:	e9 26 fa ff ff       	jmp    d14c <_ZN11MaterialLib7readMtlEPKc+0x50c>
    d726:	83 bd 0c fe ff ff 00 	cmpl   $0x0,-0x1f4(%ebp)
    d72d:	74 32                	je     d761 <_ZN11MaterialLib7readMtlEPKc+0xb21>
    d72f:	83 ca ff             	or     $0xffffffff,%edx
    d732:	f0 0f c1 50 08       	lock xadd %edx,0x8(%eax)
    d737:	85 d2                	test   %edx,%edx
    d739:	0f 8f e4 f9 ff ff    	jg     d123 <_ZN11MaterialLib7readMtlEPKc+0x4e3>
    d73f:	8d 95 ca fe ff ff    	lea    -0x136(%ebp),%edx
    d745:	89 04 24             	mov    %eax,(%esp)
    d748:	89 54 24 04          	mov    %edx,0x4(%esp)
    d74c:	e8 ff 9b ff ff       	call   7350 <_ZNSs4_Rep10_M_destroyERKSaIcE@plt>
    d751:	e9 cd f9 ff ff       	jmp    d123 <_ZN11MaterialLib7readMtlEPKc+0x4e3>
    d756:	8b 50 08             	mov    0x8(%eax),%edx
    d759:	8d 4a ff             	lea    -0x1(%edx),%ecx
    d75c:	89 48 08             	mov    %ecx,0x8(%eax)
    d75f:	eb a6                	jmp    d707 <_ZN11MaterialLib7readMtlEPKc+0xac7>
    d761:	8b 50 08             	mov    0x8(%eax),%edx
    d764:	8d 4a ff             	lea    -0x1(%edx),%ecx
    d767:	89 48 08             	mov    %ecx,0x8(%eax)
    d76a:	eb cb                	jmp    d737 <_ZN11MaterialLib7readMtlEPKc+0xaf7>
    d76c:	e8 0f 7b 00 00       	call   15280 <__stack_chk_fail_local>
    d771:	e9 32 ff ff ff       	jmp    d6a8 <_ZN11MaterialLib7readMtlEPKc+0xa68>
    d776:	e9 ff fe ff ff       	jmp    d67a <_ZN11MaterialLib7readMtlEPKc+0xa3a>
    d77b:	90                   	nop
    d77c:	8d 74 26 00          	lea    0x0(%esi,%eiz,1),%esi
    d780:	e9 09 ff ff ff       	jmp    d68e <_ZN11MaterialLib7readMtlEPKc+0xa4e>
    d785:	8b 56 f4             	mov    -0xc(%esi),%edx
    d788:	8b 8d 28 fe ff ff    	mov    -0x1d8(%ebp),%ecx
    d78e:	89 b5 cc fe ff ff    	mov    %esi,-0x134(%ebp)
    d794:	c7 85 d0 fe ff ff 00 	movl   $0x0,-0x130(%ebp)
    d79b:	00 00 00 
    d79e:	89 3c 11             	mov    %edi,(%ecx,%edx,1)
    d7a1:	8b b5 10 fe ff ff    	mov    -0x1f0(%ebp),%esi
    d7a7:	89 85 04 fe ff ff    	mov    %eax,-0x1fc(%ebp)
    d7ad:	89 34 24             	mov    %esi,(%esp)
    d7b0:	e8 fb a3 ff ff       	call   7bb0 <_ZNSt9basic_iosIcSt11char_traitsIcEED2Ev@plt>
    d7b5:	8b 85 04 fe ff ff    	mov    -0x1fc(%ebp),%eax
    d7bb:	89 04 24             	mov    %eax,(%esp)
    d7be:	e8 bd a3 ff ff       	call   7b80 <_Unwind_Resume@plt>
    d7c3:	eb dc                	jmp    d7a1 <_ZN11MaterialLib7readMtlEPKc+0xb61>
    d7c5:	8b 95 14 fe ff ff    	mov    -0x1ec(%ebp),%edx
    d7cb:	89 85 04 fe ff ff    	mov    %eax,-0x1fc(%ebp)
    d7d1:	89 14 24             	mov    %edx,(%esp)
    d7d4:	e8 07 a2 ff ff       	call   79e0 <_ZNSt13basic_filebufIcSt11char_traitsIcEED1Ev@plt>
    d7d9:	8b 85 04 fe ff ff    	mov    -0x1fc(%ebp),%eax
    d7df:	eb a4                	jmp    d785 <_ZN11MaterialLib7readMtlEPKc+0xb45>
    d7e1:	e8 da 9e ff ff       	call   76c0 <_ZSt16__throw_bad_castv@plt>
    d7e6:	8d 76 00             	lea    0x0(%esi),%esi
    d7e9:	8d bc 27 00 00 00 00 	lea    0x0(%edi,%eiz,1),%edi

0000d7f0 <_ZN11MaterialLibC1Ev>:
    d7f0:	55                   	push   %ebp
    d7f1:	89 e5                	mov    %esp,%ebp
    d7f3:	57                   	push   %edi
    d7f4:	56                   	push   %esi
    d7f5:	8d 75 d8             	lea    -0x28(%ebp),%esi
    d7f8:	53                   	push   %ebx
    d7f9:	e8 3b a6 ff ff       	call   7e39 <__i686.get_pc_thunk.bx>
    d7fe:	81 c3 a6 bc 00 00    	add    $0xbca6,%ebx
    d804:	8d a4 24 a4 fe ff ff 	lea    -0x15c(%esp),%esp
    d80b:	8b 45 08             	mov    0x8(%ebp),%eax
    d80e:	8b 55 08             	mov    0x8(%ebp),%edx
    d811:	8d 8b 72 c0 ff ff    	lea    -0x3f8e(%ebx),%ecx
    d817:	89 b5 c8 fe ff ff    	mov    %esi,-0x138(%ebp)
    d81d:	89 8d cc fe ff ff    	mov    %ecx,-0x134(%ebp)
    d823:	c7 00 00 00 00 00    	movl   $0x0,(%eax)
    d829:	c7 40 04 00 00 00 00 	movl   $0x0,0x4(%eax)
    d830:	c7 40 08 00 00 00 00 	movl   $0x0,0x8(%eax)
    d837:	c7 40 20 00 00 00 00 	movl   $0x0,0x20(%eax)
    d83e:	c7 40 10 00 00 00 00 	movl   $0x0,0x10(%eax)
    d845:	c7 40 14 00 00 00 00 	movl   $0x0,0x14(%eax)
    d84c:	83 c0 10             	add    $0x10,%eax
    d84f:	89 42 18             	mov    %eax,0x18(%edx)
    d852:	89 42 1c             	mov    %eax,0x1c(%edx)
    d855:	89 85 d0 fe ff ff    	mov    %eax,-0x130(%ebp)
    d85b:	89 4c 24 04          	mov    %ecx,0x4(%esp)
    d85f:	8d 45 e7             	lea    -0x19(%ebp),%eax
    d862:	89 34 24             	mov    %esi,(%esp)
    d865:	89 44 24 08          	mov    %eax,0x8(%esp)
    d869:	e8 92 9d ff ff       	call   7600 <_ZNSsC1EPKcRKSaIcE@plt>
    d86e:	8b 55 08             	mov    0x8(%ebp),%edx
    d871:	8b 85 d0 fe ff ff    	mov    -0x130(%ebp),%eax
    d877:	89 85 d4 fe ff ff    	mov    %eax,-0x12c(%ebp)
    d87d:	8b 52 14             	mov    0x14(%edx),%edx
    d880:	85 d2                	test   %edx,%edx
    d882:	89 95 e0 fe ff ff    	mov    %edx,-0x120(%ebp)
    d888:	0f 84 89 06 00 00    	je     df17 <_ZN11MaterialLibC1Ev+0x727>
    d88e:	8b 4d d8             	mov    -0x28(%ebp),%ecx
    d891:	89 85 dc fe ff ff    	mov    %eax,-0x124(%ebp)
    d897:	89 8d d8 fe ff ff    	mov    %ecx,-0x128(%ebp)
    d89d:	8b 85 e0 fe ff ff    	mov    -0x120(%ebp),%eax
    d8a3:	8b 51 f4             	mov    -0xc(%ecx),%edx
    d8a6:	89 95 e0 fe ff ff    	mov    %edx,-0x120(%ebp)
    d8ac:	eb 11                	jmp    d8bf <_ZN11MaterialLibC1Ev+0xcf>
    d8ae:	66 90                	xchg   %ax,%ax
    d8b0:	8b 50 08             	mov    0x8(%eax),%edx
    d8b3:	85 d2                	test   %edx,%edx
    d8b5:	74 5a                	je     d911 <_ZN11MaterialLibC1Ev+0x121>
    d8b7:	89 85 dc fe ff ff    	mov    %eax,-0x124(%ebp)
    d8bd:	89 d0                	mov    %edx,%eax
    d8bf:	8b 70 10             	mov    0x10(%eax),%esi
    d8c2:	8b bd d8 fe ff ff    	mov    -0x128(%ebp),%edi
    d8c8:	8b 56 f4             	mov    -0xc(%esi),%edx
    d8cb:	39 95 e0 fe ff ff    	cmp    %edx,-0x120(%ebp)
    d8d1:	89 d1                	mov    %edx,%ecx
    d8d3:	0f 46 8d e0 fe ff ff 	cmovbe -0x120(%ebp),%ecx
    d8da:	89 95 c4 fe ff ff    	mov    %edx,-0x13c(%ebp)
    d8e0:	39 c9                	cmp    %ecx,%ecx
    d8e2:	f3 a6                	repz cmpsb %es:(%edi),%ds:(%esi)
    d8e4:	0f 92 c2             	setb   %dl
    d8e7:	0f 97 c1             	seta   %cl
    d8ea:	28 d1                	sub    %dl,%cl
    d8ec:	8b 95 c4 fe ff ff    	mov    -0x13c(%ebp),%edx
    d8f2:	0f be f1             	movsbl %cl,%esi
    d8f5:	2b 95 e0 fe ff ff    	sub    -0x120(%ebp),%edx
    d8fb:	85 f6                	test   %esi,%esi
    d8fd:	0f 44 f2             	cmove  %edx,%esi
    d900:	85 f6                	test   %esi,%esi
    d902:	79 ac                	jns    d8b0 <_ZN11MaterialLibC1Ev+0xc0>
    d904:	8b 50 0c             	mov    0xc(%eax),%edx
    d907:	8b 85 dc fe ff ff    	mov    -0x124(%ebp),%eax
    d90d:	85 d2                	test   %edx,%edx
    d90f:	75 a6                	jne    d8b7 <_ZN11MaterialLibC1Ev+0xc7>
    d911:	89 85 e0 fe ff ff    	mov    %eax,-0x120(%ebp)
    d917:	8b 85 e0 fe ff ff    	mov    -0x120(%ebp),%eax
    d91d:	39 85 d0 fe ff ff    	cmp    %eax,-0x130(%ebp)
    d923:	0f 84 f7 04 00 00    	je     de20 <_ZN11MaterialLibC1Ev+0x630>
    d929:	8b 75 d8             	mov    -0x28(%ebp),%esi
    d92c:	8b 78 10             	mov    0x10(%eax),%edi
    d92f:	8b 4e f4             	mov    -0xc(%esi),%ecx
    d932:	8d 56 f4             	lea    -0xc(%esi),%edx
    d935:	89 95 c4 fe ff ff    	mov    %edx,-0x13c(%ebp)
    d93b:	8b 57 f4             	mov    -0xc(%edi),%edx
    d93e:	39 ca                	cmp    %ecx,%edx
    d940:	89 8d dc fe ff ff    	mov    %ecx,-0x124(%ebp)
    d946:	89 95 d8 fe ff ff    	mov    %edx,-0x128(%ebp)
    d94c:	0f 46 ca             	cmovbe %edx,%ecx
    d94f:	39 c9                	cmp    %ecx,%ecx
    d951:	f3 a6                	repz cmpsb %es:(%edi),%ds:(%esi)
    d953:	0f 92 c1             	setb   %cl
    d956:	0f 97 c2             	seta   %dl
    d959:	28 ca                	sub    %cl,%dl
    d95b:	8b 8d dc fe ff ff    	mov    -0x124(%ebp),%ecx
    d961:	0f be d2             	movsbl %dl,%edx
    d964:	2b 8d d8 fe ff ff    	sub    -0x128(%ebp),%ecx
    d96a:	85 d2                	test   %edx,%edx
    d96c:	0f 44 d1             	cmove  %ecx,%edx
    d96f:	85 d2                	test   %edx,%edx
    d971:	0f 88 a9 04 00 00    	js     de20 <_ZN11MaterialLibC1Ev+0x630>
    d977:	8b 8b 94 ff ff ff    	mov    -0x6c(%ebx),%ecx
    d97d:	89 8d d8 fe ff ff    	mov    %ecx,-0x128(%ebp)
    d983:	8b b5 d8 fe ff ff    	mov    -0x128(%ebp),%esi
    d989:	39 b5 c4 fe ff ff    	cmp    %esi,-0x13c(%ebp)
    d98f:	c7 40 14 00 00 00 00 	movl   $0x0,0x14(%eax)
    d996:	0f 85 0d 06 00 00    	jne    dfa9 <_ZN11MaterialLibC1Ev+0x7b9>
    d99c:	8d 75 ac             	lea    -0x54(%ebp),%esi
    d99f:	c7 44 24 10 00 00 80 	movl   $0x3f800000,0x10(%esp)
    d9a6:	3f 
    d9a7:	c7 44 24 0c 00 00 80 	movl   $0x3f800000,0xc(%esp)
    d9ae:	3f 
    d9af:	c7 44 24 08 00 00 80 	movl   $0x3f800000,0x8(%esp)
    d9b6:	3f 
    d9b7:	c7 44 24 04 00 00 80 	movl   $0x3f800000,0x4(%esp)
    d9be:	3f 
    d9bf:	89 34 24             	mov    %esi,(%esp)
    d9c2:	e8 99 9a ff ff       	call   7460 <_ZN5ColorC1Effff@plt>
    d9c7:	8d 7d 9c             	lea    -0x64(%ebp),%edi
    d9ca:	c7 44 24 10 00 00 80 	movl   $0x3f800000,0x10(%esp)
    d9d1:	3f 
    d9d2:	c7 44 24 0c cd cc 4c 	movl   $0x3f4ccccd,0xc(%esp)
    d9d9:	3f 
    d9da:	c7 44 24 08 cd cc 4c 	movl   $0x3f4ccccd,0x8(%esp)
    d9e1:	3f 
    d9e2:	c7 44 24 04 cd cc 4c 	movl   $0x3f4ccccd,0x4(%esp)
    d9e9:	3f 
    d9ea:	89 3c 24             	mov    %edi,(%esp)
    d9ed:	e8 6e 9a ff ff       	call   7460 <_ZN5ColorC1Effff@plt>
    d9f2:	8d 45 8c             	lea    -0x74(%ebp),%eax
    d9f5:	c7 44 24 10 00 00 80 	movl   $0x3f800000,0x10(%esp)
    d9fc:	3f 
    d9fd:	c7 44 24 0c cd cc 4c 	movl   $0x3e4ccccd,0xc(%esp)
    da04:	3e 
    da05:	c7 44 24 08 cd cc 4c 	movl   $0x3e4ccccd,0x8(%esp)
    da0c:	3e 
    da0d:	c7 44 24 04 cd cc 4c 	movl   $0x3e4ccccd,0x4(%esp)
    da14:	3e 
    da15:	89 85 dc fe ff ff    	mov    %eax,-0x124(%ebp)
    da1b:	89 04 24             	mov    %eax,(%esp)
    da1e:	e8 3d 9a ff ff       	call   7460 <_ZN5ColorC1Effff@plt>
    da23:	8b 95 cc fe ff ff    	mov    -0x134(%ebp),%edx
    da29:	8d 4d d4             	lea    -0x2c(%ebp),%ecx
    da2c:	8d 45 e6             	lea    -0x1a(%ebp),%eax
    da2f:	89 54 24 04          	mov    %edx,0x4(%esp)
    da33:	89 44 24 08          	mov    %eax,0x8(%esp)
    da37:	89 8d e0 fe ff ff    	mov    %ecx,-0x120(%ebp)
    da3d:	89 0c 24             	mov    %ecx,(%esp)
    da40:	e8 bb 9b ff ff       	call   7600 <_ZNSsC1EPKcRKSaIcE@plt>
    da45:	89 74 24 10          	mov    %esi,0x10(%esp)
    da49:	8b 85 e0 fe ff ff    	mov    -0x120(%ebp),%eax
    da4f:	8b b5 dc fe ff ff    	mov    -0x124(%ebp),%esi
    da55:	89 7c 24 0c          	mov    %edi,0xc(%esp)
    da59:	c7 44 24 14 00 00 20 	movl   $0x41200000,0x14(%esp)
    da60:	41 
    da61:	8d bd 24 ff ff ff    	lea    -0xdc(%ebp),%edi
    da67:	89 74 24 08          	mov    %esi,0x8(%esp)
    da6b:	89 44 24 04          	mov    %eax,0x4(%esp)
    da6f:	89 3c 24             	mov    %edi,(%esp)
    da72:	e8 c9 9d ff ff       	call   7840 <_ZN8MaterialC1ERKSsRK5ColorS4_S4_f@plt>
    da77:	8b 55 08             	mov    0x8(%ebp),%edx
    da7a:	8b 72 04             	mov    0x4(%edx),%esi
    da7d:	3b 72 08             	cmp    0x8(%edx),%esi
    da80:	0f 84 a2 04 00 00    	je     df28 <_ZN11MaterialLibC1Ev+0x738>
    da86:	85 f6                	test   %esi,%esi
    da88:	0f 84 82 04 00 00    	je     df10 <_ZN11MaterialLibC1Ev+0x720>
    da8e:	89 7c 24 04          	mov    %edi,0x4(%esp)
    da92:	89 34 24             	mov    %esi,(%esp)
    da95:	e8 56 97 ff ff       	call   71f0 <_ZNSsC1ERKSs@plt>
    da9a:	8b 85 28 ff ff ff    	mov    -0xd8(%ebp),%eax
    daa0:	89 46 04             	mov    %eax,0x4(%esi)
    daa3:	8b 85 2c ff ff ff    	mov    -0xd4(%ebp),%eax
    daa9:	89 46 08             	mov    %eax,0x8(%esi)
    daac:	8b 85 30 ff ff ff    	mov    -0xd0(%ebp),%eax
    dab2:	89 46 0c             	mov    %eax,0xc(%esi)
    dab5:	8b 85 34 ff ff ff    	mov    -0xcc(%ebp),%eax
    dabb:	89 46 10             	mov    %eax,0x10(%esi)
    dabe:	8b 85 38 ff ff ff    	mov    -0xc8(%ebp),%eax
    dac4:	89 46 14             	mov    %eax,0x14(%esi)
    dac7:	8b 85 3c ff ff ff    	mov    -0xc4(%ebp),%eax
    dacd:	89 46 18             	mov    %eax,0x18(%esi)
    dad0:	8b 85 40 ff ff ff    	mov    -0xc0(%ebp),%eax
    dad6:	89 46 1c             	mov    %eax,0x1c(%esi)
    dad9:	8b 85 44 ff ff ff    	mov    -0xbc(%ebp),%eax
    dadf:	89 46 20             	mov    %eax,0x20(%esi)
    dae2:	8b 85 48 ff ff ff    	mov    -0xb8(%ebp),%eax
    dae8:	89 46 24             	mov    %eax,0x24(%esi)
    daeb:	8b 85 4c ff ff ff    	mov    -0xb4(%ebp),%eax
    daf1:	89 46 28             	mov    %eax,0x28(%esi)
    daf4:	8b 85 50 ff ff ff    	mov    -0xb0(%ebp),%eax
    dafa:	89 46 2c             	mov    %eax,0x2c(%esi)
    dafd:	8b 85 54 ff ff ff    	mov    -0xac(%ebp),%eax
    db03:	89 46 30             	mov    %eax,0x30(%esi)
    db06:	8b 85 58 ff ff ff    	mov    -0xa8(%ebp),%eax
    db0c:	89 46 34             	mov    %eax,0x34(%esi)
    db0f:	8b 4d 08             	mov    0x8(%ebp),%ecx
    db12:	8b 41 04             	mov    0x4(%ecx),%eax
    db15:	8b 75 08             	mov    0x8(%ebp),%esi
    db18:	8d 40 38             	lea    0x38(%eax),%eax
    db1b:	89 46 04             	mov    %eax,0x4(%esi)
    db1e:	8b 85 24 ff ff ff    	mov    -0xdc(%ebp),%eax
    db24:	83 e8 0c             	sub    $0xc,%eax
    db27:	3b 85 d8 fe ff ff    	cmp    -0x128(%ebp),%eax
    db2d:	0f 85 43 06 00 00    	jne    e176 <_ZN11MaterialLibC1Ev+0x986>
    db33:	8b 45 d4             	mov    -0x2c(%ebp),%eax
    db36:	83 e8 0c             	sub    $0xc,%eax
    db39:	3b 85 d8 fe ff ff    	cmp    -0x128(%ebp),%eax
    db3f:	0f 85 d9 04 00 00    	jne    e01e <_ZN11MaterialLibC1Ev+0x82e>
    db45:	8d 45 e5             	lea    -0x1b(%ebp),%eax
    db48:	8d b3 87 c0 ff ff    	lea    -0x3f79(%ebx),%esi
    db4e:	89 44 24 08          	mov    %eax,0x8(%esp)
    db52:	89 b5 cc fe ff ff    	mov    %esi,-0x134(%ebp)
    db58:	8d 45 d0             	lea    -0x30(%ebp),%eax
    db5b:	89 74 24 04          	mov    %esi,0x4(%esp)
    db5f:	89 85 c8 fe ff ff    	mov    %eax,-0x138(%ebp)
    db65:	89 04 24             	mov    %eax,(%esp)
    db68:	e8 93 9a ff ff       	call   7600 <_ZNSsC1EPKcRKSaIcE@plt>
    db6d:	8b 55 08             	mov    0x8(%ebp),%edx
    db70:	8b 42 14             	mov    0x14(%edx),%eax
    db73:	85 c0                	test   %eax,%eax
    db75:	74 70                	je     dbe7 <_ZN11MaterialLibC1Ev+0x3f7>
    db77:	8b 4d d0             	mov    -0x30(%ebp),%ecx
    db7a:	89 8d dc fe ff ff    	mov    %ecx,-0x124(%ebp)
    db80:	8b 71 f4             	mov    -0xc(%ecx),%esi
    db83:	89 b5 e0 fe ff ff    	mov    %esi,-0x120(%ebp)
    db89:	eb 14                	jmp    db9f <_ZN11MaterialLibC1Ev+0x3af>
    db8b:	90                   	nop
    db8c:	8d 74 26 00          	lea    0x0(%esi,%eiz,1),%esi
    db90:	8b 50 08             	mov    0x8(%eax),%edx
    db93:	89 85 d4 fe ff ff    	mov    %eax,-0x12c(%ebp)
    db99:	85 d2                	test   %edx,%edx
    db9b:	74 4a                	je     dbe7 <_ZN11MaterialLibC1Ev+0x3f7>
    db9d:	89 d0                	mov    %edx,%eax
    db9f:	8b 70 10             	mov    0x10(%eax),%esi
    dba2:	8b 8d e0 fe ff ff    	mov    -0x120(%ebp),%ecx
    dba8:	8b bd dc fe ff ff    	mov    -0x124(%ebp),%edi
    dbae:	8b 56 f4             	mov    -0xc(%esi),%edx
    dbb1:	39 ca                	cmp    %ecx,%edx
    dbb3:	89 95 c4 fe ff ff    	mov    %edx,-0x13c(%ebp)
    dbb9:	0f 46 ca             	cmovbe %edx,%ecx
    dbbc:	39 c9                	cmp    %ecx,%ecx
    dbbe:	f3 a6                	repz cmpsb %es:(%edi),%ds:(%esi)
    dbc0:	0f 97 c2             	seta   %dl
    dbc3:	0f 92 c1             	setb   %cl
    dbc6:	28 ca                	sub    %cl,%dl
    dbc8:	0f be f2             	movsbl %dl,%esi
    dbcb:	8b 95 c4 fe ff ff    	mov    -0x13c(%ebp),%edx
    dbd1:	2b 95 e0 fe ff ff    	sub    -0x120(%ebp),%edx
    dbd7:	85 f6                	test   %esi,%esi
    dbd9:	0f 44 f2             	cmove  %edx,%esi
    dbdc:	85 f6                	test   %esi,%esi
    dbde:	79 b0                	jns    db90 <_ZN11MaterialLibC1Ev+0x3a0>
    dbe0:	8b 50 0c             	mov    0xc(%eax),%edx
    dbe3:	85 d2                	test   %edx,%edx
    dbe5:	75 b6                	jne    db9d <_ZN11MaterialLibC1Ev+0x3ad>
    dbe7:	8b b5 d4 fe ff ff    	mov    -0x12c(%ebp),%esi
    dbed:	39 b5 d0 fe ff ff    	cmp    %esi,-0x130(%ebp)
    dbf3:	89 b5 dc fe ff ff    	mov    %esi,-0x124(%ebp)
    dbf9:	0f 84 99 02 00 00    	je     de98 <_ZN11MaterialLibC1Ev+0x6a8>
    dbff:	8b 45 d0             	mov    -0x30(%ebp),%eax
    dc02:	8b 7e 10             	mov    0x10(%esi),%edi
    dc05:	89 c6                	mov    %eax,%esi
    dc07:	8b 57 f4             	mov    -0xc(%edi),%edx
    dc0a:	8b 48 f4             	mov    -0xc(%eax),%ecx
    dc0d:	39 ca                	cmp    %ecx,%edx
    dc0f:	89 95 e0 fe ff ff    	mov    %edx,-0x120(%ebp)
    dc15:	0f 46 ca             	cmovbe %edx,%ecx
    dc18:	39 c9                	cmp    %ecx,%ecx
    dc1a:	f3 a6                	repz cmpsb %es:(%edi),%ds:(%esi)
    dc1c:	0f 92 c1             	setb   %cl
    dc1f:	0f 97 c2             	seta   %dl
    dc22:	89 ce                	mov    %ecx,%esi
    dc24:	89 d1                	mov    %edx,%ecx
    dc26:	89 f2                	mov    %esi,%edx
    dc28:	28 d1                	sub    %dl,%cl
    dc2a:	8b 50 f4             	mov    -0xc(%eax),%edx
    dc2d:	0f be c9             	movsbl %cl,%ecx
    dc30:	2b 95 e0 fe ff ff    	sub    -0x120(%ebp),%edx
    dc36:	85 c9                	test   %ecx,%ecx
    dc38:	0f 44 ca             	cmove  %edx,%ecx
    dc3b:	85 c9                	test   %ecx,%ecx
    dc3d:	0f 88 55 02 00 00    	js     de98 <_ZN11MaterialLibC1Ev+0x6a8>
    dc43:	8b 95 dc fe ff ff    	mov    -0x124(%ebp),%edx
    dc49:	8d 40 f4             	lea    -0xc(%eax),%eax
    dc4c:	3b 85 d8 fe ff ff    	cmp    -0x128(%ebp),%eax
    dc52:	c7 42 14 01 00 00 00 	movl   $0x1,0x14(%edx)
    dc59:	0f 85 e6 04 00 00    	jne    e145 <_ZN11MaterialLibC1Ev+0x955>
    dc5f:	8d b5 7c ff ff ff    	lea    -0x84(%ebp),%esi
    dc65:	c7 44 24 10 00 00 80 	movl   $0x3f800000,0x10(%esp)
    dc6c:	3f 
    dc6d:	c7 44 24 0c 00 00 80 	movl   $0x3f800000,0xc(%esp)
    dc74:	3f 
    dc75:	c7 44 24 08 00 00 80 	movl   $0x3f800000,0x8(%esp)
    dc7c:	3f 
    dc7d:	c7 44 24 04 00 00 80 	movl   $0x3f800000,0x4(%esp)
    dc84:	3f 
    dc85:	89 34 24             	mov    %esi,(%esp)
    dc88:	e8 d3 97 ff ff       	call   7460 <_ZN5ColorC1Effff@plt>
    dc8d:	8d bd 6c ff ff ff    	lea    -0x94(%ebp),%edi
    dc93:	c7 44 24 10 00 00 80 	movl   $0x3f800000,0x10(%esp)
    dc9a:	3f 
    dc9b:	c7 44 24 0c 00 00 00 	movl   $0x0,0xc(%esp)
    dca2:	00 
    dca3:	c7 44 24 08 00 00 00 	movl   $0x0,0x8(%esp)
    dcaa:	00 
    dcab:	c7 44 24 04 cd cc 4c 	movl   $0x3f4ccccd,0x4(%esp)
    dcb2:	3f 
    dcb3:	89 3c 24             	mov    %edi,(%esp)
    dcb6:	e8 a5 97 ff ff       	call   7460 <_ZN5ColorC1Effff@plt>
    dcbb:	8d 8d 5c ff ff ff    	lea    -0xa4(%ebp),%ecx
    dcc1:	c7 44 24 10 00 00 80 	movl   $0x3f800000,0x10(%esp)
    dcc8:	3f 
    dcc9:	c7 44 24 0c 00 00 00 	movl   $0x0,0xc(%esp)
    dcd0:	00 
    dcd1:	c7 44 24 08 00 00 00 	movl   $0x0,0x8(%esp)
    dcd8:	00 
    dcd9:	c7 44 24 04 cd cc cc 	movl   $0x3ecccccd,0x4(%esp)
    dce0:	3e 
    dce1:	89 8d dc fe ff ff    	mov    %ecx,-0x124(%ebp)
    dce7:	89 0c 24             	mov    %ecx,(%esp)
    dcea:	e8 71 97 ff ff       	call   7460 <_ZN5ColorC1Effff@plt>
    dcef:	8d 45 e4             	lea    -0x1c(%ebp),%eax
    dcf2:	89 44 24 08          	mov    %eax,0x8(%esp)
    dcf6:	8b 85 cc fe ff ff    	mov    -0x134(%ebp),%eax
    dcfc:	8d 55 cc             	lea    -0x34(%ebp),%edx
    dcff:	89 44 24 04          	mov    %eax,0x4(%esp)
    dd03:	89 95 e0 fe ff ff    	mov    %edx,-0x120(%ebp)
    dd09:	89 14 24             	mov    %edx,(%esp)
    dd0c:	e8 ef 98 ff ff       	call   7600 <_ZNSsC1EPKcRKSaIcE@plt>
    dd11:	89 74 24 10          	mov    %esi,0x10(%esp)
    dd15:	8b 8d dc fe ff ff    	mov    -0x124(%ebp),%ecx
    dd1b:	8b b5 e0 fe ff ff    	mov    -0x120(%ebp),%esi
    dd21:	89 7c 24 0c          	mov    %edi,0xc(%esp)
    dd25:	c7 44 24 14 00 00 20 	movl   $0x41200000,0x14(%esp)
    dd2c:	41 
    dd2d:	8d bd ec fe ff ff    	lea    -0x114(%ebp),%edi
    dd33:	89 4c 24 08          	mov    %ecx,0x8(%esp)
    dd37:	89 74 24 04          	mov    %esi,0x4(%esp)
    dd3b:	89 3c 24             	mov    %edi,(%esp)
    dd3e:	e8 fd 9a ff ff       	call   7840 <_ZN8MaterialC1ERKSsRK5ColorS4_S4_f@plt>
    dd43:	8b 45 08             	mov    0x8(%ebp),%eax
    dd46:	8b 70 04             	mov    0x4(%eax),%esi
    dd49:	3b 70 08             	cmp    0x8(%eax),%esi
    dd4c:	0f 84 ee 01 00 00    	je     df40 <_ZN11MaterialLibC1Ev+0x750>
    dd52:	85 f6                	test   %esi,%esi
    dd54:	0f 84 ae 01 00 00    	je     df08 <_ZN11MaterialLibC1Ev+0x718>
    dd5a:	89 7c 24 04          	mov    %edi,0x4(%esp)
    dd5e:	89 34 24             	mov    %esi,(%esp)
    dd61:	e8 8a 94 ff ff       	call   71f0 <_ZNSsC1ERKSs@plt>
    dd66:	8b 85 f0 fe ff ff    	mov    -0x110(%ebp),%eax
    dd6c:	89 46 04             	mov    %eax,0x4(%esi)
    dd6f:	8b 85 f4 fe ff ff    	mov    -0x10c(%ebp),%eax
    dd75:	89 46 08             	mov    %eax,0x8(%esi)
    dd78:	8b 85 f8 fe ff ff    	mov    -0x108(%ebp),%eax
    dd7e:	89 46 0c             	mov    %eax,0xc(%esi)
    dd81:	8b 85 fc fe ff ff    	mov    -0x104(%ebp),%eax
    dd87:	89 46 10             	mov    %eax,0x10(%esi)
    dd8a:	8b 85 00 ff ff ff    	mov    -0x100(%ebp),%eax
    dd90:	89 46 14             	mov    %eax,0x14(%esi)
    dd93:	8b 85 04 ff ff ff    	mov    -0xfc(%ebp),%eax
    dd99:	89 46 18             	mov    %eax,0x18(%esi)
    dd9c:	8b 85 08 ff ff ff    	mov    -0xf8(%ebp),%eax
    dda2:	89 46 1c             	mov    %eax,0x1c(%esi)
    dda5:	8b 85 0c ff ff ff    	mov    -0xf4(%ebp),%eax
    ddab:	89 46 20             	mov    %eax,0x20(%esi)
    ddae:	8b 85 10 ff ff ff    	mov    -0xf0(%ebp),%eax
    ddb4:	89 46 24             	mov    %eax,0x24(%esi)
    ddb7:	8b 85 14 ff ff ff    	mov    -0xec(%ebp),%eax
    ddbd:	89 46 28             	mov    %eax,0x28(%esi)
    ddc0:	8b 85 18 ff ff ff    	mov    -0xe8(%ebp),%eax
    ddc6:	89 46 2c             	mov    %eax,0x2c(%esi)
    ddc9:	8b 85 1c ff ff ff    	mov    -0xe4(%ebp),%eax
    ddcf:	89 46 30             	mov    %eax,0x30(%esi)
    ddd2:	8b 85 20 ff ff ff    	mov    -0xe0(%ebp),%eax
    ddd8:	89 46 34             	mov    %eax,0x34(%esi)
    dddb:	8b 55 08             	mov    0x8(%ebp),%edx
    ddde:	8b 42 04             	mov    0x4(%edx),%eax
    dde1:	8b 4d 08             	mov    0x8(%ebp),%ecx
    dde4:	8d 40 38             	lea    0x38(%eax),%eax
    dde7:	89 41 04             	mov    %eax,0x4(%ecx)
    ddea:	8b 85 ec fe ff ff    	mov    -0x114(%ebp),%eax
    ddf0:	83 e8 0c             	sub    $0xc,%eax
    ddf3:	3b 85 d8 fe ff ff    	cmp    -0x128(%ebp),%eax
    ddf9:	0f 85 e8 02 00 00    	jne    e0e7 <_ZN11MaterialLibC1Ev+0x8f7>
    ddff:	8b 45 cc             	mov    -0x34(%ebp),%eax
    de02:	83 e8 0c             	sub    $0xc,%eax
    de05:	3b 85 d8 fe ff ff    	cmp    -0x128(%ebp),%eax
    de0b:	0f 85 a9 02 00 00    	jne    e0ba <_ZN11MaterialLibC1Ev+0x8ca>
    de11:	8d 65 f4             	lea    -0xc(%ebp),%esp
    de14:	5b                   	pop    %ebx
    de15:	5e                   	pop    %esi
    de16:	5f                   	pop    %edi
    de17:	5d                   	pop    %ebp
    de18:	c3                   	ret    
    de19:	8d b4 26 00 00 00 00 	lea    0x0(%esi,%eiz,1),%esi
    de20:	8b 8d c8 fe ff ff    	mov    -0x138(%ebp),%ecx
    de26:	8d 7d c4             	lea    -0x3c(%ebp),%edi
    de29:	89 4c 24 04          	mov    %ecx,0x4(%esp)
    de2d:	89 3c 24             	mov    %edi,(%esp)
    de30:	e8 bb 93 ff ff       	call   71f0 <_ZNSsC1ERKSs@plt>
    de35:	8b b5 e0 fe ff ff    	mov    -0x120(%ebp),%esi
    de3b:	8d 85 e4 fe ff ff    	lea    -0x11c(%ebp),%eax
    de41:	89 74 24 08          	mov    %esi,0x8(%esp)
    de45:	8b 75 08             	mov    0x8(%ebp),%esi
    de48:	83 c6 0c             	add    $0xc,%esi
    de4b:	c7 45 c8 00 00 00 00 	movl   $0x0,-0x38(%ebp)
    de52:	89 7c 24 0c          	mov    %edi,0xc(%esp)
    de56:	89 74 24 04          	mov    %esi,0x4(%esp)
    de5a:	89 04 24             	mov    %eax,(%esp)
    de5d:	e8 0e 96 ff ff       	call   7470 <_ZNSt8_Rb_treeISsSt4pairIKSsiESt10_Select1stIS2_ESt4lessISsESaIS2_EE17_M_insert_unique_ESt23_Rb_tree_const_iteratorIS2_ERKS2_@plt>
    de62:	8b 4d c4             	mov    -0x3c(%ebp),%ecx
    de65:	8b 93 94 ff ff ff    	mov    -0x6c(%ebx),%edx
    de6b:	83 e9 0c             	sub    $0xc,%ecx
    de6e:	8d 64 24 fc          	lea    -0x4(%esp),%esp
    de72:	39 d1                	cmp    %edx,%ecx
    de74:	8b 85 e4 fe ff ff    	mov    -0x11c(%ebp),%eax
    de7a:	89 95 d8 fe ff ff    	mov    %edx,-0x128(%ebp)
    de80:	0f 85 a4 03 00 00    	jne    e22a <_ZN11MaterialLibC1Ev+0xa3a>
    de86:	8b 55 d8             	mov    -0x28(%ebp),%edx
    de89:	83 ea 0c             	sub    $0xc,%edx
    de8c:	89 95 c4 fe ff ff    	mov    %edx,-0x13c(%ebp)
    de92:	e9 ec fa ff ff       	jmp    d983 <_ZN11MaterialLibC1Ev+0x193>
    de97:	90                   	nop
    de98:	8b 8d c8 fe ff ff    	mov    -0x138(%ebp),%ecx
    de9e:	8d 7d bc             	lea    -0x44(%ebp),%edi
    dea1:	89 4c 24 04          	mov    %ecx,0x4(%esp)
    dea5:	89 3c 24             	mov    %edi,(%esp)
    dea8:	e8 43 93 ff ff       	call   71f0 <_ZNSsC1ERKSs@plt>
    dead:	8b b5 d4 fe ff ff    	mov    -0x12c(%ebp),%esi
    deb3:	8d 85 e4 fe ff ff    	lea    -0x11c(%ebp),%eax
    deb9:	89 74 24 08          	mov    %esi,0x8(%esp)
    debd:	8b 75 08             	mov    0x8(%ebp),%esi
    dec0:	83 c6 0c             	add    $0xc,%esi
    dec3:	c7 45 c0 00 00 00 00 	movl   $0x0,-0x40(%ebp)
    deca:	89 7c 24 0c          	mov    %edi,0xc(%esp)
    dece:	89 74 24 04          	mov    %esi,0x4(%esp)
    ded2:	89 04 24             	mov    %eax,(%esp)
    ded5:	e8 96 95 ff ff       	call   7470 <_ZNSt8_Rb_treeISsSt4pairIKSsiESt10_Select1stIS2_ESt4lessISsESaIS2_EE17_M_insert_unique_ESt23_Rb_tree_const_iteratorIS2_ERKS2_@plt>
    deda:	8b 85 e4 fe ff ff    	mov    -0x11c(%ebp),%eax
    dee0:	8d 64 24 fc          	lea    -0x4(%esp),%esp
    dee4:	89 85 dc fe ff ff    	mov    %eax,-0x124(%ebp)
    deea:	8b 45 bc             	mov    -0x44(%ebp),%eax
    deed:	83 e8 0c             	sub    $0xc,%eax
    def0:	3b 85 d8 fe ff ff    	cmp    -0x128(%ebp),%eax
    def6:	0f 85 73 03 00 00    	jne    e26f <_ZN11MaterialLibC1Ev+0xa7f>
    defc:	8b 45 d0             	mov    -0x30(%ebp),%eax
    deff:	e9 3f fd ff ff       	jmp    dc43 <_ZN11MaterialLibC1Ev+0x453>
    df04:	8d 74 26 00          	lea    0x0(%esi,%eiz,1),%esi
    df08:	31 c0                	xor    %eax,%eax
    df0a:	e9 d2 fe ff ff       	jmp    dde1 <_ZN11MaterialLibC1Ev+0x5f1>
    df0f:	90                   	nop
    df10:	31 c0                	xor    %eax,%eax
    df12:	e9 fe fb ff ff       	jmp    db15 <_ZN11MaterialLibC1Ev+0x325>
    df17:	8b 8d d0 fe ff ff    	mov    -0x130(%ebp),%ecx
    df1d:	89 8d e0 fe ff ff    	mov    %ecx,-0x120(%ebp)
    df23:	e9 ef f9 ff ff       	jmp    d917 <_ZN11MaterialLibC1Ev+0x127>
    df28:	8b 45 08             	mov    0x8(%ebp),%eax
    df2b:	89 7c 24 08          	mov    %edi,0x8(%esp)
    df2f:	89 74 24 04          	mov    %esi,0x4(%esp)
    df33:	89 04 24             	mov    %eax,(%esp)
    df36:	e8 65 9d ff ff       	call   7ca0 <_ZNSt6vectorI8MaterialSaIS0_EE13_M_insert_auxEN9__gnu_cxx17__normal_iteratorIPS0_S2_EERKS0_@plt>
    df3b:	e9 de fb ff ff       	jmp    db1e <_ZN11MaterialLibC1Ev+0x32e>
    df40:	89 74 24 04          	mov    %esi,0x4(%esp)
    df44:	8b 75 08             	mov    0x8(%ebp),%esi
    df47:	89 7c 24 08          	mov    %edi,0x8(%esp)
    df4b:	89 34 24             	mov    %esi,(%esp)
    df4e:	e8 4d 9d ff ff       	call   7ca0 <_ZNSt6vectorI8MaterialSaIS0_EE13_M_insert_auxEN9__gnu_cxx17__normal_iteratorIPS0_S2_EERKS0_@plt>
    df53:	e9 92 fe ff ff       	jmp    ddea <_ZN11MaterialLibC1Ev+0x5fa>
    df58:	89 85 dc fe ff ff    	mov    %eax,-0x124(%ebp)
    df5e:	89 3c 24             	mov    %edi,(%esp)
    df61:	e8 8a 9a ff ff       	call   79f0 <_ZNSsD1Ev@plt>
    df66:	8b 95 e0 fe ff ff    	mov    -0x120(%ebp),%edx
    df6c:	89 14 24             	mov    %edx,(%esp)
    df6f:	e8 7c 9a ff ff       	call   79f0 <_ZNSsD1Ev@plt>
    df74:	8b 4d 08             	mov    0x8(%ebp),%ecx
    df77:	8d 71 0c             	lea    0xc(%ecx),%esi
    df7a:	8b 55 08             	mov    0x8(%ebp),%edx
    df7d:	8b 42 14             	mov    0x14(%edx),%eax
    df80:	89 34 24             	mov    %esi,(%esp)
    df83:	89 44 24 04          	mov    %eax,0x4(%esp)
    df87:	e8 94 9b ff ff       	call   7b20 <_ZNSt8_Rb_treeISsSt4pairIKSsiESt10_Select1stIS2_ESt4lessISsESaIS2_EE8_M_eraseEPSt13_Rb_tree_nodeIS2_E@plt>
    df8c:	8b 4d 08             	mov    0x8(%ebp),%ecx
    df8f:	8b 79 04             	mov    0x4(%ecx),%edi
    df92:	8b 31                	mov    (%ecx),%esi
    df94:	39 f7                	cmp    %esi,%edi
    df96:	0f 84 c5 00 00 00    	je     e061 <_ZN11MaterialLibC1Ev+0x871>
    df9c:	89 34 24             	mov    %esi,(%esp)
    df9f:	e8 4c 9a ff ff       	call   79f0 <_ZNSsD1Ev@plt>
    dfa4:	8d 76 38             	lea    0x38(%esi),%esi
    dfa7:	eb eb                	jmp    df94 <_ZN11MaterialLibC1Ev+0x7a4>
    dfa9:	83 bb a0 ff ff ff 00 	cmpl   $0x0,-0x60(%ebx)
    dfb0:	0f 84 f0 00 00 00    	je     e0a6 <_ZN11MaterialLibC1Ev+0x8b6>
    dfb6:	83 c8 ff             	or     $0xffffffff,%eax
    dfb9:	8b 95 c4 fe ff ff    	mov    -0x13c(%ebp),%edx
    dfbf:	f0 0f c1 42 08       	lock xadd %eax,0x8(%edx)
    dfc4:	85 c0                	test   %eax,%eax
    dfc6:	0f 8f d0 f9 ff ff    	jg     d99c <_ZN11MaterialLibC1Ev+0x1ac>
    dfcc:	8b b5 c4 fe ff ff    	mov    -0x13c(%ebp),%esi
    dfd2:	8d 45 e2             	lea    -0x1e(%ebp),%eax
    dfd5:	89 34 24             	mov    %esi,(%esp)
    dfd8:	89 44 24 04          	mov    %eax,0x4(%esp)
    dfdc:	e8 6f 93 ff ff       	call   7350 <_ZNSs4_Rep10_M_destroyERKSaIcE@plt>
    dfe1:	e9 b6 f9 ff ff       	jmp    d99c <_ZN11MaterialLibC1Ev+0x1ac>
    dfe6:	89 85 dc fe ff ff    	mov    %eax,-0x124(%ebp)
    dfec:	8b 85 e0 fe ff ff    	mov    -0x120(%ebp),%eax
    dff2:	89 04 24             	mov    %eax,(%esp)
    dff5:	e8 f6 99 ff ff       	call   79f0 <_ZNSsD1Ev@plt>
    dffa:	8b 55 08             	mov    0x8(%ebp),%edx
    dffd:	8d 72 0c             	lea    0xc(%edx),%esi
    e000:	e9 75 ff ff ff       	jmp    df7a <_ZN11MaterialLibC1Ev+0x78a>
    e005:	89 85 dc fe ff ff    	mov    %eax,-0x124(%ebp)
    e00b:	eb ed                	jmp    dffa <_ZN11MaterialLibC1Ev+0x80a>
    e00d:	8b 55 08             	mov    0x8(%ebp),%edx
    e010:	89 85 dc fe ff ff    	mov    %eax,-0x124(%ebp)
    e016:	8d 72 0c             	lea    0xc(%edx),%esi
    e019:	e9 5c ff ff ff       	jmp    df7a <_ZN11MaterialLibC1Ev+0x78a>
    e01e:	83 bb a0 ff ff ff 00 	cmpl   $0x0,-0x60(%ebx)
    e025:	74 2f                	je     e056 <_ZN11MaterialLibC1Ev+0x866>
    e027:	83 ca ff             	or     $0xffffffff,%edx
    e02a:	f0 0f c1 50 08       	lock xadd %edx,0x8(%eax)
    e02f:	85 d2                	test   %edx,%edx
    e031:	0f 8f 0e fb ff ff    	jg     db45 <_ZN11MaterialLibC1Ev+0x355>
    e037:	8d 55 e0             	lea    -0x20(%ebp),%edx
    e03a:	89 04 24             	mov    %eax,(%esp)
    e03d:	89 54 24 04          	mov    %edx,0x4(%esp)
    e041:	e8 0a 93 ff ff       	call   7350 <_ZNSs4_Rep10_M_destroyERKSaIcE@plt>
    e046:	e9 fa fa ff ff       	jmp    db45 <_ZN11MaterialLibC1Ev+0x355>
    e04b:	89 85 dc fe ff ff    	mov    %eax,-0x124(%ebp)
    e051:	e9 1e ff ff ff       	jmp    df74 <_ZN11MaterialLibC1Ev+0x784>
    e056:	8b 50 08             	mov    0x8(%eax),%edx
    e059:	8d 4a ff             	lea    -0x1(%edx),%ecx
    e05c:	89 48 08             	mov    %ecx,0x8(%eax)
    e05f:	eb ce                	jmp    e02f <_ZN11MaterialLibC1Ev+0x83f>
    e061:	8b 55 08             	mov    0x8(%ebp),%edx
    e064:	8b 02                	mov    (%edx),%eax
    e066:	85 c0                	test   %eax,%eax
    e068:	74 08                	je     e072 <_ZN11MaterialLibC1Ev+0x882>
    e06a:	89 04 24             	mov    %eax,(%esp)
    e06d:	e8 5e 94 ff ff       	call   74d0 <_ZdlPv@plt>
    e072:	8b 8d dc fe ff ff    	mov    -0x124(%ebp),%ecx
    e078:	89 0c 24             	mov    %ecx,(%esp)
    e07b:	e8 00 9b ff ff       	call   7b80 <_Unwind_Resume@plt>
    e080:	89 85 dc fe ff ff    	mov    %eax,-0x124(%ebp)
    e086:	e9 01 ff ff ff       	jmp    df8c <_ZN11MaterialLibC1Ev+0x79c>
    e08b:	89 c6                	mov    %eax,%esi
    e08d:	8b 45 08             	mov    0x8(%ebp),%eax
    e090:	8b 10                	mov    (%eax),%edx
    e092:	85 d2                	test   %edx,%edx
    e094:	74 08                	je     e09e <_ZN11MaterialLibC1Ev+0x8ae>
    e096:	89 14 24             	mov    %edx,(%esp)
    e099:	e8 32 94 ff ff       	call   74d0 <_ZdlPv@plt>
    e09e:	89 34 24             	mov    %esi,(%esp)
    e0a1:	e8 da 9a ff ff       	call   7b80 <_Unwind_Resume@plt>
    e0a6:	8b 8d c4 fe ff ff    	mov    -0x13c(%ebp),%ecx
    e0ac:	8b 41 08             	mov    0x8(%ecx),%eax
    e0af:	8d 50 ff             	lea    -0x1(%eax),%edx
    e0b2:	89 51 08             	mov    %edx,0x8(%ecx)
    e0b5:	e9 0a ff ff ff       	jmp    dfc4 <_ZN11MaterialLibC1Ev+0x7d4>
    e0ba:	83 bb a0 ff ff ff 00 	cmpl   $0x0,-0x60(%ebx)
    e0c1:	74 51                	je     e114 <_ZN11MaterialLibC1Ev+0x924>
    e0c3:	83 ca ff             	or     $0xffffffff,%edx
    e0c6:	f0 0f c1 50 08       	lock xadd %edx,0x8(%eax)
    e0cb:	85 d2                	test   %edx,%edx
    e0cd:	0f 8f 3e fd ff ff    	jg     de11 <_ZN11MaterialLibC1Ev+0x621>
    e0d3:	8d 55 dc             	lea    -0x24(%ebp),%edx
    e0d6:	89 04 24             	mov    %eax,(%esp)
    e0d9:	89 54 24 04          	mov    %edx,0x4(%esp)
    e0dd:	e8 6e 92 ff ff       	call   7350 <_ZNSs4_Rep10_M_destroyERKSaIcE@plt>
    e0e2:	e9 2a fd ff ff       	jmp    de11 <_ZN11MaterialLibC1Ev+0x621>
    e0e7:	83 bb a0 ff ff ff 00 	cmpl   $0x0,-0x60(%ebx)
    e0ee:	74 2f                	je     e11f <_ZN11MaterialLibC1Ev+0x92f>
    e0f0:	83 ca ff             	or     $0xffffffff,%edx
    e0f3:	f0 0f c1 50 08       	lock xadd %edx,0x8(%eax)
    e0f8:	85 d2                	test   %edx,%edx
    e0fa:	0f 8f ff fc ff ff    	jg     ddff <_ZN11MaterialLibC1Ev+0x60f>
    e100:	8d 55 dd             	lea    -0x23(%ebp),%edx
    e103:	89 04 24             	mov    %eax,(%esp)
    e106:	89 54 24 04          	mov    %edx,0x4(%esp)
    e10a:	e8 41 92 ff ff       	call   7350 <_ZNSs4_Rep10_M_destroyERKSaIcE@plt>
    e10f:	e9 eb fc ff ff       	jmp    ddff <_ZN11MaterialLibC1Ev+0x60f>
    e114:	8b 50 08             	mov    0x8(%eax),%edx
    e117:	8d 4a ff             	lea    -0x1(%edx),%ecx
    e11a:	89 48 08             	mov    %ecx,0x8(%eax)
    e11d:	eb ac                	jmp    e0cb <_ZN11MaterialLibC1Ev+0x8db>
    e11f:	8b 50 08             	mov    0x8(%eax),%edx
    e122:	8d 4a ff             	lea    -0x1(%edx),%ecx
    e125:	89 48 08             	mov    %ecx,0x8(%eax)
    e128:	eb ce                	jmp    e0f8 <_ZN11MaterialLibC1Ev+0x908>
    e12a:	e9 29 fe ff ff       	jmp    df58 <_ZN11MaterialLibC1Ev+0x768>
    e12f:	89 85 dc fe ff ff    	mov    %eax,-0x124(%ebp)
    e135:	e9 2c fe ff ff       	jmp    df66 <_ZN11MaterialLibC1Ev+0x776>
    e13a:	e9 0c ff ff ff       	jmp    e04b <_ZN11MaterialLibC1Ev+0x85b>
    e13f:	90                   	nop
    e140:	e9 06 ff ff ff       	jmp    e04b <_ZN11MaterialLibC1Ev+0x85b>
    e145:	83 bb a0 ff ff ff 00 	cmpl   $0x0,-0x60(%ebx)
    e14c:	8d 74 26 00          	lea    0x0(%esi,%eiz,1),%esi
    e150:	74 51                	je     e1a3 <_ZN11MaterialLibC1Ev+0x9b3>
    e152:	83 ca ff             	or     $0xffffffff,%edx
    e155:	f0 0f c1 50 08       	lock xadd %edx,0x8(%eax)
    e15a:	85 d2                	test   %edx,%edx
    e15c:	0f 8f fd fa ff ff    	jg     dc5f <_ZN11MaterialLibC1Ev+0x46f>
    e162:	8d 55 de             	lea    -0x22(%ebp),%edx
    e165:	89 04 24             	mov    %eax,(%esp)
    e168:	89 54 24 04          	mov    %edx,0x4(%esp)
    e16c:	e8 df 91 ff ff       	call   7350 <_ZNSs4_Rep10_M_destroyERKSaIcE@plt>
    e171:	e9 e9 fa ff ff       	jmp    dc5f <_ZN11MaterialLibC1Ev+0x46f>
    e176:	83 bb a0 ff ff ff 00 	cmpl   $0x0,-0x60(%ebx)
    e17d:	74 2f                	je     e1ae <_ZN11MaterialLibC1Ev+0x9be>
    e17f:	83 ca ff             	or     $0xffffffff,%edx
    e182:	f0 0f c1 50 08       	lock xadd %edx,0x8(%eax)
    e187:	85 d2                	test   %edx,%edx
    e189:	0f 8f a4 f9 ff ff    	jg     db33 <_ZN11MaterialLibC1Ev+0x343>
    e18f:	8d 55 e1             	lea    -0x1f(%ebp),%edx
    e192:	89 04 24             	mov    %eax,(%esp)
    e195:	89 54 24 04          	mov    %edx,0x4(%esp)
    e199:	e8 b2 91 ff ff       	call   7350 <_ZNSs4_Rep10_M_destroyERKSaIcE@plt>
    e19e:	e9 90 f9 ff ff       	jmp    db33 <_ZN11MaterialLibC1Ev+0x343>
    e1a3:	8b 50 08             	mov    0x8(%eax),%edx
    e1a6:	8d 4a ff             	lea    -0x1(%edx),%ecx
    e1a9:	89 48 08             	mov    %ecx,0x8(%eax)
    e1ac:	eb ac                	jmp    e15a <_ZN11MaterialLibC1Ev+0x96a>
    e1ae:	8b 50 08             	mov    0x8(%eax),%edx
    e1b1:	8d 4a ff             	lea    -0x1(%edx),%ecx
    e1b4:	89 48 08             	mov    %ecx,0x8(%eax)
    e1b7:	eb ce                	jmp    e187 <_ZN11MaterialLibC1Ev+0x997>
    e1b9:	8b 4d 08             	mov    0x8(%ebp),%ecx
    e1bc:	89 85 dc fe ff ff    	mov    %eax,-0x124(%ebp)
    e1c2:	8d 71 0c             	lea    0xc(%ecx),%esi
    e1c5:	8b 85 c8 fe ff ff    	mov    -0x138(%ebp),%eax
    e1cb:	89 04 24             	mov    %eax,(%esp)
    e1ce:	e8 1d 98 ff ff       	call   79f0 <_ZNSsD1Ev@plt>
    e1d3:	e9 a2 fd ff ff       	jmp    df7a <_ZN11MaterialLibC1Ev+0x78a>
    e1d8:	89 85 dc fe ff ff    	mov    %eax,-0x124(%ebp)
    e1de:	89 3c 24             	mov    %edi,(%esp)
    e1e1:	e8 0a 98 ff ff       	call   79f0 <_ZNSsD1Ev@plt>
    e1e6:	eb dd                	jmp    e1c5 <_ZN11MaterialLibC1Ev+0x9d5>
    e1e8:	89 85 dc fe ff ff    	mov    %eax,-0x124(%ebp)
    e1ee:	89 3c 24             	mov    %edi,(%esp)
    e1f1:	e8 fa 97 ff ff       	call   79f0 <_ZNSsD1Ev@plt>
    e1f6:	e9 f1 fd ff ff       	jmp    dfec <_ZN11MaterialLibC1Ev+0x7fc>
    e1fb:	89 85 dc fe ff ff    	mov    %eax,-0x124(%ebp)
    e201:	8b 45 08             	mov    0x8(%ebp),%eax
    e204:	8d 70 0c             	lea    0xc(%eax),%esi
    e207:	8b 95 c8 fe ff ff    	mov    -0x138(%ebp),%edx
    e20d:	89 14 24             	mov    %edx,(%esp)
    e210:	e8 db 97 ff ff       	call   79f0 <_ZNSsD1Ev@plt>
    e215:	e9 60 fd ff ff       	jmp    df7a <_ZN11MaterialLibC1Ev+0x78a>
    e21a:	89 85 dc fe ff ff    	mov    %eax,-0x124(%ebp)
    e220:	89 3c 24             	mov    %edi,(%esp)
    e223:	e8 c8 97 ff ff       	call   79f0 <_ZNSsD1Ev@plt>
    e228:	eb dd                	jmp    e207 <_ZN11MaterialLibC1Ev+0xa17>
    e22a:	83 bb a0 ff ff ff 00 	cmpl   $0x0,-0x60(%ebx)
    e231:	74 6e                	je     e2a1 <_ZN11MaterialLibC1Ev+0xab1>
    e233:	83 ca ff             	or     $0xffffffff,%edx
    e236:	f0 0f c1 51 08       	lock xadd %edx,0x8(%ecx)
    e23b:	85 d2                	test   %edx,%edx
    e23d:	0f 8f 43 fc ff ff    	jg     de86 <_ZN11MaterialLibC1Ev+0x696>
    e243:	8d 55 e3             	lea    -0x1d(%ebp),%edx
    e246:	89 85 c0 fe ff ff    	mov    %eax,-0x140(%ebp)
    e24c:	89 54 24 04          	mov    %edx,0x4(%esp)
    e250:	89 0c 24             	mov    %ecx,(%esp)
    e253:	e8 f8 90 ff ff       	call   7350 <_ZNSs4_Rep10_M_destroyERKSaIcE@plt>
    e258:	8b 55 d8             	mov    -0x28(%ebp),%edx
    e25b:	8b 85 c0 fe ff ff    	mov    -0x140(%ebp),%eax
    e261:	83 ea 0c             	sub    $0xc,%edx
    e264:	89 95 c4 fe ff ff    	mov    %edx,-0x13c(%ebp)
    e26a:	e9 14 f7 ff ff       	jmp    d983 <_ZN11MaterialLibC1Ev+0x193>
    e26f:	83 bb a0 ff ff ff 00 	cmpl   $0x0,-0x60(%ebx)
    e276:	74 34                	je     e2ac <_ZN11MaterialLibC1Ev+0xabc>
    e278:	83 ca ff             	or     $0xffffffff,%edx
    e27b:	f0 0f c1 50 08       	lock xadd %edx,0x8(%eax)
    e280:	85 d2                	test   %edx,%edx
    e282:	0f 8f 74 fc ff ff    	jg     defc <_ZN11MaterialLibC1Ev+0x70c>
    e288:	8d 55 df             	lea    -0x21(%ebp),%edx
    e28b:	89 04 24             	mov    %eax,(%esp)
    e28e:	89 54 24 04          	mov    %edx,0x4(%esp)
    e292:	e8 b9 90 ff ff       	call   7350 <_ZNSs4_Rep10_M_destroyERKSaIcE@plt>
    e297:	e9 60 fc ff ff       	jmp    defc <_ZN11MaterialLibC1Ev+0x70c>
    e29c:	e9 47 ff ff ff       	jmp    e1e8 <_ZN11MaterialLibC1Ev+0x9f8>
    e2a1:	8b 51 08             	mov    0x8(%ecx),%edx
    e2a4:	8d 72 ff             	lea    -0x1(%edx),%esi
    e2a7:	89 71 08             	mov    %esi,0x8(%ecx)
    e2aa:	eb 8f                	jmp    e23b <_ZN11MaterialLibC1Ev+0xa4b>
    e2ac:	8b 50 08             	mov    0x8(%eax),%edx
    e2af:	8d 4a ff             	lea    -0x1(%edx),%ecx
    e2b2:	89 48 08             	mov    %ecx,0x8(%eax)
    e2b5:	eb c9                	jmp    e280 <_ZN11MaterialLibC1Ev+0xa90>
    e2b7:	90                   	nop
    e2b8:	90                   	nop
    e2b9:	90                   	nop
    e2ba:	90                   	nop
    e2bb:	90                   	nop
    e2bc:	90                   	nop
    e2bd:	90                   	nop
    e2be:	90                   	nop
    e2bf:	90                   	nop

0000e2c0 <_ZNSt8_Rb_treeISsSt4pairIKSsiESt10_Select1stIS2_ESt4lessISsESaIS2_EE8_M_eraseEPSt13_Rb_tree_nodeIS2_E>:
    e2c0:	55                   	push   %ebp
    e2c1:	89 e5                	mov    %esp,%ebp
    e2c3:	57                   	push   %edi
    e2c4:	56                   	push   %esi
    e2c5:	53                   	push   %ebx
    e2c6:	e8 6e 9b ff ff       	call   7e39 <__i686.get_pc_thunk.bx>
    e2cb:	81 c3 d9 b1 00 00    	add    $0xb1d9,%ebx
    e2d1:	8d 64 24 c4          	lea    -0x3c(%esp),%esp
    e2d5:	8b 75 0c             	mov    0xc(%ebp),%esi
    e2d8:	85 f6                	test   %esi,%esi
    e2da:	74 3d                	je     e319 <_ZNSt8_Rb_treeISsSt4pairIKSsiESt10_Select1stIS2_ESt4lessISsESaIS2_EE8_M_eraseEPSt13_Rb_tree_nodeIS2_E+0x59>
    e2dc:	8d 45 e7             	lea    -0x19(%ebp),%eax
    e2df:	89 45 d4             	mov    %eax,-0x2c(%ebp)
    e2e2:	8d b6 00 00 00 00    	lea    0x0(%esi),%esi
    e2e8:	8b 46 0c             	mov    0xc(%esi),%eax
    e2eb:	8b 55 08             	mov    0x8(%ebp),%edx
    e2ee:	89 44 24 04          	mov    %eax,0x4(%esp)
    e2f2:	89 14 24             	mov    %edx,(%esp)
    e2f5:	e8 26 98 ff ff       	call   7b20 <_ZNSt8_Rb_treeISsSt4pairIKSsiESt10_Select1stIS2_ESt4lessISsESaIS2_EE8_M_eraseEPSt13_Rb_tree_nodeIS2_E@plt>
    e2fa:	8b 46 10             	mov    0x10(%esi),%eax
    e2fd:	8b 7e 08             	mov    0x8(%esi),%edi
    e300:	83 e8 0c             	sub    $0xc,%eax
    e303:	39 83 94 ff ff ff    	cmp    %eax,-0x6c(%ebx)
    e309:	75 17                	jne    e322 <_ZNSt8_Rb_treeISsSt4pairIKSsiESt10_Select1stIS2_ESt4lessISsESaIS2_EE8_M_eraseEPSt13_Rb_tree_nodeIS2_E+0x62>
    e30b:	89 34 24             	mov    %esi,(%esp)
    e30e:	89 fe                	mov    %edi,%esi
    e310:	e8 bb 91 ff ff       	call   74d0 <_ZdlPv@plt>
    e315:	85 ff                	test   %edi,%edi
    e317:	75 cf                	jne    e2e8 <_ZNSt8_Rb_treeISsSt4pairIKSsiESt10_Select1stIS2_ESt4lessISsESaIS2_EE8_M_eraseEPSt13_Rb_tree_nodeIS2_E+0x28>
    e319:	8d 64 24 3c          	lea    0x3c(%esp),%esp
    e31d:	5b                   	pop    %ebx
    e31e:	5e                   	pop    %esi
    e31f:	5f                   	pop    %edi
    e320:	5d                   	pop    %ebp
    e321:	c3                   	ret    
    e322:	83 bb a0 ff ff ff 00 	cmpl   $0x0,-0x60(%ebx)
    e329:	74 1d                	je     e348 <_ZNSt8_Rb_treeISsSt4pairIKSsiESt10_Select1stIS2_ESt4lessISsESaIS2_EE8_M_eraseEPSt13_Rb_tree_nodeIS2_E+0x88>
    e32b:	83 ca ff             	or     $0xffffffff,%edx
    e32e:	f0 0f c1 50 08       	lock xadd %edx,0x8(%eax)
    e333:	85 d2                	test   %edx,%edx
    e335:	7f d4                	jg     e30b <_ZNSt8_Rb_treeISsSt4pairIKSsiESt10_Select1stIS2_ESt4lessISsESaIS2_EE8_M_eraseEPSt13_Rb_tree_nodeIS2_E+0x4b>
    e337:	8b 55 d4             	mov    -0x2c(%ebp),%edx
    e33a:	89 04 24             	mov    %eax,(%esp)
    e33d:	89 54 24 04          	mov    %edx,0x4(%esp)
    e341:	e8 0a 90 ff ff       	call   7350 <_ZNSs4_Rep10_M_destroyERKSaIcE@plt>
    e346:	eb c3                	jmp    e30b <_ZNSt8_Rb_treeISsSt4pairIKSsiESt10_Select1stIS2_ESt4lessISsESaIS2_EE8_M_eraseEPSt13_Rb_tree_nodeIS2_E+0x4b>
    e348:	8b 50 08             	mov    0x8(%eax),%edx
    e34b:	8d 4a ff             	lea    -0x1(%edx),%ecx
    e34e:	89 48 08             	mov    %ecx,0x8(%eax)
    e351:	eb e0                	jmp    e333 <_ZNSt8_Rb_treeISsSt4pairIKSsiESt10_Select1stIS2_ESt4lessISsESaIS2_EE8_M_eraseEPSt13_Rb_tree_nodeIS2_E+0x73>
    e353:	90                   	nop
    e354:	90                   	nop
    e355:	90                   	nop
    e356:	90                   	nop
    e357:	90                   	nop
    e358:	90                   	nop
    e359:	90                   	nop
    e35a:	90                   	nop
    e35b:	90                   	nop
    e35c:	90                   	nop
    e35d:	90                   	nop
    e35e:	90                   	nop
    e35f:	90                   	nop

0000e360 <_ZNSt8_Rb_treeISsSt4pairIKSsiESt10_Select1stIS2_ESt4lessISsESaIS2_EE10_M_insert_EPKSt18_Rb_tree_node_baseSB_RKS2_>:
    e360:	55                   	push   %ebp
    e361:	89 e5                	mov    %esp,%ebp
    e363:	8d 64 24 c8          	lea    -0x38(%esp),%esp
    e367:	8b 45 10             	mov    0x10(%ebp),%eax
    e36a:	89 5d f4             	mov    %ebx,-0xc(%ebp)
    e36d:	e8 c7 9a ff ff       	call   7e39 <__i686.get_pc_thunk.bx>
    e372:	81 c3 32 b1 00 00    	add    $0xb132,%ebx
    e378:	85 c0                	test   %eax,%eax
    e37a:	89 75 f8             	mov    %esi,-0x8(%ebp)
    e37d:	89 7d fc             	mov    %edi,-0x4(%ebp)
    e380:	74 6e                	je     e3f0 <_ZNSt8_Rb_treeISsSt4pairIKSsiESt10_Select1stIS2_ESt4lessISsESaIS2_EE10_M_insert_EPKSt18_Rb_tree_node_baseSB_RKS2_+0x90>
    e382:	bf 01 00 00 00       	mov    $0x1,%edi
    e387:	c7 04 24 18 00 00 00 	movl   $0x18,(%esp)
    e38e:	e8 bd 8a ff ff       	call   6e50 <_Znwj@plt>
    e393:	89 c6                	mov    %eax,%esi
    e395:	83 c0 10             	add    $0x10,%eax
    e398:	74 18                	je     e3b2 <_ZNSt8_Rb_treeISsSt4pairIKSsiESt10_Select1stIS2_ESt4lessISsESaIS2_EE10_M_insert_EPKSt18_Rb_tree_node_baseSB_RKS2_+0x52>
    e39a:	8b 55 18             	mov    0x18(%ebp),%edx
    e39d:	89 04 24             	mov    %eax,(%esp)
    e3a0:	89 54 24 04          	mov    %edx,0x4(%esp)
    e3a4:	e8 47 8e ff ff       	call   71f0 <_ZNSsC1ERKSs@plt>
    e3a9:	8b 55 18             	mov    0x18(%ebp),%edx
    e3ac:	8b 42 04             	mov    0x4(%edx),%eax
    e3af:	89 46 14             	mov    %eax,0x14(%esi)
    e3b2:	8b 45 0c             	mov    0xc(%ebp),%eax
    e3b5:	81 e7 ff 00 00 00    	and    $0xff,%edi
    e3bb:	83 c0 04             	add    $0x4,%eax
    e3be:	89 74 24 04          	mov    %esi,0x4(%esp)
    e3c2:	89 44 24 0c          	mov    %eax,0xc(%esp)
    e3c6:	8b 45 14             	mov    0x14(%ebp),%eax
    e3c9:	89 44 24 08          	mov    %eax,0x8(%esp)
    e3cd:	89 3c 24             	mov    %edi,(%esp)
    e3d0:	e8 eb 8a ff ff       	call   6ec0 <_ZSt29_Rb_tree_insert_and_rebalancebPSt18_Rb_tree_node_baseS0_RS_@plt>
    e3d5:	8b 45 08             	mov    0x8(%ebp),%eax
    e3d8:	8b 55 0c             	mov    0xc(%ebp),%edx
    e3db:	83 42 14 01          	addl   $0x1,0x14(%edx)
    e3df:	89 30                	mov    %esi,(%eax)
    e3e1:	8b 5d f4             	mov    -0xc(%ebp),%ebx
    e3e4:	8b 75 f8             	mov    -0x8(%ebp),%esi
    e3e7:	8b 7d fc             	mov    -0x4(%ebp),%edi
    e3ea:	89 ec                	mov    %ebp,%esp
    e3ec:	5d                   	pop    %ebp
    e3ed:	c2 04 00             	ret    $0x4
    e3f0:	8b 45 0c             	mov    0xc(%ebp),%eax
    e3f3:	83 c0 04             	add    $0x4,%eax
    e3f6:	39 45 14             	cmp    %eax,0x14(%ebp)
    e3f9:	74 87                	je     e382 <_ZNSt8_Rb_treeISsSt4pairIKSsiESt10_Select1stIS2_ESt4lessISsESaIS2_EE10_M_insert_EPKSt18_Rb_tree_node_baseSB_RKS2_+0x22>
    e3fb:	8b 45 18             	mov    0x18(%ebp),%eax
    e3fe:	8b 30                	mov    (%eax),%esi
    e400:	8b 45 14             	mov    0x14(%ebp),%eax
    e403:	8b 78 10             	mov    0x10(%eax),%edi
    e406:	8b 56 f4             	mov    -0xc(%esi),%edx
    e409:	8b 47 f4             	mov    -0xc(%edi),%eax
    e40c:	39 d0                	cmp    %edx,%eax
    e40e:	89 c1                	mov    %eax,%ecx
    e410:	89 45 e4             	mov    %eax,-0x1c(%ebp)
    e413:	0f 47 ca             	cmova  %edx,%ecx
    e416:	39 c9                	cmp    %ecx,%ecx
    e418:	f3 a6                	repz cmpsb %es:(%edi),%ds:(%esi)
    e41a:	0f 97 c0             	seta   %al
    e41d:	0f 92 c1             	setb   %cl
    e420:	28 c8                	sub    %cl,%al
    e422:	2b 55 e4             	sub    -0x1c(%ebp),%edx
    e425:	0f be c0             	movsbl %al,%eax
    e428:	85 c0                	test   %eax,%eax
    e42a:	0f 44 c2             	cmove  %edx,%eax
    e42d:	89 c7                	mov    %eax,%edi
    e42f:	c1 ef 1f             	shr    $0x1f,%edi
    e432:	e9 50 ff ff ff       	jmp    e387 <_ZNSt8_Rb_treeISsSt4pairIKSsiESt10_Select1stIS2_ESt4lessISsESaIS2_EE10_M_insert_EPKSt18_Rb_tree_node_baseSB_RKS2_+0x27>
    e437:	89 04 24             	mov    %eax,(%esp)
    e43a:	e8 91 8c ff ff       	call   70d0 <__cxa_begin_catch@plt>
    e43f:	89 34 24             	mov    %esi,(%esp)
    e442:	e8 89 90 ff ff       	call   74d0 <_ZdlPv@plt>
    e447:	e8 b4 94 ff ff       	call   7900 <__cxa_rethrow@plt>
    e44c:	89 c7                	mov    %eax,%edi
    e44e:	e8 4d 96 ff ff       	call   7aa0 <__cxa_end_catch@plt>
    e453:	89 3c 24             	mov    %edi,(%esp)
    e456:	e8 25 97 ff ff       	call   7b80 <_Unwind_Resume@plt>
    e45b:	90                   	nop
    e45c:	90                   	nop
    e45d:	90                   	nop
    e45e:	90                   	nop
    e45f:	90                   	nop

0000e460 <_ZNSt8_Rb_treeISsSt4pairIKSsiESt10_Select1stIS2_ESt4lessISsESaIS2_EE16_M_insert_uniqueERKS2_>:
    e460:	55                   	push   %ebp
    e461:	89 e5                	mov    %esp,%ebp
    e463:	57                   	push   %edi
    e464:	56                   	push   %esi
    e465:	53                   	push   %ebx
    e466:	e8 ce 99 ff ff       	call   7e39 <__i686.get_pc_thunk.bx>
    e46b:	81 c3 39 b0 00 00    	add    $0xb039,%ebx
    e471:	8d 64 24 b4          	lea    -0x4c(%esp),%esp
    e475:	8b 55 0c             	mov    0xc(%ebp),%edx
    e478:	8b 42 08             	mov    0x8(%edx),%eax
    e47b:	85 c0                	test   %eax,%eax
    e47d:	0f 84 d5 00 00 00    	je     e558 <_ZNSt8_Rb_treeISsSt4pairIKSsiESt10_Select1stIS2_ESt4lessISsESaIS2_EE16_M_insert_uniqueERKS2_+0xf8>
    e483:	8b 4d 10             	mov    0x10(%ebp),%ecx
    e486:	8b 09                	mov    (%ecx),%ecx
    e488:	89 4d dc             	mov    %ecx,-0x24(%ebp)
    e48b:	8b 51 f4             	mov    -0xc(%ecx),%edx
    e48e:	89 55 e0             	mov    %edx,-0x20(%ebp)
    e491:	eb 13                	jmp    e4a6 <_ZNSt8_Rb_treeISsSt4pairIKSsiESt10_Select1stIS2_ESt4lessISsESaIS2_EE16_M_insert_uniqueERKS2_+0x46>
    e493:	90                   	nop
    e494:	8d 74 26 00          	lea    0x0(%esi,%eiz,1),%esi
    e498:	8b 48 08             	mov    0x8(%eax),%ecx
    e49b:	ba 01 00 00 00       	mov    $0x1,%edx
    e4a0:	85 c9                	test   %ecx,%ecx
    e4a2:	74 3c                	je     e4e0 <_ZNSt8_Rb_treeISsSt4pairIKSsiESt10_Select1stIS2_ESt4lessISsESaIS2_EE16_M_insert_uniqueERKS2_+0x80>
    e4a4:	89 c8                	mov    %ecx,%eax
    e4a6:	8b 78 10             	mov    0x10(%eax),%edi
    e4a9:	8b 75 dc             	mov    -0x24(%ebp),%esi
    e4ac:	8b 4f f4             	mov    -0xc(%edi),%ecx
    e4af:	39 4d e0             	cmp    %ecx,-0x20(%ebp)
    e4b2:	89 4d d8             	mov    %ecx,-0x28(%ebp)
    e4b5:	0f 46 4d e0          	cmovbe -0x20(%ebp),%ecx
    e4b9:	39 c9                	cmp    %ecx,%ecx
    e4bb:	f3 a6                	repz cmpsb %es:(%edi),%ds:(%esi)
    e4bd:	0f 97 c2             	seta   %dl
    e4c0:	0f 92 c1             	setb   %cl
    e4c3:	28 ca                	sub    %cl,%dl
    e4c5:	0f be f2             	movsbl %dl,%esi
    e4c8:	8b 55 e0             	mov    -0x20(%ebp),%edx
    e4cb:	2b 55 d8             	sub    -0x28(%ebp),%edx
    e4ce:	85 f6                	test   %esi,%esi
    e4d0:	0f 44 f2             	cmove  %edx,%esi
    e4d3:	85 f6                	test   %esi,%esi
    e4d5:	78 c1                	js     e498 <_ZNSt8_Rb_treeISsSt4pairIKSsiESt10_Select1stIS2_ESt4lessISsESaIS2_EE16_M_insert_uniqueERKS2_+0x38>
    e4d7:	8b 48 0c             	mov    0xc(%eax),%ecx
    e4da:	31 d2                	xor    %edx,%edx
    e4dc:	85 c9                	test   %ecx,%ecx
    e4de:	75 c4                	jne    e4a4 <_ZNSt8_Rb_treeISsSt4pairIKSsiESt10_Select1stIS2_ESt4lessISsESaIS2_EE16_M_insert_uniqueERKS2_+0x44>
    e4e0:	84 d2                	test   %dl,%dl
    e4e2:	89 45 d8             	mov    %eax,-0x28(%ebp)
    e4e5:	74 28                	je     e50f <_ZNSt8_Rb_treeISsSt4pairIKSsiESt10_Select1stIS2_ESt4lessISsESaIS2_EE16_M_insert_uniqueERKS2_+0xaf>
    e4e7:	8b 45 0c             	mov    0xc(%ebp),%eax
    e4ea:	8b 55 d8             	mov    -0x28(%ebp),%edx
    e4ed:	3b 50 0c             	cmp    0xc(%eax),%edx
    e4f0:	0f 84 a6 00 00 00    	je     e59c <_ZNSt8_Rb_treeISsSt4pairIKSsiESt10_Select1stIS2_ESt4lessISsESaIS2_EE16_M_insert_uniqueERKS2_+0x13c>
    e4f6:	8b 45 d8             	mov    -0x28(%ebp),%eax
    e4f9:	89 04 24             	mov    %eax,(%esp)
    e4fc:	e8 1f 90 ff ff       	call   7520 <_ZSt18_Rb_tree_decrementPSt18_Rb_tree_node_base@plt>
    e501:	8b 55 10             	mov    0x10(%ebp),%edx
    e504:	8b 12                	mov    (%edx),%edx
    e506:	89 55 dc             	mov    %edx,-0x24(%ebp)
    e509:	8b 4a f4             	mov    -0xc(%edx),%ecx
    e50c:	89 4d e0             	mov    %ecx,-0x20(%ebp)
    e50f:	8b 70 10             	mov    0x10(%eax),%esi
    e512:	8b 7d dc             	mov    -0x24(%ebp),%edi
    e515:	8b 56 f4             	mov    -0xc(%esi),%edx
    e518:	39 55 e0             	cmp    %edx,-0x20(%ebp)
    e51b:	89 d1                	mov    %edx,%ecx
    e51d:	0f 46 4d e0          	cmovbe -0x20(%ebp),%ecx
    e521:	89 55 d4             	mov    %edx,-0x2c(%ebp)
    e524:	39 c9                	cmp    %ecx,%ecx
    e526:	f3 a6                	repz cmpsb %es:(%edi),%ds:(%esi)
    e528:	0f 92 c2             	setb   %dl
    e52b:	0f 97 c1             	seta   %cl
    e52e:	28 d1                	sub    %dl,%cl
    e530:	8b 55 d4             	mov    -0x2c(%ebp),%edx
    e533:	0f be c9             	movsbl %cl,%ecx
    e536:	2b 55 e0             	sub    -0x20(%ebp),%edx
    e539:	85 c9                	test   %ecx,%ecx
    e53b:	0f 44 ca             	cmove  %edx,%ecx
    e53e:	85 c9                	test   %ecx,%ecx
    e540:	78 21                	js     e563 <_ZNSt8_Rb_treeISsSt4pairIKSsiESt10_Select1stIS2_ESt4lessISsESaIS2_EE16_M_insert_uniqueERKS2_+0x103>
    e542:	8b 4d 08             	mov    0x8(%ebp),%ecx
    e545:	89 01                	mov    %eax,(%ecx)
    e547:	c6 41 04 00          	movb   $0x0,0x4(%ecx)
    e54b:	8b 45 08             	mov    0x8(%ebp),%eax
    e54e:	8d 65 f4             	lea    -0xc(%ebp),%esp
    e551:	5b                   	pop    %ebx
    e552:	5e                   	pop    %esi
    e553:	5f                   	pop    %edi
    e554:	5d                   	pop    %ebp
    e555:	c2 04 00             	ret    $0x4
    e558:	8b 45 0c             	mov    0xc(%ebp),%eax
    e55b:	83 c0 04             	add    $0x4,%eax
    e55e:	89 45 d8             	mov    %eax,-0x28(%ebp)
    e561:	eb 84                	jmp    e4e7 <_ZNSt8_Rb_treeISsSt4pairIKSsiESt10_Select1stIS2_ESt4lessISsESaIS2_EE16_M_insert_uniqueERKS2_+0x87>
    e563:	8b 4d 10             	mov    0x10(%ebp),%ecx
    e566:	8b 55 d8             	mov    -0x28(%ebp),%edx
    e569:	89 4c 24 10          	mov    %ecx,0x10(%esp)
    e56d:	8b 4d 0c             	mov    0xc(%ebp),%ecx
    e570:	8d 45 e4             	lea    -0x1c(%ebp),%eax
    e573:	89 54 24 0c          	mov    %edx,0xc(%esp)
    e577:	89 04 24             	mov    %eax,(%esp)
    e57a:	c7 44 24 08 00 00 00 	movl   $0x0,0x8(%esp)
    e581:	00 
    e582:	89 4c 24 04          	mov    %ecx,0x4(%esp)
    e586:	e8 35 94 ff ff       	call   79c0 <_ZNSt8_Rb_treeISsSt4pairIKSsiESt10_Select1stIS2_ESt4lessISsESaIS2_EE10_M_insert_EPKSt18_Rb_tree_node_baseSB_RKS2_@plt>
    e58b:	8b 55 08             	mov    0x8(%ebp),%edx
    e58e:	8b 45 e4             	mov    -0x1c(%ebp),%eax
    e591:	83 ec 04             	sub    $0x4,%esp
    e594:	89 02                	mov    %eax,(%edx)
    e596:	c6 42 04 01          	movb   $0x1,0x4(%edx)
    e59a:	eb af                	jmp    e54b <_ZNSt8_Rb_treeISsSt4pairIKSsiESt10_Select1stIS2_ESt4lessISsESaIS2_EE16_M_insert_uniqueERKS2_+0xeb>
    e59c:	8b 4d 10             	mov    0x10(%ebp),%ecx
    e59f:	89 54 24 0c          	mov    %edx,0xc(%esp)
    e5a3:	8b 55 0c             	mov    0xc(%ebp),%edx
    e5a6:	8d 45 e4             	lea    -0x1c(%ebp),%eax
    e5a9:	89 4c 24 10          	mov    %ecx,0x10(%esp)
    e5ad:	89 04 24             	mov    %eax,(%esp)
    e5b0:	c7 44 24 08 00 00 00 	movl   $0x0,0x8(%esp)
    e5b7:	00 
    e5b8:	89 54 24 04          	mov    %edx,0x4(%esp)
    e5bc:	e8 ff 93 ff ff       	call   79c0 <_ZNSt8_Rb_treeISsSt4pairIKSsiESt10_Select1stIS2_ESt4lessISsESaIS2_EE10_M_insert_EPKSt18_Rb_tree_node_baseSB_RKS2_@plt>
    e5c1:	8b 4d 08             	mov    0x8(%ebp),%ecx
    e5c4:	8b 45 e4             	mov    -0x1c(%ebp),%eax
    e5c7:	83 ec 04             	sub    $0x4,%esp
    e5ca:	89 01                	mov    %eax,(%ecx)
    e5cc:	c6 41 04 01          	movb   $0x1,0x4(%ecx)
    e5d0:	e9 76 ff ff ff       	jmp    e54b <_ZNSt8_Rb_treeISsSt4pairIKSsiESt10_Select1stIS2_ESt4lessISsESaIS2_EE16_M_insert_uniqueERKS2_+0xeb>
    e5d5:	90                   	nop
    e5d6:	90                   	nop
    e5d7:	90                   	nop
    e5d8:	90                   	nop
    e5d9:	90                   	nop
    e5da:	90                   	nop
    e5db:	90                   	nop
    e5dc:	90                   	nop
    e5dd:	90                   	nop
    e5de:	90                   	nop
    e5df:	90                   	nop

0000e5e0 <_ZNSt8_Rb_treeISsSt4pairIKSsiESt10_Select1stIS2_ESt4lessISsESaIS2_EE17_M_insert_unique_ESt23_Rb_tree_const_iteratorIS2_ERKS2_>:
    e5e0:	55                   	push   %ebp
    e5e1:	89 e5                	mov    %esp,%ebp
    e5e3:	57                   	push   %edi
    e5e4:	56                   	push   %esi
    e5e5:	53                   	push   %ebx
    e5e6:	e8 4e 98 ff ff       	call   7e39 <__i686.get_pc_thunk.bx>
    e5eb:	81 c3 b9 ae 00 00    	add    $0xaeb9,%ebx
    e5f1:	8d 64 24 a4          	lea    -0x5c(%esp),%esp
    e5f5:	8b 45 0c             	mov    0xc(%ebp),%eax
    e5f8:	83 c0 04             	add    $0x4,%eax
    e5fb:	39 45 10             	cmp    %eax,0x10(%ebp)
    e5fe:	0f 84 34 01 00 00    	je     e738 <_ZNSt8_Rb_treeISsSt4pairIKSsiESt10_Select1stIS2_ESt4lessISsESaIS2_EE17_M_insert_unique_ESt23_Rb_tree_const_iteratorIS2_ERKS2_+0x158>
    e604:	8b 45 14             	mov    0x14(%ebp),%eax
    e607:	8b 4d 10             	mov    0x10(%ebp),%ecx
    e60a:	8b 00                	mov    (%eax),%eax
    e60c:	8b 49 10             	mov    0x10(%ecx),%ecx
    e60f:	89 45 d4             	mov    %eax,-0x2c(%ebp)
    e612:	89 4d c4             	mov    %ecx,-0x3c(%ebp)
    e615:	8b 75 d4             	mov    -0x2c(%ebp),%esi
    e618:	89 cf                	mov    %ecx,%edi
    e61a:	8b 50 f4             	mov    -0xc(%eax),%edx
    e61d:	8b 41 f4             	mov    -0xc(%ecx),%eax
    e620:	89 45 d8             	mov    %eax,-0x28(%ebp)
    e623:	39 d0                	cmp    %edx,%eax
    e625:	89 d0                	mov    %edx,%eax
    e627:	0f 46 45 d8          	cmovbe -0x28(%ebp),%eax
    e62b:	89 55 dc             	mov    %edx,-0x24(%ebp)
    e62e:	89 c1                	mov    %eax,%ecx
    e630:	39 c0                	cmp    %eax,%eax
    e632:	f3 a6                	repz cmpsb %es:(%edi),%ds:(%esi)
    e634:	0f 92 c1             	setb   %cl
    e637:	0f 97 c2             	seta   %dl
    e63a:	89 ce                	mov    %ecx,%esi
    e63c:	89 d1                	mov    %edx,%ecx
    e63e:	89 f2                	mov    %esi,%edx
    e640:	8b 75 dc             	mov    -0x24(%ebp),%esi
    e643:	28 d1                	sub    %dl,%cl
    e645:	2b 75 d8             	sub    -0x28(%ebp),%esi
    e648:	0f be c9             	movsbl %cl,%ecx
    e64b:	85 c9                	test   %ecx,%ecx
    e64d:	0f 44 ce             	cmove  %esi,%ecx
    e650:	85 c9                	test   %ecx,%ecx
    e652:	78 44                	js     e698 <_ZNSt8_Rb_treeISsSt4pairIKSsiESt10_Select1stIS2_ESt4lessISsESaIS2_EE17_M_insert_unique_ESt23_Rb_tree_const_iteratorIS2_ERKS2_+0xb8>
    e654:	39 c0                	cmp    %eax,%eax
    e656:	89 c1                	mov    %eax,%ecx
    e658:	8b 75 c4             	mov    -0x3c(%ebp),%esi
    e65b:	8b 7d d4             	mov    -0x2c(%ebp),%edi
    e65e:	f3 a6                	repz cmpsb %es:(%edi),%ds:(%esi)
    e660:	0f 92 c2             	setb   %dl
    e663:	0f 97 c0             	seta   %al
    e666:	28 d0                	sub    %dl,%al
    e668:	8b 55 d8             	mov    -0x28(%ebp),%edx
    e66b:	0f be c0             	movsbl %al,%eax
    e66e:	2b 55 dc             	sub    -0x24(%ebp),%edx
    e671:	85 c0                	test   %eax,%eax
    e673:	0f 44 c2             	cmove  %edx,%eax
    e676:	85 c0                	test   %eax,%eax
    e678:	0f 88 1a 01 00 00    	js     e798 <_ZNSt8_Rb_treeISsSt4pairIKSsiESt10_Select1stIS2_ESt4lessISsESaIS2_EE17_M_insert_unique_ESt23_Rb_tree_const_iteratorIS2_ERKS2_+0x1b8>
    e67e:	8b 4d 08             	mov    0x8(%ebp),%ecx
    e681:	8b 45 10             	mov    0x10(%ebp),%eax
    e684:	89 01                	mov    %eax,(%ecx)
    e686:	8b 45 08             	mov    0x8(%ebp),%eax
    e689:	8d 65 f4             	lea    -0xc(%ebp),%esp
    e68c:	5b                   	pop    %ebx
    e68d:	5e                   	pop    %esi
    e68e:	5f                   	pop    %edi
    e68f:	5d                   	pop    %ebp
    e690:	c2 04 00             	ret    $0x4
    e693:	90                   	nop
    e694:	8d 74 26 00          	lea    0x0(%esi,%eiz,1),%esi
    e698:	8b 4d 0c             	mov    0xc(%ebp),%ecx
    e69b:	8b 41 0c             	mov    0xc(%ecx),%eax
    e69e:	3b 45 10             	cmp    0x10(%ebp),%eax
    e6a1:	0f 84 89 01 00 00    	je     e830 <_ZNSt8_Rb_treeISsSt4pairIKSsiESt10_Select1stIS2_ESt4lessISsESaIS2_EE17_M_insert_unique_ESt23_Rb_tree_const_iteratorIS2_ERKS2_+0x250>
    e6a7:	8b 45 10             	mov    0x10(%ebp),%eax
    e6aa:	89 04 24             	mov    %eax,(%esp)
    e6ad:	e8 6e 8b ff ff       	call   7220 <_ZSt18_Rb_tree_decrementPKSt18_Rb_tree_node_base@plt>
    e6b2:	8b 4d 14             	mov    0x14(%ebp),%ecx
    e6b5:	8b 70 10             	mov    0x10(%eax),%esi
    e6b8:	8b 39                	mov    (%ecx),%edi
    e6ba:	8b 56 f4             	mov    -0xc(%esi),%edx
    e6bd:	89 55 d8             	mov    %edx,-0x28(%ebp)
    e6c0:	8b 4d d8             	mov    -0x28(%ebp),%ecx
    e6c3:	8b 57 f4             	mov    -0xc(%edi),%edx
    e6c6:	39 ca                	cmp    %ecx,%edx
    e6c8:	89 55 dc             	mov    %edx,-0x24(%ebp)
    e6cb:	0f 46 ca             	cmovbe %edx,%ecx
    e6ce:	39 c9                	cmp    %ecx,%ecx
    e6d0:	f3 a6                	repz cmpsb %es:(%edi),%ds:(%esi)
    e6d2:	0f 92 c1             	setb   %cl
    e6d5:	0f 97 c2             	seta   %dl
    e6d8:	89 ce                	mov    %ecx,%esi
    e6da:	89 d1                	mov    %edx,%ecx
    e6dc:	89 f2                	mov    %esi,%edx
    e6de:	28 d1                	sub    %dl,%cl
    e6e0:	8b 55 d8             	mov    -0x28(%ebp),%edx
    e6e3:	0f be c9             	movsbl %cl,%ecx
    e6e6:	2b 55 dc             	sub    -0x24(%ebp),%edx
    e6e9:	85 c9                	test   %ecx,%ecx
    e6eb:	0f 44 ca             	cmove  %edx,%ecx
    e6ee:	85 c9                	test   %ecx,%ecx
    e6f0:	79 6e                	jns    e760 <_ZNSt8_Rb_treeISsSt4pairIKSsiESt10_Select1stIS2_ESt4lessISsESaIS2_EE17_M_insert_unique_ESt23_Rb_tree_const_iteratorIS2_ERKS2_+0x180>
    e6f2:	8b 48 0c             	mov    0xc(%eax),%ecx
    e6f5:	85 c9                	test   %ecx,%ecx
    e6f7:	0f 84 5b 01 00 00    	je     e858 <_ZNSt8_Rb_treeISsSt4pairIKSsiESt10_Select1stIS2_ESt4lessISsESaIS2_EE17_M_insert_unique_ESt23_Rb_tree_const_iteratorIS2_ERKS2_+0x278>
    e6fd:	8b 45 10             	mov    0x10(%ebp),%eax
    e700:	8b 4d 14             	mov    0x14(%ebp),%ecx
    e703:	89 4c 24 10          	mov    %ecx,0x10(%esp)
    e707:	89 44 24 0c          	mov    %eax,0xc(%esp)
    e70b:	89 44 24 08          	mov    %eax,0x8(%esp)
    e70f:	8b 55 0c             	mov    0xc(%ebp),%edx
    e712:	8b 4d 08             	mov    0x8(%ebp),%ecx
    e715:	89 54 24 04          	mov    %edx,0x4(%esp)
    e719:	89 0c 24             	mov    %ecx,(%esp)
    e71c:	e8 9f 92 ff ff       	call   79c0 <_ZNSt8_Rb_treeISsSt4pairIKSsiESt10_Select1stIS2_ESt4lessISsESaIS2_EE10_M_insert_EPKSt18_Rb_tree_node_baseSB_RKS2_@plt>
    e721:	83 ec 04             	sub    $0x4,%esp
    e724:	8b 45 08             	mov    0x8(%ebp),%eax
    e727:	8d 65 f4             	lea    -0xc(%ebp),%esp
    e72a:	5b                   	pop    %ebx
    e72b:	5e                   	pop    %esi
    e72c:	5f                   	pop    %edi
    e72d:	5d                   	pop    %ebp
    e72e:	c2 04 00             	ret    $0x4
    e731:	8d b4 26 00 00 00 00 	lea    0x0(%esi,%eiz,1),%esi
    e738:	8b 45 0c             	mov    0xc(%ebp),%eax
    e73b:	8b 70 14             	mov    0x14(%eax),%esi
    e73e:	85 f6                	test   %esi,%esi
    e740:	74 1e                	je     e760 <_ZNSt8_Rb_treeISsSt4pairIKSsiESt10_Select1stIS2_ESt4lessISsESaIS2_EE17_M_insert_unique_ESt23_Rb_tree_const_iteratorIS2_ERKS2_+0x180>
    e742:	8b 55 14             	mov    0x14(%ebp),%edx
    e745:	89 54 24 04          	mov    %edx,0x4(%esp)
    e749:	8b 40 10             	mov    0x10(%eax),%eax
    e74c:	83 c0 10             	add    $0x10,%eax
    e74f:	89 04 24             	mov    %eax,(%esp)
    e752:	e8 a9 95 ff ff       	call   7d00 <_ZNKSs7compareERKSs@plt>
    e757:	85 c0                	test   %eax,%eax
    e759:	0f 88 91 00 00 00    	js     e7f0 <_ZNSt8_Rb_treeISsSt4pairIKSsiESt10_Select1stIS2_ESt4lessISsESaIS2_EE17_M_insert_unique_ESt23_Rb_tree_const_iteratorIS2_ERKS2_+0x210>
    e75f:	90                   	nop
    e760:	8b 55 14             	mov    0x14(%ebp),%edx
    e763:	8b 4d 0c             	mov    0xc(%ebp),%ecx
    e766:	8d 45 e0             	lea    -0x20(%ebp),%eax
    e769:	89 54 24 08          	mov    %edx,0x8(%esp)
    e76d:	89 04 24             	mov    %eax,(%esp)
    e770:	89 4c 24 04          	mov    %ecx,0x4(%esp)
    e774:	e8 b7 89 ff ff       	call   7130 <_ZNSt8_Rb_treeISsSt4pairIKSsiESt10_Select1stIS2_ESt4lessISsESaIS2_EE16_M_insert_uniqueERKS2_@plt>
    e779:	8b 55 08             	mov    0x8(%ebp),%edx
    e77c:	8b 45 e0             	mov    -0x20(%ebp),%eax
    e77f:	83 ec 04             	sub    $0x4,%esp
    e782:	89 02                	mov    %eax,(%edx)
    e784:	8b 45 08             	mov    0x8(%ebp),%eax
    e787:	8d 65 f4             	lea    -0xc(%ebp),%esp
    e78a:	5b                   	pop    %ebx
    e78b:	5e                   	pop    %esi
    e78c:	5f                   	pop    %edi
    e78d:	5d                   	pop    %ebp
    e78e:	c2 04 00             	ret    $0x4
    e791:	8d b4 26 00 00 00 00 	lea    0x0(%esi,%eiz,1),%esi
    e798:	8b 4d 0c             	mov    0xc(%ebp),%ecx
    e79b:	8b 41 10             	mov    0x10(%ecx),%eax
    e79e:	3b 45 10             	cmp    0x10(%ebp),%eax
    e7a1:	0f 84 de 00 00 00    	je     e885 <_ZNSt8_Rb_treeISsSt4pairIKSsiESt10_Select1stIS2_ESt4lessISsESaIS2_EE17_M_insert_unique_ESt23_Rb_tree_const_iteratorIS2_ERKS2_+0x2a5>
    e7a7:	8b 45 10             	mov    0x10(%ebp),%eax
    e7aa:	89 04 24             	mov    %eax,(%esp)
    e7ad:	e8 7e 8e ff ff       	call   7630 <_ZSt18_Rb_tree_incrementPKSt18_Rb_tree_node_base@plt>
    e7b2:	8b 55 14             	mov    0x14(%ebp),%edx
    e7b5:	89 c6                	mov    %eax,%esi
    e7b7:	89 14 24             	mov    %edx,(%esp)
    e7ba:	8d 40 10             	lea    0x10(%eax),%eax
    e7bd:	89 44 24 04          	mov    %eax,0x4(%esp)
    e7c1:	e8 3a 95 ff ff       	call   7d00 <_ZNKSs7compareERKSs@plt>
    e7c6:	85 c0                	test   %eax,%eax
    e7c8:	79 96                	jns    e760 <_ZNSt8_Rb_treeISsSt4pairIKSsiESt10_Select1stIS2_ESt4lessISsESaIS2_EE17_M_insert_unique_ESt23_Rb_tree_const_iteratorIS2_ERKS2_+0x180>
    e7ca:	8b 4d 10             	mov    0x10(%ebp),%ecx
    e7cd:	8b 51 0c             	mov    0xc(%ecx),%edx
    e7d0:	85 d2                	test   %edx,%edx
    e7d2:	74 3a                	je     e80e <_ZNSt8_Rb_treeISsSt4pairIKSsiESt10_Select1stIS2_ESt4lessISsESaIS2_EE17_M_insert_unique_ESt23_Rb_tree_const_iteratorIS2_ERKS2_+0x22e>
    e7d4:	8b 45 14             	mov    0x14(%ebp),%eax
    e7d7:	89 74 24 0c          	mov    %esi,0xc(%esp)
    e7db:	89 44 24 10          	mov    %eax,0x10(%esp)
    e7df:	89 74 24 08          	mov    %esi,0x8(%esp)
    e7e3:	8b 55 0c             	mov    0xc(%ebp),%edx
    e7e6:	e9 27 ff ff ff       	jmp    e712 <_ZNSt8_Rb_treeISsSt4pairIKSsiESt10_Select1stIS2_ESt4lessISsESaIS2_EE17_M_insert_unique_ESt23_Rb_tree_const_iteratorIS2_ERKS2_+0x132>
    e7eb:	90                   	nop
    e7ec:	8d 74 26 00          	lea    0x0(%esi,%eiz,1),%esi
    e7f0:	8b 55 0c             	mov    0xc(%ebp),%edx
    e7f3:	8b 45 14             	mov    0x14(%ebp),%eax
    e7f6:	89 44 24 10          	mov    %eax,0x10(%esp)
    e7fa:	8b 42 10             	mov    0x10(%edx),%eax
    e7fd:	c7 44 24 08 00 00 00 	movl   $0x0,0x8(%esp)
    e804:	00 
    e805:	89 44 24 0c          	mov    %eax,0xc(%esp)
    e809:	e9 04 ff ff ff       	jmp    e712 <_ZNSt8_Rb_treeISsSt4pairIKSsiESt10_Select1stIS2_ESt4lessISsESaIS2_EE17_M_insert_unique_ESt23_Rb_tree_const_iteratorIS2_ERKS2_+0x132>
    e80e:	8b 45 14             	mov    0x14(%ebp),%eax
    e811:	89 4c 24 0c          	mov    %ecx,0xc(%esp)
    e815:	89 44 24 10          	mov    %eax,0x10(%esp)
    e819:	c7 44 24 08 00 00 00 	movl   $0x0,0x8(%esp)
    e820:	00 
    e821:	8b 55 0c             	mov    0xc(%ebp),%edx
    e824:	e9 e9 fe ff ff       	jmp    e712 <_ZNSt8_Rb_treeISsSt4pairIKSsiESt10_Select1stIS2_ESt4lessISsESaIS2_EE17_M_insert_unique_ESt23_Rb_tree_const_iteratorIS2_ERKS2_+0x132>
    e829:	8d b4 26 00 00 00 00 	lea    0x0(%esi,%eiz,1),%esi
    e830:	8b 55 14             	mov    0x14(%ebp),%edx
    e833:	89 44 24 0c          	mov    %eax,0xc(%esp)
    e837:	89 54 24 10          	mov    %edx,0x10(%esp)
    e83b:	89 44 24 08          	mov    %eax,0x8(%esp)
    e83f:	89 4c 24 04          	mov    %ecx,0x4(%esp)
    e843:	8b 4d 08             	mov    0x8(%ebp),%ecx
    e846:	89 0c 24             	mov    %ecx,(%esp)
    e849:	e8 72 91 ff ff       	call   79c0 <_ZNSt8_Rb_treeISsSt4pairIKSsiESt10_Select1stIS2_ESt4lessISsESaIS2_EE10_M_insert_EPKSt18_Rb_tree_node_baseSB_RKS2_@plt>
    e84e:	83 ec 04             	sub    $0x4,%esp
    e851:	e9 30 fe ff ff       	jmp    e686 <_ZNSt8_Rb_treeISsSt4pairIKSsiESt10_Select1stIS2_ESt4lessISsESaIS2_EE17_M_insert_unique_ESt23_Rb_tree_const_iteratorIS2_ERKS2_+0xa6>
    e856:	66 90                	xchg   %ax,%ax
    e858:	8b 4d 14             	mov    0x14(%ebp),%ecx
    e85b:	89 44 24 0c          	mov    %eax,0xc(%esp)
    e85f:	8b 55 08             	mov    0x8(%ebp),%edx
    e862:	8b 45 0c             	mov    0xc(%ebp),%eax
    e865:	89 4c 24 10          	mov    %ecx,0x10(%esp)
    e869:	c7 44 24 08 00 00 00 	movl   $0x0,0x8(%esp)
    e870:	00 
    e871:	89 44 24 04          	mov    %eax,0x4(%esp)
    e875:	89 14 24             	mov    %edx,(%esp)
    e878:	e8 43 91 ff ff       	call   79c0 <_ZNSt8_Rb_treeISsSt4pairIKSsiESt10_Select1stIS2_ESt4lessISsESaIS2_EE10_M_insert_EPKSt18_Rb_tree_node_baseSB_RKS2_@plt>
    e87d:	83 ec 04             	sub    $0x4,%esp
    e880:	e9 01 fe ff ff       	jmp    e686 <_ZNSt8_Rb_treeISsSt4pairIKSsiESt10_Select1stIS2_ESt4lessISsESaIS2_EE17_M_insert_unique_ESt23_Rb_tree_const_iteratorIS2_ERKS2_+0xa6>
    e885:	8b 55 14             	mov    0x14(%ebp),%edx
    e888:	89 44 24 0c          	mov    %eax,0xc(%esp)
    e88c:	89 54 24 10          	mov    %edx,0x10(%esp)
    e890:	c7 44 24 08 00 00 00 	movl   $0x0,0x8(%esp)
    e897:	00 
    e898:	eb a5                	jmp    e83f <_ZNSt8_Rb_treeISsSt4pairIKSsiESt10_Select1stIS2_ESt4lessISsESaIS2_EE17_M_insert_unique_ESt23_Rb_tree_const_iteratorIS2_ERKS2_+0x25f>
    e89a:	90                   	nop
    e89b:	90                   	nop
    e89c:	90                   	nop
    e89d:	90                   	nop
    e89e:	90                   	nop
    e89f:	90                   	nop

0000e8a0 <_ZNSt6vectorI8MaterialSaIS0_EE13_M_insert_auxEN9__gnu_cxx17__normal_iteratorIPS0_S2_EERKS0_>:
    e8a0:	55                   	push   %ebp
    e8a1:	89 e5                	mov    %esp,%ebp
    e8a3:	57                   	push   %edi
    e8a4:	56                   	push   %esi
    e8a5:	53                   	push   %ebx
    e8a6:	e8 8e 95 ff ff       	call   7e39 <__i686.get_pc_thunk.bx>
    e8ab:	81 c3 f9 ab 00 00    	add    $0xabf9,%ebx
    e8b1:	8d 64 24 84          	lea    -0x7c(%esp),%esp
    e8b5:	8b 45 08             	mov    0x8(%ebp),%eax
    e8b8:	8b 55 08             	mov    0x8(%ebp),%edx
    e8bb:	8b 75 10             	mov    0x10(%ebp),%esi
    e8be:	8b 40 04             	mov    0x4(%eax),%eax
    e8c1:	3b 42 08             	cmp    0x8(%edx),%eax
    e8c4:	89 45 a4             	mov    %eax,-0x5c(%ebp)
    e8c7:	0f 84 e0 01 00 00    	je     eaad <_ZNSt6vectorI8MaterialSaIS0_EE13_M_insert_auxEN9__gnu_cxx17__normal_iteratorIPS0_S2_EERKS0_+0x20d>
    e8cd:	85 c0                	test   %eax,%eax
    e8cf:	0f 84 19 04 00 00    	je     ecee <_ZNSt6vectorI8MaterialSaIS0_EE13_M_insert_auxEN9__gnu_cxx17__normal_iteratorIPS0_S2_EERKS0_+0x44e>
    e8d5:	89 c7                	mov    %eax,%edi
    e8d7:	89 04 24             	mov    %eax,(%esp)
    e8da:	83 ef 38             	sub    $0x38,%edi
    e8dd:	89 7c 24 04          	mov    %edi,0x4(%esp)
    e8e1:	e8 0a 89 ff ff       	call   71f0 <_ZNSsC1ERKSs@plt>
    e8e6:	8b 4d a4             	mov    -0x5c(%ebp),%ecx
    e8e9:	8b 47 04             	mov    0x4(%edi),%eax
    e8ec:	89 41 04             	mov    %eax,0x4(%ecx)
    e8ef:	8b 47 08             	mov    0x8(%edi),%eax
    e8f2:	89 41 08             	mov    %eax,0x8(%ecx)
    e8f5:	8b 47 0c             	mov    0xc(%edi),%eax
    e8f8:	89 41 0c             	mov    %eax,0xc(%ecx)
    e8fb:	8b 47 10             	mov    0x10(%edi),%eax
    e8fe:	89 41 10             	mov    %eax,0x10(%ecx)
    e901:	8b 47 14             	mov    0x14(%edi),%eax
    e904:	89 41 14             	mov    %eax,0x14(%ecx)
    e907:	8b 47 18             	mov    0x18(%edi),%eax
    e90a:	89 41 18             	mov    %eax,0x18(%ecx)
    e90d:	8b 47 1c             	mov    0x1c(%edi),%eax
    e910:	89 41 1c             	mov    %eax,0x1c(%ecx)
    e913:	8b 47 20             	mov    0x20(%edi),%eax
    e916:	89 41 20             	mov    %eax,0x20(%ecx)
    e919:	8b 47 24             	mov    0x24(%edi),%eax
    e91c:	89 41 24             	mov    %eax,0x24(%ecx)
    e91f:	8b 47 28             	mov    0x28(%edi),%eax
    e922:	89 41 28             	mov    %eax,0x28(%ecx)
    e925:	8b 47 2c             	mov    0x2c(%edi),%eax
    e928:	89 41 2c             	mov    %eax,0x2c(%ecx)
    e92b:	8b 47 30             	mov    0x30(%edi),%eax
    e92e:	89 41 30             	mov    %eax,0x30(%ecx)
    e931:	8b 47 34             	mov    0x34(%edi),%eax
    e934:	89 41 34             	mov    %eax,0x34(%ecx)
    e937:	8b 55 08             	mov    0x8(%ebp),%edx
    e93a:	8b 42 04             	mov    0x4(%edx),%eax
    e93d:	8b 4d 08             	mov    0x8(%ebp),%ecx
    e940:	8d 40 38             	lea    0x38(%eax),%eax
    e943:	89 41 04             	mov    %eax,0x4(%ecx)
    e946:	8d 45 ac             	lea    -0x54(%ebp),%eax
    e949:	89 74 24 04          	mov    %esi,0x4(%esp)
    e94d:	89 45 a4             	mov    %eax,-0x5c(%ebp)
    e950:	89 04 24             	mov    %eax,(%esp)
    e953:	e8 98 88 ff ff       	call   71f0 <_ZNSsC1ERKSs@plt>
    e958:	8b 46 04             	mov    0x4(%esi),%eax
    e95b:	8b 55 08             	mov    0x8(%ebp),%edx
    e95e:	89 45 b0             	mov    %eax,-0x50(%ebp)
    e961:	8b 46 08             	mov    0x8(%esi),%eax
    e964:	89 45 b4             	mov    %eax,-0x4c(%ebp)
    e967:	8b 46 0c             	mov    0xc(%esi),%eax
    e96a:	89 45 b8             	mov    %eax,-0x48(%ebp)
    e96d:	8b 46 10             	mov    0x10(%esi),%eax
    e970:	89 45 bc             	mov    %eax,-0x44(%ebp)
    e973:	8b 46 14             	mov    0x14(%esi),%eax
    e976:	89 45 c0             	mov    %eax,-0x40(%ebp)
    e979:	8b 46 18             	mov    0x18(%esi),%eax
    e97c:	89 45 c4             	mov    %eax,-0x3c(%ebp)
    e97f:	8b 46 1c             	mov    0x1c(%esi),%eax
    e982:	89 45 c8             	mov    %eax,-0x38(%ebp)
    e985:	8b 46 20             	mov    0x20(%esi),%eax
    e988:	89 45 cc             	mov    %eax,-0x34(%ebp)
    e98b:	8b 46 24             	mov    0x24(%esi),%eax
    e98e:	89 45 d0             	mov    %eax,-0x30(%ebp)
    e991:	8b 46 28             	mov    0x28(%esi),%eax
    e994:	89 45 d4             	mov    %eax,-0x2c(%ebp)
    e997:	8b 46 2c             	mov    0x2c(%esi),%eax
    e99a:	89 45 d8             	mov    %eax,-0x28(%ebp)
    e99d:	8b 46 30             	mov    0x30(%esi),%eax
    e9a0:	89 45 dc             	mov    %eax,-0x24(%ebp)
    e9a3:	8b 46 34             	mov    0x34(%esi),%eax
    e9a6:	8b 72 04             	mov    0x4(%edx),%esi
    e9a9:	89 45 e0             	mov    %eax,-0x20(%ebp)
    e9ac:	8d 7e 90             	lea    -0x70(%esi),%edi
    e9af:	2b 7d 0c             	sub    0xc(%ebp),%edi
    e9b2:	c1 ff 03             	sar    $0x3,%edi
    e9b5:	69 ff b7 6d db b6    	imul   $0xb6db6db7,%edi,%edi
    e9bb:	85 ff                	test   %edi,%edi
    e9bd:	7e 70                	jle    ea2f <_ZNSt6vectorI8MaterialSaIS0_EE13_M_insert_auxEN9__gnu_cxx17__normal_iteratorIPS0_S2_EERKS0_+0x18f>
    e9bf:	8d 76 c8             	lea    -0x38(%esi),%esi
    e9c2:	8d b6 00 00 00 00    	lea    0x0(%esi),%esi
    e9c8:	8d 46 90             	lea    -0x70(%esi),%eax
    e9cb:	8d 76 c8             	lea    -0x38(%esi),%esi
    e9ce:	89 44 24 04          	mov    %eax,0x4(%esp)
    e9d2:	89 34 24             	mov    %esi,(%esp)
    e9d5:	e8 56 8d ff ff       	call   7730 <_ZNSs6assignERKSs@plt>
    e9da:	8b 46 cc             	mov    -0x34(%esi),%eax
    e9dd:	8d 7f ff             	lea    -0x1(%edi),%edi
    e9e0:	89 46 04             	mov    %eax,0x4(%esi)
    e9e3:	8b 46 d0             	mov    -0x30(%esi),%eax
    e9e6:	89 46 08             	mov    %eax,0x8(%esi)
    e9e9:	8b 46 d4             	mov    -0x2c(%esi),%eax
    e9ec:	89 46 0c             	mov    %eax,0xc(%esi)
    e9ef:	8b 46 d8             	mov    -0x28(%esi),%eax
    e9f2:	89 46 10             	mov    %eax,0x10(%esi)
    e9f5:	8b 46 dc             	mov    -0x24(%esi),%eax
    e9f8:	89 46 14             	mov    %eax,0x14(%esi)
    e9fb:	8b 46 e0             	mov    -0x20(%esi),%eax
    e9fe:	89 46 18             	mov    %eax,0x18(%esi)
    ea01:	8b 46 e4             	mov    -0x1c(%esi),%eax
    ea04:	89 46 1c             	mov    %eax,0x1c(%esi)
    ea07:	8b 46 e8             	mov    -0x18(%esi),%eax
    ea0a:	89 46 20             	mov    %eax,0x20(%esi)
    ea0d:	8b 46 ec             	mov    -0x14(%esi),%eax
    ea10:	89 46 24             	mov    %eax,0x24(%esi)
    ea13:	8b 46 f0             	mov    -0x10(%esi),%eax
    ea16:	89 46 28             	mov    %eax,0x28(%esi)
    ea19:	8b 46 f4             	mov    -0xc(%esi),%eax
    ea1c:	89 46 2c             	mov    %eax,0x2c(%esi)
    ea1f:	8b 46 f8             	mov    -0x8(%esi),%eax
    ea22:	89 46 30             	mov    %eax,0x30(%esi)
    ea25:	85 ff                	test   %edi,%edi
    ea27:	8b 46 fc             	mov    -0x4(%esi),%eax
    ea2a:	89 46 34             	mov    %eax,0x34(%esi)
    ea2d:	7f 99                	jg     e9c8 <_ZNSt6vectorI8MaterialSaIS0_EE13_M_insert_auxEN9__gnu_cxx17__normal_iteratorIPS0_S2_EERKS0_+0x128>
    ea2f:	8b 4d a4             	mov    -0x5c(%ebp),%ecx
    ea32:	8b 45 0c             	mov    0xc(%ebp),%eax
    ea35:	89 4c 24 04          	mov    %ecx,0x4(%esp)
    ea39:	89 04 24             	mov    %eax,(%esp)
    ea3c:	e8 ef 8c ff ff       	call   7730 <_ZNSs6assignERKSs@plt>
    ea41:	8b 55 0c             	mov    0xc(%ebp),%edx
    ea44:	8b 45 b0             	mov    -0x50(%ebp),%eax
    ea47:	89 42 04             	mov    %eax,0x4(%edx)
    ea4a:	8b 45 b4             	mov    -0x4c(%ebp),%eax
    ea4d:	89 42 08             	mov    %eax,0x8(%edx)
    ea50:	8b 45 b8             	mov    -0x48(%ebp),%eax
    ea53:	89 42 0c             	mov    %eax,0xc(%edx)
    ea56:	8b 45 bc             	mov    -0x44(%ebp),%eax
    ea59:	89 42 10             	mov    %eax,0x10(%edx)
    ea5c:	8b 45 c0             	mov    -0x40(%ebp),%eax
    ea5f:	89 42 14             	mov    %eax,0x14(%edx)
    ea62:	8b 45 c4             	mov    -0x3c(%ebp),%eax
    ea65:	89 42 18             	mov    %eax,0x18(%edx)
    ea68:	8b 45 c8             	mov    -0x38(%ebp),%eax
    ea6b:	89 42 1c             	mov    %eax,0x1c(%edx)
    ea6e:	8b 45 cc             	mov    -0x34(%ebp),%eax
    ea71:	89 42 20             	mov    %eax,0x20(%edx)
    ea74:	8b 45 d0             	mov    -0x30(%ebp),%eax
    ea77:	89 42 24             	mov    %eax,0x24(%edx)
    ea7a:	8b 45 d4             	mov    -0x2c(%ebp),%eax
    ea7d:	89 42 28             	mov    %eax,0x28(%edx)
    ea80:	8b 45 d8             	mov    -0x28(%ebp),%eax
    ea83:	89 42 2c             	mov    %eax,0x2c(%edx)
    ea86:	8b 45 dc             	mov    -0x24(%ebp),%eax
    ea89:	89 42 30             	mov    %eax,0x30(%edx)
    ea8c:	8b 45 e0             	mov    -0x20(%ebp),%eax
    ea8f:	89 42 34             	mov    %eax,0x34(%edx)
    ea92:	8b 45 ac             	mov    -0x54(%ebp),%eax
    ea95:	83 e8 0c             	sub    $0xc,%eax
    ea98:	3b 83 94 ff ff ff    	cmp    -0x6c(%ebx),%eax
    ea9e:	0f 85 9e 02 00 00    	jne    ed42 <_ZNSt6vectorI8MaterialSaIS0_EE13_M_insert_auxEN9__gnu_cxx17__normal_iteratorIPS0_S2_EERKS0_+0x4a2>
    eaa4:	8d 64 24 7c          	lea    0x7c(%esp),%esp
    eaa8:	5b                   	pop    %ebx
    eaa9:	5e                   	pop    %esi
    eaaa:	5f                   	pop    %edi
    eaab:	5d                   	pop    %ebp
    eaac:	c3                   	ret    
    eaad:	8b 55 08             	mov    0x8(%ebp),%edx
    eab0:	8b 02                	mov    (%edx),%eax
    eab2:	8b 55 a4             	mov    -0x5c(%ebp),%edx
    eab5:	29 c2                	sub    %eax,%edx
    eab7:	c1 fa 03             	sar    $0x3,%edx
    eaba:	69 d2 b7 6d db b6    	imul   $0xb6db6db7,%edx,%edx
    eac0:	85 d2                	test   %edx,%edx
    eac2:	0f 84 2d 02 00 00    	je     ecf5 <_ZNSt6vectorI8MaterialSaIS0_EE13_M_insert_auxEN9__gnu_cxx17__normal_iteratorIPS0_S2_EERKS0_+0x455>
    eac8:	8d 0c 12             	lea    (%edx,%edx,1),%ecx
    eacb:	89 4d 8c             	mov    %ecx,-0x74(%ebp)
    eace:	39 ca                	cmp    %ecx,%edx
    ead0:	0f 86 3f 02 00 00    	jbe    ed15 <_ZNSt6vectorI8MaterialSaIS0_EE13_M_insert_auxEN9__gnu_cxx17__normal_iteratorIPS0_S2_EERKS0_+0x475>
    ead6:	8b 4d 0c             	mov    0xc(%ebp),%ecx
    ead9:	c7 45 8c 24 49 92 04 	movl   $0x4924924,-0x74(%ebp)
    eae0:	29 c1                	sub    %eax,%ecx
    eae2:	89 c8                	mov    %ecx,%eax
    eae4:	c1 f8 03             	sar    $0x3,%eax
    eae7:	69 f8 b7 6d db b6    	imul   $0xb6db6db7,%eax,%edi
    eaed:	b8 e0 ff ff ff       	mov    $0xffffffe0,%eax
    eaf2:	89 04 24             	mov    %eax,(%esp)
    eaf5:	e8 56 83 ff ff       	call   6e50 <_Znwj@plt>
    eafa:	89 45 98             	mov    %eax,-0x68(%ebp)
    eafd:	6b ff 38             	imul   $0x38,%edi,%edi
    eb00:	8b 4d 98             	mov    -0x68(%ebp),%ecx
    eb03:	01 cf                	add    %ecx,%edi
    eb05:	89 4d 90             	mov    %ecx,-0x70(%ebp)
    eb08:	89 7d 9c             	mov    %edi,-0x64(%ebp)
    eb0b:	74 5d                	je     eb6a <_ZNSt6vectorI8MaterialSaIS0_EE13_M_insert_auxEN9__gnu_cxx17__normal_iteratorIPS0_S2_EERKS0_+0x2ca>
    eb0d:	89 74 24 04          	mov    %esi,0x4(%esp)
    eb11:	89 3c 24             	mov    %edi,(%esp)
    eb14:	e8 d7 86 ff ff       	call   71f0 <_ZNSsC1ERKSs@plt>
    eb19:	8b 55 9c             	mov    -0x64(%ebp),%edx
    eb1c:	8b 46 04             	mov    0x4(%esi),%eax
    eb1f:	89 42 04             	mov    %eax,0x4(%edx)
    eb22:	8b 46 08             	mov    0x8(%esi),%eax
    eb25:	89 42 08             	mov    %eax,0x8(%edx)
    eb28:	8b 46 0c             	mov    0xc(%esi),%eax
    eb2b:	89 42 0c             	mov    %eax,0xc(%edx)
    eb2e:	8b 46 10             	mov    0x10(%esi),%eax
    eb31:	89 42 10             	mov    %eax,0x10(%edx)
    eb34:	8b 46 14             	mov    0x14(%esi),%eax
    eb37:	89 42 14             	mov    %eax,0x14(%edx)
    eb3a:	8b 46 18             	mov    0x18(%esi),%eax
    eb3d:	89 42 18             	mov    %eax,0x18(%edx)
    eb40:	8b 46 1c             	mov    0x1c(%esi),%eax
    eb43:	89 42 1c             	mov    %eax,0x1c(%edx)
    eb46:	8b 46 20             	mov    0x20(%esi),%eax
    eb49:	89 42 20             	mov    %eax,0x20(%edx)
    eb4c:	8b 46 24             	mov    0x24(%esi),%eax
    eb4f:	89 42 24             	mov    %eax,0x24(%edx)
    eb52:	8b 46 28             	mov    0x28(%esi),%eax
    eb55:	89 42 28             	mov    %eax,0x28(%edx)
    eb58:	8b 46 2c             	mov    0x2c(%esi),%eax
    eb5b:	89 42 2c             	mov    %eax,0x2c(%edx)
    eb5e:	8b 46 30             	mov    0x30(%esi),%eax
    eb61:	89 42 30             	mov    %eax,0x30(%edx)
    eb64:	8b 46 34             	mov    0x34(%esi),%eax
    eb67:	89 42 34             	mov    %eax,0x34(%edx)
    eb6a:	8b 4d 08             	mov    0x8(%ebp),%ecx
    eb6d:	8b 7d 98             	mov    -0x68(%ebp),%edi
    eb70:	c7 45 90 00 00 00 00 	movl   $0x0,-0x70(%ebp)
    eb77:	89 7d 94             	mov    %edi,-0x6c(%ebp)
    eb7a:	8b 31                	mov    (%ecx),%esi
    eb7c:	3b 75 0c             	cmp    0xc(%ebp),%esi
    eb7f:	74 77                	je     ebf8 <_ZNSt6vectorI8MaterialSaIS0_EE13_M_insert_auxEN9__gnu_cxx17__normal_iteratorIPS0_S2_EERKS0_+0x358>
    eb81:	89 7d a4             	mov    %edi,-0x5c(%ebp)
    eb84:	8b 7d 94             	mov    -0x6c(%ebp),%edi
    eb87:	90                   	nop
    eb88:	85 ff                	test   %edi,%edi
    eb8a:	74 5a                	je     ebe6 <_ZNSt6vectorI8MaterialSaIS0_EE13_M_insert_auxEN9__gnu_cxx17__normal_iteratorIPS0_S2_EERKS0_+0x346>
    eb8c:	89 74 24 04          	mov    %esi,0x4(%esp)
    eb90:	89 3c 24             	mov    %edi,(%esp)
    eb93:	e8 58 86 ff ff       	call   71f0 <_ZNSsC1ERKSs@plt>
    eb98:	8b 46 04             	mov    0x4(%esi),%eax
    eb9b:	89 47 04             	mov    %eax,0x4(%edi)
    eb9e:	8b 46 08             	mov    0x8(%esi),%eax
    eba1:	89 47 08             	mov    %eax,0x8(%edi)
    eba4:	8b 46 0c             	mov    0xc(%esi),%eax
    eba7:	89 47 0c             	mov    %eax,0xc(%edi)
    ebaa:	8b 46 10             	mov    0x10(%esi),%eax
    ebad:	89 47 10             	mov    %eax,0x10(%edi)
    ebb0:	8b 46 14             	mov    0x14(%esi),%eax
    ebb3:	89 47 14             	mov    %eax,0x14(%edi)
    ebb6:	8b 46 18             	mov    0x18(%esi),%eax
    ebb9:	89 47 18             	mov    %eax,0x18(%edi)
    ebbc:	8b 46 1c             	mov    0x1c(%esi),%eax
    ebbf:	89 47 1c             	mov    %eax,0x1c(%edi)
    ebc2:	8b 46 20             	mov    0x20(%esi),%eax
    ebc5:	89 47 20             	mov    %eax,0x20(%edi)
    ebc8:	8b 46 24             	mov    0x24(%esi),%eax
    ebcb:	89 47 24             	mov    %eax,0x24(%edi)
    ebce:	8b 46 28             	mov    0x28(%esi),%eax
    ebd1:	89 47 28             	mov    %eax,0x28(%edi)
    ebd4:	8b 46 2c             	mov    0x2c(%esi),%eax
    ebd7:	89 47 2c             	mov    %eax,0x2c(%edi)
    ebda:	8b 46 30             	mov    0x30(%esi),%eax
    ebdd:	89 47 30             	mov    %eax,0x30(%edi)
    ebe0:	8b 46 34             	mov    0x34(%esi),%eax
    ebe3:	89 47 34             	mov    %eax,0x34(%edi)
    ebe6:	83 45 a4 38          	addl   $0x38,-0x5c(%ebp)
    ebea:	8d 76 38             	lea    0x38(%esi),%esi
    ebed:	3b 75 0c             	cmp    0xc(%ebp),%esi
    ebf0:	8b 7d a4             	mov    -0x5c(%ebp),%edi
    ebf3:	75 93                	jne    eb88 <_ZNSt6vectorI8MaterialSaIS0_EE13_M_insert_auxEN9__gnu_cxx17__normal_iteratorIPS0_S2_EERKS0_+0x2e8>
    ebf5:	89 7d 94             	mov    %edi,-0x6c(%ebp)
    ebf8:	8b 55 08             	mov    0x8(%ebp),%edx
    ebfb:	8b 45 94             	mov    -0x6c(%ebp),%eax
    ebfe:	83 c0 38             	add    $0x38,%eax
    ec01:	89 45 90             	mov    %eax,-0x70(%ebp)
    ec04:	89 c7                	mov    %eax,%edi
    ec06:	8b 52 04             	mov    0x4(%edx),%edx
    ec09:	39 f2                	cmp    %esi,%edx
    ec0b:	89 55 a4             	mov    %edx,-0x5c(%ebp)
    ec0e:	0f 84 81 00 00 00    	je     ec95 <_ZNSt6vectorI8MaterialSaIS0_EE13_M_insert_auxEN9__gnu_cxx17__normal_iteratorIPS0_S2_EERKS0_+0x3f5>
    ec14:	8b 4d 94             	mov    -0x6c(%ebp),%ecx
    ec17:	83 c1 70             	add    $0x70,%ecx
    ec1a:	89 4d a0             	mov    %ecx,-0x60(%ebp)
    ec1d:	8d 76 00             	lea    0x0(%esi),%esi
    ec20:	85 ff                	test   %edi,%edi
    ec22:	74 5a                	je     ec7e <_ZNSt6vectorI8MaterialSaIS0_EE13_M_insert_auxEN9__gnu_cxx17__normal_iteratorIPS0_S2_EERKS0_+0x3de>
    ec24:	89 74 24 04          	mov    %esi,0x4(%esp)
    ec28:	89 3c 24             	mov    %edi,(%esp)
    ec2b:	e8 c0 85 ff ff       	call   71f0 <_ZNSsC1ERKSs@plt>
    ec30:	8b 46 04             	mov    0x4(%esi),%eax
    ec33:	89 47 04             	mov    %eax,0x4(%edi)
    ec36:	8b 46 08             	mov    0x8(%esi),%eax
    ec39:	89 47 08             	mov    %eax,0x8(%edi)
    ec3c:	8b 46 0c             	mov    0xc(%esi),%eax
    ec3f:	89 47 0c             	mov    %eax,0xc(%edi)
    ec42:	8b 46 10             	mov    0x10(%esi),%eax
    ec45:	89 47 10             	mov    %eax,0x10(%edi)
    ec48:	8b 46 14             	mov    0x14(%esi),%eax
    ec4b:	89 47 14             	mov    %eax,0x14(%edi)
    ec4e:	8b 46 18             	mov    0x18(%esi),%eax
    ec51:	89 47 18             	mov    %eax,0x18(%edi)
    ec54:	8b 46 1c             	mov    0x1c(%esi),%eax
    ec57:	89 47 1c             	mov    %eax,0x1c(%edi)
    ec5a:	8b 46 20             	mov    0x20(%esi),%eax
    ec5d:	89 47 20             	mov    %eax,0x20(%edi)
    ec60:	8b 46 24             	mov    0x24(%esi),%eax
    ec63:	89 47 24             	mov    %eax,0x24(%edi)
    ec66:	8b 46 28             	mov    0x28(%esi),%eax
    ec69:	89 47 28             	mov    %eax,0x28(%edi)
    ec6c:	8b 46 2c             	mov    0x2c(%esi),%eax
    ec6f:	89 47 2c             	mov    %eax,0x2c(%edi)
    ec72:	8b 46 30             	mov    0x30(%esi),%eax
    ec75:	89 47 30             	mov    %eax,0x30(%edi)
    ec78:	8b 46 34             	mov    0x34(%esi),%eax
    ec7b:	89 47 34             	mov    %eax,0x34(%edi)
    ec7e:	8b 7d a0             	mov    -0x60(%ebp),%edi
    ec81:	8d 76 38             	lea    0x38(%esi),%esi
    ec84:	39 75 a4             	cmp    %esi,-0x5c(%ebp)
    ec87:	8d 47 38             	lea    0x38(%edi),%eax
    ec8a:	89 45 a0             	mov    %eax,-0x60(%ebp)
    ec8d:	75 91                	jne    ec20 <_ZNSt6vectorI8MaterialSaIS0_EE13_M_insert_auxEN9__gnu_cxx17__normal_iteratorIPS0_S2_EERKS0_+0x380>
    ec8f:	8b 55 08             	mov    0x8(%ebp),%edx
    ec92:	8b 72 04             	mov    0x4(%edx),%esi
    ec95:	8b 4d 08             	mov    0x8(%ebp),%ecx
    ec98:	8b 01                	mov    (%ecx),%eax
    ec9a:	39 f0                	cmp    %esi,%eax
    ec9c:	74 27                	je     ecc5 <_ZNSt6vectorI8MaterialSaIS0_EE13_M_insert_auxEN9__gnu_cxx17__normal_iteratorIPS0_S2_EERKS0_+0x425>
    ec9e:	8d 55 e6             	lea    -0x1a(%ebp),%edx
    eca1:	89 55 a0             	mov    %edx,-0x60(%ebp)
    eca4:	8d 74 26 00          	lea    0x0(%esi,%eiz,1),%esi
    eca8:	8b 10                	mov    (%eax),%edx
    ecaa:	83 ea 0c             	sub    $0xc,%edx
    ecad:	3b 93 94 ff ff ff    	cmp    -0x6c(%ebx),%edx
    ecb3:	0f 85 de 00 00 00    	jne    ed97 <_ZNSt6vectorI8MaterialSaIS0_EE13_M_insert_auxEN9__gnu_cxx17__normal_iteratorIPS0_S2_EERKS0_+0x4f7>
    ecb9:	8d 40 38             	lea    0x38(%eax),%eax
    ecbc:	39 c6                	cmp    %eax,%esi
    ecbe:	75 e8                	jne    eca8 <_ZNSt6vectorI8MaterialSaIS0_EE13_M_insert_auxEN9__gnu_cxx17__normal_iteratorIPS0_S2_EERKS0_+0x408>
    ecc0:	8b 45 08             	mov    0x8(%ebp),%eax
    ecc3:	8b 30                	mov    (%eax),%esi
    ecc5:	85 f6                	test   %esi,%esi
    ecc7:	74 08                	je     ecd1 <_ZNSt6vectorI8MaterialSaIS0_EE13_M_insert_auxEN9__gnu_cxx17__normal_iteratorIPS0_S2_EERKS0_+0x431>
    ecc9:	89 34 24             	mov    %esi,(%esp)
    eccc:	e8 ff 87 ff ff       	call   74d0 <_ZdlPv@plt>
    ecd1:	6b 45 8c 38          	imul   $0x38,-0x74(%ebp),%eax
    ecd5:	8b 55 08             	mov    0x8(%ebp),%edx
    ecd8:	8b 4d 98             	mov    -0x68(%ebp),%ecx
    ecdb:	01 c8                	add    %ecx,%eax
    ecdd:	89 0a                	mov    %ecx,(%edx)
    ecdf:	89 7a 04             	mov    %edi,0x4(%edx)
    ece2:	89 42 08             	mov    %eax,0x8(%edx)
    ece5:	8d 64 24 7c          	lea    0x7c(%esp),%esp
    ece9:	5b                   	pop    %ebx
    ecea:	5e                   	pop    %esi
    eceb:	5f                   	pop    %edi
    ecec:	5d                   	pop    %ebp
    eced:	c3                   	ret    
    ecee:	31 c0                	xor    %eax,%eax
    ecf0:	e9 48 fc ff ff       	jmp    e93d <_ZNSt6vectorI8MaterialSaIS0_EE13_M_insert_auxEN9__gnu_cxx17__normal_iteratorIPS0_S2_EERKS0_+0x9d>
    ecf5:	8b 55 0c             	mov    0xc(%ebp),%edx
    ecf8:	c7 45 8c 01 00 00 00 	movl   $0x1,-0x74(%ebp)
    ecff:	29 c2                	sub    %eax,%edx
    ed01:	89 d0                	mov    %edx,%eax
    ed03:	c1 f8 03             	sar    $0x3,%eax
    ed06:	69 f8 b7 6d db b6    	imul   $0xb6db6db7,%eax,%edi
    ed0c:	6b 45 8c 38          	imul   $0x38,-0x74(%ebp),%eax
    ed10:	e9 dd fd ff ff       	jmp    eaf2 <_ZNSt6vectorI8MaterialSaIS0_EE13_M_insert_auxEN9__gnu_cxx17__normal_iteratorIPS0_S2_EERKS0_+0x252>
    ed15:	81 f9 24 49 92 04    	cmp    $0x4924924,%ecx
    ed1b:	0f 87 b5 fd ff ff    	ja     ead6 <_ZNSt6vectorI8MaterialSaIS0_EE13_M_insert_auxEN9__gnu_cxx17__normal_iteratorIPS0_S2_EERKS0_+0x236>
    ed21:	8b 55 0c             	mov    0xc(%ebp),%edx
    ed24:	c7 45 98 00 00 00 00 	movl   $0x0,-0x68(%ebp)
    ed2b:	29 c2                	sub    %eax,%edx
    ed2d:	89 d0                	mov    %edx,%eax
    ed2f:	c1 f8 03             	sar    $0x3,%eax
    ed32:	69 f8 b7 6d db b6    	imul   $0xb6db6db7,%eax,%edi
    ed38:	85 c9                	test   %ecx,%ecx
    ed3a:	0f 84 bd fd ff ff    	je     eafd <_ZNSt6vectorI8MaterialSaIS0_EE13_M_insert_auxEN9__gnu_cxx17__normal_iteratorIPS0_S2_EERKS0_+0x25d>
    ed40:	eb ca                	jmp    ed0c <_ZNSt6vectorI8MaterialSaIS0_EE13_M_insert_auxEN9__gnu_cxx17__normal_iteratorIPS0_S2_EERKS0_+0x46c>
    ed42:	83 bb a0 ff ff ff 00 	cmpl   $0x0,-0x60(%ebx)
    ed49:	74 41                	je     ed8c <_ZNSt6vectorI8MaterialSaIS0_EE13_M_insert_auxEN9__gnu_cxx17__normal_iteratorIPS0_S2_EERKS0_+0x4ec>
    ed4b:	83 ca ff             	or     $0xffffffff,%edx
    ed4e:	f0 0f c1 50 08       	lock xadd %edx,0x8(%eax)
    ed53:	85 d2                	test   %edx,%edx
    ed55:	0f 8f 49 fd ff ff    	jg     eaa4 <_ZNSt6vectorI8MaterialSaIS0_EE13_M_insert_auxEN9__gnu_cxx17__normal_iteratorIPS0_S2_EERKS0_+0x204>
    ed5b:	8d 55 e7             	lea    -0x19(%ebp),%edx
    ed5e:	89 04 24             	mov    %eax,(%esp)
    ed61:	89 54 24 04          	mov    %edx,0x4(%esp)
    ed65:	e8 e6 85 ff ff       	call   7350 <_ZNSs4_Rep10_M_destroyERKSaIcE@plt>
    ed6a:	e9 35 fd ff ff       	jmp    eaa4 <_ZNSt6vectorI8MaterialSaIS0_EE13_M_insert_auxEN9__gnu_cxx17__normal_iteratorIPS0_S2_EERKS0_+0x204>
    ed6f:	89 c6                	mov    %eax,%esi
    ed71:	8b 4d a4             	mov    -0x5c(%ebp),%ecx
    ed74:	89 0c 24             	mov    %ecx,(%esp)
    ed77:	e8 74 8c ff ff       	call   79f0 <_ZNSsD1Ev@plt>
    ed7c:	89 34 24             	mov    %esi,(%esp)
    ed7f:	e8 fc 8d ff ff       	call   7b80 <_Unwind_Resume@plt>
    ed84:	89 04 24             	mov    %eax,(%esp)
    ed87:	e8 f4 8d ff ff       	call   7b80 <_Unwind_Resume@plt>
    ed8c:	8b 50 08             	mov    0x8(%eax),%edx
    ed8f:	8d 4a ff             	lea    -0x1(%edx),%ecx
    ed92:	89 48 08             	mov    %ecx,0x8(%eax)
    ed95:	eb bc                	jmp    ed53 <_ZNSt6vectorI8MaterialSaIS0_EE13_M_insert_auxEN9__gnu_cxx17__normal_iteratorIPS0_S2_EERKS0_+0x4b3>
    ed97:	83 bb a0 ff ff ff 00 	cmpl   $0x0,-0x60(%ebx)
    ed9e:	74 4b                	je     edeb <_ZNSt6vectorI8MaterialSaIS0_EE13_M_insert_auxEN9__gnu_cxx17__normal_iteratorIPS0_S2_EERKS0_+0x54b>
    eda0:	83 c9 ff             	or     $0xffffffff,%ecx
    eda3:	f0 0f c1 4a 08       	lock xadd %ecx,0x8(%edx)
    eda8:	89 4d a4             	mov    %ecx,-0x5c(%ebp)
    edab:	83 7d a4 00          	cmpl   $0x0,-0x5c(%ebp)
    edaf:	0f 8f 04 ff ff ff    	jg     ecb9 <_ZNSt6vectorI8MaterialSaIS0_EE13_M_insert_auxEN9__gnu_cxx17__normal_iteratorIPS0_S2_EERKS0_+0x419>
    edb5:	8b 4d a0             	mov    -0x60(%ebp),%ecx
    edb8:	89 45 88             	mov    %eax,-0x78(%ebp)
    edbb:	89 4c 24 04          	mov    %ecx,0x4(%esp)
    edbf:	89 14 24             	mov    %edx,(%esp)
    edc2:	e8 89 85 ff ff       	call   7350 <_ZNSs4_Rep10_M_destroyERKSaIcE@plt>
    edc7:	8b 45 88             	mov    -0x78(%ebp),%eax
    edca:	e9 ea fe ff ff       	jmp    ecb9 <_ZNSt6vectorI8MaterialSaIS0_EE13_M_insert_auxEN9__gnu_cxx17__normal_iteratorIPS0_S2_EERKS0_+0x419>
    edcf:	89 04 24             	mov    %eax,(%esp)
    edd2:	e8 f9 82 ff ff       	call   70d0 <__cxa_begin_catch@plt>
    edd7:	8b 75 90             	mov    -0x70(%ebp),%esi
    edda:	39 f7                	cmp    %esi,%edi
    eddc:	74 45                	je     ee23 <_ZNSt6vectorI8MaterialSaIS0_EE13_M_insert_auxEN9__gnu_cxx17__normal_iteratorIPS0_S2_EERKS0_+0x583>
    edde:	89 34 24             	mov    %esi,(%esp)
    ede1:	e8 0a 8c ff ff       	call   79f0 <_ZNSsD1Ev@plt>
    ede6:	8d 76 38             	lea    0x38(%esi),%esi
    ede9:	eb ef                	jmp    edda <_ZNSt6vectorI8MaterialSaIS0_EE13_M_insert_auxEN9__gnu_cxx17__normal_iteratorIPS0_S2_EERKS0_+0x53a>
    edeb:	8b 4a 08             	mov    0x8(%edx),%ecx
    edee:	89 4d a4             	mov    %ecx,-0x5c(%ebp)
    edf1:	83 e9 01             	sub    $0x1,%ecx
    edf4:	89 4a 08             	mov    %ecx,0x8(%edx)
    edf7:	eb b2                	jmp    edab <_ZNSt6vectorI8MaterialSaIS0_EE13_M_insert_auxEN9__gnu_cxx17__normal_iteratorIPS0_S2_EERKS0_+0x50b>
    edf9:	89 c6                	mov    %eax,%esi
    edfb:	e8 a0 8c ff ff       	call   7aa0 <__cxa_end_catch@plt>
    ee00:	89 34 24             	mov    %esi,(%esp)
    ee03:	e8 c8 82 ff ff       	call   70d0 <__cxa_begin_catch@plt>
    ee08:	83 7d 90 00          	cmpl   $0x0,-0x70(%ebp)
    ee0c:	8b 75 98             	mov    -0x68(%ebp),%esi
    ee0f:	74 26                	je     ee37 <_ZNSt6vectorI8MaterialSaIS0_EE13_M_insert_auxEN9__gnu_cxx17__normal_iteratorIPS0_S2_EERKS0_+0x597>
    ee11:	39 75 90             	cmp    %esi,-0x70(%ebp)
    ee14:	74 2c                	je     ee42 <_ZNSt6vectorI8MaterialSaIS0_EE13_M_insert_auxEN9__gnu_cxx17__normal_iteratorIPS0_S2_EERKS0_+0x5a2>
    ee16:	89 34 24             	mov    %esi,(%esp)
    ee19:	e8 d2 8b ff ff       	call   79f0 <_ZNSsD1Ev@plt>
    ee1e:	8d 76 38             	lea    0x38(%esi),%esi
    ee21:	eb ee                	jmp    ee11 <_ZNSt6vectorI8MaterialSaIS0_EE13_M_insert_auxEN9__gnu_cxx17__normal_iteratorIPS0_S2_EERKS0_+0x571>
    ee23:	e8 d8 8a ff ff       	call   7900 <__cxa_rethrow@plt>
    ee28:	89 c6                	mov    %eax,%esi
    ee2a:	e8 71 8c ff ff       	call   7aa0 <__cxa_end_catch@plt>
    ee2f:	89 34 24             	mov    %esi,(%esp)
    ee32:	e8 49 8d ff ff       	call   7b80 <_Unwind_Resume@plt>
    ee37:	8b 45 9c             	mov    -0x64(%ebp),%eax
    ee3a:	89 04 24             	mov    %eax,(%esp)
    ee3d:	e8 ae 8b ff ff       	call   79f0 <_ZNSsD1Ev@plt>
    ee42:	83 7d 98 00          	cmpl   $0x0,-0x68(%ebp)
    ee46:	74 0b                	je     ee53 <_ZNSt6vectorI8MaterialSaIS0_EE13_M_insert_auxEN9__gnu_cxx17__normal_iteratorIPS0_S2_EERKS0_+0x5b3>
    ee48:	8b 55 98             	mov    -0x68(%ebp),%edx
    ee4b:	89 14 24             	mov    %edx,(%esp)
    ee4e:	e8 7d 86 ff ff       	call   74d0 <_ZdlPv@plt>
    ee53:	e8 a8 8a ff ff       	call   7900 <__cxa_rethrow@plt>
    ee58:	89 7d 94             	mov    %edi,-0x6c(%ebp)
    ee5b:	89 04 24             	mov    %eax,(%esp)
    ee5e:	e8 6d 82 ff ff       	call   70d0 <__cxa_begin_catch@plt>
    ee63:	8b 75 98             	mov    -0x68(%ebp),%esi
    ee66:	39 75 94             	cmp    %esi,-0x6c(%ebp)
    ee69:	74 1a                	je     ee85 <_ZNSt6vectorI8MaterialSaIS0_EE13_M_insert_auxEN9__gnu_cxx17__normal_iteratorIPS0_S2_EERKS0_+0x5e5>
    ee6b:	89 34 24             	mov    %esi,(%esp)
    ee6e:	e8 7d 8b ff ff       	call   79f0 <_ZNSsD1Ev@plt>
    ee73:	8d 76 38             	lea    0x38(%esi),%esi
    ee76:	eb ee                	jmp    ee66 <_ZNSt6vectorI8MaterialSaIS0_EE13_M_insert_auxEN9__gnu_cxx17__normal_iteratorIPS0_S2_EERKS0_+0x5c6>
    ee78:	89 c6                	mov    %eax,%esi
    ee7a:	eb 84                	jmp    ee00 <_ZNSt6vectorI8MaterialSaIS0_EE13_M_insert_auxEN9__gnu_cxx17__normal_iteratorIPS0_S2_EERKS0_+0x560>
    ee7c:	8d 74 26 00          	lea    0x0(%esi,%eiz,1),%esi
    ee80:	e9 74 ff ff ff       	jmp    edf9 <_ZNSt6vectorI8MaterialSaIS0_EE13_M_insert_auxEN9__gnu_cxx17__normal_iteratorIPS0_S2_EERKS0_+0x559>
    ee85:	e8 76 8a ff ff       	call   7900 <__cxa_rethrow@plt>
    ee8a:	90                   	nop
    ee8b:	90                   	nop
    ee8c:	90                   	nop
    ee8d:	90                   	nop
    ee8e:	90                   	nop
    ee8f:	90                   	nop

0000ee90 <_ZN7Objecte10getModelIdEv>:
    ee90:	55                   	push   %ebp
    ee91:	89 e5                	mov    %esp,%ebp
    ee93:	8b 45 08             	mov    0x8(%ebp),%eax
    ee96:	5d                   	pop    %ebp
    ee97:	8b 40 04             	mov    0x4(%eax),%eax
    ee9a:	c3                   	ret    
    ee9b:	90                   	nop
    ee9c:	8d 74 26 00          	lea    0x0(%esi,%eiz,1),%esi

0000eea0 <_ZN7Objecte11getPositionEv>:
    eea0:	55                   	push   %ebp
    eea1:	89 e5                	mov    %esp,%ebp
    eea3:	8b 55 0c             	mov    0xc(%ebp),%edx
    eea6:	8b 45 08             	mov    0x8(%ebp),%eax
    eea9:	8b 4a 08             	mov    0x8(%edx),%ecx
    eeac:	89 08                	mov    %ecx,(%eax)
    eeae:	8b 4a 0c             	mov    0xc(%edx),%ecx
    eeb1:	89 48 04             	mov    %ecx,0x4(%eax)
    eeb4:	8b 52 10             	mov    0x10(%edx),%edx
    eeb7:	89 50 08             	mov    %edx,0x8(%eax)
    eeba:	5d                   	pop    %ebp
    eebb:	c2 04 00             	ret    $0x4
    eebe:	66 90                	xchg   %ax,%ax

0000eec0 <_ZN7Objecte11setPositionE5Point>:
    eec0:	55                   	push   %ebp
    eec1:	89 e5                	mov    %esp,%ebp
    eec3:	8b 45 08             	mov    0x8(%ebp),%eax
    eec6:	8b 55 14             	mov    0x14(%ebp),%edx
    eec9:	89 50 10             	mov    %edx,0x10(%eax)
    eecc:	8b 55 10             	mov    0x10(%ebp),%edx
    eecf:	89 50 0c             	mov    %edx,0xc(%eax)
    eed2:	8b 55 0c             	mov    0xc(%ebp),%edx
    eed5:	89 50 08             	mov    %edx,0x8(%eax)
    eed8:	5d                   	pop    %ebp
    eed9:	c3                   	ret    
    eeda:	8d b6 00 00 00 00    	lea    0x0(%esi),%esi

0000eee0 <_ZN7Objecte8getScaleEv>:
    eee0:	55                   	push   %ebp
    eee1:	89 e5                	mov    %esp,%ebp
    eee3:	8b 45 08             	mov    0x8(%ebp),%eax
    eee6:	5d                   	pop    %ebp
    eee7:	d9 40 14             	flds   0x14(%eax)
    eeea:	c3                   	ret    
    eeeb:	90                   	nop
    eeec:	8d 74 26 00          	lea    0x0(%esi,%eiz,1),%esi

0000eef0 <_ZN7Objecte14getOrientationEv>:
    eef0:	55                   	push   %ebp
    eef1:	89 e5                	mov    %esp,%ebp
    eef3:	8b 45 08             	mov    0x8(%ebp),%eax
    eef6:	5d                   	pop    %ebp
    eef7:	d9 40 18             	flds   0x18(%eax)
    eefa:	c3                   	ret    
    eefb:	90                   	nop
    eefc:	8d 74 26 00          	lea    0x0(%esi,%eiz,1),%esi

0000ef00 <_ZN7Objecte14setOrientationEf>:
    ef00:	55                   	push   %ebp
    ef01:	89 e5                	mov    %esp,%ebp
    ef03:	8b 45 08             	mov    0x8(%ebp),%eax
    ef06:	8b 55 0c             	mov    0xc(%ebp),%edx
    ef09:	89 50 18             	mov    %edx,0x18(%eax)
    ef0c:	5d                   	pop    %ebp
    ef0d:	c3                   	ret    
    ef0e:	66 90                	xchg   %ax,%ax

0000ef10 <_GLOBAL__I_objecte.cpp>:
    ef10:	55                   	push   %ebp
    ef11:	89 e5                	mov    %esp,%ebp
    ef13:	8d 64 24 e8          	lea    -0x18(%esp),%esp
    ef17:	89 5d f8             	mov    %ebx,-0x8(%ebp)
    ef1a:	89 75 fc             	mov    %esi,-0x4(%ebp)
    ef1d:	e8 17 8f ff ff       	call   7e39 <__i686.get_pc_thunk.bx>
    ef22:	81 c3 82 a5 00 00    	add    $0xa582,%ebx
    ef28:	8d b3 88 24 00 00    	lea    0x2488(%ebx),%esi
    ef2e:	89 34 24             	mov    %esi,(%esp)
    ef31:	e8 7a 8a ff ff       	call   79b0 <_ZNSt8ios_base4InitC1Ev@plt>
    ef36:	8b 83 b0 ff ff ff    	mov    -0x50(%ebx),%eax
    ef3c:	89 74 24 04          	mov    %esi,0x4(%esp)
    ef40:	89 44 24 08          	mov    %eax,0x8(%esp)
    ef44:	8b 83 fc ff ff ff    	mov    -0x4(%ebx),%eax
    ef4a:	89 04 24             	mov    %eax,(%esp)
    ef4d:	e8 9e 83 ff ff       	call   72f0 <__cxa_atexit@plt>
    ef52:	8b 5d f8             	mov    -0x8(%ebp),%ebx
    ef55:	8b 75 fc             	mov    -0x4(%ebp),%esi
    ef58:	89 ec                	mov    %ebp,%esp
    ef5a:	5d                   	pop    %ebp
    ef5b:	c3                   	ret    
    ef5c:	8d 74 26 00          	lea    0x0(%esi,%eiz,1),%esi

0000ef60 <_ZNK7Objecte5getBBERSt6vectorI5ModelSaIS1_EE>:
    ef60:	55                   	push   %ebp
    ef61:	89 e5                	mov    %esp,%ebp
    ef63:	8d 64 24 e8          	lea    -0x18(%esp),%esp
    ef67:	89 5d f8             	mov    %ebx,-0x8(%ebp)
    ef6a:	8b 45 0c             	mov    0xc(%ebp),%eax
    ef6d:	e8 c7 8e ff ff       	call   7e39 <__i686.get_pc_thunk.bx>
    ef72:	81 c3 32 a5 00 00    	add    $0xa532,%ebx
    ef78:	89 75 fc             	mov    %esi,-0x4(%ebp)
    ef7b:	8b 75 08             	mov    0x8(%ebp),%esi
    ef7e:	6b 50 04 34          	imul   $0x34,0x4(%eax),%edx
    ef82:	8b 45 10             	mov    0x10(%ebp),%eax
    ef85:	03 10                	add    (%eax),%edx
    ef87:	89 34 24             	mov    %esi,(%esp)
    ef8a:	89 54 24 04          	mov    %edx,0x4(%esp)
    ef8e:	e8 9d 85 ff ff       	call   7530 <_ZNK5Model11boundingBoxEv@plt>
    ef93:	83 ec 04             	sub    $0x4,%esp
    ef96:	89 f0                	mov    %esi,%eax
    ef98:	8b 5d f8             	mov    -0x8(%ebp),%ebx
    ef9b:	8b 75 fc             	mov    -0x4(%ebp),%esi
    ef9e:	89 ec                	mov    %ebp,%esp
    efa0:	5d                   	pop    %ebp
    efa1:	c2 04 00             	ret    $0x4
    efa4:	8d b6 00 00 00 00    	lea    0x0(%esi),%esi
    efaa:	8d bf 00 00 00 00    	lea    0x0(%edi),%edi

0000efb0 <_ZN7Objecte6getNomEv>:
    efb0:	55                   	push   %ebp
    efb1:	89 e5                	mov    %esp,%ebp
    efb3:	8d 64 24 e8          	lea    -0x18(%esp),%esp
    efb7:	89 5d f8             	mov    %ebx,-0x8(%ebp)
    efba:	8b 45 0c             	mov    0xc(%ebp),%eax
    efbd:	e8 77 8e ff ff       	call   7e39 <__i686.get_pc_thunk.bx>
    efc2:	81 c3 e2 a4 00 00    	add    $0xa4e2,%ebx
    efc8:	89 75 fc             	mov    %esi,-0x4(%ebp)
    efcb:	8b 75 08             	mov    0x8(%ebp),%esi
    efce:	89 44 24 04          	mov    %eax,0x4(%esp)
    efd2:	89 34 24             	mov    %esi,(%esp)
    efd5:	e8 16 82 ff ff       	call   71f0 <_ZNSsC1ERKSs@plt>
    efda:	89 f0                	mov    %esi,%eax
    efdc:	8b 5d f8             	mov    -0x8(%ebp),%ebx
    efdf:	8b 75 fc             	mov    -0x4(%ebp),%esi
    efe2:	89 ec                	mov    %ebp,%esp
    efe4:	5d                   	pop    %ebp
    efe5:	c2 04 00             	ret    $0x4
    efe8:	90                   	nop
    efe9:	8d b4 26 00 00 00 00 	lea    0x0(%esi,%eiz,1),%esi

0000eff0 <_ZN7ObjecteC1ESsi5Pointff>:
    eff0:	55                   	push   %ebp
    eff1:	89 e5                	mov    %esp,%ebp
    eff3:	8d 64 24 c8          	lea    -0x38(%esp),%esp
    eff7:	89 5d f4             	mov    %ebx,-0xc(%ebp)
    effa:	89 75 f8             	mov    %esi,-0x8(%ebp)
    effd:	e8 37 8e ff ff       	call   7e39 <__i686.get_pc_thunk.bx>
    f002:	81 c3 a2 a4 00 00    	add    $0xa4a2,%ebx
    f008:	8b 75 08             	mov    0x8(%ebp),%esi
    f00b:	8b 45 18             	mov    0x18(%ebp),%eax
    f00e:	8b 55 1c             	mov    0x1c(%ebp),%edx
    f011:	8b 4d 0c             	mov    0xc(%ebp),%ecx
    f014:	89 7d fc             	mov    %edi,-0x4(%ebp)
    f017:	89 4c 24 04          	mov    %ecx,0x4(%esp)
    f01b:	8b 7d 14             	mov    0x14(%ebp),%edi
    f01e:	89 34 24             	mov    %esi,(%esp)
    f021:	89 45 e0             	mov    %eax,-0x20(%ebp)
    f024:	89 55 e4             	mov    %edx,-0x1c(%ebp)
    f027:	e8 c4 81 ff ff       	call   71f0 <_ZNSsC1ERKSs@plt>
    f02c:	8b 45 e0             	mov    -0x20(%ebp),%eax
    f02f:	8b 4d 10             	mov    0x10(%ebp),%ecx
    f032:	89 46 0c             	mov    %eax,0xc(%esi)
    f035:	8b 45 20             	mov    0x20(%ebp),%eax
    f038:	89 46 14             	mov    %eax,0x14(%esi)
    f03b:	8b 45 24             	mov    0x24(%ebp),%eax
    f03e:	89 46 18             	mov    %eax,0x18(%esi)
    f041:	8b 83 cc ff ff ff    	mov    -0x34(%ebx),%eax
    f047:	8b 55 e4             	mov    -0x1c(%ebp),%edx
    f04a:	89 4e 04             	mov    %ecx,0x4(%esi)
    f04d:	89 56 10             	mov    %edx,0x10(%esi)
    f050:	89 7e 08             	mov    %edi,0x8(%esi)
    f053:	8b 10                	mov    (%eax),%edx
    f055:	89 56 1c             	mov    %edx,0x1c(%esi)
    f058:	83 c2 01             	add    $0x1,%edx
    f05b:	89 10                	mov    %edx,(%eax)
    f05d:	8b 5d f4             	mov    -0xc(%ebp),%ebx
    f060:	8b 75 f8             	mov    -0x8(%ebp),%esi
    f063:	8b 7d fc             	mov    -0x4(%ebp),%edi
    f066:	89 ec                	mov    %ebp,%esp
    f068:	5d                   	pop    %ebp
    f069:	c3                   	ret    
    f06a:	8d b6 00 00 00 00    	lea    0x0(%esi),%esi

0000f070 <_ZN7Objecte6RenderERSt6vectorI5ModelSaIS1_EE>:
    f070:	55                   	push   %ebp
    f071:	89 e5                	mov    %esp,%ebp
    f073:	57                   	push   %edi
    f074:	56                   	push   %esi
    f075:	8d 7d b8             	lea    -0x48(%ebp),%edi
    f078:	53                   	push   %ebx
    f079:	e8 bb 8d ff ff       	call   7e39 <__i686.get_pc_thunk.bx>
    f07e:	81 c3 26 a4 00 00    	add    $0xa426,%ebx
    f084:	8d 64 24 a4          	lea    -0x5c(%esp),%esp
    f088:	8b 75 08             	mov    0x8(%ebp),%esi
    f08b:	8b 55 0c             	mov    0xc(%ebp),%edx
    f08e:	89 55 b4             	mov    %edx,-0x4c(%ebp)
    f091:	6b 46 04 34          	imul   $0x34,0x4(%esi),%eax
    f095:	03 02                	add    (%edx),%eax
    f097:	89 44 24 04          	mov    %eax,0x4(%esp)
    f09b:	89 3c 24             	mov    %edi,(%esp)
    f09e:	e8 8d 84 ff ff       	call   7530 <_ZNK5Model11boundingBoxEv@plt>
    f0a3:	8d 64 24 fc          	lea    -0x4(%esp),%esp
    f0a7:	8d 45 d0             	lea    -0x30(%ebp),%eax
    f0aa:	8d 4d c4             	lea    -0x3c(%ebp),%ecx
    f0ad:	89 04 24             	mov    %eax,(%esp)
    f0b0:	89 4c 24 08          	mov    %ecx,0x8(%esp)
    f0b4:	89 45 a8             	mov    %eax,-0x58(%ebp)
    f0b7:	89 7c 24 04          	mov    %edi,0x4(%esp)
    f0bb:	e8 70 8a ff ff       	call   7b30 <_ZplRK5PointS1_@plt>
    f0c0:	8d 64 24 fc          	lea    -0x4(%esp),%esp
    f0c4:	8b 45 a8             	mov    -0x58(%ebp),%eax
    f0c7:	8d 4d dc             	lea    -0x24(%ebp),%ecx
    f0ca:	89 44 24 08          	mov    %eax,0x8(%esp)
    f0ce:	89 0c 24             	mov    %ecx,(%esp)
    f0d1:	c7 44 24 04 00 00 00 	movl   $0x3f000000,0x4(%esp)
    f0d8:	3f 
    f0d9:	e8 32 7f ff ff       	call   7010 <_ZmlfRK5Point@plt>
    f0de:	83 ec 04             	sub    $0x4,%esp
    f0e1:	d9 45 bc             	flds   -0x44(%ebp)
    f0e4:	d9 5d a8             	fstps  -0x58(%ebp)
    f0e7:	e8 14 89 ff ff       	call   7a00 <glPushMatrix@plt>
    f0ec:	8b 46 10             	mov    0x10(%esi),%eax
    f0ef:	89 44 24 08          	mov    %eax,0x8(%esp)
    f0f3:	8b 46 0c             	mov    0xc(%esi),%eax
    f0f6:	89 44 24 04          	mov    %eax,0x4(%esp)
    f0fa:	8b 46 08             	mov    0x8(%esi),%eax
    f0fd:	89 04 24             	mov    %eax,(%esp)
    f100:	e8 cb 88 ff ff       	call   79d0 <glTranslatef@plt>
    f105:	c7 44 24 0c 00 00 00 	movl   $0x0,0xc(%esp)
    f10c:	00 
    f10d:	c7 44 24 08 00 00 80 	movl   $0x3f800000,0x8(%esp)
    f114:	3f 
    f115:	c7 44 24 04 00 00 00 	movl   $0x0,0x4(%esp)
    f11c:	00 
    f11d:	8b 46 18             	mov    0x18(%esi),%eax
    f120:	89 04 24             	mov    %eax,(%esp)
    f123:	e8 28 8a ff ff       	call   7b50 <glRotatef@plt>
    f128:	8b 46 14             	mov    0x14(%esi),%eax
    f12b:	89 44 24 08          	mov    %eax,0x8(%esp)
    f12f:	89 44 24 04          	mov    %eax,0x4(%esp)
    f133:	89 04 24             	mov    %eax,(%esp)
    f136:	e8 65 88 ff ff       	call   79a0 <glScalef@plt>
    f13b:	d9 45 e4             	flds   -0x1c(%ebp)
    f13e:	d9 e0                	fchs   
    f140:	d9 5c 24 08          	fstps  0x8(%esp)
    f144:	d9 45 a8             	flds   -0x58(%ebp)
    f147:	d9 e0                	fchs   
    f149:	d9 5c 24 04          	fstps  0x4(%esp)
    f14d:	d9 45 dc             	flds   -0x24(%ebp)
    f150:	d9 e0                	fchs   
    f152:	d9 1c 24             	fstps  (%esp)
    f155:	e8 76 88 ff ff       	call   79d0 <glTranslatef@plt>
    f15a:	8b 46 1c             	mov    0x1c(%esi),%eax
    f15d:	89 04 24             	mov    %eax,(%esp)
    f160:	e8 1b 7d ff ff       	call   6e80 <glLoadName@plt>
    f165:	8b 55 b4             	mov    -0x4c(%ebp),%edx
    f168:	6b 46 04 34          	imul   $0x34,0x4(%esi),%eax
    f16c:	03 02                	add    (%edx),%eax
    f16e:	89 04 24             	mov    %eax,(%esp)
    f171:	e8 da 82 ff ff       	call   7450 <_ZN5Model6RenderEv@plt>
    f176:	8b 83 d0 ff ff ff    	mov    -0x30(%ebx),%eax
    f17c:	80 38 00             	cmpb   $0x0,(%eax)
    f17f:	74 08                	je     f189 <_ZN7Objecte6RenderERSt6vectorI5ModelSaIS1_EE+0x119>
    f181:	89 3c 24             	mov    %edi,(%esp)
    f184:	e8 17 7d ff ff       	call   6ea0 <_ZN3Box6RenderEv@plt>
    f189:	e8 c2 8a ff ff       	call   7c50 <glPopMatrix@plt>
    f18e:	8d 65 f4             	lea    -0xc(%ebp),%esp
    f191:	5b                   	pop    %ebx
    f192:	5e                   	pop    %esi
    f193:	5f                   	pop    %edi
    f194:	5d                   	pop    %ebp
    f195:	c3                   	ret    
    f196:	8d 76 00             	lea    0x0(%esi),%esi
    f199:	8d bc 27 00 00 00 00 	lea    0x0(%edi,%eiz,1),%edi

0000f1a0 <_ZN7ObjecteD1Ev>:
    f1a0:	55                   	push   %ebp
    f1a1:	89 e5                	mov    %esp,%ebp
    f1a3:	53                   	push   %ebx
    f1a4:	e8 90 8c ff ff       	call   7e39 <__i686.get_pc_thunk.bx>
    f1a9:	81 c3 fb a2 00 00    	add    $0xa2fb,%ebx
    f1af:	8d 64 24 dc          	lea    -0x24(%esp),%esp
    f1b3:	8b 45 08             	mov    0x8(%ebp),%eax
    f1b6:	8b 00                	mov    (%eax),%eax
    f1b8:	83 e8 0c             	sub    $0xc,%eax
    f1bb:	3b 83 94 ff ff ff    	cmp    -0x6c(%ebx),%eax
    f1c1:	75 07                	jne    f1ca <_ZN7ObjecteD1Ev+0x2a>
    f1c3:	8d 64 24 24          	lea    0x24(%esp),%esp
    f1c7:	5b                   	pop    %ebx
    f1c8:	5d                   	pop    %ebp
    f1c9:	c3                   	ret    
    f1ca:	83 bb a0 ff ff ff 00 	cmpl   $0x0,-0x60(%ebx)
    f1d1:	74 1d                	je     f1f0 <_ZN7ObjecteD1Ev+0x50>
    f1d3:	83 ca ff             	or     $0xffffffff,%edx
    f1d6:	f0 0f c1 50 08       	lock xadd %edx,0x8(%eax)
    f1db:	85 d2                	test   %edx,%edx
    f1dd:	7f e4                	jg     f1c3 <_ZN7ObjecteD1Ev+0x23>
    f1df:	8d 55 f7             	lea    -0x9(%ebp),%edx
    f1e2:	89 04 24             	mov    %eax,(%esp)
    f1e5:	89 54 24 04          	mov    %edx,0x4(%esp)
    f1e9:	e8 62 81 ff ff       	call   7350 <_ZNSs4_Rep10_M_destroyERKSaIcE@plt>
    f1ee:	eb d3                	jmp    f1c3 <_ZN7ObjecteD1Ev+0x23>
    f1f0:	8b 50 08             	mov    0x8(%eax),%edx
    f1f3:	8d 4a ff             	lea    -0x1(%edx),%ecx
    f1f6:	89 48 08             	mov    %ecx,0x8(%eax)
    f1f9:	eb e0                	jmp    f1db <_ZN7ObjecteD1Ev+0x3b>
    f1fb:	90                   	nop
    f1fc:	8d 74 26 00          	lea    0x0(%esi,%eiz,1),%esi

0000f200 <_ZNK7Objecte16getTransformedBBERSt6vectorI5ModelSaIS1_EE>:
    f200:	55                   	push   %ebp
    f201:	89 e5                	mov    %esp,%ebp
    f203:	57                   	push   %edi
    f204:	56                   	push   %esi
    f205:	53                   	push   %ebx
    f206:	e8 2e 8c ff ff       	call   7e39 <__i686.get_pc_thunk.bx>
    f20b:	81 c3 99 a2 00 00    	add    $0xa299,%ebx
    f211:	8d a4 24 e4 fe ff ff 	lea    -0x11c(%esp),%esp
    f218:	8b 55 0c             	mov    0xc(%ebp),%edx
    f21b:	8b 75 08             	mov    0x8(%ebp),%esi
    f21e:	6b 42 04 34          	imul   $0x34,0x4(%edx),%eax
    f222:	8b 55 10             	mov    0x10(%ebp),%edx
    f225:	8d 7e 0c             	lea    0xc(%esi),%edi
    f228:	03 02                	add    (%edx),%eax
    f22a:	89 34 24             	mov    %esi,(%esp)
    f22d:	89 44 24 04          	mov    %eax,0x4(%esp)
    f231:	e8 fa 82 ff ff       	call   7530 <_ZNK5Model11boundingBoxEv@plt>
    f236:	8d 64 24 fc          	lea    -0x4(%esp),%esp
    f23a:	8d 85 70 ff ff ff    	lea    -0x90(%ebp),%eax
    f240:	89 7c 24 08          	mov    %edi,0x8(%esp)
    f244:	89 85 fc fe ff ff    	mov    %eax,-0x104(%ebp)
    f24a:	89 74 24 04          	mov    %esi,0x4(%esp)
    f24e:	89 04 24             	mov    %eax,(%esp)
    f251:	e8 da 88 ff ff       	call   7b30 <_ZplRK5PointS1_@plt>
    f256:	8d 64 24 fc          	lea    -0x4(%esp),%esp
    f25a:	8b 85 fc fe ff ff    	mov    -0x104(%ebp),%eax
    f260:	8d 55 dc             	lea    -0x24(%ebp),%edx
    f263:	89 44 24 08          	mov    %eax,0x8(%esp)
    f267:	89 95 00 ff ff ff    	mov    %edx,-0x100(%ebp)
    f26d:	89 14 24             	mov    %edx,(%esp)
    f270:	c7 44 24 04 00 00 00 	movl   $0x3f000000,0x4(%esp)
    f277:	3f 
    f278:	e8 93 7d ff ff       	call   7010 <_ZmlfRK5Point@plt>
    f27d:	83 ec 04             	sub    $0x4,%esp
    f280:	8b 46 04             	mov    0x4(%esi),%eax
    f283:	8d 8d 30 ff ff ff    	lea    -0xd0(%ebp),%ecx
    f289:	89 45 e0             	mov    %eax,-0x20(%ebp)
    f28c:	89 8d 04 ff ff ff    	mov    %ecx,-0xfc(%ebp)
    f292:	8b 45 0c             	mov    0xc(%ebp),%eax
    f295:	dd 83 c4 c0 ff ff    	fldl   -0x3f3c(%ebx)
    f29b:	d8 48 18             	fmuls  0x18(%eax)
    f29e:	89 0c 24             	mov    %ecx,(%esp)
    f2a1:	d8 b3 cc c0 ff ff    	fdivs  -0x3f34(%ebx)
    f2a7:	d9 5c 24 04          	fstps  0x4(%esp)
    f2ab:	e8 20 7c ff ff       	call   6ed0 <_Z15MatrixRotationYf@plt>
    f2b0:	8d 64 24 fc          	lea    -0x4(%esp),%esp
    f2b4:	8b 95 00 ff ff ff    	mov    -0x100(%ebp),%edx
    f2ba:	8d 45 d0             	lea    -0x30(%ebp),%eax
    f2bd:	89 54 24 04          	mov    %edx,0x4(%esp)
    f2c1:	89 04 24             	mov    %eax,(%esp)
    f2c4:	89 85 fc fe ff ff    	mov    %eax,-0x104(%ebp)
    f2ca:	e8 11 84 ff ff       	call   76e0 <_ZN6VectorC1ERK5Point@plt>
    f2cf:	8b 85 fc fe ff ff    	mov    -0x104(%ebp),%eax
    f2d5:	89 34 24             	mov    %esi,(%esp)
    f2d8:	89 44 24 04          	mov    %eax,0x4(%esp)
    f2dc:	e8 ff 81 ff ff       	call   74e0 <_ZmIR5PointRK6Vector@plt>
    f2e1:	8b 95 00 ff ff ff    	mov    -0x100(%ebp),%edx
    f2e7:	8d 45 c4             	lea    -0x3c(%ebp),%eax
    f2ea:	89 54 24 04          	mov    %edx,0x4(%esp)
    f2ee:	89 04 24             	mov    %eax,(%esp)
    f2f1:	89 85 fc fe ff ff    	mov    %eax,-0x104(%ebp)
    f2f7:	e8 e4 83 ff ff       	call   76e0 <_ZN6VectorC1ERK5Point@plt>
    f2fc:	8b 85 fc fe ff ff    	mov    -0x104(%ebp),%eax
    f302:	89 3c 24             	mov    %edi,(%esp)
    f305:	89 44 24 04          	mov    %eax,0x4(%esp)
    f309:	e8 d2 81 ff ff       	call   74e0 <_ZmIR5PointRK6Vector@plt>
    f30e:	8b 55 0c             	mov    0xc(%ebp),%edx
    f311:	89 74 24 08          	mov    %esi,0x8(%esp)
    f315:	8d 85 08 ff ff ff    	lea    -0xf8(%ebp),%eax
    f31b:	89 85 fc fe ff ff    	mov    %eax,-0x104(%ebp)
    f321:	8b 52 14             	mov    0x14(%edx),%edx
    f324:	89 04 24             	mov    %eax,(%esp)
    f327:	89 54 24 04          	mov    %edx,0x4(%esp)
    f32b:	e8 e0 7c ff ff       	call   7010 <_ZmlfRK5Point@plt>
    f330:	8b 95 08 ff ff ff    	mov    -0xf8(%ebp),%edx
    f336:	83 ec 04             	sub    $0x4,%esp
    f339:	89 16                	mov    %edx,(%esi)
    f33b:	8b 95 0c ff ff ff    	mov    -0xf4(%ebp),%edx
    f341:	89 56 04             	mov    %edx,0x4(%esi)
    f344:	8b 95 10 ff ff ff    	mov    -0xf0(%ebp),%edx
    f34a:	89 56 08             	mov    %edx,0x8(%esi)
    f34d:	8b 55 0c             	mov    0xc(%ebp),%edx
    f350:	8b 85 fc fe ff ff    	mov    -0x104(%ebp),%eax
    f356:	89 7c 24 08          	mov    %edi,0x8(%esp)
    f35a:	8b 52 14             	mov    0x14(%edx),%edx
    f35d:	89 04 24             	mov    %eax,(%esp)
    f360:	89 54 24 04          	mov    %edx,0x4(%esp)
    f364:	e8 a7 7c ff ff       	call   7010 <_ZmlfRK5Point@plt>
    f369:	83 ec 04             	sub    $0x4,%esp
    f36c:	8b 85 08 ff ff ff    	mov    -0xf8(%ebp),%eax
    f372:	89 46 0c             	mov    %eax,0xc(%esi)
    f375:	8b 85 0c ff ff ff    	mov    -0xf4(%ebp),%eax
    f37b:	89 46 10             	mov    %eax,0x10(%esi)
    f37e:	8b 85 10 ff ff ff    	mov    -0xf0(%ebp),%eax
    f384:	89 46 14             	mov    %eax,0x14(%esi)
    f387:	8d 55 b8             	lea    -0x48(%ebp),%edx
    f38a:	89 74 24 04          	mov    %esi,0x4(%esp)
    f38e:	89 14 24             	mov    %edx,(%esp)
    f391:	89 95 00 ff ff ff    	mov    %edx,-0x100(%ebp)
    f397:	e8 44 83 ff ff       	call   76e0 <_ZN6VectorC1ERK5Point@plt>
    f39c:	8b 8d 04 ff ff ff    	mov    -0xfc(%ebp),%ecx
    f3a2:	8b 95 00 ff ff ff    	mov    -0x100(%ebp),%edx
    f3a8:	8d 45 ac             	lea    -0x54(%ebp),%eax
    f3ab:	89 4c 24 04          	mov    %ecx,0x4(%esp)
    f3af:	89 54 24 08          	mov    %edx,0x8(%esp)
    f3b3:	89 85 fc fe ff ff    	mov    %eax,-0x104(%ebp)
    f3b9:	89 04 24             	mov    %eax,(%esp)
    f3bc:	e8 df 7e ff ff       	call   72a0 <_ZmlRK6MatrixRK6Vector@plt>
    f3c1:	8d 64 24 fc          	lea    -0x4(%esp),%esp
    f3c5:	8b 85 fc fe ff ff    	mov    -0x104(%ebp),%eax
    f3cb:	89 44 24 04          	mov    %eax,0x4(%esp)
    f3cf:	8d 45 a0             	lea    -0x60(%ebp),%eax
    f3d2:	89 04 24             	mov    %eax,(%esp)
    f3d5:	e8 66 80 ff ff       	call   7440 <_ZN5PointC1ERK6Vector@plt>
    f3da:	8b 45 a0             	mov    -0x60(%ebp),%eax
    f3dd:	8d 55 94             	lea    -0x6c(%ebp),%edx
    f3e0:	89 06                	mov    %eax,(%esi)
    f3e2:	8b 45 a4             	mov    -0x5c(%ebp),%eax
    f3e5:	89 46 04             	mov    %eax,0x4(%esi)
    f3e8:	8b 45 a8             	mov    -0x58(%ebp),%eax
    f3eb:	89 46 08             	mov    %eax,0x8(%esi)
    f3ee:	89 95 00 ff ff ff    	mov    %edx,-0x100(%ebp)
    f3f4:	89 7c 24 04          	mov    %edi,0x4(%esp)
    f3f8:	89 14 24             	mov    %edx,(%esp)
    f3fb:	e8 e0 82 ff ff       	call   76e0 <_ZN6VectorC1ERK5Point@plt>
    f400:	8b 8d 04 ff ff ff    	mov    -0xfc(%ebp),%ecx
    f406:	8b 95 00 ff ff ff    	mov    -0x100(%ebp),%edx
    f40c:	8d 45 88             	lea    -0x78(%ebp),%eax
    f40f:	89 4c 24 04          	mov    %ecx,0x4(%esp)
    f413:	89 54 24 08          	mov    %edx,0x8(%esp)
    f417:	89 85 fc fe ff ff    	mov    %eax,-0x104(%ebp)
    f41d:	89 04 24             	mov    %eax,(%esp)
    f420:	e8 7b 7e ff ff       	call   72a0 <_ZmlRK6MatrixRK6Vector@plt>
    f425:	8d 64 24 fc          	lea    -0x4(%esp),%esp
    f429:	8b 85 fc fe ff ff    	mov    -0x104(%ebp),%eax
    f42f:	89 44 24 04          	mov    %eax,0x4(%esp)
    f433:	8d 85 7c ff ff ff    	lea    -0x84(%ebp),%eax
    f439:	89 04 24             	mov    %eax,(%esp)
    f43c:	e8 ff 7f ff ff       	call   7440 <_ZN5PointC1ERK6Vector@plt>
    f441:	8b 85 7c ff ff ff    	mov    -0x84(%ebp),%eax
    f447:	8b 55 0c             	mov    0xc(%ebp),%edx
    f44a:	89 46 0c             	mov    %eax,0xc(%esi)
    f44d:	8b 45 80             	mov    -0x80(%ebp),%eax
    f450:	89 46 10             	mov    %eax,0x10(%esi)
    f453:	8b 45 84             	mov    -0x7c(%ebp),%eax
    f456:	89 46 14             	mov    %eax,0x14(%esi)
    f459:	83 c2 08             	add    $0x8,%edx
    f45c:	89 54 24 04          	mov    %edx,0x4(%esp)
    f460:	89 34 24             	mov    %esi,(%esp)
    f463:	89 95 00 ff ff ff    	mov    %edx,-0x100(%ebp)
    f469:	e8 72 7a ff ff       	call   6ee0 <_ZpLR5PointRKS_@plt>
    f46e:	8b 95 00 ff ff ff    	mov    -0x100(%ebp),%edx
    f474:	89 3c 24             	mov    %edi,(%esp)
    f477:	89 54 24 04          	mov    %edx,0x4(%esp)
    f47b:	e8 60 7a ff ff       	call   6ee0 <_ZpLR5PointRKS_@plt>
    f480:	8d 65 f4             	lea    -0xc(%ebp),%esp
    f483:	89 f0                	mov    %esi,%eax
    f485:	5b                   	pop    %ebx
    f486:	5e                   	pop    %esi
    f487:	5f                   	pop    %edi
    f488:	5d                   	pop    %ebp
    f489:	c2 04 00             	ret    $0x4
    f48c:	90                   	nop
    f48d:	90                   	nop
    f48e:	90                   	nop
    f48f:	90                   	nop

0000f490 <_ZN5Scene8Toogle3DEb>:
    f490:	55                   	push   %ebp
    f491:	89 e5                	mov    %esp,%ebp
    f493:	8b 55 08             	mov    0x8(%ebp),%edx
    f496:	0f b6 45 0c          	movzbl 0xc(%ebp),%eax
    f49a:	83 f0 01             	xor    $0x1,%eax
    f49d:	88 82 91 00 00 00    	mov    %al,0x91(%edx)
    f4a3:	5d                   	pop    %ebp
    f4a4:	c3                   	ret    
    f4a5:	90                   	nop
    f4a6:	8d 76 00             	lea    0x0(%esi),%esi
    f4a9:	8d bc 27 00 00 00 00 	lea    0x0(%edi,%eiz,1),%edi

0000f4b0 <_ZN5Scene10UpdateZoomEf>:
    f4b0:	55                   	push   %ebp
    f4b1:	e8 70 91 ff ff       	call   8626 <__i686.get_pc_thunk.cx>
    f4b6:	81 c1 ee 9f 00 00    	add    $0x9fee,%ecx
    f4bc:	89 e5                	mov    %esp,%ebp
    f4be:	8b 45 08             	mov    0x8(%ebp),%eax
    f4c1:	d9 45 0c             	flds   0xc(%ebp)
    f4c4:	d8 40 18             	fadds  0x18(%eax)
    f4c7:	d9 50 18             	fsts   0x18(%eax)
    f4ca:	d9 e8                	fld1   
    f4cc:	db e9                	fucomi %st(1),%st
    f4ce:	77 10                	ja     f4e0 <_ZN5Scene10UpdateZoomEf+0x30>
    f4d0:	dd d8                	fstp   %st(0)
    f4d2:	d9 81 dc c0 ff ff    	flds   -0x3f24(%ecx)
    f4d8:	d9 c9                	fxch   %st(1)
    f4da:	df e9                	fucomip %st(1),%st
    f4dc:	77 04                	ja     f4e2 <_ZN5Scene10UpdateZoomEf+0x32>
    f4de:	eb 07                	jmp    f4e7 <_ZN5Scene10UpdateZoomEf+0x37>
    f4e0:	dd d9                	fstp   %st(1)
    f4e2:	d9 58 18             	fstps  0x18(%eax)
    f4e5:	eb 09                	jmp    f4f0 <_ZN5Scene10UpdateZoomEf+0x40>
    f4e7:	dd d8                	fstp   %st(0)
    f4e9:	8d b4 26 00 00 00 00 	lea    0x0(%esi,%eiz,1),%esi
    f4f0:	5d                   	pop    %ebp
    f4f1:	c3                   	ret    
    f4f2:	8d b4 26 00 00 00 00 	lea    0x0(%esi,%eiz,1),%esi
    f4f9:	8d bc 27 00 00 00 00 	lea    0x0(%edi,%eiz,1),%edi

0000f500 <_ZN5Scene12UpdateHAngleEi>:
    f500:	55                   	push   %ebp
    f501:	ba b7 60 0b b6       	mov    $0xb60b60b7,%edx
    f506:	89 e5                	mov    %esp,%ebp
    f508:	56                   	push   %esi
    f509:	8b 75 08             	mov    0x8(%ebp),%esi
    f50c:	8b 4e 1c             	mov    0x1c(%esi),%ecx
    f50f:	81 c1 68 01 00 00    	add    $0x168,%ecx
    f515:	03 4d 0c             	add    0xc(%ebp),%ecx
    f518:	89 c8                	mov    %ecx,%eax
    f51a:	f7 ea                	imul   %edx
    f51c:	89 c8                	mov    %ecx,%eax
    f51e:	01 ca                	add    %ecx,%edx
    f520:	c1 fa 08             	sar    $0x8,%edx
    f523:	c1 f8 1f             	sar    $0x1f,%eax
    f526:	29 c2                	sub    %eax,%edx
    f528:	69 d2 68 01 00 00    	imul   $0x168,%edx,%edx
    f52e:	29 d1                	sub    %edx,%ecx
    f530:	89 4e 1c             	mov    %ecx,0x1c(%esi)
    f533:	5e                   	pop    %esi
    f534:	5d                   	pop    %ebp
    f535:	c3                   	ret    
    f536:	8d 76 00             	lea    0x0(%esi),%esi
    f539:	8d bc 27 00 00 00 00 	lea    0x0(%edi,%eiz,1),%edi

0000f540 <_ZN5Scene12UpdateVAngleEi>:
    f540:	55                   	push   %ebp
    f541:	89 e5                	mov    %esp,%ebp
    f543:	8b 45 08             	mov    0x8(%ebp),%eax
    f546:	8b 55 0c             	mov    0xc(%ebp),%edx
    f549:	01 50 20             	add    %edx,0x20(%eax)
    f54c:	5d                   	pop    %ebp
    f54d:	c3                   	ret    
    f54e:	66 90                	xchg   %ax,%ax

0000f550 <_ZN5Scene12setWireframeEb>:
    f550:	55                   	push   %ebp
    f551:	89 e5                	mov    %esp,%ebp
    f553:	8b 45 08             	mov    0x8(%ebp),%eax
    f556:	8b 55 0c             	mov    0xc(%ebp),%edx
    f559:	88 50 24             	mov    %dl,0x24(%eax)
    f55c:	5d                   	pop    %ebp
    f55d:	c3                   	ret    
    f55e:	66 90                	xchg   %ax,%ax

0000f560 <_ZN5Scene11setViewportEff>:
    f560:	55                   	push   %ebp
    f561:	89 e5                	mov    %esp,%ebp
    f563:	8b 45 08             	mov    0x8(%ebp),%eax
    f566:	d9 45 0c             	flds   0xc(%ebp)
    f569:	d9 45 10             	flds   0x10(%ebp)
    f56c:	d9 c9                	fxch   %st(1)
    f56e:	d9 90 8c 00 00 00    	fsts   0x8c(%eax)
    f574:	d9 c9                	fxch   %st(1)
    f576:	d9 90 88 00 00 00    	fsts   0x88(%eax)
    f57c:	de f9                	fdivrp %st,%st(1)
    f57e:	d9 58 28             	fstps  0x28(%eax)
    f581:	5d                   	pop    %ebp
    f582:	c3                   	ret    
    f583:	90                   	nop
    f584:	8d b6 00 00 00 00    	lea    0x0(%esi),%esi
    f58a:	8d bf 00 00 00 00    	lea    0x0(%edi),%edi

0000f590 <_ZN5Scene9OrthoViewEb>:
    f590:	55                   	push   %ebp
    f591:	89 e5                	mov    %esp,%ebp
    f593:	8b 45 08             	mov    0x8(%ebp),%eax
    f596:	8b 55 0c             	mov    0xc(%ebp),%edx
    f599:	88 90 90 00 00 00    	mov    %dl,0x90(%eax)
    f59f:	5d                   	pop    %ebp
    f5a0:	c3                   	ret    
    f5a1:	eb 0d                	jmp    f5b0 <_GLOBAL__I_scene.cpp>
    f5a3:	90                   	nop
    f5a4:	90                   	nop
    f5a5:	90                   	nop
    f5a6:	90                   	nop
    f5a7:	90                   	nop
    f5a8:	90                   	nop
    f5a9:	90                   	nop
    f5aa:	90                   	nop
    f5ab:	90                   	nop
    f5ac:	90                   	nop
    f5ad:	90                   	nop
    f5ae:	90                   	nop
    f5af:	90                   	nop

0000f5b0 <_GLOBAL__I_scene.cpp>:
    f5b0:	55                   	push   %ebp
    f5b1:	89 e5                	mov    %esp,%ebp
    f5b3:	8d 64 24 d8          	lea    -0x28(%esp),%esp
    f5b7:	89 5d f4             	mov    %ebx,-0xc(%ebp)
    f5ba:	89 75 f8             	mov    %esi,-0x8(%ebp)
    f5bd:	e8 77 88 ff ff       	call   7e39 <__i686.get_pc_thunk.bx>
    f5c2:	81 c3 e2 9e 00 00    	add    $0x9ee2,%ebx
    f5c8:	89 7d fc             	mov    %edi,-0x4(%ebp)
    f5cb:	8d bb c8 24 00 00    	lea    0x24c8(%ebx),%edi
    f5d1:	89 3c 24             	mov    %edi,(%esp)
    f5d4:	e8 d7 83 ff ff       	call   79b0 <_ZNSt8ios_base4InitC1Ev@plt>
    f5d9:	8b b3 b0 ff ff ff    	mov    -0x50(%ebx),%esi
    f5df:	8b 83 fc ff ff ff    	mov    -0x4(%ebx),%eax
    f5e5:	89 74 24 08          	mov    %esi,0x8(%esp)
    f5e9:	89 7c 24 04          	mov    %edi,0x4(%esp)
    f5ed:	89 04 24             	mov    %eax,(%esp)
    f5f0:	e8 fb 7c ff ff       	call   72f0 <__cxa_atexit@plt>
    f5f5:	8b bb a4 ff ff ff    	mov    -0x5c(%ebx),%edi
    f5fb:	89 3c 24             	mov    %edi,(%esp)
    f5fe:	e8 ed 81 ff ff       	call   77f0 <_ZN11MaterialLibC1Ev@plt>
    f603:	8b 83 c0 ff ff ff    	mov    -0x40(%ebx),%eax
    f609:	89 74 24 08          	mov    %esi,0x8(%esp)
    f60d:	89 7c 24 04          	mov    %edi,0x4(%esp)
    f611:	89 04 24             	mov    %eax,(%esp)
    f614:	e8 d7 7c ff ff       	call   72f0 <__cxa_atexit@plt>
    f619:	8b 5d f4             	mov    -0xc(%ebp),%ebx
    f61c:	8b 75 f8             	mov    -0x8(%ebp),%esi
    f61f:	8b 7d fc             	mov    -0x4(%ebp),%edi
    f622:	89 ec                	mov    %ebp,%esp
    f624:	5d                   	pop    %ebp
    f625:	c3                   	ret    
    f626:	8d 76 00             	lea    0x0(%esi),%esi
    f629:	8d bc 27 00 00 00 00 	lea    0x0(%edi,%eiz,1),%edi

0000f630 <_ZN5Scene9DrawSceneEv>:
    f630:	55                   	push   %ebp
    f631:	89 e5                	mov    %esp,%ebp
    f633:	57                   	push   %edi
    f634:	56                   	push   %esi
    f635:	53                   	push   %ebx
    f636:	e8 fe 87 ff ff       	call   7e39 <__i686.get_pc_thunk.bx>
    f63b:	81 c3 69 9e 00 00    	add    $0x9e69,%ebx
    f641:	8d 64 24 e4          	lea    -0x1c(%esp),%esp
    f645:	8b 7d 08             	mov    0x8(%ebp),%edi
    f648:	e8 43 83 ff ff       	call   7990 <glInitNames@plt>
    f64d:	c7 04 24 ff ff ff ff 	movl   $0xffffffff,(%esp)
    f654:	e8 67 85 ff ff       	call   7bc0 <glPushName@plt>
    f659:	c7 04 24 01 00 00 00 	movl   $0x1,(%esp)
    f660:	e8 0b 79 ff ff       	call   6f70 <glBegin@plt>
    f665:	c7 44 24 08 00 00 00 	movl   $0x0,0x8(%esp)
    f66c:	00 
    f66d:	c7 44 24 04 00 00 00 	movl   $0x0,0x4(%esp)
    f674:	00 
    f675:	c7 04 24 00 00 80 3f 	movl   $0x3f800000,(%esp)
    f67c:	e8 6f 86 ff ff       	call   7cf0 <glColor3f@plt>
    f681:	c7 44 24 08 00 00 00 	movl   $0x0,0x8(%esp)
    f688:	00 
    f689:	c7 44 24 04 00 00 00 	movl   $0x0,0x4(%esp)
    f690:	00 
    f691:	c7 04 24 00 00 00 00 	movl   $0x0,(%esp)
    f698:	e8 93 86 ff ff       	call   7d30 <glVertex3f@plt>
    f69d:	c7 44 24 08 00 00 00 	movl   $0x0,0x8(%esp)
    f6a4:	00 
    f6a5:	c7 44 24 04 00 00 00 	movl   $0x0,0x4(%esp)
    f6ac:	00 
    f6ad:	c7 04 24 00 00 a0 41 	movl   $0x41a00000,(%esp)
    f6b4:	e8 77 86 ff ff       	call   7d30 <glVertex3f@plt>
    f6b9:	c7 44 24 08 00 00 00 	movl   $0x0,0x8(%esp)
    f6c0:	00 
    f6c1:	c7 44 24 04 00 00 80 	movl   $0x3f800000,0x4(%esp)
    f6c8:	3f 
    f6c9:	c7 04 24 00 00 00 00 	movl   $0x0,(%esp)
    f6d0:	e8 1b 86 ff ff       	call   7cf0 <glColor3f@plt>
    f6d5:	c7 44 24 08 00 00 00 	movl   $0x0,0x8(%esp)
    f6dc:	00 
    f6dd:	c7 44 24 04 00 00 00 	movl   $0x0,0x4(%esp)
    f6e4:	00 
    f6e5:	c7 04 24 00 00 00 00 	movl   $0x0,(%esp)
    f6ec:	e8 3f 86 ff ff       	call   7d30 <glVertex3f@plt>
    f6f1:	c7 44 24 08 00 00 00 	movl   $0x0,0x8(%esp)
    f6f8:	00 
    f6f9:	c7 44 24 04 00 00 a0 	movl   $0x41a00000,0x4(%esp)
    f700:	41 
    f701:	c7 04 24 00 00 00 00 	movl   $0x0,(%esp)
    f708:	e8 23 86 ff ff       	call   7d30 <glVertex3f@plt>
    f70d:	c7 44 24 08 00 00 80 	movl   $0x3f800000,0x8(%esp)
    f714:	3f 
    f715:	c7 44 24 04 00 00 00 	movl   $0x0,0x4(%esp)
    f71c:	00 
    f71d:	c7 04 24 00 00 00 00 	movl   $0x0,(%esp)
    f724:	e8 c7 85 ff ff       	call   7cf0 <glColor3f@plt>
    f729:	c7 44 24 08 00 00 00 	movl   $0x0,0x8(%esp)
    f730:	00 
    f731:	c7 44 24 04 00 00 00 	movl   $0x0,0x4(%esp)
    f738:	00 
    f739:	c7 04 24 00 00 00 00 	movl   $0x0,(%esp)
    f740:	e8 eb 85 ff ff       	call   7d30 <glVertex3f@plt>
    f745:	c7 44 24 08 00 00 a0 	movl   $0x41a00000,0x8(%esp)
    f74c:	41 
    f74d:	c7 44 24 04 00 00 00 	movl   $0x0,0x4(%esp)
    f754:	00 
    f755:	c7 04 24 00 00 00 00 	movl   $0x0,(%esp)
    f75c:	e8 cf 85 ff ff       	call   7d30 <glVertex3f@plt>
    f761:	e8 fa 7f ff ff       	call   7760 <glEnd@plt>
    f766:	8b 57 0c             	mov    0xc(%edi),%edx
    f769:	8b 47 10             	mov    0x10(%edi),%eax
    f76c:	29 d0                	sub    %edx,%eax
    f76e:	c1 e8 05             	shr    $0x5,%eax
    f771:	74 2a                	je     f79d <_ZN5Scene9DrawSceneEv+0x16d>
    f773:	31 f6                	xor    %esi,%esi
    f775:	8d 76 00             	lea    0x0(%esi),%esi
    f778:	89 f0                	mov    %esi,%eax
    f77a:	89 7c 24 04          	mov    %edi,0x4(%esp)
    f77e:	c1 e0 05             	shl    $0x5,%eax
    f781:	8d 76 01             	lea    0x1(%esi),%esi
    f784:	01 c2                	add    %eax,%edx
    f786:	89 14 24             	mov    %edx,(%esp)
    f789:	e8 02 77 ff ff       	call   6e90 <_ZN7Objecte6RenderERSt6vectorI5ModelSaIS1_EE@plt>
    f78e:	8b 57 0c             	mov    0xc(%edi),%edx
    f791:	8b 47 10             	mov    0x10(%edi),%eax
    f794:	29 d0                	sub    %edx,%eax
    f796:	c1 f8 05             	sar    $0x5,%eax
    f799:	39 c6                	cmp    %eax,%esi
    f79b:	72 db                	jb     f778 <_ZN5Scene9DrawSceneEv+0x148>
    f79d:	e8 ce 7d ff ff       	call   7570 <glPopName@plt>
    f7a2:	8d 64 24 1c          	lea    0x1c(%esp),%esp
    f7a6:	5b                   	pop    %ebx
    f7a7:	5e                   	pop    %esi
    f7a8:	5f                   	pop    %edi
    f7a9:	5d                   	pop    %ebp
    f7aa:	c3                   	ret    
    f7ab:	90                   	nop
    f7ac:	8d 74 26 00          	lea    0x0(%esi,%eiz,1),%esi

0000f7b0 <_ZN5Scene5DoPanEff>:
    f7b0:	55                   	push   %ebp
    f7b1:	89 e5                	mov    %esp,%ebp
    f7b3:	57                   	push   %edi
    f7b4:	56                   	push   %esi
    f7b5:	8d 7d c4             	lea    -0x3c(%ebp),%edi
    f7b8:	53                   	push   %ebx
    f7b9:	e8 7b 86 ff ff       	call   7e39 <__i686.get_pc_thunk.bx>
    f7be:	81 c3 e6 9c 00 00    	add    $0x9ce6,%ebx
    f7c4:	8d a4 24 e4 fe ff ff 	lea    -0x11c(%esp),%esp
    f7cb:	8b 75 08             	mov    0x8(%ebp),%esi
    f7ce:	d9 83 b4 bf ff ff    	flds   -0x404c(%ebx)
    f7d4:	d9 86 84 00 00 00    	flds   0x84(%esi)
    f7da:	d8 c9                	fmul   %st(1),%st
    f7dc:	dd 83 c4 c0 ff ff    	fldl   -0x3f3c(%ebx)
    f7e2:	dc c9                	fmul   %st,%st(1)
    f7e4:	d9 83 cc c0 ff ff    	flds   -0x3f34(%ebx)
    f7ea:	dc fa                	fdivr  %st,%st(2)
    f7ec:	d9 ca                	fxch   %st(2)
    f7ee:	dd 1c 24             	fstpl  (%esp)
    f7f1:	d9 c9                	fxch   %st(1)
    f7f3:	dd 9d 48 ff ff ff    	fstpl  -0xb8(%ebp)
    f7f9:	dd 9d 58 ff ff ff    	fstpl  -0xa8(%ebp)
    f7ff:	d9 9d 38 ff ff ff    	fstps  -0xc8(%ebp)
    f805:	e8 76 79 ff ff       	call   7180 <tan@plt>
    f80a:	d8 4e 18             	fmuls  0x18(%esi)
    f80d:	d9 5d a4             	fstps  -0x5c(%ebp)
    f810:	d9 45 a4             	flds   -0x5c(%ebp)
    f813:	8b 46 2c             	mov    0x2c(%esi),%eax
    f816:	d9 86 88 00 00 00    	flds   0x88(%esi)
    f81c:	d9 86 8c 00 00 00    	flds   0x8c(%esi)
    f822:	89 45 dc             	mov    %eax,-0x24(%ebp)
    f825:	d9 c2                	fld    %st(2)
    f827:	8b 46 30             	mov    0x30(%esi),%eax
    f82a:	d8 c3                	fadd   %st(3),%st
    f82c:	d8 4d 0c             	fmuls  0xc(%ebp)
    f82f:	d9 c2                	fld    %st(2)
    f831:	89 45 e0             	mov    %eax,-0x20(%ebp)
    f834:	d8 f2                	fdiv   %st(2),%st
    f836:	de cc                	fmulp  %st,%st(4)
    f838:	d9 cb                	fxch   %st(3)
    f83a:	d8 c0                	fadd   %st(0),%st
    f83c:	d8 4d 10             	fmuls  0x10(%ebp)
    f83f:	d9 c9                	fxch   %st(1)
    f841:	d9 9d f8 fe ff ff    	fstps  -0x108(%ebp)
    f847:	8b 46 34             	mov    0x34(%esi),%eax
    f84a:	d9 9d 28 ff ff ff    	fstps  -0xd8(%ebp)
    f850:	d9 c9                	fxch   %st(1)
    f852:	89 45 e4             	mov    %eax,-0x1c(%ebp)
    f855:	d9 9d 18 ff ff ff    	fstps  -0xe8(%ebp)
    f85b:	31 c0                	xor    %eax,%eax
    f85d:	d9 9d 08 ff ff ff    	fstps  -0xf8(%ebp)
    f863:	89 44 24 0c          	mov    %eax,0xc(%esp)
    f867:	89 44 24 04          	mov    %eax,0x4(%esp)
    f86b:	c7 44 24 08 00 00 80 	movl   $0x3f800000,0x8(%esp)
    f872:	3f 
    f873:	8d 45 d0             	lea    -0x30(%ebp),%eax
    f876:	89 85 70 ff ff ff    	mov    %eax,-0x90(%ebp)
    f87c:	89 04 24             	mov    %eax,(%esp)
    f87f:	e8 8c 7e ff ff       	call   7710 <_ZN6VectorC1Efff@plt>
    f884:	8b 95 70 ff ff ff    	mov    -0x90(%ebp),%edx
    f88a:	8d 45 dc             	lea    -0x24(%ebp),%eax
    f88d:	89 54 24 04          	mov    %edx,0x4(%esp)
    f891:	89 85 f4 fe ff ff    	mov    %eax,-0x10c(%ebp)
    f897:	89 44 24 08          	mov    %eax,0x8(%esp)
    f89b:	89 3c 24             	mov    %edi,(%esp)
    f89e:	e8 0d 79 ff ff       	call   71b0 <_ZeoRK6VectorS1_@plt>
    f8a3:	8d 64 24 fc          	lea    -0x4(%esp),%esp
    f8a7:	8b 85 f4 fe ff ff    	mov    -0x10c(%ebp),%eax
    f8ad:	8d 55 88             	lea    -0x78(%ebp),%edx
    f8b0:	89 7c 24 08          	mov    %edi,0x8(%esp)
    f8b4:	89 95 6c ff ff ff    	mov    %edx,-0x94(%ebp)
    f8ba:	89 14 24             	mov    %edx,(%esp)
    f8bd:	89 44 24 04          	mov    %eax,0x4(%esp)
    f8c1:	e8 ea 78 ff ff       	call   71b0 <_ZeoRK6VectorS1_@plt>
    f8c6:	83 ec 04             	sub    $0x4,%esp
    f8c9:	8b 45 88             	mov    -0x78(%ebp),%eax
    f8cc:	89 45 d0             	mov    %eax,-0x30(%ebp)
    f8cf:	8b 45 8c             	mov    -0x74(%ebp),%eax
    f8d2:	89 45 d4             	mov    %eax,-0x2c(%ebp)
    f8d5:	8b 45 90             	mov    -0x70(%ebp),%eax
    f8d8:	89 45 d8             	mov    %eax,-0x28(%ebp)
    f8db:	89 3c 24             	mov    %edi,(%esp)
    f8de:	e8 bd 77 ff ff       	call   70a0 <_ZN6Vector9normalizeEv@plt>
    f8e3:	8b 85 70 ff ff ff    	mov    -0x90(%ebp),%eax
    f8e9:	89 04 24             	mov    %eax,(%esp)
    f8ec:	e8 af 77 ff ff       	call   70a0 <_ZN6Vector9normalizeEv@plt>
    f8f1:	d9 85 f8 fe ff ff    	flds   -0x108(%ebp)
    f8f7:	8b 95 6c ff ff ff    	mov    -0x94(%ebp),%edx
    f8fd:	d9 85 18 ff ff ff    	flds   -0xe8(%ebp)
    f903:	89 7c 24 08          	mov    %edi,0x8(%esp)
    f907:	de f1                	fdivp  %st,%st(1)
    f909:	89 14 24             	mov    %edx,(%esp)
    f90c:	d9 e0                	fchs   
    f90e:	d9 5c 24 04          	fstps  0x4(%esp)
    f912:	e8 c9 82 ff ff       	call   7be0 <_ZmlfRK6Vector@plt>
    f917:	83 ec 04             	sub    $0x4,%esp
    f91a:	8b 45 88             	mov    -0x78(%ebp),%eax
    f91d:	89 45 c4             	mov    %eax,-0x3c(%ebp)
    f920:	8b 45 8c             	mov    -0x74(%ebp),%eax
    f923:	89 45 c8             	mov    %eax,-0x38(%ebp)
    f926:	8b 45 90             	mov    -0x70(%ebp),%eax
    f929:	d9 85 38 ff ff ff    	flds   -0xc8(%ebp)
    f92f:	8b 95 6c ff ff ff    	mov    -0x94(%ebp),%edx
    f935:	89 45 cc             	mov    %eax,-0x34(%ebp)
    f938:	8b 85 70 ff ff ff    	mov    -0x90(%ebp),%eax
    f93e:	d9 85 08 ff ff ff    	flds   -0xf8(%ebp)
    f944:	89 44 24 08          	mov    %eax,0x8(%esp)
    f948:	de c9                	fmulp  %st,%st(1)
    f94a:	89 14 24             	mov    %edx,(%esp)
    f94d:	d9 85 28 ff ff ff    	flds   -0xd8(%ebp)
    f953:	de f1                	fdivp  %st,%st(1)
    f955:	d9 5c 24 04          	fstps  0x4(%esp)
    f959:	e8 82 82 ff ff       	call   7be0 <_ZmlfRK6Vector@plt>
    f95e:	83 ec 04             	sub    $0x4,%esp
    f961:	8b 45 88             	mov    -0x78(%ebp),%eax
    f964:	89 45 d0             	mov    %eax,-0x30(%ebp)
    f967:	8b 45 8c             	mov    -0x74(%ebp),%eax
    f96a:	8b 95 70 ff ff ff    	mov    -0x90(%ebp),%edx
    f970:	89 45 d4             	mov    %eax,-0x2c(%ebp)
    f973:	8b 45 90             	mov    -0x70(%ebp),%eax
    f976:	89 45 d8             	mov    %eax,-0x28(%ebp)
    f979:	89 54 24 08          	mov    %edx,0x8(%esp)
    f97d:	8d 45 b8             	lea    -0x48(%ebp),%eax
    f980:	8d 56 38             	lea    0x38(%esi),%edx
    f983:	89 85 f4 fe ff ff    	mov    %eax,-0x10c(%ebp)
    f989:	89 54 24 04          	mov    %edx,0x4(%esp)
    f98d:	89 04 24             	mov    %eax,(%esp)
    f990:	e8 5b 7f ff ff       	call   78f0 <_ZplRK6VectorS1_@plt>
    f995:	8d 64 24 fc          	lea    -0x4(%esp),%esp
    f999:	8b 85 f4 fe ff ff    	mov    -0x10c(%ebp),%eax
    f99f:	89 44 24 04          	mov    %eax,0x4(%esp)
    f9a3:	8b 85 6c ff ff ff    	mov    -0x94(%ebp),%eax
    f9a9:	89 7c 24 08          	mov    %edi,0x8(%esp)
    f9ad:	89 04 24             	mov    %eax,(%esp)
    f9b0:	e8 3b 7f ff ff       	call   78f0 <_ZplRK6VectorS1_@plt>
    f9b5:	83 ec 04             	sub    $0x4,%esp
    f9b8:	8b 45 88             	mov    -0x78(%ebp),%eax
    f9bb:	89 46 38             	mov    %eax,0x38(%esi)
    f9be:	8b 45 8c             	mov    -0x74(%ebp),%eax
    f9c1:	89 46 3c             	mov    %eax,0x3c(%esi)
    f9c4:	8b 45 90             	mov    -0x70(%ebp),%eax
    f9c7:	d9 46 18             	flds   0x18(%esi)
    f9ca:	89 46 40             	mov    %eax,0x40(%esi)
    f9cd:	8d 7d 80             	lea    -0x80(%ebp),%edi
    f9d0:	8d 85 78 ff ff ff    	lea    -0x88(%ebp),%eax
    f9d6:	89 7c 24 08          	mov    %edi,0x8(%esp)
    f9da:	89 44 24 0c          	mov    %eax,0xc(%esp)
    f9de:	db 46 1c             	fildl  0x1c(%esi)
    f9e1:	89 85 f4 fe ff ff    	mov    %eax,-0x10c(%ebp)
    f9e7:	dd 85 58 ff ff ff    	fldl   -0xa8(%ebp)
    f9ed:	de c9                	fmulp  %st,%st(1)
    f9ef:	dd 85 48 ff ff ff    	fldl   -0xb8(%ebp)
    f9f5:	de f9                	fdivrp %st,%st(1)
    f9f7:	dd 1c 24             	fstpl  (%esp)
    f9fa:	dd 9d 38 ff ff ff    	fstpl  -0xc8(%ebp)
    fa00:	e8 ab 7c ff ff       	call   76b0 <sincos@plt>
    fa05:	dd 85 78 ff ff ff    	fldl   -0x88(%ebp)
    fa0b:	8b 85 f4 fe ff ff    	mov    -0x10c(%ebp),%eax
    fa11:	dd 9d 70 ff ff ff    	fstpl  -0x90(%ebp)
    fa17:	89 44 24 0c          	mov    %eax,0xc(%esp)
    fa1b:	dd 45 80             	fldl   -0x80(%ebp)
    fa1e:	89 7c 24 08          	mov    %edi,0x8(%esp)
    fa22:	db 46 20             	fildl  0x20(%esi)
    fa25:	dd 85 58 ff ff ff    	fldl   -0xa8(%ebp)
    fa2b:	de c9                	fmulp  %st,%st(1)
    fa2d:	dd 85 48 ff ff ff    	fldl   -0xb8(%ebp)
    fa33:	de f9                	fdivrp %st,%st(1)
    fa35:	dd 1c 24             	fstpl  (%esp)
    fa38:	dd 9d 18 ff ff ff    	fstpl  -0xe8(%ebp)
    fa3e:	e8 6d 7c ff ff       	call   76b0 <sincos@plt>
    fa43:	dd 85 78 ff ff ff    	fldl   -0x88(%ebp)
    fa49:	8d 45 ac             	lea    -0x54(%ebp),%eax
    fa4c:	dd 45 80             	fldl   -0x80(%ebp)
    fa4f:	89 04 24             	mov    %eax,(%esp)
    fa52:	dd 85 38 ff ff ff    	fldl   -0xc8(%ebp)
    fa58:	dd 85 18 ff ff ff    	fldl   -0xe8(%ebp)
    fa5e:	d9 c1                	fld    %st(1)
    fa60:	de c9                	fmulp  %st,%st(1)
    fa62:	d8 cb                	fmul   %st(3),%st
    fa64:	d9 5c 24 0c          	fstps  0xc(%esp)
    fa68:	dc c9                	fmul   %st,%st(1)
    fa6a:	d9 c9                	fxch   %st(1)
    fa6c:	d9 5c 24 08          	fstps  0x8(%esp)
    fa70:	dd 85 70 ff ff ff    	fldl   -0x90(%ebp)
    fa76:	de c9                	fmulp  %st,%st(1)
    fa78:	de c9                	fmulp  %st,%st(1)
    fa7a:	d9 5c 24 04          	fstps  0x4(%esp)
    fa7e:	e8 8d 7c ff ff       	call   7710 <_ZN6VectorC1Efff@plt>
    fa83:	8b 45 ac             	mov    -0x54(%ebp),%eax
    fa86:	89 46 2c             	mov    %eax,0x2c(%esi)
    fa89:	8b 45 b0             	mov    -0x50(%ebp),%eax
    fa8c:	89 46 30             	mov    %eax,0x30(%esi)
    fa8f:	8b 45 b4             	mov    -0x4c(%ebp),%eax
    fa92:	89 46 34             	mov    %eax,0x34(%esi)
    fa95:	8d 65 f4             	lea    -0xc(%ebp),%esp
    fa98:	5b                   	pop    %ebx
    fa99:	5e                   	pop    %esi
    fa9a:	5f                   	pop    %edi
    fa9b:	5d                   	pop    %ebp
    fa9c:	c3                   	ret    
    fa9d:	90                   	nop
    fa9e:	66 90                	xchg   %ax,%ax

0000faa0 <_ZN5Scene21SetLastObjectRotationEi>:
    faa0:	55                   	push   %ebp
    faa1:	89 e5                	mov    %esp,%ebp
    faa3:	8d 64 24 d8          	lea    -0x28(%esp),%esp
    faa7:	89 75 fc             	mov    %esi,-0x4(%ebp)
    faaa:	8b 75 08             	mov    0x8(%ebp),%esi
    faad:	89 5d f8             	mov    %ebx,-0x8(%ebp)
    fab0:	e8 84 83 ff ff       	call   7e39 <__i686.get_pc_thunk.bx>
    fab5:	81 c3 ef 99 00 00    	add    $0x99ef,%ebx
    fabb:	8b 86 9c 00 00 00    	mov    0x9c(%esi),%eax
    fac1:	85 c0                	test   %eax,%eax
    fac3:	7e 3d                	jle    fb02 <_ZN5Scene21SetLastObjectRotationEi+0x62>
    fac5:	8b 56 0c             	mov    0xc(%esi),%edx
    fac8:	8b 46 10             	mov    0x10(%esi),%eax
    facb:	29 d0                	sub    %edx,%eax
    facd:	83 e0 e0             	and    $0xffffffe0,%eax
    fad0:	8d 44 02 e0          	lea    -0x20(%edx,%eax,1),%eax
    fad4:	89 04 24             	mov    %eax,(%esp)
    fad7:	e8 94 76 ff ff       	call   7170 <_ZN7Objecte14getOrientationEv@plt>
    fadc:	db 45 0c             	fildl  0xc(%ebp)
    fadf:	8b 56 0c             	mov    0xc(%esi),%edx
    fae2:	d8 8b e0 c0 ff ff    	fmuls  -0x3f20(%ebx)
    fae8:	de c1                	faddp  %st,%st(1)
    faea:	d9 5c 24 04          	fstps  0x4(%esp)
    faee:	8b 46 10             	mov    0x10(%esi),%eax
    faf1:	29 d0                	sub    %edx,%eax
    faf3:	83 e0 e0             	and    $0xffffffe0,%eax
    faf6:	8d 44 02 e0          	lea    -0x20(%edx,%eax,1),%eax
    fafa:	89 04 24             	mov    %eax,(%esp)
    fafd:	e8 0e 7f ff ff       	call   7a10 <_ZN7Objecte14setOrientationEf@plt>
    fb02:	8b 5d f8             	mov    -0x8(%ebp),%ebx
    fb05:	8b 75 fc             	mov    -0x4(%ebp),%esi
    fb08:	89 ec                	mov    %ebp,%esp
    fb0a:	5d                   	pop    %ebp
    fb0b:	c3                   	ret    
    fb0c:	8d 74 26 00          	lea    0x0(%esi,%eiz,1),%esi

0000fb10 <_ZN5Scene21SetLastObjectPositionE6Vector>:
    fb10:	55                   	push   %ebp
    fb11:	89 e5                	mov    %esp,%ebp
    fb13:	8d 64 24 d8          	lea    -0x28(%esp),%esp
    fb17:	89 75 fc             	mov    %esi,-0x4(%ebp)
    fb1a:	8b 75 08             	mov    0x8(%ebp),%esi
    fb1d:	89 5d f8             	mov    %ebx,-0x8(%ebp)
    fb20:	e8 14 83 ff ff       	call   7e39 <__i686.get_pc_thunk.bx>
    fb25:	81 c3 7f 99 00 00    	add    $0x997f,%ebx
    fb2b:	8b 96 9c 00 00 00    	mov    0x9c(%esi),%edx
    fb31:	85 d2                	test   %edx,%edx
    fb33:	7e 3e                	jle    fb73 <_ZN5Scene21SetLastObjectPositionE6Vector+0x63>
    fb35:	8d 45 0c             	lea    0xc(%ebp),%eax
    fb38:	89 44 24 04          	mov    %eax,0x4(%esp)
    fb3c:	8d 45 ec             	lea    -0x14(%ebp),%eax
    fb3f:	89 04 24             	mov    %eax,(%esp)
    fb42:	e8 f9 78 ff ff       	call   7440 <_ZN5PointC1ERK6Vector@plt>
    fb47:	8b 45 ec             	mov    -0x14(%ebp),%eax
    fb4a:	8b 56 0c             	mov    0xc(%esi),%edx
    fb4d:	89 44 24 04          	mov    %eax,0x4(%esp)
    fb51:	8b 45 f0             	mov    -0x10(%ebp),%eax
    fb54:	89 44 24 08          	mov    %eax,0x8(%esp)
    fb58:	8b 45 f4             	mov    -0xc(%ebp),%eax
    fb5b:	89 44 24 0c          	mov    %eax,0xc(%esp)
    fb5f:	8b 46 10             	mov    0x10(%esi),%eax
    fb62:	29 d0                	sub    %edx,%eax
    fb64:	83 e0 e0             	and    $0xffffffe0,%eax
    fb67:	8d 44 02 e0          	lea    -0x20(%edx,%eax,1),%eax
    fb6b:	89 04 24             	mov    %eax,(%esp)
    fb6e:	e8 4d 7f ff ff       	call   7ac0 <_ZN7Objecte11setPositionE5Point@plt>
    fb73:	8b 5d f8             	mov    -0x8(%ebp),%ebx
    fb76:	8b 75 fc             	mov    -0x4(%ebp),%esi
    fb79:	89 ec                	mov    %ebp,%esp
    fb7b:	5d                   	pop    %ebp
    fb7c:	c3                   	ret    
    fb7d:	90                   	nop
    fb7e:	66 90                	xchg   %ax,%ax

0000fb80 <_ZN5Scene6RenderEb>:
    fb80:	55                   	push   %ebp
    fb81:	89 e5                	mov    %esp,%ebp
    fb83:	57                   	push   %edi
    fb84:	56                   	push   %esi
    fb85:	53                   	push   %ebx
    fb86:	e8 ae 82 ff ff       	call   7e39 <__i686.get_pc_thunk.bx>
    fb8b:	81 c3 19 99 00 00    	add    $0x9919,%ebx
    fb91:	8d a4 24 a4 fe ff ff 	lea    -0x15c(%esp),%esp
    fb98:	8b 75 08             	mov    0x8(%ebp),%esi
    fb9b:	0f b6 45 0c          	movzbl 0xc(%ebp),%eax
    fb9f:	88 85 3f ff ff ff    	mov    %al,-0xc1(%ebp)
    fba5:	80 7e 24 00          	cmpb   $0x0,0x24(%esi)
    fba9:	0f 84 59 03 00 00    	je     ff08 <_ZN5Scene6RenderEb+0x388>
    fbaf:	c7 44 24 04 01 1b 00 	movl   $0x1b01,0x4(%esp)
    fbb6:	00 
    fbb7:	c7 04 24 08 04 00 00 	movl   $0x408,(%esp)
    fbbe:	e8 dd 77 ff ff       	call   73a0 <glPolygonMode@plt>
    fbc3:	80 be 91 00 00 00 00 	cmpb   $0x0,0x91(%esi)
    fbca:	0f 84 59 03 00 00    	je     ff29 <_ZN5Scene6RenderEb+0x3a9>
    fbd0:	d9 86 8c 00 00 00    	flds   0x8c(%esi)
    fbd6:	c7 45 b4 00 00 00 00 	movl   $0x0,-0x4c(%ebp)
    fbdd:	d9 bd 46 ff ff ff    	fnstcw -0xba(%ebp)
    fbe3:	0f b7 85 46 ff ff ff 	movzwl -0xba(%ebp),%eax
    fbea:	c7 45 b8 00 00 00 00 	movl   $0x0,-0x48(%ebp)
    fbf1:	b4 0c                	mov    $0xc,%ah
    fbf3:	8d 7d a0             	lea    -0x60(%ebp),%edi
    fbf6:	66 89 85 44 ff ff ff 	mov    %ax,-0xbc(%ebp)
    fbfd:	d9 ad 44 ff ff ff    	fldcw  -0xbc(%ebp)
    fc03:	db 9d 40 ff ff ff    	fistpl -0xc0(%ebp)
    fc09:	d9 ad 46 ff ff ff    	fldcw  -0xba(%ebp)
    fc0f:	8b 85 40 ff ff ff    	mov    -0xc0(%ebp),%eax
    fc15:	d9 86 88 00 00 00    	flds   0x88(%esi)
    fc1b:	d9 ad 44 ff ff ff    	fldcw  -0xbc(%ebp)
    fc21:	db 9d 40 ff ff ff    	fistpl -0xc0(%ebp)
    fc27:	d9 ad 46 ff ff ff    	fldcw  -0xba(%ebp)
    fc2d:	8b 95 40 ff ff ff    	mov    -0xc0(%ebp),%edx
    fc33:	89 55 c0             	mov    %edx,-0x40(%ebp)
    fc36:	89 54 24 0c          	mov    %edx,0xc(%esp)
    fc3a:	89 45 bc             	mov    %eax,-0x44(%ebp)
    fc3d:	89 44 24 08          	mov    %eax,0x8(%esp)
    fc41:	c7 44 24 04 00 00 00 	movl   $0x0,0x4(%esp)
    fc48:	00 
    fc49:	c7 04 24 00 00 00 00 	movl   $0x0,(%esp)
    fc50:	e8 8b 73 ff ff       	call   6fe0 <glViewport@plt>
    fc55:	c7 04 24 11 0c 00 00 	movl   $0xc11,(%esp)
    fc5c:	e8 6f 73 ff ff       	call   6fd0 <glDisable@plt>
    fc61:	c7 44 24 0c 00 00 00 	movl   $0x0,0xc(%esp)
    fc68:	00 
    fc69:	c7 44 24 08 cd cc cc 	movl   $0x3ecccccd,0x8(%esp)
    fc70:	3e 
    fc71:	c7 44 24 04 cd cc cc 	movl   $0x3ecccccd,0x4(%esp)
    fc78:	3e 
    fc79:	c7 04 24 cd cc cc 3e 	movl   $0x3ecccccd,(%esp)
    fc80:	e8 bb 7c ff ff       	call   7940 <glClearColor@plt>
    fc85:	c7 04 24 00 41 00 00 	movl   $0x4100,(%esp)
    fc8c:	e8 2f 73 ff ff       	call   6fc0 <glClear@plt>
    fc91:	d9 46 18             	flds   0x18(%esi)
    fc94:	8d 45 98             	lea    -0x68(%ebp),%eax
    fc97:	89 7c 24 08          	mov    %edi,0x8(%esp)
    fc9b:	89 44 24 0c          	mov    %eax,0xc(%esp)
    fc9f:	db 46 1c             	fildl  0x1c(%esi)
    fca2:	89 85 18 ff ff ff    	mov    %eax,-0xe8(%ebp)
    fca8:	dd 83 c4 c0 ff ff    	fldl   -0x3f3c(%ebx)
    fcae:	dc c9                	fmul   %st,%st(1)
    fcb0:	d9 83 cc c0 ff ff    	flds   -0x3f34(%ebx)
    fcb6:	dc fa                	fdivr  %st,%st(2)
    fcb8:	d9 ca                	fxch   %st(2)
    fcba:	dd 1c 24             	fstpl  (%esp)
    fcbd:	d9 ca                	fxch   %st(2)
    fcbf:	dd 9d 08 ff ff ff    	fstpl  -0xf8(%ebp)
    fcc5:	dd 9d e8 fe ff ff    	fstpl  -0x118(%ebp)
    fccb:	dd 9d d8 fe ff ff    	fstpl  -0x128(%ebp)
    fcd1:	e8 da 79 ff ff       	call   76b0 <sincos@plt>
    fcd6:	dd 45 98             	fldl   -0x68(%ebp)
    fcd9:	8b 85 18 ff ff ff    	mov    -0xe8(%ebp),%eax
    fcdf:	dd 9d 30 ff ff ff    	fstpl  -0xd0(%ebp)
    fce5:	89 44 24 0c          	mov    %eax,0xc(%esp)
    fce9:	dd 45 a0             	fldl   -0x60(%ebp)
    fcec:	89 7c 24 08          	mov    %edi,0x8(%esp)
    fcf0:	db 46 20             	fildl  0x20(%esi)
    fcf3:	dd 85 d8 fe ff ff    	fldl   -0x128(%ebp)
    fcf9:	de c9                	fmulp  %st,%st(1)
    fcfb:	dd 85 e8 fe ff ff    	fldl   -0x118(%ebp)
    fd01:	de f9                	fdivrp %st,%st(1)
    fd03:	dd 1c 24             	fstpl  (%esp)
    fd06:	dd 9d f8 fe ff ff    	fstpl  -0x108(%ebp)
    fd0c:	e8 9f 79 ff ff       	call   76b0 <sincos@plt>
    fd11:	dd 45 98             	fldl   -0x68(%ebp)
    fd14:	8d 45 dc             	lea    -0x24(%ebp),%eax
    fd17:	dd 45 a0             	fldl   -0x60(%ebp)
    fd1a:	89 04 24             	mov    %eax,(%esp)
    fd1d:	dd 85 08 ff ff ff    	fldl   -0xf8(%ebp)
    fd23:	dd 85 f8 fe ff ff    	fldl   -0x108(%ebp)
    fd29:	d8 c9                	fmul   %st(1),%st
    fd2b:	d8 cb                	fmul   %st(3),%st
    fd2d:	d9 5c 24 0c          	fstps  0xc(%esp)
    fd31:	dc c9                	fmul   %st,%st(1)
    fd33:	d9 c9                	fxch   %st(1)
    fd35:	d9 5c 24 08          	fstps  0x8(%esp)
    fd39:	dd 85 30 ff ff ff    	fldl   -0xd0(%ebp)
    fd3f:	de c9                	fmulp  %st,%st(1)
    fd41:	de c9                	fmulp  %st,%st(1)
    fd43:	d9 5c 24 04          	fstps  0x4(%esp)
    fd47:	e8 c4 79 ff ff       	call   7710 <_ZN6VectorC1Efff@plt>
    fd4c:	8b 45 dc             	mov    -0x24(%ebp),%eax
    fd4f:	89 46 2c             	mov    %eax,0x2c(%esi)
    fd52:	8b 45 e0             	mov    -0x20(%ebp),%eax
    fd55:	89 46 30             	mov    %eax,0x30(%esi)
    fd58:	8b 45 e4             	mov    -0x1c(%ebp),%eax
    fd5b:	89 46 34             	mov    %eax,0x34(%esi)
    fd5e:	c7 04 24 01 17 00 00 	movl   $0x1701,(%esp)
    fd65:	e8 96 7a ff ff       	call   7800 <glMatrixMode@plt>
    fd6a:	e8 d1 79 ff ff       	call   7740 <glLoadIdentity@plt>
    fd6f:	80 bd 3f ff ff ff 00 	cmpb   $0x0,-0xc1(%ebp)
    fd76:	0f 85 84 05 00 00    	jne    10300 <_ZN5Scene6RenderEb+0x780>
    fd7c:	80 be 90 00 00 00 00 	cmpb   $0x0,0x90(%esi)
    fd83:	0f 85 07 05 00 00    	jne    10290 <_ZN5Scene6RenderEb+0x710>
    fd89:	d9 83 f0 c0 ff ff    	flds   -0x3f10(%ebx)
    fd8f:	dd 5c 24 18          	fstpl  0x18(%esp)
    fd93:	d9 83 f4 c0 ff ff    	flds   -0x3f0c(%ebx)
    fd99:	dd 5c 24 10          	fstpl  0x10(%esp)
    fd9d:	d9 86 8c 00 00 00    	flds   0x8c(%esi)
    fda3:	d8 b6 88 00 00 00    	fdivs  0x88(%esi)
    fda9:	dd 5c 24 08          	fstpl  0x8(%esp)
    fdad:	d9 86 84 00 00 00    	flds   0x84(%esi)
    fdb3:	dd 1c 24             	fstpl  (%esp)
    fdb6:	e8 95 78 ff ff       	call   7650 <gluPerspective@plt>
    fdbb:	c7 04 24 00 17 00 00 	movl   $0x1700,(%esp)
    fdc2:	e8 39 7a ff ff       	call   7800 <glMatrixMode@plt>
    fdc7:	e8 74 79 ff ff       	call   7740 <glLoadIdentity@plt>
    fdcc:	8d 45 c4             	lea    -0x3c(%ebp),%eax
    fdcf:	c7 44 24 0c 00 00 00 	movl   $0x0,0xc(%esp)
    fdd6:	00 
    fdd7:	89 04 24             	mov    %eax,(%esp)
    fdda:	c7 44 24 08 00 00 80 	movl   $0x3f800000,0x8(%esp)
    fde1:	3f 
    fde2:	c7 44 24 04 00 00 00 	movl   $0x0,0x4(%esp)
    fde9:	00 
    fdea:	e8 21 79 ff ff       	call   7710 <_ZN6VectorC1Efff@plt>
    fdef:	8d 45 d0             	lea    -0x30(%ebp),%eax
    fdf2:	8d 56 38             	lea    0x38(%esi),%edx
    fdf5:	89 04 24             	mov    %eax,(%esp)
    fdf8:	89 54 24 08          	mov    %edx,0x8(%esp)
    fdfc:	8d 56 2c             	lea    0x2c(%esi),%edx
    fdff:	89 54 24 04          	mov    %edx,0x4(%esp)
    fe03:	e8 e8 7a ff ff       	call   78f0 <_ZplRK6VectorS1_@plt>
    fe08:	8d 64 24 fc          	lea    -0x4(%esp),%esp
    fe0c:	8b 55 c4             	mov    -0x3c(%ebp),%edx
    fe0f:	89 54 24 1c          	mov    %edx,0x1c(%esp)
    fe13:	8b 55 c8             	mov    -0x38(%ebp),%edx
    fe16:	89 54 24 20          	mov    %edx,0x20(%esp)
    fe1a:	8b 55 cc             	mov    -0x34(%ebp),%edx
    fe1d:	89 54 24 24          	mov    %edx,0x24(%esp)
    fe21:	8b 56 38             	mov    0x38(%esi),%edx
    fe24:	89 54 24 10          	mov    %edx,0x10(%esp)
    fe28:	8b 56 3c             	mov    0x3c(%esi),%edx
    fe2b:	89 54 24 14          	mov    %edx,0x14(%esp)
    fe2f:	8b 56 40             	mov    0x40(%esi),%edx
    fe32:	89 54 24 18          	mov    %edx,0x18(%esp)
    fe36:	8b 55 d0             	mov    -0x30(%ebp),%edx
    fe39:	89 54 24 04          	mov    %edx,0x4(%esp)
    fe3d:	8b 55 d4             	mov    -0x2c(%ebp),%edx
    fe40:	89 54 24 08          	mov    %edx,0x8(%esp)
    fe44:	8b 55 d8             	mov    -0x28(%ebp),%edx
    fe47:	8d 85 48 ff ff ff    	lea    -0xb8(%ebp),%eax
    fe4d:	89 54 24 0c          	mov    %edx,0xc(%esp)
    fe51:	89 04 24             	mov    %eax,(%esp)
    fe54:	e8 67 7e ff ff       	call   7cc0 <_Z12LookAtMatrix6VectorS_S_@plt>
    fe59:	8b 85 48 ff ff ff    	mov    -0xb8(%ebp),%eax
    fe5f:	83 ec 04             	sub    $0x4,%esp
    fe62:	89 46 44             	mov    %eax,0x44(%esi)
    fe65:	8b 85 4c ff ff ff    	mov    -0xb4(%ebp),%eax
    fe6b:	89 46 48             	mov    %eax,0x48(%esi)
    fe6e:	8b 85 50 ff ff ff    	mov    -0xb0(%ebp),%eax
    fe74:	89 46 4c             	mov    %eax,0x4c(%esi)
    fe77:	8b 85 54 ff ff ff    	mov    -0xac(%ebp),%eax
    fe7d:	89 46 50             	mov    %eax,0x50(%esi)
    fe80:	8b 85 58 ff ff ff    	mov    -0xa8(%ebp),%eax
    fe86:	89 46 54             	mov    %eax,0x54(%esi)
    fe89:	8b 85 5c ff ff ff    	mov    -0xa4(%ebp),%eax
    fe8f:	89 46 58             	mov    %eax,0x58(%esi)
    fe92:	8b 85 60 ff ff ff    	mov    -0xa0(%ebp),%eax
    fe98:	89 46 5c             	mov    %eax,0x5c(%esi)
    fe9b:	8b 85 64 ff ff ff    	mov    -0x9c(%ebp),%eax
    fea1:	89 46 60             	mov    %eax,0x60(%esi)
    fea4:	8b 85 68 ff ff ff    	mov    -0x98(%ebp),%eax
    feaa:	89 46 64             	mov    %eax,0x64(%esi)
    fead:	8b 85 6c ff ff ff    	mov    -0x94(%ebp),%eax
    feb3:	89 46 68             	mov    %eax,0x68(%esi)
    feb6:	8b 85 70 ff ff ff    	mov    -0x90(%ebp),%eax
    febc:	89 46 6c             	mov    %eax,0x6c(%esi)
    febf:	8b 85 74 ff ff ff    	mov    -0x8c(%ebp),%eax
    fec5:	89 46 70             	mov    %eax,0x70(%esi)
    fec8:	8b 85 78 ff ff ff    	mov    -0x88(%ebp),%eax
    fece:	89 46 74             	mov    %eax,0x74(%esi)
    fed1:	8b 85 7c ff ff ff    	mov    -0x84(%ebp),%eax
    fed7:	89 46 78             	mov    %eax,0x78(%esi)
    feda:	8b 45 80             	mov    -0x80(%ebp),%eax
    fedd:	89 46 7c             	mov    %eax,0x7c(%esi)
    fee0:	8b 45 84             	mov    -0x7c(%ebp),%eax
    fee3:	89 86 80 00 00 00    	mov    %eax,0x80(%esi)
    fee9:	8d 46 44             	lea    0x44(%esi),%eax
    feec:	89 04 24             	mov    %eax,(%esp)
    feef:	e8 5c 7b ff ff       	call   7a50 <glLoadMatrixf@plt>
    fef4:	89 34 24             	mov    %esi,(%esp)
    fef7:	e8 74 6f ff ff       	call   6e70 <_ZN5Scene9DrawSceneEv@plt>
    fefc:	8d 65 f4             	lea    -0xc(%ebp),%esp
    feff:	5b                   	pop    %ebx
    ff00:	5e                   	pop    %esi
    ff01:	5f                   	pop    %edi
    ff02:	5d                   	pop    %ebp
    ff03:	c3                   	ret    
    ff04:	8d 74 26 00          	lea    0x0(%esi,%eiz,1),%esi
    ff08:	c7 44 24 04 02 1b 00 	movl   $0x1b02,0x4(%esp)
    ff0f:	00 
    ff10:	c7 04 24 08 04 00 00 	movl   $0x408,(%esp)
    ff17:	e8 84 74 ff ff       	call   73a0 <glPolygonMode@plt>
    ff1c:	80 be 91 00 00 00 00 	cmpb   $0x0,0x91(%esi)
    ff23:	0f 85 a7 fc ff ff    	jne    fbd0 <_ZN5Scene6RenderEb+0x50>
    ff29:	8d 83 b4 bf ff ff    	lea    -0x404c(%ebx),%eax
    ff2f:	d9 00                	flds   (%eax)
    ff31:	d8 8e 8c 00 00 00    	fmuls  0x8c(%esi)
    ff37:	d8 b6 88 00 00 00    	fdivs  0x88(%esi)
    ff3d:	c7 04 24 11 0c 00 00 	movl   $0xc11,(%esp)
    ff44:	d9 9d 18 ff ff ff    	fstps  -0xe8(%ebp)
    ff4a:	e8 51 75 ff ff       	call   74a0 <glEnable@plt>
    ff4f:	8d 83 b4 bf ff ff    	lea    -0x404c(%ebx),%eax
    ff55:	d9 00                	flds   (%eax)
    ff57:	d8 8e 8c 00 00 00    	fmuls  0x8c(%esi)
    ff5d:	d9 bd 46 ff ff ff    	fnstcw -0xba(%ebp)
    ff63:	0f b7 85 46 ff ff ff 	movzwl -0xba(%ebp),%eax
    ff6a:	b4 0c                	mov    $0xc,%ah
    ff6c:	66 89 85 44 ff ff ff 	mov    %ax,-0xbc(%ebp)
    ff73:	d9 ad 44 ff ff ff    	fldcw  -0xbc(%ebp)
    ff79:	db 9d 40 ff ff ff    	fistpl -0xc0(%ebp)
    ff7f:	d9 ad 46 ff ff ff    	fldcw  -0xba(%ebp)
    ff85:	8b 85 40 ff ff ff    	mov    -0xc0(%ebp),%eax
    ff8b:	d9 86 88 00 00 00    	flds   0x88(%esi)
    ff91:	89 44 24 08          	mov    %eax,0x8(%esp)
    ff95:	d9 ad 44 ff ff ff    	fldcw  -0xbc(%ebp)
    ff9b:	db 5c 24 0c          	fistpl 0xc(%esp)
    ff9f:	d9 ad 46 ff ff ff    	fldcw  -0xba(%ebp)
    ffa5:	89 04 24             	mov    %eax,(%esp)
    ffa8:	c7 44 24 04 00 00 00 	movl   $0x0,0x4(%esp)
    ffaf:	00 
    ffb0:	e8 2b 70 ff ff       	call   6fe0 <glViewport@plt>
    ffb5:	8d 83 b4 bf ff ff    	lea    -0x404c(%ebx),%eax
    ffbb:	d9 00                	flds   (%eax)
    ffbd:	d8 8e 8c 00 00 00    	fmuls  0x8c(%esi)
    ffc3:	d9 bd 46 ff ff ff    	fnstcw -0xba(%ebp)
    ffc9:	0f b7 85 46 ff ff ff 	movzwl -0xba(%ebp),%eax
    ffd0:	b4 0c                	mov    $0xc,%ah
    ffd2:	66 89 85 44 ff ff ff 	mov    %ax,-0xbc(%ebp)
    ffd9:	d9 ad 44 ff ff ff    	fldcw  -0xbc(%ebp)
    ffdf:	db 9d 40 ff ff ff    	fistpl -0xc0(%ebp)
    ffe5:	d9 ad 46 ff ff ff    	fldcw  -0xba(%ebp)
    ffeb:	8b 85 40 ff ff ff    	mov    -0xc0(%ebp),%eax
    fff1:	d9 86 88 00 00 00    	flds   0x88(%esi)
    fff7:	89 44 24 08          	mov    %eax,0x8(%esp)
    fffb:	89 04 24             	mov    %eax,(%esp)
    fffe:	d9 ad 44 ff ff ff    	fldcw  -0xbc(%ebp)
   10004:	db 5c 24 0c          	fistpl 0xc(%esp)
   10008:	d9 ad 46 ff ff ff    	fldcw  -0xba(%ebp)
   1000e:	c7 44 24 04 00 00 00 	movl   $0x0,0x4(%esp)
   10015:	00 
   10016:	e8 05 74 ff ff       	call   7420 <glScissor@plt>
   1001b:	c7 44 24 0c 00 00 00 	movl   $0x0,0xc(%esp)
   10022:	00 
   10023:	c7 44 24 08 cd cc cc 	movl   $0x3dcccccd,0x8(%esp)
   1002a:	3d 
   1002b:	c7 44 24 04 cd cc cc 	movl   $0x3ecccccd,0x4(%esp)
   10032:	3e 
   10033:	c7 04 24 cd cc cc 3e 	movl   $0x3ecccccd,(%esp)
   1003a:	e8 01 79 ff ff       	call   7940 <glClearColor@plt>
   1003f:	c7 04 24 00 41 00 00 	movl   $0x4100,(%esp)
   10046:	e8 75 6f ff ff       	call   6fc0 <glClear@plt>
   1004b:	c7 04 24 01 17 00 00 	movl   $0x1701,(%esp)
   10052:	e8 a9 77 ff ff       	call   7800 <glMatrixMode@plt>
   10057:	e8 e4 76 ff ff       	call   7740 <glLoadIdentity@plt>
   1005c:	d9 83 e0 c0 ff ff    	flds   -0x3f20(%ebx)
   10062:	d9 85 18 ff ff ff    	flds   -0xe8(%ebp)
   10068:	d9 c0                	fld    %st(0)
   1006a:	d8 ca                	fmul   %st(2),%st
   1006c:	d9 83 e4 c0 ff ff    	flds   -0x3f1c(%ebx)
   10072:	dc ca                	fmul   %st,%st(2)
   10074:	d9 83 e8 c0 ff ff    	flds   -0x3f18(%ebx)
   1007a:	dd 54 24 28          	fstl   0x28(%esp)
   1007e:	d9 83 ec c0 ff ff    	flds   -0x3f14(%ebx)
   10084:	dd 54 24 20          	fstl   0x20(%esp)
   10088:	d9 ca                	fxch   %st(2)
   1008a:	dd 54 24 18          	fstl   0x18(%esp)
   1008e:	d9 cd                	fxch   %st(5)
   10090:	dd 54 24 10          	fstl   0x10(%esp)
   10094:	d9 cb                	fxch   %st(3)
   10096:	dd 54 24 08          	fstl   0x8(%esp)
   1009a:	d9 cc                	fxch   %st(4)
   1009c:	dd 14 24             	fstl   (%esp)
   1009f:	d9 9d 18 ff ff ff    	fstps  -0xe8(%ebp)
   100a5:	d9 ca                	fxch   %st(2)
   100a7:	d9 9d 08 ff ff ff    	fstps  -0xf8(%ebp)
   100ad:	d9 cb                	fxch   %st(3)
   100af:	d9 9d e8 fe ff ff    	fstps  -0x118(%ebp)
   100b5:	d9 c9                	fxch   %st(1)
   100b7:	d9 9d f8 fe ff ff    	fstps  -0x108(%ebp)
   100bd:	d9 c9                	fxch   %st(1)
   100bf:	d9 9d d8 fe ff ff    	fstps  -0x128(%ebp)
   100c5:	d9 9d c8 fe ff ff    	fstps  -0x138(%ebp)
   100cb:	e8 90 7b ff ff       	call   7c60 <glOrtho@plt>
   100d0:	c7 04 24 00 17 00 00 	movl   $0x1700,(%esp)
   100d7:	e8 24 77 ff ff       	call   7800 <glMatrixMode@plt>
   100dc:	e8 5f 76 ff ff       	call   7740 <glLoadIdentity@plt>
   100e1:	c7 44 24 0c 00 00 80 	movl   $0x3f800000,0xc(%esp)
   100e8:	3f 
   100e9:	c7 44 24 08 00 00 00 	movl   $0x0,0x8(%esp)
   100f0:	00 
   100f1:	c7 44 24 04 00 00 00 	movl   $0x0,0x4(%esp)
   100f8:	00 
   100f9:	c7 04 24 00 00 34 43 	movl   $0x43340000,(%esp)
   10100:	e8 4b 7a ff ff       	call   7b50 <glRotatef@plt>
   10105:	89 34 24             	mov    %esi,(%esp)
   10108:	e8 63 6d ff ff       	call   6e70 <_ZN5Scene9DrawSceneEv@plt>
   1010d:	d9 86 88 00 00 00    	flds   0x88(%esi)
   10113:	d9 bd 46 ff ff ff    	fnstcw -0xba(%ebp)
   10119:	0f b7 85 46 ff ff ff 	movzwl -0xba(%ebp),%eax
   10120:	b4 0c                	mov    $0xc,%ah
   10122:	66 89 85 44 ff ff ff 	mov    %ax,-0xbc(%ebp)
   10129:	8d 83 b4 bf ff ff    	lea    -0x404c(%ebx),%eax
   1012f:	d9 ad 44 ff ff ff    	fldcw  -0xbc(%ebp)
   10135:	db 5c 24 0c          	fistpl 0xc(%esp)
   10139:	d9 ad 46 ff ff ff    	fldcw  -0xba(%ebp)
   1013f:	d9 00                	flds   (%eax)
   10141:	d8 8e 8c 00 00 00    	fmuls  0x8c(%esi)
   10147:	c7 44 24 04 00 00 00 	movl   $0x0,0x4(%esp)
   1014e:	00 
   1014f:	d9 ad 44 ff ff ff    	fldcw  -0xbc(%ebp)
   10155:	db 5c 24 08          	fistpl 0x8(%esp)
   10159:	d9 ad 46 ff ff ff    	fldcw  -0xba(%ebp)
   1015f:	c7 04 24 00 00 00 00 	movl   $0x0,(%esp)
   10166:	e8 75 6e ff ff       	call   6fe0 <glViewport@plt>
   1016b:	d9 86 88 00 00 00    	flds   0x88(%esi)
   10171:	d9 bd 46 ff ff ff    	fnstcw -0xba(%ebp)
   10177:	0f b7 85 46 ff ff ff 	movzwl -0xba(%ebp),%eax
   1017e:	b4 0c                	mov    $0xc,%ah
   10180:	66 89 85 44 ff ff ff 	mov    %ax,-0xbc(%ebp)
   10187:	8d 83 b4 bf ff ff    	lea    -0x404c(%ebx),%eax
   1018d:	d9 ad 44 ff ff ff    	fldcw  -0xbc(%ebp)
   10193:	db 5c 24 0c          	fistpl 0xc(%esp)
   10197:	d9 ad 46 ff ff ff    	fldcw  -0xba(%ebp)
   1019d:	d9 00                	flds   (%eax)
   1019f:	d8 8e 8c 00 00 00    	fmuls  0x8c(%esi)
   101a5:	c7 44 24 04 00 00 00 	movl   $0x0,0x4(%esp)
   101ac:	00 
   101ad:	d9 ad 44 ff ff ff    	fldcw  -0xbc(%ebp)
   101b3:	db 5c 24 08          	fistpl 0x8(%esp)
   101b7:	d9 ad 46 ff ff ff    	fldcw  -0xba(%ebp)
   101bd:	c7 04 24 00 00 00 00 	movl   $0x0,(%esp)
   101c4:	e8 57 72 ff ff       	call   7420 <glScissor@plt>
   101c9:	c7 44 24 0c 00 00 00 	movl   $0x0,0xc(%esp)
   101d0:	00 
   101d1:	c7 44 24 08 cd cc cc 	movl   $0x3ecccccd,0x8(%esp)
   101d8:	3e 
   101d9:	c7 44 24 04 cd cc cc 	movl   $0x3dcccccd,0x4(%esp)
   101e0:	3d 
   101e1:	c7 04 24 cd cc cc 3e 	movl   $0x3ecccccd,(%esp)
   101e8:	e8 53 77 ff ff       	call   7940 <glClearColor@plt>
   101ed:	c7 04 24 00 41 00 00 	movl   $0x4100,(%esp)
   101f4:	e8 c7 6d ff ff       	call   6fc0 <glClear@plt>
   101f9:	c7 04 24 01 17 00 00 	movl   $0x1701,(%esp)
   10200:	e8 fb 75 ff ff       	call   7800 <glMatrixMode@plt>
   10205:	e8 36 75 ff ff       	call   7740 <glLoadIdentity@plt>
   1020a:	d9 85 c8 fe ff ff    	flds   -0x138(%ebp)
   10210:	dd 5c 24 28          	fstpl  0x28(%esp)
   10214:	d9 85 d8 fe ff ff    	flds   -0x128(%ebp)
   1021a:	dd 5c 24 20          	fstpl  0x20(%esp)
   1021e:	d9 85 e8 fe ff ff    	flds   -0x118(%ebp)
   10224:	dd 5c 24 18          	fstpl  0x18(%esp)
   10228:	d9 85 08 ff ff ff    	flds   -0xf8(%ebp)
   1022e:	dd 5c 24 10          	fstpl  0x10(%esp)
   10232:	d9 85 f8 fe ff ff    	flds   -0x108(%ebp)
   10238:	dd 5c 24 08          	fstpl  0x8(%esp)
   1023c:	d9 85 18 ff ff ff    	flds   -0xe8(%ebp)
   10242:	dd 1c 24             	fstpl  (%esp)
   10245:	e8 16 7a ff ff       	call   7c60 <glOrtho@plt>
   1024a:	c7 04 24 00 17 00 00 	movl   $0x1700,(%esp)
   10251:	e8 aa 75 ff ff       	call   7800 <glMatrixMode@plt>
   10256:	e8 e5 74 ff ff       	call   7740 <glLoadIdentity@plt>
   1025b:	c7 44 24 0c 00 00 00 	movl   $0x0,0xc(%esp)
   10262:	00 
   10263:	c7 44 24 08 00 00 00 	movl   $0x0,0x8(%esp)
   1026a:	00 
   1026b:	c7 44 24 04 00 00 80 	movl   $0x3f800000,0x4(%esp)
   10272:	3f 
   10273:	c7 04 24 00 00 b4 42 	movl   $0x42b40000,(%esp)
   1027a:	e8 d1 78 ff ff       	call   7b50 <glRotatef@plt>
   1027f:	89 34 24             	mov    %esi,(%esp)
   10282:	e8 e9 6b ff ff       	call   6e70 <_ZN5Scene9DrawSceneEv@plt>
   10287:	8d 65 f4             	lea    -0xc(%ebp),%esp
   1028a:	5b                   	pop    %ebx
   1028b:	5e                   	pop    %esi
   1028c:	5f                   	pop    %edi
   1028d:	5d                   	pop    %ebp
   1028e:	c3                   	ret    
   1028f:	90                   	nop
   10290:	d9 83 b4 bf ff ff    	flds   -0x404c(%ebx)
   10296:	d8 8e 84 00 00 00    	fmuls  0x84(%esi)
   1029c:	dd 83 c4 c0 ff ff    	fldl   -0x3f3c(%ebx)
   102a2:	de c9                	fmulp  %st,%st(1)
   102a4:	d8 b3 cc c0 ff ff    	fdivs  -0x3f34(%ebx)
   102aa:	dd 1c 24             	fstpl  (%esp)
   102ad:	e8 ce 6e ff ff       	call   7180 <tan@plt>
   102b2:	d8 4e 18             	fmuls  0x18(%esi)
   102b5:	d9 5d 94             	fstps  -0x6c(%ebp)
   102b8:	d9 45 94             	flds   -0x6c(%ebp)
   102bb:	d9 86 88 00 00 00    	flds   0x88(%esi)
   102c1:	d8 b6 8c 00 00 00    	fdivs  0x8c(%esi)
   102c7:	d9 c1                	fld    %st(1)
   102c9:	d9 e0                	fchs   
   102cb:	d9 83 f0 c0 ff ff    	flds   -0x3f10(%ebx)
   102d1:	dd 5c 24 28          	fstpl  0x28(%esp)
   102d5:	d9 ee                	fldz   
   102d7:	dd 5c 24 20          	fstpl  0x20(%esp)
   102db:	d9 c2                	fld    %st(2)
   102dd:	d8 ca                	fmul   %st(2),%st
   102df:	dd 5c 24 18          	fstpl  0x18(%esp)
   102e3:	dc c9                	fmul   %st,%st(1)
   102e5:	d9 c9                	fxch   %st(1)
   102e7:	dd 5c 24 10          	fstpl  0x10(%esp)
   102eb:	d9 c9                	fxch   %st(1)
   102ed:	dd 5c 24 08          	fstpl  0x8(%esp)
   102f1:	dd 1c 24             	fstpl  (%esp)
   102f4:	e8 67 79 ff ff       	call   7c60 <glOrtho@plt>
   102f9:	e9 bd fa ff ff       	jmp    fdbb <_ZN5Scene6RenderEb+0x23b>
   102fe:	66 90                	xchg   %ax,%ax
   10300:	d9 e8                	fld1   
   10302:	8d 45 b4             	lea    -0x4c(%ebp),%eax
   10305:	dd 54 24 18          	fstl   0x18(%esp)
   10309:	89 44 24 20          	mov    %eax,0x20(%esp)
   1030d:	dd 5c 24 10          	fstpl  0x10(%esp)
   10311:	db 86 98 00 00 00    	fildl  0x98(%esi)
   10317:	dd 5c 24 08          	fstpl  0x8(%esp)
   1031b:	db 86 94 00 00 00    	fildl  0x94(%esi)
   10321:	dd 1c 24             	fstpl  (%esp)
   10324:	e8 27 6f ff ff       	call   7250 <gluPickMatrix@plt>
   10329:	80 be 90 00 00 00 00 	cmpb   $0x0,0x90(%esi)
   10330:	0f 84 53 fa ff ff    	je     fd89 <_ZN5Scene6RenderEb+0x209>
   10336:	e9 55 ff ff ff       	jmp    10290 <_ZN5Scene6RenderEb+0x710>
   1033b:	90                   	nop
   1033c:	8d 74 26 00          	lea    0x0(%esi,%eiz,1),%esi

00010340 <_ZN5Scene9DoPickingEii>:
   10340:	55                   	push   %ebp
   10341:	89 e5                	mov    %esp,%ebp
   10343:	57                   	push   %edi
   10344:	56                   	push   %esi
   10345:	53                   	push   %ebx
   10346:	e8 ee 7a ff ff       	call   7e39 <__i686.get_pc_thunk.bx>
   1034b:	81 c3 59 91 00 00    	add    $0x9159,%ebx
   10351:	8d 64 24 c4          	lea    -0x3c(%esp),%esp
   10355:	8b 55 08             	mov    0x8(%ebp),%edx
   10358:	8b 45 0c             	mov    0xc(%ebp),%eax
   1035b:	89 d6                	mov    %edx,%esi
   1035d:	81 c6 a0 00 00 00    	add    $0xa0,%esi
   10363:	89 82 94 00 00 00    	mov    %eax,0x94(%edx)
   10369:	8b 45 10             	mov    0x10(%ebp),%eax
   1036c:	89 82 98 00 00 00    	mov    %eax,0x98(%edx)
   10372:	89 74 24 04          	mov    %esi,0x4(%esp)
   10376:	c7 04 24 00 04 00 00 	movl   $0x400,(%esp)
   1037d:	e8 9e 76 ff ff       	call   7a20 <glSelectBuffer@plt>
   10382:	c7 04 24 02 1c 00 00 	movl   $0x1c02,(%esp)
   10389:	e8 62 6b ff ff       	call   6ef0 <glRenderMode@plt>
   1038e:	8b 4d 08             	mov    0x8(%ebp),%ecx
   10391:	c7 44 24 04 01 00 00 	movl   $0x1,0x4(%esp)
   10398:	00 
   10399:	89 0c 24             	mov    %ecx,(%esp)
   1039c:	e8 cf 75 ff ff       	call   7970 <_ZN5Scene6RenderEb@plt>
   103a1:	c7 04 24 00 1c 00 00 	movl   $0x1c00,(%esp)
   103a8:	e8 43 6b ff ff       	call   6ef0 <glRenderMode@plt>
   103ad:	8b 7d 08             	mov    0x8(%ebp),%edi
   103b0:	85 c0                	test   %eax,%eax
   103b2:	89 45 e0             	mov    %eax,-0x20(%ebp)
   103b5:	c7 87 9c 00 00 00 ff 	movl   $0xffffffff,0x9c(%edi)
   103bc:	ff ff ff 
   103bf:	7e 5f                	jle    10420 <_ZN5Scene9DoPickingEii+0xe0>
   103c1:	31 d2                	xor    %edx,%edx
   103c3:	b9 ff ff ff ff       	mov    $0xffffffff,%ecx
   103c8:	eb 19                	jmp    103e3 <_ZN5Scene9DoPickingEii+0xa3>
   103ca:	8d b6 00 00 00 00    	lea    0x0(%esi),%esi
   103d0:	8d 52 01             	lea    0x1(%edx),%edx
   103d3:	3b 55 e0             	cmp    -0x20(%ebp),%edx
   103d6:	89 c8                	mov    %ecx,%eax
   103d8:	74 2f                	je     10409 <_ZN5Scene9DoPickingEii+0xc9>
   103da:	8b 4d d4             	mov    -0x2c(%ebp),%ecx
   103dd:	8d 74 8e 0c          	lea    0xc(%esi,%ecx,4),%esi
   103e1:	89 c1                	mov    %eax,%ecx
   103e3:	8b 06                	mov    (%esi),%eax
   103e5:	8b 7e 0c             	mov    0xc(%esi),%edi
   103e8:	89 45 d4             	mov    %eax,-0x2c(%ebp)
   103eb:	8b 46 04             	mov    0x4(%esi),%eax
   103ee:	39 c1                	cmp    %eax,%ecx
   103f0:	89 7d e4             	mov    %edi,-0x1c(%ebp)
   103f3:	76 db                	jbe    103d0 <_ZN5Scene9DoPickingEii+0x90>
   103f5:	8b 4d 08             	mov    0x8(%ebp),%ecx
   103f8:	8b 7d e4             	mov    -0x1c(%ebp),%edi
   103fb:	8d 52 01             	lea    0x1(%edx),%edx
   103fe:	3b 55 e0             	cmp    -0x20(%ebp),%edx
   10401:	89 b9 9c 00 00 00    	mov    %edi,0x9c(%ecx)
   10407:	75 d1                	jne    103da <_ZN5Scene9DoPickingEii+0x9a>
   10409:	8b 7d 08             	mov    0x8(%ebp),%edi
   1040c:	8b 8f 9c 00 00 00    	mov    0x9c(%edi),%ecx
   10412:	85 c9                	test   %ecx,%ecx
   10414:	75 0a                	jne    10420 <_ZN5Scene9DoPickingEii+0xe0>
   10416:	c7 87 9c 00 00 00 ff 	movl   $0xffffffff,0x9c(%edi)
   1041d:	ff ff ff 
   10420:	8d 64 24 3c          	lea    0x3c(%esp),%esp
   10424:	5b                   	pop    %ebx
   10425:	5e                   	pop    %esi
   10426:	5f                   	pop    %edi
   10427:	5d                   	pop    %ebp
   10428:	c3                   	ret    
   10429:	90                   	nop
   1042a:	8d b6 00 00 00 00    	lea    0x0(%esi),%esi

00010430 <_ZN5Scene8AutoZoomEv>:
   10430:	55                   	push   %ebp
   10431:	89 e5                	mov    %esp,%ebp
   10433:	57                   	push   %edi
   10434:	56                   	push   %esi
   10435:	53                   	push   %ebx
   10436:	e8 fe 79 ff ff       	call   7e39 <__i686.get_pc_thunk.bx>
   1043b:	81 c3 69 90 00 00    	add    $0x9069,%ebx
   10441:	8d a4 24 04 ff ff ff 	lea    -0xfc(%esp),%esp
   10448:	8b 45 08             	mov    0x8(%ebp),%eax
   1044b:	80 b8 90 00 00 00 00 	cmpb   $0x0,0x90(%eax)
   10452:	0f 84 b2 02 00 00    	je     1070a <_ZN5Scene8AutoZoomEv+0x2da>
   10458:	89 04 24             	mov    %eax,(%esp)
   1045b:	c7 44 24 04 00 00 00 	movl   $0x0,0x4(%esp)
   10462:	00 
   10463:	e8 08 75 ff ff       	call   7970 <_ZN5Scene6RenderEb@plt>
   10468:	8b 4d 08             	mov    0x8(%ebp),%ecx
   1046b:	8b 51 0c             	mov    0xc(%ecx),%edx
   1046e:	8b 41 10             	mov    0x10(%ecx),%eax
   10471:	29 d0                	sub    %edx,%eax
   10473:	c1 e8 05             	shr    $0x5,%eax
   10476:	0f 84 d8 05 00 00    	je     10a54 <_ZN5Scene8AutoZoomEv+0x624>
   1047c:	d9 83 fc c0 ff ff    	flds   -0x3f04(%ebx)
   10482:	8b 45 08             	mov    0x8(%ebp),%eax
   10485:	d9 95 48 ff ff ff    	fsts   -0xb8(%ebp)
   1048b:	83 c0 44             	add    $0x44,%eax
   1048e:	d9 83 f8 c0 ff ff    	flds   -0x3f08(%ebx)
   10494:	8d 4d ac             	lea    -0x54(%ebp),%ecx
   10497:	d9 95 4c ff ff ff    	fsts   -0xb4(%ebp)
   1049d:	d9 c9                	fxch   %st(1)
   1049f:	89 85 34 ff ff ff    	mov    %eax,-0xcc(%ebp)
   104a5:	d9 9d 44 ff ff ff    	fstps  -0xbc(%ebp)
   104ab:	8d 85 58 ff ff ff    	lea    -0xa8(%ebp),%eax
   104b1:	89 8d 24 ff ff ff    	mov    %ecx,-0xdc(%ebp)
   104b7:	89 85 28 ff ff ff    	mov    %eax,-0xd8(%ebp)
   104bd:	8d 4d d0             	lea    -0x30(%ebp),%ecx
   104c0:	8d 45 dc             	lea    -0x24(%ebp),%eax
   104c3:	c7 85 2c ff ff ff 00 	movl   $0x0,-0xd4(%ebp)
   104ca:	00 00 00 
   104cd:	89 85 3c ff ff ff    	mov    %eax,-0xc4(%ebp)
   104d3:	d9 9d 50 ff ff ff    	fstps  -0xb0(%ebp)
   104d9:	8d 45 c4             	lea    -0x3c(%ebp),%eax
   104dc:	89 8d 38 ff ff ff    	mov    %ecx,-0xc8(%ebp)
   104e2:	89 85 30 ff ff ff    	mov    %eax,-0xd0(%ebp)
   104e8:	8b 85 2c ff ff ff    	mov    -0xd4(%ebp),%eax
   104ee:	8b 4d 08             	mov    0x8(%ebp),%ecx
   104f1:	c1 e0 05             	shl    $0x5,%eax
   104f4:	89 4c 24 08          	mov    %ecx,0x8(%esp)
   104f8:	01 c2                	add    %eax,%edx
   104fa:	8b 85 28 ff ff ff    	mov    -0xd8(%ebp),%eax
   10500:	89 54 24 04          	mov    %edx,0x4(%esp)
   10504:	89 04 24             	mov    %eax,(%esp)
   10507:	e8 b4 6d ff ff       	call   72c0 <_ZNK7Objecte16getTransformedBBERSt6vectorI5ModelSaIS1_EE@plt>
   1050c:	8d 64 24 fc          	lea    -0x4(%esp),%esp
   10510:	8b 85 24 ff ff ff    	mov    -0xdc(%ebp),%eax
   10516:	8b 8d 28 ff ff ff    	mov    -0xd8(%ebp),%ecx
   1051c:	89 04 24             	mov    %eax,(%esp)
   1051f:	89 4c 24 04          	mov    %ecx,0x4(%esp)
   10523:	e8 78 70 ff ff       	call   75a0 <_ZNK3Box9getPointsEv@plt>
   10528:	8b 75 ac             	mov    -0x54(%ebp),%esi
   1052b:	8b 45 b0             	mov    -0x50(%ebp),%eax
   1052e:	29 f0                	sub    %esi,%eax
   10530:	83 ec 04             	sub    $0x4,%esp
   10533:	c1 f8 02             	sar    $0x2,%eax
   10536:	69 c0 ab aa aa aa    	imul   $0xaaaaaaab,%eax,%eax
   1053c:	85 c0                	test   %eax,%eax
   1053e:	0f 84 f3 00 00 00    	je     10637 <_ZN5Scene8AutoZoomEv+0x207>
   10544:	31 ff                	xor    %edi,%edi
   10546:	c7 85 40 ff ff ff 00 	movl   $0x0,-0xc0(%ebp)
   1054d:	00 00 00 
   10550:	8b 8d 3c ff ff ff    	mov    -0xc4(%ebp),%ecx
   10556:	8d 34 3e             	lea    (%esi,%edi,1),%esi
   10559:	89 0c 24             	mov    %ecx,(%esp)
   1055c:	89 74 24 04          	mov    %esi,0x4(%esp)
   10560:	e8 7b 71 ff ff       	call   76e0 <_ZN6VectorC1ERK5Point@plt>
   10565:	8b 85 3c ff ff ff    	mov    -0xc4(%ebp),%eax
   1056b:	8b 8d 34 ff ff ff    	mov    -0xcc(%ebp),%ecx
   10571:	89 44 24 08          	mov    %eax,0x8(%esp)
   10575:	8b 85 38 ff ff ff    	mov    -0xc8(%ebp),%eax
   1057b:	89 4c 24 04          	mov    %ecx,0x4(%esp)
   1057f:	89 04 24             	mov    %eax,(%esp)
   10582:	e8 19 6d ff ff       	call   72a0 <_ZmlRK6MatrixRK6Vector@plt>
   10587:	8d 64 24 fc          	lea    -0x4(%esp),%esp
   1058b:	8b 8d 38 ff ff ff    	mov    -0xc8(%ebp),%ecx
   10591:	8b 85 30 ff ff ff    	mov    -0xd0(%ebp),%eax
   10597:	89 4c 24 04          	mov    %ecx,0x4(%esp)
   1059b:	89 04 24             	mov    %eax,(%esp)
   1059e:	e8 9d 6e ff ff       	call   7440 <_ZN5PointC1ERK6Vector@plt>
   105a3:	8b 45 c4             	mov    -0x3c(%ebp),%eax
   105a6:	89 06                	mov    %eax,(%esi)
   105a8:	8b 45 c8             	mov    -0x38(%ebp),%eax
   105ab:	89 46 04             	mov    %eax,0x4(%esi)
   105ae:	8b 45 cc             	mov    -0x34(%ebp),%eax
   105b1:	89 46 08             	mov    %eax,0x8(%esi)
   105b4:	8b 45 ac             	mov    -0x54(%ebp),%eax
   105b7:	8b 75 ac             	mov    -0x54(%ebp),%esi
   105ba:	8d 04 38             	lea    (%eax,%edi,1),%eax
   105bd:	8d 7f 0c             	lea    0xc(%edi),%edi
   105c0:	d9 00                	flds   (%eax)
   105c2:	c7 40 08 00 00 00 00 	movl   $0x0,0x8(%eax)
   105c9:	d9 85 50 ff ff ff    	flds   -0xb0(%ebp)
   105cf:	db e9                	fucomi %st(1),%st
   105d1:	db d1                	fcmovnbe %st(1),%st
   105d3:	d9 9d 50 ff ff ff    	fstps  -0xb0(%ebp)
   105d9:	d9 40 04             	flds   0x4(%eax)
   105dc:	8b 45 b0             	mov    -0x50(%ebp),%eax
   105df:	d9 85 4c ff ff ff    	flds   -0xb4(%ebp)
   105e5:	db e9                	fucomi %st(1),%st
   105e7:	db d1                	fcmovnbe %st(1),%st
   105e9:	d9 9d 4c ff ff ff    	fstps  -0xb4(%ebp)
   105ef:	d9 85 44 ff ff ff    	flds   -0xbc(%ebp)
   105f5:	d9 ca                	fxch   %st(2)
   105f7:	db ea                	fucomi %st(2),%st
   105f9:	da d2                	fcmovbe %st(2),%st
   105fb:	dd da                	fstp   %st(2)
   105fd:	d9 c9                	fxch   %st(1)
   105ff:	d9 9d 44 ff ff ff    	fstps  -0xbc(%ebp)
   10605:	d9 85 48 ff ff ff    	flds   -0xb8(%ebp)
   1060b:	d9 c9                	fxch   %st(1)
   1060d:	db e9                	fucomi %st(1),%st
   1060f:	da d1                	fcmovbe %st(1),%st
   10611:	dd d9                	fstp   %st(1)
   10613:	29 f0                	sub    %esi,%eax
   10615:	c1 f8 02             	sar    $0x2,%eax
   10618:	83 85 40 ff ff ff 01 	addl   $0x1,-0xc0(%ebp)
   1061f:	69 c0 ab aa aa aa    	imul   $0xaaaaaaab,%eax,%eax
   10625:	39 85 40 ff ff ff    	cmp    %eax,-0xc0(%ebp)
   1062b:	d9 9d 48 ff ff ff    	fstps  -0xb8(%ebp)
   10631:	0f 82 19 ff ff ff    	jb     10550 <_ZN5Scene8AutoZoomEv+0x120>
   10637:	85 f6                	test   %esi,%esi
   10639:	74 08                	je     10643 <_ZN5Scene8AutoZoomEv+0x213>
   1063b:	89 34 24             	mov    %esi,(%esp)
   1063e:	e8 8d 6e ff ff       	call   74d0 <_ZdlPv@plt>
   10643:	8b 45 08             	mov    0x8(%ebp),%eax
   10646:	83 85 2c ff ff ff 01 	addl   $0x1,-0xd4(%ebp)
   1064d:	8b 50 0c             	mov    0xc(%eax),%edx
   10650:	8b 40 10             	mov    0x10(%eax),%eax
   10653:	29 d0                	sub    %edx,%eax
   10655:	c1 f8 05             	sar    $0x5,%eax
   10658:	39 85 2c ff ff ff    	cmp    %eax,-0xd4(%ebp)
   1065e:	0f 82 84 fe ff ff    	jb     104e8 <_ZN5Scene8AutoZoomEv+0xb8>
   10664:	d9 85 48 ff ff ff    	flds   -0xb8(%ebp)
   1066a:	d9 e1                	fabs   
   1066c:	d9 85 4c ff ff ff    	flds   -0xb4(%ebp)
   10672:	d9 e1                	fabs   
   10674:	db e9                	fucomi %st(1),%st
   10676:	0f 87 97 03 00 00    	ja     10a13 <_ZN5Scene8AutoZoomEv+0x5e3>
   1067c:	dd d8                	fstp   %st(0)
   1067e:	d9 85 44 ff ff ff    	flds   -0xbc(%ebp)
   10684:	d9 e1                	fabs   
   10686:	d9 85 50 ff ff ff    	flds   -0xb0(%ebp)
   1068c:	d9 e1                	fabs   
   1068e:	db e9                	fucomi %st(1),%st
   10690:	0f 97 c0             	seta   %al
   10693:	84 c0                	test   %al,%al
   10695:	8b 45 08             	mov    0x8(%ebp),%eax
   10698:	da c9                	fcmove %st(1),%st
   1069a:	dd d9                	fstp   %st(1)
   1069c:	d9 80 8c 00 00 00    	flds   0x8c(%eax)
   106a2:	d8 b0 88 00 00 00    	fdivs  0x88(%eax)
   106a8:	de ca                	fmulp  %st,%st(2)
   106aa:	d9 c9                	fxch   %st(1)
   106ac:	db e9                	fucomi %st(1),%st
   106ae:	da d1                	fcmovbe %st(1),%st
   106b0:	dd d9                	fstp   %st(1)
   106b2:	dd 83 c4 c0 ff ff    	fldl   -0x3f3c(%ebx)
   106b8:	d8 88 84 00 00 00    	fmuls  0x84(%eax)
   106be:	d8 b3 cc c0 ff ff    	fdivs  -0x3f34(%ebx)
   106c4:	d9 9d 54 ff ff ff    	fstps  -0xac(%ebp)
   106ca:	d9 85 54 ff ff ff    	flds   -0xac(%ebp)
   106d0:	d8 8b b4 bf ff ff    	fmuls  -0x404c(%ebx)
   106d6:	dd 1c 24             	fstpl  (%esp)
   106d9:	d9 9d 18 ff ff ff    	fstps  -0xe8(%ebp)
   106df:	e8 9c 6a ff ff       	call   7180 <tan@plt>
   106e4:	8b 4d 08             	mov    0x8(%ebp),%ecx
   106e7:	d9 85 18 ff ff ff    	flds   -0xe8(%ebp)
   106ed:	de f1                	fdivp  %st,%st(1)
   106ef:	d9 59 18             	fstps  0x18(%ecx)
   106f2:	c7 44 24 04 00 00 00 	movl   $0x0,0x4(%esp)
   106f9:	00 
   106fa:	89 0c 24             	mov    %ecx,(%esp)
   106fd:	e8 6e 72 ff ff       	call   7970 <_ZN5Scene6RenderEb@plt>
   10702:	8d 65 f4             	lea    -0xc(%ebp),%esp
   10705:	5b                   	pop    %ebx
   10706:	5e                   	pop    %esi
   10707:	5f                   	pop    %edi
   10708:	5d                   	pop    %ebp
   10709:	c3                   	ret    
   1070a:	8b 75 08             	mov    0x8(%ebp),%esi
   1070d:	8d 7d b8             	lea    -0x48(%ebp),%edi
   10710:	83 c6 2c             	add    $0x2c,%esi
   10713:	b9 03 00 00 00       	mov    $0x3,%ecx
   10718:	f3 a5                	rep movsl %ds:(%esi),%es:(%edi)
   1071a:	8d 75 b8             	lea    -0x48(%ebp),%esi
   1071d:	89 34 24             	mov    %esi,(%esp)
   10720:	e8 7b 69 ff ff       	call   70a0 <_ZN6Vector9normalizeEv@plt>
   10725:	dd 83 c4 c0 ff ff    	fldl   -0x3f3c(%ebx)
   1072b:	8b 45 08             	mov    0x8(%ebp),%eax
   1072e:	d8 88 84 00 00 00    	fmuls  0x84(%eax)
   10734:	d8 b3 cc c0 ff ff    	fdivs  -0x3f34(%ebx)
   1073a:	d9 9d 54 ff ff ff    	fstps  -0xac(%ebp)
   10740:	d9 85 54 ff ff ff    	flds   -0xac(%ebp)
   10746:	d9 83 b4 bf ff ff    	flds   -0x404c(%ebx)
   1074c:	d9 c1                	fld    %st(1)
   1074e:	d8 c9                	fmul   %st(1),%st
   10750:	dd 1c 24             	fstpl  (%esp)
   10753:	d9 c9                	fxch   %st(1)
   10755:	d9 9d 18 ff ff ff    	fstps  -0xe8(%ebp)
   1075b:	d9 9d 08 ff ff ff    	fstps  -0xf8(%ebp)
   10761:	e8 1a 6a ff ff       	call   7180 <tan@plt>
   10766:	8b 4d 08             	mov    0x8(%ebp),%ecx
   10769:	d8 71 28             	fdivs  0x28(%ecx)
   1076c:	dd 1c 24             	fstpl  (%esp)
   1076f:	e8 7c 6d ff ff       	call   74f0 <atan@plt>
   10774:	8b 45 08             	mov    0x8(%ebp),%eax
   10777:	d8 c0                	fadd   %st(0),%st
   10779:	d9 9d 54 ff ff ff    	fstps  -0xac(%ebp)
   1077f:	d9 85 54 ff ff ff    	flds   -0xac(%ebp)
   10785:	d9 85 18 ff ff ff    	flds   -0xe8(%ebp)
   1078b:	db e9                	fucomi %st(1),%st
   1078d:	8b 50 0c             	mov    0xc(%eax),%edx
   10790:	8b 40 10             	mov    0x10(%eax),%eax
   10793:	db d1                	fcmovnbe %st(1),%st
   10795:	dd d9                	fstp   %st(1)
   10797:	29 d0                	sub    %edx,%eax
   10799:	c1 e8 05             	shr    $0x5,%eax
   1079c:	d9 85 08 ff ff ff    	flds   -0xf8(%ebp)
   107a2:	de c9                	fmulp  %st,%st(1)
   107a4:	d9 9d 38 ff ff ff    	fstps  -0xc8(%ebp)
   107aa:	0f 84 9a 02 00 00    	je     10a4a <_ZN5Scene8AutoZoomEv+0x61a>
   107b0:	d9 e8                	fld1   
   107b2:	8d 85 58 ff ff ff    	lea    -0xa8(%ebp),%eax
   107b8:	8d 4d ac             	lea    -0x54(%ebp),%ecx
   107bb:	c7 85 2c ff ff ff 00 	movl   $0x0,-0xd4(%ebp)
   107c2:	00 00 00 
   107c5:	d9 9d 50 ff ff ff    	fstps  -0xb0(%ebp)
   107cb:	89 85 28 ff ff ff    	mov    %eax,-0xd8(%ebp)
   107d1:	89 8d 24 ff ff ff    	mov    %ecx,-0xdc(%ebp)
   107d7:	8b 45 08             	mov    0x8(%ebp),%eax
   107da:	8b 8d 28 ff ff ff    	mov    -0xd8(%ebp),%ecx
   107e0:	89 44 24 08          	mov    %eax,0x8(%esp)
   107e4:	8b 85 2c ff ff ff    	mov    -0xd4(%ebp),%eax
   107ea:	c1 e0 05             	shl    $0x5,%eax
   107ed:	89 0c 24             	mov    %ecx,(%esp)
   107f0:	01 d0                	add    %edx,%eax
   107f2:	89 44 24 04          	mov    %eax,0x4(%esp)
   107f6:	e8 c5 6a ff ff       	call   72c0 <_ZNK7Objecte16getTransformedBBERSt6vectorI5ModelSaIS1_EE@plt>
   107fb:	8d 64 24 fc          	lea    -0x4(%esp),%esp
   107ff:	8b 85 28 ff ff ff    	mov    -0xd8(%ebp),%eax
   10805:	8b 8d 24 ff ff ff    	mov    -0xdc(%ebp),%ecx
   1080b:	89 44 24 04          	mov    %eax,0x4(%esp)
   1080f:	89 0c 24             	mov    %ecx,(%esp)
   10812:	e8 89 6d ff ff       	call   75a0 <_ZNK3Box9getPointsEv@plt>
   10817:	8b 55 ac             	mov    -0x54(%ebp),%edx
   1081a:	8b 45 b0             	mov    -0x50(%ebp),%eax
   1081d:	29 d0                	sub    %edx,%eax
   1081f:	83 ec 04             	sub    $0x4,%esp
   10822:	c1 f8 02             	sar    $0x2,%eax
   10825:	69 c0 ab aa aa aa    	imul   $0xaaaaaaab,%eax,%eax
   1082b:	85 c0                	test   %eax,%eax
   1082d:	0f 84 92 01 00 00    	je     109c5 <_ZN5Scene8AutoZoomEv+0x595>
   10833:	8d 45 a0             	lea    -0x60(%ebp),%eax
   10836:	c7 85 30 ff ff ff 00 	movl   $0x0,-0xd0(%ebp)
   1083d:	00 00 00 
   10840:	c7 85 34 ff ff ff 00 	movl   $0x0,-0xcc(%ebp)
   10847:	00 00 00 
   1084a:	89 85 44 ff ff ff    	mov    %eax,-0xbc(%ebp)
   10850:	03 95 30 ff ff ff    	add    -0xd0(%ebp),%edx
   10856:	8b 8d 44 ff ff ff    	mov    -0xbc(%ebp),%ecx
   1085c:	89 54 24 04          	mov    %edx,0x4(%esp)
   10860:	89 0c 24             	mov    %ecx,(%esp)
   10863:	e8 78 6e ff ff       	call   76e0 <_ZN6VectorC1ERK5Point@plt>
   10868:	8d 45 94             	lea    -0x6c(%ebp),%eax
   1086b:	8d 4d 88             	lea    -0x78(%ebp),%ecx
   1086e:	89 85 40 ff ff ff    	mov    %eax,-0xc0(%ebp)
   10874:	89 8d 3c ff ff ff    	mov    %ecx,-0xc4(%ebp)
   1087a:	d9 85 50 ff ff ff    	flds   -0xb0(%ebp)
   10880:	8b 85 40 ff ff ff    	mov    -0xc0(%ebp),%eax
   10886:	89 74 24 08          	mov    %esi,0x8(%esp)
   1088a:	d9 5c 24 04          	fstps  0x4(%esp)
   1088e:	89 04 24             	mov    %eax,(%esp)
   10891:	e8 4a 73 ff ff       	call   7be0 <_ZmlfRK6Vector@plt>
   10896:	8d 64 24 fc          	lea    -0x4(%esp),%esp
   1089a:	8b 8d 40 ff ff ff    	mov    -0xc0(%ebp),%ecx
   108a0:	89 4c 24 08          	mov    %ecx,0x8(%esp)
   108a4:	8b 85 44 ff ff ff    	mov    -0xbc(%ebp),%eax
   108aa:	8b 8d 3c ff ff ff    	mov    -0xc4(%ebp),%ecx
   108b0:	89 44 24 04          	mov    %eax,0x4(%esp)
   108b4:	89 0c 24             	mov    %ecx,(%esp)
   108b7:	e8 84 66 ff ff       	call   6f40 <_ZmiRK6VectorS1_@plt>
   108bc:	8d 64 24 fc          	lea    -0x4(%esp),%esp
   108c0:	8b 85 3c ff ff ff    	mov    -0xc4(%ebp),%eax
   108c6:	89 74 24 04          	mov    %esi,0x4(%esp)
   108ca:	89 04 24             	mov    %eax,(%esp)
   108cd:	e8 7e 6e ff ff       	call   7750 <_ZmlRK6VectorS1_@plt>
   108d2:	d9 e0                	fchs   
   108d4:	d9 9d 4c ff ff ff    	fstps  -0xb4(%ebp)
   108da:	d9 85 50 ff ff ff    	flds   -0xb0(%ebp)
   108e0:	8d bd 7c ff ff ff    	lea    -0x84(%ebp),%edi
   108e6:	89 74 24 08          	mov    %esi,0x8(%esp)
   108ea:	d9 5c 24 04          	fstps  0x4(%esp)
   108ee:	89 3c 24             	mov    %edi,(%esp)
   108f1:	e8 ea 72 ff ff       	call   7be0 <_ZmlfRK6Vector@plt>
   108f6:	8d 64 24 fc          	lea    -0x4(%esp),%esp
   108fa:	8b 8d 44 ff ff ff    	mov    -0xbc(%ebp),%ecx
   10900:	8d 85 70 ff ff ff    	lea    -0x90(%ebp),%eax
   10906:	89 7c 24 08          	mov    %edi,0x8(%esp)
   1090a:	89 85 48 ff ff ff    	mov    %eax,-0xb8(%ebp)
   10910:	89 4c 24 04          	mov    %ecx,0x4(%esp)
   10914:	89 04 24             	mov    %eax,(%esp)
   10917:	e8 24 66 ff ff       	call   6f40 <_ZmiRK6VectorS1_@plt>
   1091c:	8d 64 24 fc          	lea    -0x4(%esp),%esp
   10920:	8b 85 48 ff ff ff    	mov    -0xb8(%ebp),%eax
   10926:	89 04 24             	mov    %eax,(%esp)
   10929:	e8 82 6b ff ff       	call   74b0 <_ZNK6Vector6lengthEv@plt>
   1092e:	d8 bd 4c ff ff ff    	fdivrs -0xb4(%ebp)
   10934:	d9 1c 24             	fstps  (%esp)
   10937:	e8 94 71 ff ff       	call   7ad0 <acosf@plt>
   1093c:	d9 85 38 ff ff ff    	flds   -0xc8(%ebp)
   10942:	d8 e9                	fsubr  %st(1),%st
   10944:	dd 1c 24             	fstpl  (%esp)
   10947:	d9 9d 18 ff ff ff    	fstps  -0xe8(%ebp)
   1094d:	e8 2e 6b ff ff       	call   7480 <sin@plt>
   10952:	d8 8d 50 ff ff ff    	fmuls  -0xb0(%ebp)
   10958:	d9 9d 54 ff ff ff    	fstps  -0xac(%ebp)
   1095e:	d9 85 54 ff ff ff    	flds   -0xac(%ebp)
   10964:	d9 e8                	fld1   
   10966:	db e9                	fucomi %st(1),%st
   10968:	da d1                	fcmovbe %st(1),%st
   1096a:	dd d9                	fstp   %st(1)
   1096c:	d9 85 18 ff ff ff    	flds   -0xe8(%ebp)
   10972:	d9 85 38 ff ff ff    	flds   -0xc8(%ebp)
   10978:	d9 c9                	fxch   %st(1)
   1097a:	df e9                	fucomip %st(1),%st
   1097c:	dd d8                	fstp   %st(0)
   1097e:	76 18                	jbe    10998 <_ZN5Scene8AutoZoomEv+0x568>
   10980:	d8 85 50 ff ff ff    	fadds  -0xb0(%ebp)
   10986:	d9 9d 50 ff ff ff    	fstps  -0xb0(%ebp)
   1098c:	e9 e9 fe ff ff       	jmp    1087a <_ZN5Scene8AutoZoomEv+0x44a>
   10991:	8d b4 26 00 00 00 00 	lea    0x0(%esi,%eiz,1),%esi
   10998:	dd d8                	fstp   %st(0)
   1099a:	8b 55 ac             	mov    -0x54(%ebp),%edx
   1099d:	8b 45 b0             	mov    -0x50(%ebp),%eax
   109a0:	29 d0                	sub    %edx,%eax
   109a2:	83 85 34 ff ff ff 01 	addl   $0x1,-0xcc(%ebp)
   109a9:	c1 f8 02             	sar    $0x2,%eax
   109ac:	83 85 30 ff ff ff 0c 	addl   $0xc,-0xd0(%ebp)
   109b3:	69 c0 ab aa aa aa    	imul   $0xaaaaaaab,%eax,%eax
   109b9:	39 85 34 ff ff ff    	cmp    %eax,-0xcc(%ebp)
   109bf:	0f 82 8b fe ff ff    	jb     10850 <_ZN5Scene8AutoZoomEv+0x420>
   109c5:	85 d2                	test   %edx,%edx
   109c7:	74 08                	je     109d1 <_ZN5Scene8AutoZoomEv+0x5a1>
   109c9:	89 14 24             	mov    %edx,(%esp)
   109cc:	e8 ff 6a ff ff       	call   74d0 <_ZdlPv@plt>
   109d1:	8b 45 08             	mov    0x8(%ebp),%eax
   109d4:	83 85 2c ff ff ff 01 	addl   $0x1,-0xd4(%ebp)
   109db:	8b 50 0c             	mov    0xc(%eax),%edx
   109de:	8b 40 10             	mov    0x10(%eax),%eax
   109e1:	29 d0                	sub    %edx,%eax
   109e3:	c1 f8 05             	sar    $0x5,%eax
   109e6:	39 85 2c ff ff ff    	cmp    %eax,-0xd4(%ebp)
   109ec:	0f 82 e5 fd ff ff    	jb     107d7 <_ZN5Scene8AutoZoomEv+0x3a7>
   109f2:	8b 45 08             	mov    0x8(%ebp),%eax
   109f5:	d9 85 50 ff ff ff    	flds   -0xb0(%ebp)
   109fb:	d9 58 18             	fstps  0x18(%eax)
   109fe:	c7 44 24 04 00 00 00 	movl   $0x0,0x4(%esp)
   10a05:	00 
   10a06:	89 04 24             	mov    %eax,(%esp)
   10a09:	e8 62 6f ff ff       	call   7970 <_ZN5Scene6RenderEb@plt>
   10a0e:	e9 ef fc ff ff       	jmp    10702 <_ZN5Scene8AutoZoomEv+0x2d2>
   10a13:	dd d9                	fstp   %st(1)
   10a15:	d9 85 44 ff ff ff    	flds   -0xbc(%ebp)
   10a1b:	d9 e1                	fabs   
   10a1d:	d9 85 50 ff ff ff    	flds   -0xb0(%ebp)
   10a23:	d9 e1                	fabs   
   10a25:	db e9                	fucomi %st(1),%st
   10a27:	0f 97 c0             	seta   %al
   10a2a:	e9 64 fc ff ff       	jmp    10693 <_ZN5Scene8AutoZoomEv+0x263>
   10a2f:	8b 55 ac             	mov    -0x54(%ebp),%edx
   10a32:	89 c6                	mov    %eax,%esi
   10a34:	85 d2                	test   %edx,%edx
   10a36:	74 08                	je     10a40 <_ZN5Scene8AutoZoomEv+0x610>
   10a38:	89 14 24             	mov    %edx,(%esp)
   10a3b:	e8 90 6a ff ff       	call   74d0 <_ZdlPv@plt>
   10a40:	89 34 24             	mov    %esi,(%esp)
   10a43:	e8 38 71 ff ff       	call   7b80 <_Unwind_Resume@plt>
   10a48:	eb e5                	jmp    10a2f <_ZN5Scene8AutoZoomEv+0x5ff>
   10a4a:	d9 e8                	fld1   
   10a4c:	d9 9d 50 ff ff ff    	fstps  -0xb0(%ebp)
   10a52:	eb 9e                	jmp    109f2 <_ZN5Scene8AutoZoomEv+0x5c2>
   10a54:	d9 83 f8 c0 ff ff    	flds   -0x3f08(%ebx)
   10a5a:	b8 01 00 00 00       	mov    $0x1,%eax
   10a5f:	d9 83 fc c0 ff ff    	flds   -0x3f04(%ebx)
   10a65:	d9 c1                	fld    %st(1)
   10a67:	e9 27 fc ff ff       	jmp    10693 <_ZN5Scene8AutoZoomEv+0x263>
   10a6c:	8d 74 26 00          	lea    0x0(%esi,%eiz,1),%esi

00010a70 <_ZN5Scene11ResetCameraEv>:
   10a70:	55                   	push   %ebp
   10a71:	89 e5                	mov    %esp,%ebp
   10a73:	57                   	push   %edi
   10a74:	56                   	push   %esi
   10a75:	8d 45 dc             	lea    -0x24(%ebp),%eax
   10a78:	53                   	push   %ebx
   10a79:	e8 bb 73 ff ff       	call   7e39 <__i686.get_pc_thunk.bx>
   10a7e:	81 c3 26 8a 00 00    	add    $0x8a26,%ebx
   10a84:	8d 64 24 84          	lea    -0x7c(%esp),%esp
   10a88:	8b 7d 08             	mov    0x8(%ebp),%edi
   10a8b:	c7 47 1c 1e 00 00 00 	movl   $0x1e,0x1c(%edi)
   10a92:	c7 47 20 4b 00 00 00 	movl   $0x4b,0x20(%edi)
   10a99:	c7 47 18 00 00 20 41 	movl   $0x41200000,0x18(%edi)
   10aa0:	89 04 24             	mov    %eax,(%esp)
   10aa3:	c7 44 24 0c ea a4 a5 	movl   $0x3fa5a4ea,0xc(%esp)
   10aaa:	3f 
   10aab:	c7 44 24 08 52 8c 1a 	movl   $0x411a8c52,0x8(%esp)
   10ab2:	41 
   10ab3:	c7 44 24 04 bb 73 0f 	movl   $0x400f73bb,0x4(%esp)
   10aba:	40 
   10abb:	8d 77 38             	lea    0x38(%edi),%esi
   10abe:	e8 4d 6c ff ff       	call   7710 <_ZN6VectorC1Efff@plt>
   10ac3:	8b 45 dc             	mov    -0x24(%ebp),%eax
   10ac6:	89 47 2c             	mov    %eax,0x2c(%edi)
   10ac9:	8b 45 e0             	mov    -0x20(%ebp),%eax
   10acc:	89 47 30             	mov    %eax,0x30(%edi)
   10acf:	8b 45 e4             	mov    -0x1c(%ebp),%eax
   10ad2:	89 47 34             	mov    %eax,0x34(%edi)
   10ad5:	8d 45 d0             	lea    -0x30(%ebp),%eax
   10ad8:	c7 44 24 0c 00 00 00 	movl   $0x0,0xc(%esp)
   10adf:	00 
   10ae0:	89 04 24             	mov    %eax,(%esp)
   10ae3:	c7 44 24 08 00 00 00 	movl   $0x0,0x8(%esp)
   10aea:	00 
   10aeb:	c7 44 24 04 00 00 00 	movl   $0x0,0x4(%esp)
   10af2:	00 
   10af3:	e8 18 6c ff ff       	call   7710 <_ZN6VectorC1Efff@plt>
   10af8:	8b 45 d0             	mov    -0x30(%ebp),%eax
   10afb:	8b 57 0c             	mov    0xc(%edi),%edx
   10afe:	89 47 38             	mov    %eax,0x38(%edi)
   10b01:	8b 4f 10             	mov    0x10(%edi),%ecx
   10b04:	8b 45 d4             	mov    -0x2c(%ebp),%eax
   10b07:	29 d1                	sub    %edx,%ecx
   10b09:	89 47 3c             	mov    %eax,0x3c(%edi)
   10b0c:	8b 45 d8             	mov    -0x28(%ebp),%eax
   10b0f:	89 47 40             	mov    %eax,0x40(%edi)
   10b12:	31 c0                	xor    %eax,%eax
   10b14:	c1 e9 05             	shr    $0x5,%ecx
   10b17:	89 75 90             	mov    %esi,-0x70(%ebp)
   10b1a:	74 64                	je     10b80 <_ZN5Scene11ResetCameraEv+0x110>
   10b1c:	8d 45 c4             	lea    -0x3c(%ebp),%eax
   10b1f:	31 c9                	xor    %ecx,%ecx
   10b21:	89 45 94             	mov    %eax,-0x6c(%ebp)
   10b24:	31 f6                	xor    %esi,%esi
   10b26:	8d 45 b8             	lea    -0x48(%ebp),%eax
   10b29:	89 45 98             	mov    %eax,-0x68(%ebp)
   10b2c:	8d 74 26 00          	lea    0x0(%esi,%eiz,1),%esi
   10b30:	c1 e1 05             	shl    $0x5,%ecx
   10b33:	8d 76 01             	lea    0x1(%esi),%esi
   10b36:	01 d1                	add    %edx,%ecx
   10b38:	89 4c 24 04          	mov    %ecx,0x4(%esp)
   10b3c:	8b 4d 94             	mov    -0x6c(%ebp),%ecx
   10b3f:	89 0c 24             	mov    %ecx,(%esp)
   10b42:	e8 69 71 ff ff       	call   7cb0 <_ZN7Objecte11getPositionEv@plt>
   10b47:	8d 64 24 fc          	lea    -0x4(%esp),%esp
   10b4b:	8b 45 94             	mov    -0x6c(%ebp),%eax
   10b4e:	8b 4d 98             	mov    -0x68(%ebp),%ecx
   10b51:	89 44 24 04          	mov    %eax,0x4(%esp)
   10b55:	89 0c 24             	mov    %ecx,(%esp)
   10b58:	e8 83 6b ff ff       	call   76e0 <_ZN6VectorC1ERK5Point@plt>
   10b5d:	8b 4d 90             	mov    -0x70(%ebp),%ecx
   10b60:	8b 45 98             	mov    -0x68(%ebp),%eax
   10b63:	89 0c 24             	mov    %ecx,(%esp)
   10b66:	89 44 24 04          	mov    %eax,0x4(%esp)
   10b6a:	e8 31 64 ff ff       	call   6fa0 <_ZpLR6VectorRKS_@plt>
   10b6f:	8b 57 0c             	mov    0xc(%edi),%edx
   10b72:	8b 47 10             	mov    0x10(%edi),%eax
   10b75:	29 d0                	sub    %edx,%eax
   10b77:	89 f1                	mov    %esi,%ecx
   10b79:	c1 f8 05             	sar    $0x5,%eax
   10b7c:	39 c6                	cmp    %eax,%esi
   10b7e:	72 b0                	jb     10b30 <_ZN5Scene11ResetCameraEv+0xc0>
   10b80:	8b 75 90             	mov    -0x70(%ebp),%esi
   10b83:	89 45 98             	mov    %eax,-0x68(%ebp)
   10b86:	c7 45 9c 00 00 00 00 	movl   $0x0,-0x64(%ebp)
   10b8d:	8d 55 a8             	lea    -0x58(%ebp),%edx
   10b90:	df 6d 98             	fildll -0x68(%ebp)
   10b93:	89 74 24 08          	mov    %esi,0x8(%esp)
   10b97:	d8 bb d8 c0 ff ff    	fdivrs -0x3f28(%ebx)
   10b9d:	89 14 24             	mov    %edx,(%esp)
   10ba0:	d9 5c 24 04          	fstps  0x4(%esp)
   10ba4:	e8 37 70 ff ff       	call   7be0 <_ZmlfRK6Vector@plt>
   10ba9:	83 ec 04             	sub    $0x4,%esp
   10bac:	8b 45 a8             	mov    -0x58(%ebp),%eax
   10baf:	89 47 38             	mov    %eax,0x38(%edi)
   10bb2:	8b 45 ac             	mov    -0x54(%ebp),%eax
   10bb5:	89 47 3c             	mov    %eax,0x3c(%edi)
   10bb8:	8b 45 b0             	mov    -0x50(%ebp),%eax
   10bbb:	89 47 40             	mov    %eax,0x40(%edi)
   10bbe:	89 3c 24             	mov    %edi,(%esp)
   10bc1:	e8 9a 65 ff ff       	call   7160 <_ZN5Scene8AutoZoomEv@plt>
   10bc6:	8d 65 f4             	lea    -0xc(%ebp),%esp
   10bc9:	5b                   	pop    %ebx
   10bca:	5e                   	pop    %esi
   10bcb:	5f                   	pop    %edi
   10bcc:	5d                   	pop    %ebp
   10bcd:	c3                   	ret    
   10bce:	66 90                	xchg   %ax,%ax

00010bd0 <_ZN5SceneC1Ev>:
   10bd0:	55                   	push   %ebp
   10bd1:	89 e5                	mov    %esp,%ebp
   10bd3:	57                   	push   %edi
   10bd4:	56                   	push   %esi
   10bd5:	53                   	push   %ebx
   10bd6:	e8 5e 72 ff ff       	call   7e39 <__i686.get_pc_thunk.bx>
   10bdb:	81 c3 c9 88 00 00    	add    $0x88c9,%ebx
   10be1:	8d 64 24 b4          	lea    -0x4c(%esp),%esp
   10be5:	8b 75 08             	mov    0x8(%ebp),%esi
   10be8:	c7 06 00 00 00 00    	movl   $0x0,(%esi)
   10bee:	c7 46 04 00 00 00 00 	movl   $0x0,0x4(%esi)
   10bf5:	c7 46 08 00 00 00 00 	movl   $0x0,0x8(%esi)
   10bfc:	c7 46 0c 00 00 00 00 	movl   $0x0,0xc(%esi)
   10c03:	c7 46 10 00 00 00 00 	movl   $0x0,0x10(%esi)
   10c0a:	c7 46 14 00 00 00 00 	movl   $0x0,0x14(%esi)
   10c11:	8d 46 2c             	lea    0x2c(%esi),%eax
   10c14:	c7 44 24 0c 00 00 00 	movl   $0x0,0xc(%esp)
   10c1b:	00 
   10c1c:	c7 44 24 08 00 00 00 	movl   $0x0,0x8(%esp)
   10c23:	00 
   10c24:	c7 44 24 04 00 00 00 	movl   $0x0,0x4(%esp)
   10c2b:	00 
   10c2c:	89 04 24             	mov    %eax,(%esp)
   10c2f:	e8 dc 6a ff ff       	call   7710 <_ZN6VectorC1Efff@plt>
   10c34:	8d 46 38             	lea    0x38(%esi),%eax
   10c37:	c7 44 24 0c 00 00 00 	movl   $0x0,0xc(%esp)
   10c3e:	00 
   10c3f:	c7 44 24 08 00 00 00 	movl   $0x0,0x8(%esp)
   10c46:	00 
   10c47:	c7 44 24 04 00 00 00 	movl   $0x0,0x4(%esp)
   10c4e:	00 
   10c4f:	89 04 24             	mov    %eax,(%esp)
   10c52:	e8 b9 6a ff ff       	call   7710 <_ZN6VectorC1Efff@plt>
   10c57:	8d 46 44             	lea    0x44(%esi),%eax
   10c5a:	89 04 24             	mov    %eax,(%esp)
   10c5d:	e8 ee 6b ff ff       	call   7850 <_ZN6MatrixC1Ev@plt>
   10c62:	8b 83 d0 ff ff ff    	mov    -0x30(%ebx),%eax
   10c68:	c6 46 24 00          	movb   $0x0,0x24(%esi)
   10c6c:	c7 46 18 00 00 20 41 	movl   $0x41200000,0x18(%esi)
   10c73:	c7 46 20 00 00 00 00 	movl   $0x0,0x20(%esi)
   10c7a:	c7 46 1c 00 00 00 00 	movl   $0x0,0x1c(%esi)
   10c81:	c7 46 28 00 00 80 3f 	movl   $0x3f800000,0x28(%esi)
   10c88:	c7 86 84 00 00 00 00 	movl   $0x42340000,0x84(%esi)
   10c8f:	00 34 42 
   10c92:	c6 00 00             	movb   $0x0,(%eax)
   10c95:	c6 86 90 00 00 00 00 	movb   $0x0,0x90(%esi)
   10c9c:	8d 45 dc             	lea    -0x24(%ebp),%eax
   10c9f:	c7 44 24 0c 00 00 00 	movl   $0x0,0xc(%esp)
   10ca6:	00 
   10ca7:	c7 44 24 08 00 00 00 	movl   $0x0,0x8(%esp)
   10cae:	00 
   10caf:	c7 44 24 04 00 00 00 	movl   $0x0,0x4(%esp)
   10cb6:	00 
   10cb7:	89 04 24             	mov    %eax,(%esp)
   10cba:	e8 51 6a ff ff       	call   7710 <_ZN6VectorC1Efff@plt>
   10cbf:	8b 45 dc             	mov    -0x24(%ebp),%eax
   10cc2:	89 46 38             	mov    %eax,0x38(%esi)
   10cc5:	8b 45 e0             	mov    -0x20(%ebp),%eax
   10cc8:	89 46 3c             	mov    %eax,0x3c(%esi)
   10ccb:	8b 45 e4             	mov    -0x1c(%ebp),%eax
   10cce:	89 46 40             	mov    %eax,0x40(%esi)
   10cd1:	8d 45 d0             	lea    -0x30(%ebp),%eax
   10cd4:	c7 44 24 0c 00 00 00 	movl   $0x0,0xc(%esp)
   10cdb:	00 
   10cdc:	c7 44 24 08 00 00 00 	movl   $0x0,0x8(%esp)
   10ce3:	00 
   10ce4:	c7 44 24 04 00 00 00 	movl   $0x0,0x4(%esp)
   10ceb:	00 
   10cec:	89 04 24             	mov    %eax,(%esp)
   10cef:	e8 1c 6a ff ff       	call   7710 <_ZN6VectorC1Efff@plt>
   10cf4:	8b 45 d0             	mov    -0x30(%ebp),%eax
   10cf7:	c6 86 91 00 00 00 01 	movb   $0x1,0x91(%esi)
   10cfe:	89 46 2c             	mov    %eax,0x2c(%esi)
   10d01:	8b 45 d4             	mov    -0x2c(%ebp),%eax
   10d04:	89 46 30             	mov    %eax,0x30(%esi)
   10d07:	8b 45 d8             	mov    -0x28(%ebp),%eax
   10d0a:	89 46 34             	mov    %eax,0x34(%esi)
   10d0d:	8b 83 cc ff ff ff    	mov    -0x34(%ebx),%eax
   10d13:	c7 00 00 00 00 00    	movl   $0x0,(%eax)
   10d19:	c7 86 9c 00 00 00 ff 	movl   $0xffffffff,0x9c(%esi)
   10d20:	ff ff ff 
   10d23:	8d 64 24 4c          	lea    0x4c(%esp),%esp
   10d27:	5b                   	pop    %ebx
   10d28:	5e                   	pop    %esi
   10d29:	5f                   	pop    %edi
   10d2a:	5d                   	pop    %ebp
   10d2b:	c3                   	ret    
   10d2c:	89 45 c0             	mov    %eax,-0x40(%ebp)
   10d2f:	8b 46 10             	mov    0x10(%esi),%eax
   10d32:	89 45 c4             	mov    %eax,-0x3c(%ebp)
   10d35:	8b 7e 0c             	mov    0xc(%esi),%edi
   10d38:	39 7d c4             	cmp    %edi,-0x3c(%ebp)
   10d3b:	74 0d                	je     10d4a <_ZN5SceneC1Ev+0x17a>
   10d3d:	89 3c 24             	mov    %edi,(%esp)
   10d40:	e8 1b 66 ff ff       	call   7360 <_ZN7ObjecteD1Ev@plt>
   10d45:	8d 7f 20             	lea    0x20(%edi),%edi
   10d48:	eb ee                	jmp    10d38 <_ZN5SceneC1Ev+0x168>
   10d4a:	8b 46 0c             	mov    0xc(%esi),%eax
   10d4d:	85 c0                	test   %eax,%eax
   10d4f:	74 08                	je     10d59 <_ZN5SceneC1Ev+0x189>
   10d51:	89 04 24             	mov    %eax,(%esp)
   10d54:	e8 77 67 ff ff       	call   74d0 <_ZdlPv@plt>
   10d59:	8b 46 04             	mov    0x4(%esi),%eax
   10d5c:	8b 3e                	mov    (%esi),%edi
   10d5e:	89 45 c4             	mov    %eax,-0x3c(%ebp)
   10d61:	39 7d c4             	cmp    %edi,-0x3c(%ebp)
   10d64:	74 1c                	je     10d82 <_ZN5SceneC1Ev+0x1b2>
   10d66:	89 3c 24             	mov    %edi,(%esp)
   10d69:	8d 7f 34             	lea    0x34(%edi),%edi
   10d6c:	e8 ff 69 ff ff       	call   7770 <_ZN5ModelD1Ev@plt>
   10d71:	eb ee                	jmp    10d61 <_ZN5SceneC1Ev+0x191>
   10d73:	89 45 c0             	mov    %eax,-0x40(%ebp)
   10d76:	8b 46 0c             	mov    0xc(%esi),%eax
   10d79:	85 c0                	test   %eax,%eax
   10d7b:	75 d4                	jne    10d51 <_ZN5SceneC1Ev+0x181>
   10d7d:	8d 76 00             	lea    0x0(%esi),%esi
   10d80:	eb d7                	jmp    10d59 <_ZN5SceneC1Ev+0x189>
   10d82:	8b 06                	mov    (%esi),%eax
   10d84:	85 c0                	test   %eax,%eax
   10d86:	74 08                	je     10d90 <_ZN5SceneC1Ev+0x1c0>
   10d88:	89 04 24             	mov    %eax,(%esp)
   10d8b:	e8 40 67 ff ff       	call   74d0 <_ZdlPv@plt>
   10d90:	8b 45 c0             	mov    -0x40(%ebp),%eax
   10d93:	89 04 24             	mov    %eax,(%esp)
   10d96:	e8 e5 6d ff ff       	call   7b80 <_Unwind_Resume@plt>
   10d9b:	90                   	nop
   10d9c:	8d 74 26 00          	lea    0x0(%esi,%eiz,1),%esi

00010da0 <_ZN5Scene10LoadObjectESs>:
   10da0:	55                   	push   %ebp
   10da1:	89 e5                	mov    %esp,%ebp
   10da3:	57                   	push   %edi
   10da4:	56                   	push   %esi
   10da5:	53                   	push   %ebx
   10da6:	e8 8e 70 ff ff       	call   7e39 <__i686.get_pc_thunk.bx>
   10dab:	81 c3 f9 86 00 00    	add    $0x86f9,%ebx
   10db1:	8d a4 24 04 ff ff ff 	lea    -0xfc(%esp),%esp
   10db8:	8b 45 08             	mov    0x8(%ebp),%eax
   10dbb:	8b 08                	mov    (%eax),%ecx
   10dbd:	8b 40 04             	mov    0x4(%eax),%eax
   10dc0:	29 c8                	sub    %ecx,%eax
   10dc2:	c1 f8 02             	sar    $0x2,%eax
   10dc5:	69 c0 c5 4e ec c4    	imul   $0xc4ec4ec5,%eax,%eax
   10dcb:	85 c0                	test   %eax,%eax
   10dcd:	0f 84 ed 01 00 00    	je     10fc0 <_ZN5Scene10LoadObjectESs+0x220>
   10dd3:	8b b3 94 ff ff ff    	mov    -0x6c(%ebx),%esi
   10dd9:	8d 7d e0             	lea    -0x20(%ebp),%edi
   10ddc:	8d 55 e7             	lea    -0x19(%ebp),%edx
   10ddf:	89 b5 4c ff ff ff    	mov    %esi,-0xb4(%ebp)
   10de5:	31 c0                	xor    %eax,%eax
   10de7:	89 bd 50 ff ff ff    	mov    %edi,-0xb0(%ebp)
   10ded:	89 95 48 ff ff ff    	mov    %edx,-0xb8(%ebp)
   10df3:	eb 37                	jmp    10e2c <_ZN5Scene10LoadObjectESs+0x8c>
   10df5:	8d 76 00             	lea    0x0(%esi),%esi
   10df8:	8b 8d 4c ff ff ff    	mov    -0xb4(%ebp),%ecx
   10dfe:	39 8d 54 ff ff ff    	cmp    %ecx,-0xac(%ebp)
   10e04:	0f 85 ee 05 00 00    	jne    113f8 <_ZN5Scene10LoadObjectESs+0x658>
   10e0a:	84 d2                	test   %dl,%dl
   10e0c:	75 6a                	jne    10e78 <_ZN5Scene10LoadObjectESs+0xd8>
   10e0e:	8b 7d 08             	mov    0x8(%ebp),%edi
   10e11:	8d 40 01             	lea    0x1(%eax),%eax
   10e14:	8b 0f                	mov    (%edi),%ecx
   10e16:	8b 57 04             	mov    0x4(%edi),%edx
   10e19:	29 ca                	sub    %ecx,%edx
   10e1b:	c1 fa 02             	sar    $0x2,%edx
   10e1e:	69 d2 c5 4e ec c4    	imul   $0xc4ec4ec5,%edx,%edx
   10e24:	39 d0                	cmp    %edx,%eax
   10e26:	0f 83 94 01 00 00    	jae    10fc0 <_ZN5Scene10LoadObjectESs+0x220>
   10e2c:	6b d0 34             	imul   $0x34,%eax,%edx
   10e2f:	89 85 34 ff ff ff    	mov    %eax,-0xcc(%ebp)
   10e35:	8d 54 11 18          	lea    0x18(%ecx,%edx,1),%edx
   10e39:	8b 8d 50 ff ff ff    	mov    -0xb0(%ebp),%ecx
   10e3f:	89 54 24 04          	mov    %edx,0x4(%esp)
   10e43:	89 0c 24             	mov    %ecx,(%esp)
   10e46:	e8 a5 63 ff ff       	call   71f0 <_ZNSsC1ERKSs@plt>
   10e4b:	8b 75 e0             	mov    -0x20(%ebp),%esi
   10e4e:	8b 55 0c             	mov    0xc(%ebp),%edx
   10e51:	8b 85 34 ff ff ff    	mov    -0xcc(%ebp),%eax
   10e57:	8d 7e f4             	lea    -0xc(%esi),%edi
   10e5a:	89 bd 54 ff ff ff    	mov    %edi,-0xac(%ebp)
   10e60:	8b 3a                	mov    (%edx),%edi
   10e62:	8b 4e f4             	mov    -0xc(%esi),%ecx
   10e65:	31 d2                	xor    %edx,%edx
   10e67:	3b 4f f4             	cmp    -0xc(%edi),%ecx
   10e6a:	75 8c                	jne    10df8 <_ZN5Scene10LoadObjectESs+0x58>
   10e6c:	39 c9                	cmp    %ecx,%ecx
   10e6e:	f3 a6                	repz cmpsb %es:(%edi),%ds:(%esi)
   10e70:	0f 94 c2             	sete   %dl
   10e73:	eb 83                	jmp    10df8 <_ZN5Scene10LoadObjectESs+0x58>
   10e75:	8d 76 00             	lea    0x0(%esi),%esi
   10e78:	83 f8 ff             	cmp    $0xffffffff,%eax
   10e7b:	89 c7                	mov    %eax,%edi
   10e7d:	0f 84 3d 01 00 00    	je     10fc0 <_ZN5Scene10LoadObjectESs+0x220>
   10e83:	8b 4d 08             	mov    0x8(%ebp),%ecx
   10e86:	8d 55 b4             	lea    -0x4c(%ebp),%edx
   10e89:	6b c7 34             	imul   $0x34,%edi,%eax
   10e8c:	03 01                	add    (%ecx),%eax
   10e8e:	89 44 24 04          	mov    %eax,0x4(%esp)
   10e92:	89 14 24             	mov    %edx,(%esp)
   10e95:	e8 96 66 ff ff       	call   7530 <_ZNK5Model11boundingBoxEv@plt>
   10e9a:	83 ec 04             	sub    $0x4,%esp
   10e9d:	8d 45 cc             	lea    -0x34(%ebp),%eax
   10ea0:	d9 45 c0             	flds   -0x40(%ebp)
   10ea3:	d8 65 b4             	fsubs  -0x4c(%ebp)
   10ea6:	d9 45 c8             	flds   -0x38(%ebp)
   10ea9:	d8 65 bc             	fsubs  -0x44(%ebp)
   10eac:	db e9                	fucomi %st(1),%st
   10eae:	da d1                	fcmovbe %st(1),%st
   10eb0:	dd d9                	fstp   %st(1)
   10eb2:	89 04 24             	mov    %eax,(%esp)
   10eb5:	d9 9d 18 ff ff ff    	fstps  -0xe8(%ebp)
   10ebb:	c7 44 24 0c 00 00 00 	movl   $0x0,0xc(%esp)
   10ec2:	00 
   10ec3:	c7 44 24 08 00 00 00 	movl   $0x0,0x8(%esp)
   10eca:	00 
   10ecb:	c7 44 24 04 00 00 00 	movl   $0x0,0x4(%esp)
   10ed2:	00 
   10ed3:	e8 88 66 ff ff       	call   7560 <_ZN5PointC1Efff@plt>
   10ed8:	8b 75 0c             	mov    0xc(%ebp),%esi
   10edb:	89 74 24 04          	mov    %esi,0x4(%esp)
   10edf:	8d 75 d8             	lea    -0x28(%ebp),%esi
   10ee2:	89 34 24             	mov    %esi,(%esp)
   10ee5:	e8 06 63 ff ff       	call   71f0 <_ZNSsC1ERKSs@plt>
   10eea:	8b 45 cc             	mov    -0x34(%ebp),%eax
   10eed:	d9 85 18 ff ff ff    	flds   -0xe8(%ebp)
   10ef3:	89 44 24 0c          	mov    %eax,0xc(%esp)
   10ef7:	8b 45 d0             	mov    -0x30(%ebp),%eax
   10efa:	89 44 24 10          	mov    %eax,0x10(%esp)
   10efe:	8b 45 d4             	mov    -0x2c(%ebp),%eax
   10f01:	d8 bb d8 c0 ff ff    	fdivrs -0x3f28(%ebx)
   10f07:	89 7c 24 08          	mov    %edi,0x8(%esp)
   10f0b:	c7 44 24 1c 00 00 b4 	movl   $0x42b40000,0x1c(%esp)
   10f12:	42 
   10f13:	8d 7d 94             	lea    -0x6c(%ebp),%edi
   10f16:	d9 5c 24 18          	fstps  0x18(%esp)
   10f1a:	89 44 24 14          	mov    %eax,0x14(%esp)
   10f1e:	89 74 24 04          	mov    %esi,0x4(%esp)
   10f22:	89 3c 24             	mov    %edi,(%esp)
   10f25:	e8 96 68 ff ff       	call   77c0 <_ZN7ObjecteC1ESsi5Pointff@plt>
   10f2a:	8b 45 d8             	mov    -0x28(%ebp),%eax
   10f2d:	83 e8 0c             	sub    $0xc,%eax
   10f30:	3b 85 4c ff ff ff    	cmp    -0xb4(%ebp),%eax
   10f36:	0f 85 52 05 00 00    	jne    1148e <_ZN5Scene10LoadObjectESs+0x6ee>
   10f3c:	8b 45 08             	mov    0x8(%ebp),%eax
   10f3f:	8b 70 10             	mov    0x10(%eax),%esi
   10f42:	3b 70 14             	cmp    0x14(%eax),%esi
   10f45:	0f 84 4d 04 00 00    	je     11398 <_ZN5Scene10LoadObjectESs+0x5f8>
   10f4b:	85 f6                	test   %esi,%esi
   10f4d:	0f 84 6d 04 00 00    	je     113c0 <_ZN5Scene10LoadObjectESs+0x620>
   10f53:	89 7c 24 04          	mov    %edi,0x4(%esp)
   10f57:	89 34 24             	mov    %esi,(%esp)
   10f5a:	e8 91 62 ff ff       	call   71f0 <_ZNSsC1ERKSs@plt>
   10f5f:	8b 45 98             	mov    -0x68(%ebp),%eax
   10f62:	89 46 04             	mov    %eax,0x4(%esi)
   10f65:	8b 45 9c             	mov    -0x64(%ebp),%eax
   10f68:	89 46 08             	mov    %eax,0x8(%esi)
   10f6b:	8b 45 a0             	mov    -0x60(%ebp),%eax
   10f6e:	89 46 0c             	mov    %eax,0xc(%esi)
   10f71:	8b 45 a4             	mov    -0x5c(%ebp),%eax
   10f74:	89 46 10             	mov    %eax,0x10(%esi)
   10f77:	8b 45 a8             	mov    -0x58(%ebp),%eax
   10f7a:	89 46 14             	mov    %eax,0x14(%esi)
   10f7d:	8b 45 ac             	mov    -0x54(%ebp),%eax
   10f80:	89 46 18             	mov    %eax,0x18(%esi)
   10f83:	8b 45 b0             	mov    -0x50(%ebp),%eax
   10f86:	89 46 1c             	mov    %eax,0x1c(%esi)
   10f89:	8b 55 08             	mov    0x8(%ebp),%edx
   10f8c:	8b 42 10             	mov    0x10(%edx),%eax
   10f8f:	8b 4d 08             	mov    0x8(%ebp),%ecx
   10f92:	8d 40 20             	lea    0x20(%eax),%eax
   10f95:	89 41 10             	mov    %eax,0x10(%ecx)
   10f98:	8b 55 08             	mov    0x8(%ebp),%edx
   10f9b:	2b 42 0c             	sub    0xc(%edx),%eax
   10f9e:	c1 f8 05             	sar    $0x5,%eax
   10fa1:	83 e8 01             	sub    $0x1,%eax
   10fa4:	89 82 9c 00 00 00    	mov    %eax,0x9c(%edx)
   10faa:	89 3c 24             	mov    %edi,(%esp)
   10fad:	e8 ae 63 ff ff       	call   7360 <_ZN7ObjecteD1Ev@plt>
   10fb2:	8d 65 f4             	lea    -0xc(%ebp),%esp
   10fb5:	5b                   	pop    %ebx
   10fb6:	5e                   	pop    %esi
   10fb7:	5f                   	pop    %edi
   10fb8:	5d                   	pop    %ebp
   10fb9:	c3                   	ret    
   10fba:	8d b6 00 00 00 00    	lea    0x0(%esi),%esi
   10fc0:	8b 45 0c             	mov    0xc(%ebp),%eax
   10fc3:	8d 75 dc             	lea    -0x24(%ebp),%esi
   10fc6:	89 44 24 04          	mov    %eax,0x4(%esp)
   10fca:	89 34 24             	mov    %esi,(%esp)
   10fcd:	e8 1e 62 ff ff       	call   71f0 <_ZNSsC1ERKSs@plt>
   10fd2:	8d 95 60 ff ff ff    	lea    -0xa0(%ebp),%edx
   10fd8:	89 74 24 04          	mov    %esi,0x4(%esp)
   10fdc:	89 95 3c ff ff ff    	mov    %edx,-0xc4(%ebp)
   10fe2:	89 14 24             	mov    %edx,(%esp)
   10fe5:	e8 16 61 ff ff       	call   7100 <_ZN5ModelC1ESs@plt>
   10fea:	8b 45 dc             	mov    -0x24(%ebp),%eax
   10fed:	8b 8b 94 ff ff ff    	mov    -0x6c(%ebx),%ecx
   10ff3:	83 e8 0c             	sub    $0xc,%eax
   10ff6:	89 8d 4c ff ff ff    	mov    %ecx,-0xb4(%ebp)
   10ffc:	39 c8                	cmp    %ecx,%eax
   10ffe:	0f 85 81 05 00 00    	jne    11585 <_ZN5Scene10LoadObjectESs+0x7e5>
   11004:	8b 75 0c             	mov    0xc(%ebp),%esi
   11007:	8b 83 a4 ff ff ff    	mov    -0x5c(%ebx),%eax
   1100d:	89 44 24 08          	mov    %eax,0x8(%esp)
   11011:	8b bd 3c ff ff ff    	mov    -0xc4(%ebp),%edi
   11017:	8b 06                	mov    (%esi),%eax
   11019:	89 3c 24             	mov    %edi,(%esp)
   1101c:	89 44 24 04          	mov    %eax,0x4(%esp)
   11020:	e8 4b 63 ff ff       	call   7370 <_ZN5Model7readObjEPKcR11MaterialLib@plt>
   11025:	8b 45 08             	mov    0x8(%ebp),%eax
   11028:	8b 55 08             	mov    0x8(%ebp),%edx
   1102b:	8b 40 04             	mov    0x4(%eax),%eax
   1102e:	3b 42 08             	cmp    0x8(%edx),%eax
   11031:	89 85 44 ff ff ff    	mov    %eax,-0xbc(%ebp)
   11037:	0f 84 91 03 00 00    	je     113ce <_ZN5Scene10LoadObjectESs+0x62e>
   1103d:	85 c0                	test   %eax,%eax
   1103f:	0f 84 82 03 00 00    	je     113c7 <_ZN5Scene10LoadObjectESs+0x627>
   11045:	8b 85 64 ff ff ff    	mov    -0x9c(%ebp),%eax
   1104b:	2b 85 60 ff ff ff    	sub    -0xa0(%ebp),%eax
   11051:	c1 f8 02             	sar    $0x2,%eax
   11054:	8b 8d 44 ff ff ff    	mov    -0xbc(%ebp),%ecx
   1105a:	69 d0 ab aa aa aa    	imul   $0xaaaaaaab,%eax,%edx
   11060:	31 f6                	xor    %esi,%esi
   11062:	31 ff                	xor    %edi,%edi
   11064:	85 d2                	test   %edx,%edx
   11066:	c7 01 00 00 00 00    	movl   $0x0,(%ecx)
   1106c:	c7 41 04 00 00 00 00 	movl   $0x0,0x4(%ecx)
   11073:	c7 41 08 00 00 00 00 	movl   $0x0,0x8(%ecx)
   1107a:	74 1d                	je     11099 <_ZN5Scene10LoadObjectESs+0x2f9>
   1107c:	81 fa 55 55 55 15    	cmp    $0x15555555,%edx
   11082:	0f 87 e5 04 00 00    	ja     1156d <_ZN5Scene10LoadObjectESs+0x7cd>
   11088:	8d 34 85 00 00 00 00 	lea    0x0(,%eax,4),%esi
   1108f:	89 34 24             	mov    %esi,(%esp)
   11092:	e8 b9 5d ff ff       	call   6e50 <_Znwj@plt>
   11097:	89 c7                	mov    %eax,%edi
   11099:	8b 85 44 ff ff ff    	mov    -0xbc(%ebp),%eax
   1109f:	89 38                	mov    %edi,(%eax)
   110a1:	89 78 04             	mov    %edi,0x4(%eax)
   110a4:	8b 95 44 ff ff ff    	mov    -0xbc(%ebp),%edx
   110aa:	8d 04 37             	lea    (%edi,%esi,1),%eax
   110ad:	8b 8d 60 ff ff ff    	mov    -0xa0(%ebp),%ecx
   110b3:	8b b5 64 ff ff ff    	mov    -0x9c(%ebp),%esi
   110b9:	39 ce                	cmp    %ecx,%esi
   110bb:	89 42 08             	mov    %eax,0x8(%edx)
   110be:	89 8d 54 ff ff ff    	mov    %ecx,-0xac(%ebp)
   110c4:	89 ca                	mov    %ecx,%edx
   110c6:	89 f8                	mov    %edi,%eax
   110c8:	74 45                	je     1110f <_ZN5Scene10LoadObjectESs+0x36f>
   110ca:	8d b6 00 00 00 00    	lea    0x0(%esi),%esi
   110d0:	85 c0                	test   %eax,%eax
   110d2:	74 10                	je     110e4 <_ZN5Scene10LoadObjectESs+0x344>
   110d4:	8b 0a                	mov    (%edx),%ecx
   110d6:	89 08                	mov    %ecx,(%eax)
   110d8:	8b 4a 04             	mov    0x4(%edx),%ecx
   110db:	89 48 04             	mov    %ecx,0x4(%eax)
   110de:	8b 4a 08             	mov    0x8(%edx),%ecx
   110e1:	89 48 08             	mov    %ecx,0x8(%eax)
   110e4:	8d 52 0c             	lea    0xc(%edx),%edx
   110e7:	8d 40 0c             	lea    0xc(%eax),%eax
   110ea:	39 d6                	cmp    %edx,%esi
   110ec:	75 e2                	jne    110d0 <_ZN5Scene10LoadObjectESs+0x330>
   110ee:	8b 85 54 ff ff ff    	mov    -0xac(%ebp),%eax
   110f4:	83 c0 0c             	add    $0xc,%eax
   110f7:	29 c6                	sub    %eax,%esi
   110f9:	c1 ee 02             	shr    $0x2,%esi
   110fc:	69 f6 ab aa aa 2a    	imul   $0x2aaaaaab,%esi,%esi
   11102:	81 e6 ff ff ff 3f    	and    $0x3fffffff,%esi
   11108:	8d 44 76 03          	lea    0x3(%esi,%esi,2),%eax
   1110c:	8d 3c 87             	lea    (%edi,%eax,4),%edi
   1110f:	8b 85 70 ff ff ff    	mov    -0x90(%ebp),%eax
   11115:	2b 85 6c ff ff ff    	sub    -0x94(%ebp),%eax
   1111b:	c1 f8 02             	sar    $0x2,%eax
   1111e:	8b b5 44 ff ff ff    	mov    -0xbc(%ebp),%esi
   11124:	69 d0 b7 6d db b6    	imul   $0xb6db6db7,%eax,%edx
   1112a:	89 7e 04             	mov    %edi,0x4(%esi)
   1112d:	c7 46 0c 00 00 00 00 	movl   $0x0,0xc(%esi)
   11134:	c7 46 10 00 00 00 00 	movl   $0x0,0x10(%esi)
   1113b:	c7 46 14 00 00 00 00 	movl   $0x0,0x14(%esi)
   11142:	31 f6                	xor    %esi,%esi
   11144:	85 d2                	test   %edx,%edx
   11146:	c7 85 40 ff ff ff 00 	movl   $0x0,-0xc0(%ebp)
   1114d:	00 00 00 
   11150:	74 21                	je     11173 <_ZN5Scene10LoadObjectESs+0x3d3>
   11152:	81 fa 49 92 24 09    	cmp    $0x9249249,%edx
   11158:	0f 87 16 04 00 00    	ja     11574 <_ZN5Scene10LoadObjectESs+0x7d4>
   1115e:	8d 34 85 00 00 00 00 	lea    0x0(,%eax,4),%esi
   11165:	89 34 24             	mov    %esi,(%esp)
   11168:	e8 e3 5c ff ff       	call   6e50 <_Znwj@plt>
   1116d:	89 85 40 ff ff ff    	mov    %eax,-0xc0(%ebp)
   11173:	8b 85 44 ff ff ff    	mov    -0xbc(%ebp),%eax
   11179:	8b bd 44 ff ff ff    	mov    -0xbc(%ebp),%edi
   1117f:	8b 95 40 ff ff ff    	mov    -0xc0(%ebp),%edx
   11185:	83 c7 0c             	add    $0xc,%edi
   11188:	89 bd 38 ff ff ff    	mov    %edi,-0xc8(%ebp)
   1118e:	89 50 0c             	mov    %edx,0xc(%eax)
   11191:	89 50 10             	mov    %edx,0x10(%eax)
   11194:	8b 8d 44 ff ff ff    	mov    -0xbc(%ebp),%ecx
   1119a:	89 d0                	mov    %edx,%eax
   1119c:	01 f0                	add    %esi,%eax
   1119e:	8b b5 70 ff ff ff    	mov    -0x90(%ebp),%esi
   111a4:	89 41 14             	mov    %eax,0x14(%ecx)
   111a7:	89 b5 48 ff ff ff    	mov    %esi,-0xb8(%ebp)
   111ad:	8b b5 6c ff ff ff    	mov    -0x94(%ebp),%esi
   111b3:	39 b5 48 ff ff ff    	cmp    %esi,-0xb8(%ebp)
   111b9:	0f 84 e4 00 00 00    	je     112a3 <_ZN5Scene10LoadObjectESs+0x503>
   111bf:	89 95 54 ff ff ff    	mov    %edx,-0xac(%ebp)
   111c5:	8b bd 40 ff ff ff    	mov    -0xc0(%ebp),%edi
   111cb:	90                   	nop
   111cc:	8d 74 26 00          	lea    0x0(%esi,%eiz,1),%esi
   111d0:	85 ff                	test   %edi,%edi
   111d2:	0f 84 a9 00 00 00    	je     11281 <_ZN5Scene10LoadObjectESs+0x4e1>
   111d8:	8b 06                	mov    (%esi),%eax
   111da:	31 d2                	xor    %edx,%edx
   111dc:	89 07                	mov    %eax,(%edi)
   111de:	8b 46 08             	mov    0x8(%esi),%eax
   111e1:	2b 46 04             	sub    0x4(%esi),%eax
   111e4:	c7 47 08 00 00 00 00 	movl   $0x0,0x8(%edi)
   111eb:	c1 f8 02             	sar    $0x2,%eax
   111ee:	c7 47 04 00 00 00 00 	movl   $0x0,0x4(%edi)
   111f5:	c7 47 0c 00 00 00 00 	movl   $0x0,0xc(%edi)
   111fc:	c7 85 50 ff ff ff 00 	movl   $0x0,-0xb0(%ebp)
   11203:	00 00 00 
   11206:	74 1e                	je     11226 <_ZN5Scene10LoadObjectESs+0x486>
   11208:	3d ff ff ff 3f       	cmp    $0x3fffffff,%eax
   1120d:	0f 87 3e 02 00 00    	ja     11451 <_ZN5Scene10LoadObjectESs+0x6b1>
   11213:	c1 e0 02             	shl    $0x2,%eax
   11216:	89 85 50 ff ff ff    	mov    %eax,-0xb0(%ebp)
   1121c:	89 04 24             	mov    %eax,(%esp)
   1121f:	e8 2c 5c ff ff       	call   6e50 <_Znwj@plt>
   11224:	89 c2                	mov    %eax,%edx
   11226:	8b 85 50 ff ff ff    	mov    -0xb0(%ebp),%eax
   1122c:	89 57 04             	mov    %edx,0x4(%edi)
   1122f:	01 d0                	add    %edx,%eax
   11231:	89 57 08             	mov    %edx,0x8(%edi)
   11234:	89 47 0c             	mov    %eax,0xc(%edi)
   11237:	8b 4e 08             	mov    0x8(%esi),%ecx
   1123a:	8b 46 04             	mov    0x4(%esi),%eax
   1123d:	89 14 24             	mov    %edx,(%esp)
   11240:	29 c1                	sub    %eax,%ecx
   11242:	89 95 30 ff ff ff    	mov    %edx,-0xd0(%ebp)
   11248:	83 e1 fc             	and    $0xfffffffc,%ecx
   1124b:	89 44 24 04          	mov    %eax,0x4(%esp)
   1124f:	89 4c 24 08          	mov    %ecx,0x8(%esp)
   11253:	89 8d 34 ff ff ff    	mov    %ecx,-0xcc(%ebp)
   11259:	e8 a2 69 ff ff       	call   7c00 <memmove@plt>
   1125e:	8b 46 10             	mov    0x10(%esi),%eax
   11261:	8b 95 30 ff ff ff    	mov    -0xd0(%ebp),%edx
   11267:	89 47 10             	mov    %eax,0x10(%edi)
   1126a:	8b 8d 34 ff ff ff    	mov    -0xcc(%ebp),%ecx
   11270:	8b 46 14             	mov    0x14(%esi),%eax
   11273:	01 ca                	add    %ecx,%edx
   11275:	89 47 14             	mov    %eax,0x14(%edi)
   11278:	8b 46 18             	mov    0x18(%esi),%eax
   1127b:	89 57 08             	mov    %edx,0x8(%edi)
   1127e:	89 47 18             	mov    %eax,0x18(%edi)
   11281:	83 85 54 ff ff ff 1c 	addl   $0x1c,-0xac(%ebp)
   11288:	8d 76 1c             	lea    0x1c(%esi),%esi
   1128b:	39 b5 48 ff ff ff    	cmp    %esi,-0xb8(%ebp)
   11291:	8b bd 54 ff ff ff    	mov    -0xac(%ebp),%edi
   11297:	0f 85 33 ff ff ff    	jne    111d0 <_ZN5Scene10LoadObjectESs+0x430>
   1129d:	89 bd 40 ff ff ff    	mov    %edi,-0xc0(%ebp)
   112a3:	8b bd 44 ff ff ff    	mov    -0xbc(%ebp),%edi
   112a9:	8b 85 40 ff ff ff    	mov    -0xc0(%ebp),%eax
   112af:	89 47 10             	mov    %eax,0x10(%edi)
   112b2:	8d 85 78 ff ff ff    	lea    -0x88(%ebp),%eax
   112b8:	89 44 24 04          	mov    %eax,0x4(%esp)
   112bc:	89 f8                	mov    %edi,%eax
   112be:	83 c0 18             	add    $0x18,%eax
   112c1:	89 04 24             	mov    %eax,(%esp)
   112c4:	e8 27 5f ff ff       	call   71f0 <_ZNSsC1ERKSs@plt>
   112c9:	8b b5 44 ff ff ff    	mov    -0xbc(%ebp),%esi
   112cf:	8b 85 7c ff ff ff    	mov    -0x84(%ebp),%eax
   112d5:	89 46 1c             	mov    %eax,0x1c(%esi)
   112d8:	8b 45 80             	mov    -0x80(%ebp),%eax
   112db:	89 46 20             	mov    %eax,0x20(%esi)
   112de:	8b 45 84             	mov    -0x7c(%ebp),%eax
   112e1:	89 46 24             	mov    %eax,0x24(%esi)
   112e4:	8b 45 88             	mov    -0x78(%ebp),%eax
   112e7:	89 46 28             	mov    %eax,0x28(%esi)
   112ea:	8b 45 8c             	mov    -0x74(%ebp),%eax
   112ed:	89 46 2c             	mov    %eax,0x2c(%esi)
   112f0:	8b 45 90             	mov    -0x70(%ebp),%eax
   112f3:	89 46 30             	mov    %eax,0x30(%esi)
   112f6:	8b 45 08             	mov    0x8(%ebp),%eax
   112f9:	8b 78 04             	mov    0x4(%eax),%edi
   112fc:	8b 75 08             	mov    0x8(%ebp),%esi
   112ff:	8d 7f 34             	lea    0x34(%edi),%edi
   11302:	89 7e 04             	mov    %edi,0x4(%esi)
   11305:	8b 75 08             	mov    0x8(%ebp),%esi
   11308:	8b 95 78 ff ff ff    	mov    -0x88(%ebp),%edx
   1130e:	83 ea 0c             	sub    $0xc,%edx
   11311:	2b 3e                	sub    (%esi),%edi
   11313:	c1 ff 02             	sar    $0x2,%edi
   11316:	69 ff c5 4e ec c4    	imul   $0xc4ec4ec5,%edi,%edi
   1131c:	83 ef 01             	sub    $0x1,%edi
   1131f:	39 95 4c ff ff ff    	cmp    %edx,-0xb4(%ebp)
   11325:	0f 85 f2 01 00 00    	jne    1151d <_ZN5Scene10LoadObjectESs+0x77d>
   1132b:	8b 85 70 ff ff ff    	mov    -0x90(%ebp),%eax
   11331:	8b b5 6c ff ff ff    	mov    -0x94(%ebp),%esi
   11337:	39 f0                	cmp    %esi,%eax
   11339:	74 2f                	je     1136a <_ZN5Scene10LoadObjectESs+0x5ca>
   1133b:	89 bd 54 ff ff ff    	mov    %edi,-0xac(%ebp)
   11341:	89 c7                	mov    %eax,%edi
   11343:	90                   	nop
   11344:	8d 74 26 00          	lea    0x0(%esi,%eiz,1),%esi
   11348:	8b 46 04             	mov    0x4(%esi),%eax
   1134b:	85 c0                	test   %eax,%eax
   1134d:	74 08                	je     11357 <_ZN5Scene10LoadObjectESs+0x5b7>
   1134f:	89 04 24             	mov    %eax,(%esp)
   11352:	e8 79 61 ff ff       	call   74d0 <_ZdlPv@plt>
   11357:	8d 76 1c             	lea    0x1c(%esi),%esi
   1135a:	39 f7                	cmp    %esi,%edi
   1135c:	75 ea                	jne    11348 <_ZN5Scene10LoadObjectESs+0x5a8>
   1135e:	8b bd 54 ff ff ff    	mov    -0xac(%ebp),%edi
   11364:	8b 85 6c ff ff ff    	mov    -0x94(%ebp),%eax
   1136a:	85 c0                	test   %eax,%eax
   1136c:	74 08                	je     11376 <_ZN5Scene10LoadObjectESs+0x5d6>
   1136e:	89 04 24             	mov    %eax,(%esp)
   11371:	e8 5a 61 ff ff       	call   74d0 <_ZdlPv@plt>
   11376:	8b 85 60 ff ff ff    	mov    -0xa0(%ebp),%eax
   1137c:	85 c0                	test   %eax,%eax
   1137e:	0f 84 ff fa ff ff    	je     10e83 <_ZN5Scene10LoadObjectESs+0xe3>
   11384:	89 04 24             	mov    %eax,(%esp)
   11387:	e8 44 61 ff ff       	call   74d0 <_ZdlPv@plt>
   1138c:	e9 f2 fa ff ff       	jmp    10e83 <_ZN5Scene10LoadObjectESs+0xe3>
   11391:	8d b4 26 00 00 00 00 	lea    0x0(%esi,%eiz,1),%esi
   11398:	8b 45 08             	mov    0x8(%ebp),%eax
   1139b:	89 7c 24 08          	mov    %edi,0x8(%esp)
   1139f:	83 c0 0c             	add    $0xc,%eax
   113a2:	89 74 24 04          	mov    %esi,0x4(%esp)
   113a6:	89 04 24             	mov    %eax,(%esp)
   113a9:	e8 f2 64 ff ff       	call   78a0 <_ZNSt6vectorI7ObjecteSaIS0_EE13_M_insert_auxEN9__gnu_cxx17__normal_iteratorIPS0_S2_EERKS0_@plt>
   113ae:	8b 75 08             	mov    0x8(%ebp),%esi
   113b1:	8b 46 10             	mov    0x10(%esi),%eax
   113b4:	e9 df fb ff ff       	jmp    10f98 <_ZN5Scene10LoadObjectESs+0x1f8>
   113b9:	8d b4 26 00 00 00 00 	lea    0x0(%esi,%eiz,1),%esi
   113c0:	31 c0                	xor    %eax,%eax
   113c2:	e9 c8 fb ff ff       	jmp    10f8f <_ZN5Scene10LoadObjectESs+0x1ef>
   113c7:	31 ff                	xor    %edi,%edi
   113c9:	e9 2e ff ff ff       	jmp    112fc <_ZN5Scene10LoadObjectESs+0x55c>
   113ce:	8b bd 3c ff ff ff    	mov    -0xc4(%ebp),%edi
   113d4:	8b 85 44 ff ff ff    	mov    -0xbc(%ebp),%eax
   113da:	8b 55 08             	mov    0x8(%ebp),%edx
   113dd:	89 7c 24 08          	mov    %edi,0x8(%esp)
   113e1:	89 44 24 04          	mov    %eax,0x4(%esp)
   113e5:	89 14 24             	mov    %edx,(%esp)
   113e8:	e8 53 5d ff ff       	call   7140 <_ZNSt6vectorI5ModelSaIS0_EE13_M_insert_auxEN9__gnu_cxx17__normal_iteratorIPS0_S2_EERKS0_@plt>
   113ed:	8b 4d 08             	mov    0x8(%ebp),%ecx
   113f0:	8b 79 04             	mov    0x4(%ecx),%edi
   113f3:	e9 0d ff ff ff       	jmp    11305 <_ZN5Scene10LoadObjectESs+0x565>
   113f8:	83 bb a0 ff ff ff 00 	cmpl   $0x0,-0x60(%ebx)
   113ff:	0f 84 d8 01 00 00    	je     115dd <_ZN5Scene10LoadObjectESs+0x83d>
   11405:	8b b5 54 ff ff ff    	mov    -0xac(%ebp),%esi
   1140b:	83 c9 ff             	or     $0xffffffff,%ecx
   1140e:	f0 0f c1 4e 08       	lock xadd %ecx,0x8(%esi)
   11413:	85 c9                	test   %ecx,%ecx
   11415:	0f 8f ef f9 ff ff    	jg     10e0a <_ZN5Scene10LoadObjectESs+0x6a>
   1141b:	8b 8d 48 ff ff ff    	mov    -0xb8(%ebp),%ecx
   11421:	8b b5 54 ff ff ff    	mov    -0xac(%ebp),%esi
   11427:	89 85 34 ff ff ff    	mov    %eax,-0xcc(%ebp)
   1142d:	88 95 30 ff ff ff    	mov    %dl,-0xd0(%ebp)
   11433:	89 4c 24 04          	mov    %ecx,0x4(%esp)
   11437:	89 34 24             	mov    %esi,(%esp)
   1143a:	e8 11 5f ff ff       	call   7350 <_ZNSs4_Rep10_M_destroyERKSaIcE@plt>
   1143f:	0f b6 95 30 ff ff ff 	movzbl -0xd0(%ebp),%edx
   11446:	8b 85 34 ff ff ff    	mov    -0xcc(%ebp),%eax
   1144c:	e9 b9 f9 ff ff       	jmp    10e0a <_ZN5Scene10LoadObjectESs+0x6a>
   11451:	e8 5a 5c ff ff       	call   70b0 <_ZSt17__throw_bad_allocv@plt>
   11456:	89 85 34 ff ff ff    	mov    %eax,-0xcc(%ebp)
   1145c:	89 3c 24             	mov    %edi,(%esp)
   1145f:	e8 fc 5e ff ff       	call   7360 <_ZN7ObjecteD1Ev@plt>
   11464:	8b 85 34 ff ff ff    	mov    -0xcc(%ebp),%eax
   1146a:	89 04 24             	mov    %eax,(%esp)
   1146d:	e8 0e 67 ff ff       	call   7b80 <_Unwind_Resume@plt>
   11472:	89 85 34 ff ff ff    	mov    %eax,-0xcc(%ebp)
   11478:	89 34 24             	mov    %esi,(%esp)
   1147b:	e8 70 65 ff ff       	call   79f0 <_ZNSsD1Ev@plt>
   11480:	8b 85 34 ff ff ff    	mov    -0xcc(%ebp),%eax
   11486:	89 04 24             	mov    %eax,(%esp)
   11489:	e8 f2 66 ff ff       	call   7b80 <_Unwind_Resume@plt>
   1148e:	83 bb a0 ff ff ff 00 	cmpl   $0x0,-0x60(%ebx)
   11495:	0f 84 b4 00 00 00    	je     1154f <_ZN5Scene10LoadObjectESs+0x7af>
   1149b:	83 ca ff             	or     $0xffffffff,%edx
   1149e:	f0 0f c1 50 08       	lock xadd %edx,0x8(%eax)
   114a3:	85 d2                	test   %edx,%edx
   114a5:	0f 8f 91 fa ff ff    	jg     10f3c <_ZN5Scene10LoadObjectESs+0x19c>
   114ab:	8d 55 e4             	lea    -0x1c(%ebp),%edx
   114ae:	89 04 24             	mov    %eax,(%esp)
   114b1:	89 54 24 04          	mov    %edx,0x4(%esp)
   114b5:	e8 96 5e ff ff       	call   7350 <_ZNSs4_Rep10_M_destroyERKSaIcE@plt>
   114ba:	e9 7d fa ff ff       	jmp    10f3c <_ZN5Scene10LoadObjectESs+0x19c>
   114bf:	8b bd 3c ff ff ff    	mov    -0xc4(%ebp),%edi
   114c5:	89 85 34 ff ff ff    	mov    %eax,-0xcc(%ebp)
   114cb:	89 3c 24             	mov    %edi,(%esp)
   114ce:	e8 9d 62 ff ff       	call   7770 <_ZN5ModelD1Ev@plt>
   114d3:	8b 85 34 ff ff ff    	mov    -0xcc(%ebp),%eax
   114d9:	89 04 24             	mov    %eax,(%esp)
   114dc:	e8 9f 66 ff ff       	call   7b80 <_Unwind_Resume@plt>
   114e1:	8b 95 38 ff ff ff    	mov    -0xc8(%ebp),%edx
   114e7:	89 85 34 ff ff ff    	mov    %eax,-0xcc(%ebp)
   114ed:	89 14 24             	mov    %edx,(%esp)
   114f0:	e8 7b 65 ff ff       	call   7a70 <_ZNSt6vectorI4FaceSaIS0_EED1Ev@plt>
   114f5:	8b 85 34 ff ff ff    	mov    -0xcc(%ebp),%eax
   114fb:	8b 8d 44 ff ff ff    	mov    -0xbc(%ebp),%ecx
   11501:	8b 11                	mov    (%ecx),%edx
   11503:	85 d2                	test   %edx,%edx
   11505:	74 b8                	je     114bf <_ZN5Scene10LoadObjectESs+0x71f>
   11507:	89 85 34 ff ff ff    	mov    %eax,-0xcc(%ebp)
   1150d:	89 14 24             	mov    %edx,(%esp)
   11510:	e8 bb 5f ff ff       	call   74d0 <_ZdlPv@plt>
   11515:	8b 85 34 ff ff ff    	mov    -0xcc(%ebp),%eax
   1151b:	eb a2                	jmp    114bf <_ZN5Scene10LoadObjectESs+0x71f>
   1151d:	83 bb a0 ff ff ff 00 	cmpl   $0x0,-0x60(%ebx)
   11524:	74 37                	je     1155d <_ZN5Scene10LoadObjectESs+0x7bd>
   11526:	83 c8 ff             	or     $0xffffffff,%eax
   11529:	f0 0f c1 42 08       	lock xadd %eax,0x8(%edx)
   1152e:	85 c0                	test   %eax,%eax
   11530:	0f 8f f5 fd ff ff    	jg     1132b <_ZN5Scene10LoadObjectESs+0x58b>
   11536:	8d 45 e5             	lea    -0x1b(%ebp),%eax
   11539:	89 14 24             	mov    %edx,(%esp)
   1153c:	89 44 24 04          	mov    %eax,0x4(%esp)
   11540:	e8 0b 5e ff ff       	call   7350 <_ZNSs4_Rep10_M_destroyERKSaIcE@plt>
   11545:	e9 e1 fd ff ff       	jmp    1132b <_ZN5Scene10LoadObjectESs+0x58b>
   1154a:	e9 07 ff ff ff       	jmp    11456 <_ZN5Scene10LoadObjectESs+0x6b6>
   1154f:	8b 50 08             	mov    0x8(%eax),%edx
   11552:	8d 4a ff             	lea    -0x1(%edx),%ecx
   11555:	89 48 08             	mov    %ecx,0x8(%eax)
   11558:	e9 46 ff ff ff       	jmp    114a3 <_ZN5Scene10LoadObjectESs+0x703>
   1155d:	8b 42 08             	mov    0x8(%edx),%eax
   11560:	8d 48 ff             	lea    -0x1(%eax),%ecx
   11563:	89 4a 08             	mov    %ecx,0x8(%edx)
   11566:	eb c6                	jmp    1152e <_ZN5Scene10LoadObjectESs+0x78e>
   11568:	e9 52 ff ff ff       	jmp    114bf <_ZN5Scene10LoadObjectESs+0x71f>
   1156d:	e8 3e 5b ff ff       	call   70b0 <_ZSt17__throw_bad_allocv@plt>
   11572:	eb 87                	jmp    114fb <_ZN5Scene10LoadObjectESs+0x75b>
   11574:	e8 37 5b ff ff       	call   70b0 <_ZSt17__throw_bad_allocv@plt>
   11579:	8d b4 26 00 00 00 00 	lea    0x0(%esi,%eiz,1),%esi
   11580:	e9 ed fe ff ff       	jmp    11472 <_ZN5Scene10LoadObjectESs+0x6d2>
   11585:	83 bb a0 ff ff ff 00 	cmpl   $0x0,-0x60(%ebx)
   1158c:	74 63                	je     115f1 <_ZN5Scene10LoadObjectESs+0x851>
   1158e:	83 ca ff             	or     $0xffffffff,%edx
   11591:	f0 0f c1 50 08       	lock xadd %edx,0x8(%eax)
   11596:	85 d2                	test   %edx,%edx
   11598:	0f 8f 66 fa ff ff    	jg     11004 <_ZN5Scene10LoadObjectESs+0x264>
   1159e:	8d 55 e6             	lea    -0x1a(%ebp),%edx
   115a1:	89 04 24             	mov    %eax,(%esp)
   115a4:	89 54 24 04          	mov    %edx,0x4(%esp)
   115a8:	e8 a3 5d ff ff       	call   7350 <_ZNSs4_Rep10_M_destroyERKSaIcE@plt>
   115ad:	e9 52 fa ff ff       	jmp    11004 <_ZN5Scene10LoadObjectESs+0x264>
   115b2:	89 04 24             	mov    %eax,(%esp)
   115b5:	e8 16 5b ff ff       	call   70d0 <__cxa_begin_catch@plt>
   115ba:	8b b5 40 ff ff ff    	mov    -0xc0(%ebp),%esi
   115c0:	39 f7                	cmp    %esi,%edi
   115c2:	74 14                	je     115d8 <_ZN5Scene10LoadObjectESs+0x838>
   115c4:	8b 46 04             	mov    0x4(%esi),%eax
   115c7:	85 c0                	test   %eax,%eax
   115c9:	74 08                	je     115d3 <_ZN5Scene10LoadObjectESs+0x833>
   115cb:	89 04 24             	mov    %eax,(%esp)
   115ce:	e8 fd 5e ff ff       	call   74d0 <_ZdlPv@plt>
   115d3:	8d 76 1c             	lea    0x1c(%esi),%esi
   115d6:	eb e8                	jmp    115c0 <_ZN5Scene10LoadObjectESs+0x820>
   115d8:	e8 23 63 ff ff       	call   7900 <__cxa_rethrow@plt>
   115dd:	8b bd 54 ff ff ff    	mov    -0xac(%ebp),%edi
   115e3:	8b 4f 08             	mov    0x8(%edi),%ecx
   115e6:	8d 71 ff             	lea    -0x1(%ecx),%esi
   115e9:	89 77 08             	mov    %esi,0x8(%edi)
   115ec:	e9 22 fe ff ff       	jmp    11413 <_ZN5Scene10LoadObjectESs+0x673>
   115f1:	8b 50 08             	mov    0x8(%eax),%edx
   115f4:	8d 4a ff             	lea    -0x1(%edx),%ecx
   115f7:	89 48 08             	mov    %ecx,0x8(%eax)
   115fa:	eb 9a                	jmp    11596 <_ZN5Scene10LoadObjectESs+0x7f6>
   115fc:	89 85 34 ff ff ff    	mov    %eax,-0xcc(%ebp)
   11602:	e8 99 64 ff ff       	call   7aa0 <__cxa_end_catch@plt>
   11607:	8b 8d 44 ff ff ff    	mov    -0xbc(%ebp),%ecx
   1160d:	8b 85 34 ff ff ff    	mov    -0xcc(%ebp),%eax
   11613:	8b 51 0c             	mov    0xc(%ecx),%edx
   11616:	85 d2                	test   %edx,%edx
   11618:	0f 84 dd fe ff ff    	je     114fb <_ZN5Scene10LoadObjectESs+0x75b>
   1161e:	89 85 34 ff ff ff    	mov    %eax,-0xcc(%ebp)
   11624:	89 14 24             	mov    %edx,(%esp)
   11627:	e8 a4 5e ff ff       	call   74d0 <_ZdlPv@plt>
   1162c:	8b 85 34 ff ff ff    	mov    -0xcc(%ebp),%eax
   11632:	e9 c4 fe ff ff       	jmp    114fb <_ZN5Scene10LoadObjectESs+0x75b>
   11637:	90                   	nop
   11638:	90                   	nop
   11639:	8d b4 26 00 00 00 00 	lea    0x0(%esi,%eiz,1),%esi

00011640 <_ZN5Scene13construirBaseEv>:
   11640:	55                   	push   %ebp
   11641:	89 e5                	mov    %esp,%ebp
   11643:	57                   	push   %edi
   11644:	56                   	push   %esi
   11645:	8d 45 e7             	lea    -0x19(%ebp),%eax
   11648:	8d 75 dc             	lea    -0x24(%ebp),%esi
   1164b:	53                   	push   %ebx
   1164c:	e8 e8 67 ff ff       	call   7e39 <__i686.get_pc_thunk.bx>
   11651:	81 c3 53 7e 00 00    	add    $0x7e53,%ebx
   11657:	8d a4 24 a4 fe ff ff 	lea    -0x15c(%esp),%esp
   1165e:	89 44 24 08          	mov    %eax,0x8(%esp)
   11662:	89 34 24             	mov    %esi,(%esp)
   11665:	8d 83 d0 c0 ff ff    	lea    -0x3f30(%ebx),%eax
   1166b:	89 85 cc fe ff ff    	mov    %eax,-0x134(%ebp)
   11671:	89 44 24 04          	mov    %eax,0x4(%esp)
   11675:	e8 86 5f ff ff       	call   7600 <_ZNSsC1EPKcRKSaIcE@plt>
   1167a:	8d 95 f0 fe ff ff    	lea    -0x110(%ebp),%edx
   11680:	89 74 24 04          	mov    %esi,0x4(%esp)
   11684:	89 95 d0 fe ff ff    	mov    %edx,-0x130(%ebp)
   1168a:	89 14 24             	mov    %edx,(%esp)
   1168d:	e8 6e 5a ff ff       	call   7100 <_ZN5ModelC1ESs@plt>
   11692:	8b 45 dc             	mov    -0x24(%ebp),%eax
   11695:	83 e8 0c             	sub    $0xc,%eax
   11698:	3b 83 94 ff ff ff    	cmp    -0x6c(%ebx),%eax
   1169e:	0f 85 9f 09 00 00    	jne    12043 <_ZN5Scene13construirBaseEv+0xa03>
   116a4:	8d 75 c0             	lea    -0x40(%ebp),%esi
   116a7:	c7 44 24 0c 00 00 a0 	movl   $0xc0a00000,0xc(%esp)
   116ae:	c0 
   116af:	c7 44 24 08 00 00 00 	movl   $0x0,0x8(%esp)
   116b6:	00 
   116b7:	c7 44 24 04 00 00 a0 	movl   $0xc0a00000,0x4(%esp)
   116be:	c0 
   116bf:	89 34 24             	mov    %esi,(%esp)
   116c2:	e8 99 5e ff ff       	call   7560 <_ZN5PointC1Efff@plt>
   116c7:	8d 4d cc             	lea    -0x34(%ebp),%ecx
   116ca:	89 74 24 04          	mov    %esi,0x4(%esp)
   116ce:	89 8d e0 fe ff ff    	mov    %ecx,-0x120(%ebp)
   116d4:	89 0c 24             	mov    %ecx,(%esp)
   116d7:	e8 b4 64 ff ff       	call   7b90 <_ZN6VertexC1ERK5Point@plt>
   116dc:	8d 75 a8             	lea    -0x58(%ebp),%esi
   116df:	c7 44 24 0c 00 00 a0 	movl   $0x40a00000,0xc(%esp)
   116e6:	40 
   116e7:	c7 44 24 08 00 00 00 	movl   $0x0,0x8(%esp)
   116ee:	00 
   116ef:	c7 44 24 04 00 00 a0 	movl   $0xc0a00000,0x4(%esp)
   116f6:	c0 
   116f7:	89 34 24             	mov    %esi,(%esp)
   116fa:	e8 61 5e ff ff       	call   7560 <_ZN5PointC1Efff@plt>
   116ff:	8d 7d b4             	lea    -0x4c(%ebp),%edi
   11702:	89 74 24 04          	mov    %esi,0x4(%esp)
   11706:	89 3c 24             	mov    %edi,(%esp)
   11709:	e8 82 64 ff ff       	call   7b90 <_ZN6VertexC1ERK5Point@plt>
   1170e:	8d 75 90             	lea    -0x70(%ebp),%esi
   11711:	c7 44 24 0c 00 00 a0 	movl   $0x40a00000,0xc(%esp)
   11718:	40 
   11719:	c7 44 24 08 00 00 00 	movl   $0x0,0x8(%esp)
   11720:	00 
   11721:	c7 44 24 04 00 00 a0 	movl   $0x40a00000,0x4(%esp)
   11728:	40 
   11729:	89 34 24             	mov    %esi,(%esp)
   1172c:	e8 2f 5e ff ff       	call   7560 <_ZN5PointC1Efff@plt>
   11731:	8d 45 9c             	lea    -0x64(%ebp),%eax
   11734:	89 74 24 04          	mov    %esi,0x4(%esp)
   11738:	89 85 e4 fe ff ff    	mov    %eax,-0x11c(%ebp)
   1173e:	89 04 24             	mov    %eax,(%esp)
   11741:	e8 4a 64 ff ff       	call   7b90 <_ZN6VertexC1ERK5Point@plt>
   11746:	8d b5 78 ff ff ff    	lea    -0x88(%ebp),%esi
   1174c:	c7 44 24 0c 00 00 a0 	movl   $0xc0a00000,0xc(%esp)
   11753:	c0 
   11754:	c7 44 24 08 00 00 00 	movl   $0x0,0x8(%esp)
   1175b:	00 
   1175c:	c7 44 24 04 00 00 a0 	movl   $0x40a00000,0x4(%esp)
   11763:	40 
   11764:	89 34 24             	mov    %esi,(%esp)
   11767:	e8 f4 5d ff ff       	call   7560 <_ZN5PointC1Efff@plt>
   1176c:	89 74 24 04          	mov    %esi,0x4(%esp)
   11770:	8d 75 84             	lea    -0x7c(%ebp),%esi
   11773:	89 34 24             	mov    %esi,(%esp)
   11776:	e8 15 64 ff ff       	call   7b90 <_ZN6VertexC1ERK5Point@plt>
   1177b:	8b 95 f4 fe ff ff    	mov    -0x10c(%ebp),%edx
   11781:	3b 95 f8 fe ff ff    	cmp    -0x108(%ebp),%edx
   11787:	0f 84 ab 06 00 00    	je     11e38 <_ZN5Scene13construirBaseEv+0x7f8>
   1178d:	31 c0                	xor    %eax,%eax
   1178f:	85 d2                	test   %edx,%edx
   11791:	74 17                	je     117aa <_ZN5Scene13construirBaseEv+0x16a>
   11793:	8b 45 cc             	mov    -0x34(%ebp),%eax
   11796:	89 02                	mov    %eax,(%edx)
   11798:	8b 45 d0             	mov    -0x30(%ebp),%eax
   1179b:	89 42 04             	mov    %eax,0x4(%edx)
   1179e:	8b 45 d4             	mov    -0x2c(%ebp),%eax
   117a1:	89 42 08             	mov    %eax,0x8(%edx)
   117a4:	8b 85 f4 fe ff ff    	mov    -0x10c(%ebp),%eax
   117aa:	8d 40 0c             	lea    0xc(%eax),%eax
   117ad:	89 85 f4 fe ff ff    	mov    %eax,-0x10c(%ebp)
   117b3:	8b 95 f8 fe ff ff    	mov    -0x108(%ebp),%edx
   117b9:	39 c2                	cmp    %eax,%edx
   117bb:	0f 84 9e 06 00 00    	je     11e5f <_ZN5Scene13construirBaseEv+0x81f>
   117c1:	31 c9                	xor    %ecx,%ecx
   117c3:	85 c0                	test   %eax,%eax
   117c5:	74 17                	je     117de <_ZN5Scene13construirBaseEv+0x19e>
   117c7:	8b 4d b4             	mov    -0x4c(%ebp),%ecx
   117ca:	89 08                	mov    %ecx,(%eax)
   117cc:	8b 4d b8             	mov    -0x48(%ebp),%ecx
   117cf:	89 48 04             	mov    %ecx,0x4(%eax)
   117d2:	8b 4d bc             	mov    -0x44(%ebp),%ecx
   117d5:	89 48 08             	mov    %ecx,0x8(%eax)
   117d8:	8b 8d f4 fe ff ff    	mov    -0x10c(%ebp),%ecx
   117de:	8d 49 0c             	lea    0xc(%ecx),%ecx
   117e1:	89 8d f4 fe ff ff    	mov    %ecx,-0x10c(%ebp)
   117e7:	39 ca                	cmp    %ecx,%edx
   117e9:	0f 84 97 06 00 00    	je     11e86 <_ZN5Scene13construirBaseEv+0x846>
   117ef:	31 c0                	xor    %eax,%eax
   117f1:	85 c9                	test   %ecx,%ecx
   117f3:	74 1d                	je     11812 <_ZN5Scene13construirBaseEv+0x1d2>
   117f5:	8b 45 9c             	mov    -0x64(%ebp),%eax
   117f8:	89 01                	mov    %eax,(%ecx)
   117fa:	8b 45 a0             	mov    -0x60(%ebp),%eax
   117fd:	89 41 04             	mov    %eax,0x4(%ecx)
   11800:	8b 45 a4             	mov    -0x5c(%ebp),%eax
   11803:	89 41 08             	mov    %eax,0x8(%ecx)
   11806:	8b 85 f4 fe ff ff    	mov    -0x10c(%ebp),%eax
   1180c:	8b 95 f8 fe ff ff    	mov    -0x108(%ebp),%edx
   11812:	8d 40 0c             	lea    0xc(%eax),%eax
   11815:	89 85 f4 fe ff ff    	mov    %eax,-0x10c(%ebp)
   1181b:	39 c2                	cmp    %eax,%edx
   1181d:	0f 84 90 06 00 00    	je     11eb3 <_ZN5Scene13construirBaseEv+0x873>
   11823:	31 d2                	xor    %edx,%edx
   11825:	85 c0                	test   %eax,%eax
   11827:	74 17                	je     11840 <_ZN5Scene13construirBaseEv+0x200>
   11829:	8b 55 84             	mov    -0x7c(%ebp),%edx
   1182c:	89 10                	mov    %edx,(%eax)
   1182e:	8b 55 88             	mov    -0x78(%ebp),%edx
   11831:	89 50 04             	mov    %edx,0x4(%eax)
   11834:	8b 55 8c             	mov    -0x74(%ebp),%edx
   11837:	89 50 08             	mov    %edx,0x8(%eax)
   1183a:	8b 95 f4 fe ff ff    	mov    -0x10c(%ebp),%edx
   11840:	8d 52 0c             	lea    0xc(%edx),%edx
   11843:	89 95 f4 fe ff ff    	mov    %edx,-0x10c(%ebp)
   11849:	8d bd 44 ff ff ff    	lea    -0xbc(%ebp),%edi
   1184f:	c7 44 24 10 03 00 00 	movl   $0x3,0x10(%esp)
   11856:	00 
   11857:	c7 44 24 0c 02 00 00 	movl   $0x2,0xc(%esp)
   1185e:	00 
   1185f:	c7 44 24 08 01 00 00 	movl   $0x1,0x8(%esp)
   11866:	00 
   11867:	c7 44 24 04 00 00 00 	movl   $0x0,0x4(%esp)
   1186e:	00 
   1186f:	89 3c 24             	mov    %edi,(%esp)
   11872:	e8 19 5f ff ff       	call   7790 <_ZN4FaceC1Eiiii@plt>
   11877:	8d 85 6c ff ff ff    	lea    -0x94(%ebp),%eax
   1187d:	c7 44 24 0c 00 00 00 	movl   $0x0,0xc(%esp)
   11884:	00 
   11885:	c7 44 24 08 00 00 80 	movl   $0x3f800000,0x8(%esp)
   1188c:	3f 
   1188d:	c7 44 24 04 00 00 00 	movl   $0x0,0x4(%esp)
   11894:	00 
   11895:	89 04 24             	mov    %eax,(%esp)
   11898:	e8 73 5e ff ff       	call   7710 <_ZN6VectorC1Efff@plt>
   1189d:	8b 85 6c ff ff ff    	mov    -0x94(%ebp),%eax
   118a3:	8b b5 00 ff ff ff    	mov    -0x100(%ebp),%esi
   118a9:	89 85 54 ff ff ff    	mov    %eax,-0xac(%ebp)
   118af:	8b 85 70 ff ff ff    	mov    -0x90(%ebp),%eax
   118b5:	89 85 58 ff ff ff    	mov    %eax,-0xa8(%ebp)
   118bb:	3b b5 04 ff ff ff    	cmp    -0xfc(%ebp),%esi
   118c1:	8b 85 74 ff ff ff    	mov    -0x8c(%ebp),%eax
   118c7:	c7 85 44 ff ff ff 00 	movl   $0x0,-0xbc(%ebp)
   118ce:	00 00 00 
   118d1:	89 85 5c ff ff ff    	mov    %eax,-0xa4(%ebp)
   118d7:	0f 84 f1 05 00 00    	je     11ece <_ZN5Scene13construirBaseEv+0x88e>
   118dd:	85 f6                	test   %esi,%esi
   118df:	0f 84 23 05 00 00    	je     11e08 <_ZN5Scene13construirBaseEv+0x7c8>
   118e5:	8b 85 4c ff ff ff    	mov    -0xb4(%ebp),%eax
   118eb:	2b 85 48 ff ff ff    	sub    -0xb8(%ebp),%eax
   118f1:	31 ff                	xor    %edi,%edi
   118f3:	31 d2                	xor    %edx,%edx
   118f5:	c1 f8 02             	sar    $0x2,%eax
   118f8:	c7 06 00 00 00 00    	movl   $0x0,(%esi)
   118fe:	c7 46 04 00 00 00 00 	movl   $0x0,0x4(%esi)
   11905:	c7 46 08 00 00 00 00 	movl   $0x0,0x8(%esi)
   1190c:	c7 46 0c 00 00 00 00 	movl   $0x0,0xc(%esi)
   11913:	74 1c                	je     11931 <_ZN5Scene13construirBaseEv+0x2f1>
   11915:	3d ff ff ff 3f       	cmp    $0x3fffffff,%eax
   1191a:	0f 87 ea 07 00 00    	ja     1210a <_ZN5Scene13construirBaseEv+0xaca>
   11920:	8d 3c 85 00 00 00 00 	lea    0x0(,%eax,4),%edi
   11927:	89 3c 24             	mov    %edi,(%esp)
   1192a:	e8 21 55 ff ff       	call   6e50 <_Znwj@plt>
   1192f:	89 c2                	mov    %eax,%edx
   11931:	89 56 04             	mov    %edx,0x4(%esi)
   11934:	89 56 08             	mov    %edx,0x8(%esi)
   11937:	8d 3c 3a             	lea    (%edx,%edi,1),%edi
   1193a:	8b 85 48 ff ff ff    	mov    -0xb8(%ebp),%eax
   11940:	89 7e 0c             	mov    %edi,0xc(%esi)
   11943:	8b bd 4c ff ff ff    	mov    -0xb4(%ebp),%edi
   11949:	29 c7                	sub    %eax,%edi
   1194b:	89 14 24             	mov    %edx,(%esp)
   1194e:	83 e7 fc             	and    $0xfffffffc,%edi
   11951:	89 95 c4 fe ff ff    	mov    %edx,-0x13c(%ebp)
   11957:	89 7c 24 08          	mov    %edi,0x8(%esp)
   1195b:	89 44 24 04          	mov    %eax,0x4(%esp)
   1195f:	e8 9c 62 ff ff       	call   7c00 <memmove@plt>
   11964:	8b 85 54 ff ff ff    	mov    -0xac(%ebp),%eax
   1196a:	8b 95 c4 fe ff ff    	mov    -0x13c(%ebp),%edx
   11970:	89 46 10             	mov    %eax,0x10(%esi)
   11973:	8b 85 58 ff ff ff    	mov    -0xa8(%ebp),%eax
   11979:	89 46 14             	mov    %eax,0x14(%esi)
   1197c:	01 fa                	add    %edi,%edx
   1197e:	8b 85 5c ff ff ff    	mov    -0xa4(%ebp),%eax
   11984:	89 56 08             	mov    %edx,0x8(%esi)
   11987:	89 46 18             	mov    %eax,0x18(%esi)
   1198a:	8b 85 00 ff ff ff    	mov    -0x100(%ebp),%eax
   11990:	8d 40 1c             	lea    0x1c(%eax),%eax
   11993:	89 85 00 ff ff ff    	mov    %eax,-0x100(%ebp)
   11999:	8b 8d d0 fe ff ff    	mov    -0x130(%ebp),%ecx
   1199f:	89 0c 24             	mov    %ecx,(%esp)
   119a2:	e8 b9 58 ff ff       	call   7260 <_ZN5Model17updateBoundingBoxEv@plt>
   119a7:	8b 45 08             	mov    0x8(%ebp),%eax
   119aa:	8b 55 08             	mov    0x8(%ebp),%edx
   119ad:	8b 40 04             	mov    0x4(%eax),%eax
   119b0:	3b 42 08             	cmp    0x8(%edx),%eax
   119b3:	89 85 d8 fe ff ff    	mov    %eax,-0x128(%ebp)
   119b9:	0f 84 2a 05 00 00    	je     11ee9 <_ZN5Scene13construirBaseEv+0x8a9>
   119bf:	85 c0                	test   %eax,%eax
   119c1:	0f 84 63 04 00 00    	je     11e2a <_ZN5Scene13construirBaseEv+0x7ea>
   119c7:	8b 95 f4 fe ff ff    	mov    -0x10c(%ebp),%edx
   119cd:	2b 95 f0 fe ff ff    	sub    -0x110(%ebp),%edx
   119d3:	c1 fa 02             	sar    $0x2,%edx
   119d6:	c7 00 00 00 00 00    	movl   $0x0,(%eax)
   119dc:	69 ca ab aa aa aa    	imul   $0xaaaaaaab,%edx,%ecx
   119e2:	c7 40 04 00 00 00 00 	movl   $0x0,0x4(%eax)
   119e9:	c7 40 08 00 00 00 00 	movl   $0x0,0x8(%eax)
   119f0:	31 f6                	xor    %esi,%esi
   119f2:	31 c0                	xor    %eax,%eax
   119f4:	85 c9                	test   %ecx,%ecx
   119f6:	74 1b                	je     11a13 <_ZN5Scene13construirBaseEv+0x3d3>
   119f8:	81 f9 55 55 55 15    	cmp    $0x15555555,%ecx
   119fe:	0f 87 f7 06 00 00    	ja     120fb <_ZN5Scene13construirBaseEv+0xabb>
   11a04:	8d 34 95 00 00 00 00 	lea    0x0(,%edx,4),%esi
   11a0b:	89 34 24             	mov    %esi,(%esp)
   11a0e:	e8 3d 54 ff ff       	call   6e50 <_Znwj@plt>
   11a13:	8b 8d d8 fe ff ff    	mov    -0x128(%ebp),%ecx
   11a19:	8d 34 30             	lea    (%eax,%esi,1),%esi
   11a1c:	89 01                	mov    %eax,(%ecx)
   11a1e:	8b 95 f0 fe ff ff    	mov    -0x110(%ebp),%edx
   11a24:	89 41 04             	mov    %eax,0x4(%ecx)
   11a27:	89 71 08             	mov    %esi,0x8(%ecx)
   11a2a:	8b bd f4 fe ff ff    	mov    -0x10c(%ebp),%edi
   11a30:	89 d1                	mov    %edx,%ecx
   11a32:	39 cf                	cmp    %ecx,%edi
   11a34:	89 95 e4 fe ff ff    	mov    %edx,-0x11c(%ebp)
   11a3a:	89 c2                	mov    %eax,%edx
   11a3c:	74 41                	je     11a7f <_ZN5Scene13construirBaseEv+0x43f>
   11a3e:	66 90                	xchg   %ax,%ax
   11a40:	85 d2                	test   %edx,%edx
   11a42:	74 10                	je     11a54 <_ZN5Scene13construirBaseEv+0x414>
   11a44:	8b 31                	mov    (%ecx),%esi
   11a46:	89 32                	mov    %esi,(%edx)
   11a48:	8b 71 04             	mov    0x4(%ecx),%esi
   11a4b:	89 72 04             	mov    %esi,0x4(%edx)
   11a4e:	8b 71 08             	mov    0x8(%ecx),%esi
   11a51:	89 72 08             	mov    %esi,0x8(%edx)
   11a54:	8d 49 0c             	lea    0xc(%ecx),%ecx
   11a57:	8d 52 0c             	lea    0xc(%edx),%edx
   11a5a:	39 cf                	cmp    %ecx,%edi
   11a5c:	75 e2                	jne    11a40 <_ZN5Scene13construirBaseEv+0x400>
   11a5e:	8b 95 e4 fe ff ff    	mov    -0x11c(%ebp),%edx
   11a64:	83 c2 0c             	add    $0xc,%edx
   11a67:	29 d7                	sub    %edx,%edi
   11a69:	c1 ef 02             	shr    $0x2,%edi
   11a6c:	69 d7 ab aa aa 2a    	imul   $0x2aaaaaab,%edi,%edx
   11a72:	81 e2 ff ff ff 3f    	and    $0x3fffffff,%edx
   11a78:	8d 54 52 03          	lea    0x3(%edx,%edx,2),%edx
   11a7c:	8d 04 90             	lea    (%eax,%edx,4),%eax
   11a7f:	8b 8d d8 fe ff ff    	mov    -0x128(%ebp),%ecx
   11a85:	31 f6                	xor    %esi,%esi
   11a87:	89 41 04             	mov    %eax,0x4(%ecx)
   11a8a:	8b 85 00 ff ff ff    	mov    -0x100(%ebp),%eax
   11a90:	2b 85 fc fe ff ff    	sub    -0x104(%ebp),%eax
   11a96:	c7 41 10 00 00 00 00 	movl   $0x0,0x10(%ecx)
   11a9d:	c1 f8 02             	sar    $0x2,%eax
   11aa0:	c7 41 0c 00 00 00 00 	movl   $0x0,0xc(%ecx)
   11aa7:	69 d0 b7 6d db b6    	imul   $0xb6db6db7,%eax,%edx
   11aad:	c7 41 14 00 00 00 00 	movl   $0x0,0x14(%ecx)
   11ab4:	85 d2                	test   %edx,%edx
   11ab6:	c7 85 d4 fe ff ff 00 	movl   $0x0,-0x12c(%ebp)
   11abd:	00 00 00 
   11ac0:	74 21                	je     11ae3 <_ZN5Scene13construirBaseEv+0x4a3>
   11ac2:	81 fa 49 92 24 09    	cmp    $0x9249249,%edx
   11ac8:	0f 87 23 06 00 00    	ja     120f1 <_ZN5Scene13construirBaseEv+0xab1>
   11ace:	8d 34 85 00 00 00 00 	lea    0x0(,%eax,4),%esi
   11ad5:	89 34 24             	mov    %esi,(%esp)
   11ad8:	e8 73 53 ff ff       	call   6e50 <_Znwj@plt>
   11add:	89 85 d4 fe ff ff    	mov    %eax,-0x12c(%ebp)
   11ae3:	8b 95 d8 fe ff ff    	mov    -0x128(%ebp),%edx
   11ae9:	8b 85 d8 fe ff ff    	mov    -0x128(%ebp),%eax
   11aef:	8b 8d d4 fe ff ff    	mov    -0x12c(%ebp),%ecx
   11af5:	83 c0 0c             	add    $0xc,%eax
   11af8:	01 ce                	add    %ecx,%esi
   11afa:	89 85 c8 fe ff ff    	mov    %eax,-0x138(%ebp)
   11b00:	89 4a 0c             	mov    %ecx,0xc(%edx)
   11b03:	89 4a 10             	mov    %ecx,0x10(%edx)
   11b06:	89 72 14             	mov    %esi,0x14(%edx)
   11b09:	8b 85 00 ff ff ff    	mov    -0x100(%ebp),%eax
   11b0f:	8b b5 fc fe ff ff    	mov    -0x104(%ebp),%esi
   11b15:	89 85 dc fe ff ff    	mov    %eax,-0x124(%ebp)
   11b1b:	39 f0                	cmp    %esi,%eax
   11b1d:	0f 84 e0 00 00 00    	je     11c03 <_ZN5Scene13construirBaseEv+0x5c3>
   11b23:	89 8d e4 fe ff ff    	mov    %ecx,-0x11c(%ebp)
   11b29:	8b bd d4 fe ff ff    	mov    -0x12c(%ebp),%edi
   11b2f:	90                   	nop
   11b30:	85 ff                	test   %edi,%edi
   11b32:	0f 84 a9 00 00 00    	je     11be1 <_ZN5Scene13construirBaseEv+0x5a1>
   11b38:	8b 06                	mov    (%esi),%eax
   11b3a:	31 d2                	xor    %edx,%edx
   11b3c:	89 07                	mov    %eax,(%edi)
   11b3e:	8b 46 08             	mov    0x8(%esi),%eax
   11b41:	2b 46 04             	sub    0x4(%esi),%eax
   11b44:	c7 47 08 00 00 00 00 	movl   $0x0,0x8(%edi)
   11b4b:	c1 f8 02             	sar    $0x2,%eax
   11b4e:	c7 47 04 00 00 00 00 	movl   $0x0,0x4(%edi)
   11b55:	c7 47 0c 00 00 00 00 	movl   $0x0,0xc(%edi)
   11b5c:	c7 85 e0 fe ff ff 00 	movl   $0x0,-0x120(%ebp)
   11b63:	00 00 00 
   11b66:	74 1e                	je     11b86 <_ZN5Scene13construirBaseEv+0x546>
   11b68:	3d ff ff ff 3f       	cmp    $0x3fffffff,%eax
   11b6d:	0f 87 9a 03 00 00    	ja     11f0d <_ZN5Scene13construirBaseEv+0x8cd>
   11b73:	c1 e0 02             	shl    $0x2,%eax
   11b76:	89 85 e0 fe ff ff    	mov    %eax,-0x120(%ebp)
   11b7c:	89 04 24             	mov    %eax,(%esp)
   11b7f:	e8 cc 52 ff ff       	call   6e50 <_Znwj@plt>
   11b84:	89 c2                	mov    %eax,%edx
   11b86:	8b 85 e0 fe ff ff    	mov    -0x120(%ebp),%eax
   11b8c:	89 57 04             	mov    %edx,0x4(%edi)
   11b8f:	01 d0                	add    %edx,%eax
   11b91:	89 57 08             	mov    %edx,0x8(%edi)
   11b94:	89 47 0c             	mov    %eax,0xc(%edi)
   11b97:	8b 4e 08             	mov    0x8(%esi),%ecx
   11b9a:	8b 46 04             	mov    0x4(%esi),%eax
   11b9d:	89 14 24             	mov    %edx,(%esp)
   11ba0:	29 c1                	sub    %eax,%ecx
   11ba2:	89 95 c4 fe ff ff    	mov    %edx,-0x13c(%ebp)
   11ba8:	83 e1 fc             	and    $0xfffffffc,%ecx
   11bab:	89 44 24 04          	mov    %eax,0x4(%esp)
   11baf:	89 4c 24 08          	mov    %ecx,0x8(%esp)
   11bb3:	89 8d c0 fe ff ff    	mov    %ecx,-0x140(%ebp)
   11bb9:	e8 42 60 ff ff       	call   7c00 <memmove@plt>
   11bbe:	8b 46 10             	mov    0x10(%esi),%eax
   11bc1:	8b 95 c4 fe ff ff    	mov    -0x13c(%ebp),%edx
   11bc7:	89 47 10             	mov    %eax,0x10(%edi)
   11bca:	8b 8d c0 fe ff ff    	mov    -0x140(%ebp),%ecx
   11bd0:	8b 46 14             	mov    0x14(%esi),%eax
   11bd3:	01 ca                	add    %ecx,%edx
   11bd5:	89 47 14             	mov    %eax,0x14(%edi)
   11bd8:	8b 46 18             	mov    0x18(%esi),%eax
   11bdb:	89 57 08             	mov    %edx,0x8(%edi)
   11bde:	89 47 18             	mov    %eax,0x18(%edi)
   11be1:	83 85 e4 fe ff ff 1c 	addl   $0x1c,-0x11c(%ebp)
   11be8:	8d 76 1c             	lea    0x1c(%esi),%esi
   11beb:	39 b5 dc fe ff ff    	cmp    %esi,-0x124(%ebp)
   11bf1:	8b bd e4 fe ff ff    	mov    -0x11c(%ebp),%edi
   11bf7:	0f 85 33 ff ff ff    	jne    11b30 <_ZN5Scene13construirBaseEv+0x4f0>
   11bfd:	89 bd d4 fe ff ff    	mov    %edi,-0x12c(%ebp)
   11c03:	8b 95 d8 fe ff ff    	mov    -0x128(%ebp),%edx
   11c09:	8b 8d d4 fe ff ff    	mov    -0x12c(%ebp),%ecx
   11c0f:	8d 85 08 ff ff ff    	lea    -0xf8(%ebp),%eax
   11c15:	89 4a 10             	mov    %ecx,0x10(%edx)
   11c18:	89 44 24 04          	mov    %eax,0x4(%esp)
   11c1c:	89 d0                	mov    %edx,%eax
   11c1e:	83 c0 18             	add    $0x18,%eax
   11c21:	89 04 24             	mov    %eax,(%esp)
   11c24:	e8 c7 55 ff ff       	call   71f0 <_ZNSsC1ERKSs@plt>
   11c29:	8b 95 d8 fe ff ff    	mov    -0x128(%ebp),%edx
   11c2f:	8b 85 0c ff ff ff    	mov    -0xf4(%ebp),%eax
   11c35:	89 42 1c             	mov    %eax,0x1c(%edx)
   11c38:	8b 85 10 ff ff ff    	mov    -0xf0(%ebp),%eax
   11c3e:	89 42 20             	mov    %eax,0x20(%edx)
   11c41:	8b 85 14 ff ff ff    	mov    -0xec(%ebp),%eax
   11c47:	89 42 24             	mov    %eax,0x24(%edx)
   11c4a:	8b 85 18 ff ff ff    	mov    -0xe8(%ebp),%eax
   11c50:	89 42 28             	mov    %eax,0x28(%edx)
   11c53:	8b 85 1c ff ff ff    	mov    -0xe4(%ebp),%eax
   11c59:	89 42 2c             	mov    %eax,0x2c(%edx)
   11c5c:	8b 85 20 ff ff ff    	mov    -0xe0(%ebp),%eax
   11c62:	89 42 30             	mov    %eax,0x30(%edx)
   11c65:	8b 4d 08             	mov    0x8(%ebp),%ecx
   11c68:	8b 41 04             	mov    0x4(%ecx),%eax
   11c6b:	8b 55 08             	mov    0x8(%ebp),%edx
   11c6e:	8d 40 34             	lea    0x34(%eax),%eax
   11c71:	89 42 04             	mov    %eax,0x4(%edx)
   11c74:	8d 85 60 ff ff ff    	lea    -0xa0(%ebp),%eax
   11c7a:	c7 44 24 0c 00 00 00 	movl   $0x0,0xc(%esp)
   11c81:	00 
   11c82:	c7 44 24 08 00 00 00 	movl   $0x0,0x8(%esp)
   11c89:	00 
   11c8a:	c7 44 24 04 00 00 00 	movl   $0x0,0x4(%esp)
   11c91:	00 
   11c92:	89 04 24             	mov    %eax,(%esp)
   11c95:	e8 c6 58 ff ff       	call   7560 <_ZN5PointC1Efff@plt>
   11c9a:	8b 8d cc fe ff ff    	mov    -0x134(%ebp),%ecx
   11ca0:	8d 45 e6             	lea    -0x1a(%ebp),%eax
   11ca3:	8d 75 d8             	lea    -0x28(%ebp),%esi
   11ca6:	89 44 24 08          	mov    %eax,0x8(%esp)
   11caa:	89 4c 24 04          	mov    %ecx,0x4(%esp)
   11cae:	89 34 24             	mov    %esi,(%esp)
   11cb1:	e8 4a 59 ff ff       	call   7600 <_ZNSsC1EPKcRKSaIcE@plt>
   11cb6:	8b 85 60 ff ff ff    	mov    -0xa0(%ebp),%eax
   11cbc:	8d bd 24 ff ff ff    	lea    -0xdc(%ebp),%edi
   11cc2:	89 44 24 0c          	mov    %eax,0xc(%esp)
   11cc6:	8b 85 64 ff ff ff    	mov    -0x9c(%ebp),%eax
   11ccc:	89 44 24 10          	mov    %eax,0x10(%esp)
   11cd0:	8b 85 68 ff ff ff    	mov    -0x98(%ebp),%eax
   11cd6:	c7 44 24 1c 00 00 00 	movl   $0x0,0x1c(%esp)
   11cdd:	00 
   11cde:	c7 44 24 18 00 00 80 	movl   $0x3f800000,0x18(%esp)
   11ce5:	3f 
   11ce6:	89 44 24 14          	mov    %eax,0x14(%esp)
   11cea:	c7 44 24 08 00 00 00 	movl   $0x0,0x8(%esp)
   11cf1:	00 
   11cf2:	89 74 24 04          	mov    %esi,0x4(%esp)
   11cf6:	89 3c 24             	mov    %edi,(%esp)
   11cf9:	e8 c2 5a ff ff       	call   77c0 <_ZN7ObjecteC1ESsi5Pointff@plt>
   11cfe:	8b 45 d8             	mov    -0x28(%ebp),%eax
   11d01:	83 e8 0c             	sub    $0xc,%eax
   11d04:	39 83 94 ff ff ff    	cmp    %eax,-0x6c(%ebx)
   11d0a:	0f 85 dd 02 00 00    	jne    11fed <_ZN5Scene13construirBaseEv+0x9ad>
   11d10:	8b 45 08             	mov    0x8(%ebp),%eax
   11d13:	8b 70 10             	mov    0x10(%eax),%esi
   11d16:	3b 70 14             	cmp    0x14(%eax),%esi
   11d19:	0f 84 f0 00 00 00    	je     11e0f <_ZN5Scene13construirBaseEv+0x7cf>
   11d1f:	85 f6                	test   %esi,%esi
   11d21:	0f 84 0a 01 00 00    	je     11e31 <_ZN5Scene13construirBaseEv+0x7f1>
   11d27:	89 7c 24 04          	mov    %edi,0x4(%esp)
   11d2b:	89 34 24             	mov    %esi,(%esp)
   11d2e:	e8 bd 54 ff ff       	call   71f0 <_ZNSsC1ERKSs@plt>
   11d33:	8b 85 28 ff ff ff    	mov    -0xd8(%ebp),%eax
   11d39:	89 46 04             	mov    %eax,0x4(%esi)
   11d3c:	8b 85 2c ff ff ff    	mov    -0xd4(%ebp),%eax
   11d42:	89 46 08             	mov    %eax,0x8(%esi)
   11d45:	8b 85 30 ff ff ff    	mov    -0xd0(%ebp),%eax
   11d4b:	89 46 0c             	mov    %eax,0xc(%esi)
   11d4e:	8b 85 34 ff ff ff    	mov    -0xcc(%ebp),%eax
   11d54:	89 46 10             	mov    %eax,0x10(%esi)
   11d57:	8b 85 38 ff ff ff    	mov    -0xc8(%ebp),%eax
   11d5d:	89 46 14             	mov    %eax,0x14(%esi)
   11d60:	8b 85 3c ff ff ff    	mov    -0xc4(%ebp),%eax
   11d66:	89 46 18             	mov    %eax,0x18(%esi)
   11d69:	8b 85 40 ff ff ff    	mov    -0xc0(%ebp),%eax
   11d6f:	89 46 1c             	mov    %eax,0x1c(%esi)
   11d72:	8b 55 08             	mov    0x8(%ebp),%edx
   11d75:	8b 42 10             	mov    0x10(%edx),%eax
   11d78:	8b 4d 08             	mov    0x8(%ebp),%ecx
   11d7b:	8d 40 20             	lea    0x20(%eax),%eax
   11d7e:	89 41 10             	mov    %eax,0x10(%ecx)
   11d81:	89 3c 24             	mov    %edi,(%esp)
   11d84:	e8 d7 55 ff ff       	call   7360 <_ZN7ObjecteD1Ev@plt>
   11d89:	8b 85 48 ff ff ff    	mov    -0xb8(%ebp),%eax
   11d8f:	85 c0                	test   %eax,%eax
   11d91:	74 08                	je     11d9b <_ZN5Scene13construirBaseEv+0x75b>
   11d93:	89 04 24             	mov    %eax,(%esp)
   11d96:	e8 35 57 ff ff       	call   74d0 <_ZdlPv@plt>
   11d9b:	8b 85 08 ff ff ff    	mov    -0xf8(%ebp),%eax
   11da1:	83 e8 0c             	sub    $0xc,%eax
   11da4:	39 83 94 ff ff ff    	cmp    %eax,-0x6c(%ebx)
   11daa:	0f 85 dd 02 00 00    	jne    1208d <_ZN5Scene13construirBaseEv+0xa4d>
   11db0:	8b bd 00 ff ff ff    	mov    -0x100(%ebp),%edi
   11db6:	8b b5 fc fe ff ff    	mov    -0x104(%ebp),%esi
   11dbc:	39 f7                	cmp    %esi,%edi
   11dbe:	74 1c                	je     11ddc <_ZN5Scene13construirBaseEv+0x79c>
   11dc0:	8b 46 04             	mov    0x4(%esi),%eax
   11dc3:	85 c0                	test   %eax,%eax
   11dc5:	74 08                	je     11dcf <_ZN5Scene13construirBaseEv+0x78f>
   11dc7:	89 04 24             	mov    %eax,(%esp)
   11dca:	e8 01 57 ff ff       	call   74d0 <_ZdlPv@plt>
   11dcf:	8d 76 1c             	lea    0x1c(%esi),%esi
   11dd2:	39 f7                	cmp    %esi,%edi
   11dd4:	75 ea                	jne    11dc0 <_ZN5Scene13construirBaseEv+0x780>
   11dd6:	8b bd fc fe ff ff    	mov    -0x104(%ebp),%edi
   11ddc:	85 ff                	test   %edi,%edi
   11dde:	74 08                	je     11de8 <_ZN5Scene13construirBaseEv+0x7a8>
   11de0:	89 3c 24             	mov    %edi,(%esp)
   11de3:	e8 e8 56 ff ff       	call   74d0 <_ZdlPv@plt>
   11de8:	8b 85 f0 fe ff ff    	mov    -0x110(%ebp),%eax
   11dee:	85 c0                	test   %eax,%eax
   11df0:	74 08                	je     11dfa <_ZN5Scene13construirBaseEv+0x7ba>
   11df2:	89 04 24             	mov    %eax,(%esp)
   11df5:	e8 d6 56 ff ff       	call   74d0 <_ZdlPv@plt>
   11dfa:	8d a4 24 5c 01 00 00 	lea    0x15c(%esp),%esp
   11e01:	5b                   	pop    %ebx
   11e02:	5e                   	pop    %esi
   11e03:	5f                   	pop    %edi
   11e04:	5d                   	pop    %ebp
   11e05:	c3                   	ret    
   11e06:	66 90                	xchg   %ax,%ax
   11e08:	31 c0                	xor    %eax,%eax
   11e0a:	e9 81 fb ff ff       	jmp    11990 <_ZN5Scene13construirBaseEv+0x350>
   11e0f:	8b 45 08             	mov    0x8(%ebp),%eax
   11e12:	89 7c 24 08          	mov    %edi,0x8(%esp)
   11e16:	83 c0 0c             	add    $0xc,%eax
   11e19:	89 74 24 04          	mov    %esi,0x4(%esp)
   11e1d:	89 04 24             	mov    %eax,(%esp)
   11e20:	e8 7b 5a ff ff       	call   78a0 <_ZNSt6vectorI7ObjecteSaIS0_EE13_M_insert_auxEN9__gnu_cxx17__normal_iteratorIPS0_S2_EERKS0_@plt>
   11e25:	e9 57 ff ff ff       	jmp    11d81 <_ZN5Scene13construirBaseEv+0x741>
   11e2a:	31 c0                	xor    %eax,%eax
   11e2c:	e9 3a fe ff ff       	jmp    11c6b <_ZN5Scene13construirBaseEv+0x62b>
   11e31:	31 c0                	xor    %eax,%eax
   11e33:	e9 40 ff ff ff       	jmp    11d78 <_ZN5Scene13construirBaseEv+0x738>
   11e38:	8b 8d e0 fe ff ff    	mov    -0x120(%ebp),%ecx
   11e3e:	8b 85 d0 fe ff ff    	mov    -0x130(%ebp),%eax
   11e44:	89 4c 24 08          	mov    %ecx,0x8(%esp)
   11e48:	89 54 24 04          	mov    %edx,0x4(%esp)
   11e4c:	89 04 24             	mov    %eax,(%esp)
   11e4f:	e8 8c 5a ff ff       	call   78e0 <_ZNSt6vectorI6VertexSaIS0_EE13_M_insert_auxEN9__gnu_cxx17__normal_iteratorIPS0_S2_EERKS0_@plt>
   11e54:	8b 85 f4 fe ff ff    	mov    -0x10c(%ebp),%eax
   11e5a:	e9 54 f9 ff ff       	jmp    117b3 <_ZN5Scene13construirBaseEv+0x173>
   11e5f:	8b 95 d0 fe ff ff    	mov    -0x130(%ebp),%edx
   11e65:	89 7c 24 08          	mov    %edi,0x8(%esp)
   11e69:	89 44 24 04          	mov    %eax,0x4(%esp)
   11e6d:	89 14 24             	mov    %edx,(%esp)
   11e70:	e8 6b 5a ff ff       	call   78e0 <_ZNSt6vectorI6VertexSaIS0_EE13_M_insert_auxEN9__gnu_cxx17__normal_iteratorIPS0_S2_EERKS0_@plt>
   11e75:	8b 8d f4 fe ff ff    	mov    -0x10c(%ebp),%ecx
   11e7b:	8b 95 f8 fe ff ff    	mov    -0x108(%ebp),%edx
   11e81:	e9 61 f9 ff ff       	jmp    117e7 <_ZN5Scene13construirBaseEv+0x1a7>
   11e86:	8b 8d e4 fe ff ff    	mov    -0x11c(%ebp),%ecx
   11e8c:	8b 85 d0 fe ff ff    	mov    -0x130(%ebp),%eax
   11e92:	89 4c 24 08          	mov    %ecx,0x8(%esp)
   11e96:	89 54 24 04          	mov    %edx,0x4(%esp)
   11e9a:	89 04 24             	mov    %eax,(%esp)
   11e9d:	e8 3e 5a ff ff       	call   78e0 <_ZNSt6vectorI6VertexSaIS0_EE13_M_insert_auxEN9__gnu_cxx17__normal_iteratorIPS0_S2_EERKS0_@plt>
   11ea2:	8b 85 f4 fe ff ff    	mov    -0x10c(%ebp),%eax
   11ea8:	8b 95 f8 fe ff ff    	mov    -0x108(%ebp),%edx
   11eae:	e9 68 f9 ff ff       	jmp    1181b <_ZN5Scene13construirBaseEv+0x1db>
   11eb3:	89 54 24 04          	mov    %edx,0x4(%esp)
   11eb7:	8b 95 d0 fe ff ff    	mov    -0x130(%ebp),%edx
   11ebd:	89 74 24 08          	mov    %esi,0x8(%esp)
   11ec1:	89 14 24             	mov    %edx,(%esp)
   11ec4:	e8 17 5a ff ff       	call   78e0 <_ZNSt6vectorI6VertexSaIS0_EE13_M_insert_auxEN9__gnu_cxx17__normal_iteratorIPS0_S2_EERKS0_@plt>
   11ec9:	e9 7b f9 ff ff       	jmp    11849 <_ZN5Scene13construirBaseEv+0x209>
   11ece:	8d 85 fc fe ff ff    	lea    -0x104(%ebp),%eax
   11ed4:	89 7c 24 08          	mov    %edi,0x8(%esp)
   11ed8:	89 74 24 04          	mov    %esi,0x4(%esp)
   11edc:	89 04 24             	mov    %eax,(%esp)
   11edf:	e8 dc 54 ff ff       	call   73c0 <_ZNSt6vectorI4FaceSaIS0_EE13_M_insert_auxEN9__gnu_cxx17__normal_iteratorIPS0_S2_EERKS0_@plt>
   11ee4:	e9 b0 fa ff ff       	jmp    11999 <_ZN5Scene13construirBaseEv+0x359>
   11ee9:	8b 8d d0 fe ff ff    	mov    -0x130(%ebp),%ecx
   11eef:	8b 85 d8 fe ff ff    	mov    -0x128(%ebp),%eax
   11ef5:	8b 55 08             	mov    0x8(%ebp),%edx
   11ef8:	89 4c 24 08          	mov    %ecx,0x8(%esp)
   11efc:	89 44 24 04          	mov    %eax,0x4(%esp)
   11f00:	89 14 24             	mov    %edx,(%esp)
   11f03:	e8 38 52 ff ff       	call   7140 <_ZNSt6vectorI5ModelSaIS0_EE13_M_insert_auxEN9__gnu_cxx17__normal_iteratorIPS0_S2_EERKS0_@plt>
   11f08:	e9 67 fd ff ff       	jmp    11c74 <_ZN5Scene13construirBaseEv+0x634>
   11f0d:	e8 9e 51 ff ff       	call   70b0 <_ZSt17__throw_bad_allocv@plt>
   11f12:	89 04 24             	mov    %eax,(%esp)
   11f15:	e8 b6 51 ff ff       	call   70d0 <__cxa_begin_catch@plt>
   11f1a:	8b b5 d4 fe ff ff    	mov    -0x12c(%ebp),%esi
   11f20:	39 f7                	cmp    %esi,%edi
   11f22:	74 14                	je     11f38 <_ZN5Scene13construirBaseEv+0x8f8>
   11f24:	8b 46 04             	mov    0x4(%esi),%eax
   11f27:	85 c0                	test   %eax,%eax
   11f29:	74 08                	je     11f33 <_ZN5Scene13construirBaseEv+0x8f3>
   11f2b:	89 04 24             	mov    %eax,(%esp)
   11f2e:	e8 9d 55 ff ff       	call   74d0 <_ZdlPv@plt>
   11f33:	8d 76 1c             	lea    0x1c(%esi),%esi
   11f36:	eb e8                	jmp    11f20 <_ZN5Scene13construirBaseEv+0x8e0>
   11f38:	e8 c3 59 ff ff       	call   7900 <__cxa_rethrow@plt>
   11f3d:	8b 95 48 ff ff ff    	mov    -0xb8(%ebp),%edx
   11f43:	85 d2                	test   %edx,%edx
   11f45:	74 14                	je     11f5b <_ZN5Scene13construirBaseEv+0x91b>
   11f47:	89 85 c4 fe ff ff    	mov    %eax,-0x13c(%ebp)
   11f4d:	89 14 24             	mov    %edx,(%esp)
   11f50:	e8 7b 55 ff ff       	call   74d0 <_ZdlPv@plt>
   11f55:	8b 85 c4 fe ff ff    	mov    -0x13c(%ebp),%eax
   11f5b:	8b 95 d0 fe ff ff    	mov    -0x130(%ebp),%edx
   11f61:	89 85 c4 fe ff ff    	mov    %eax,-0x13c(%ebp)
   11f67:	89 14 24             	mov    %edx,(%esp)
   11f6a:	e8 01 58 ff ff       	call   7770 <_ZN5ModelD1Ev@plt>
   11f6f:	8b 85 c4 fe ff ff    	mov    -0x13c(%ebp),%eax
   11f75:	89 04 24             	mov    %eax,(%esp)
   11f78:	e8 03 5c ff ff       	call   7b80 <_Unwind_Resume@plt>
   11f7d:	8b 95 c8 fe ff ff    	mov    -0x138(%ebp),%edx
   11f83:	89 85 c4 fe ff ff    	mov    %eax,-0x13c(%ebp)
   11f89:	89 14 24             	mov    %edx,(%esp)
   11f8c:	e8 df 5a ff ff       	call   7a70 <_ZNSt6vectorI4FaceSaIS0_EED1Ev@plt>
   11f91:	8b 85 c4 fe ff ff    	mov    -0x13c(%ebp),%eax
   11f97:	8b 8d d8 fe ff ff    	mov    -0x128(%ebp),%ecx
   11f9d:	8b 11                	mov    (%ecx),%edx
   11f9f:	85 d2                	test   %edx,%edx
   11fa1:	74 9a                	je     11f3d <_ZN5Scene13construirBaseEv+0x8fd>
   11fa3:	89 85 c4 fe ff ff    	mov    %eax,-0x13c(%ebp)
   11fa9:	89 14 24             	mov    %edx,(%esp)
   11fac:	e8 1f 55 ff ff       	call   74d0 <_ZdlPv@plt>
   11fb1:	8b 85 c4 fe ff ff    	mov    -0x13c(%ebp),%eax
   11fb7:	eb 84                	jmp    11f3d <_ZN5Scene13construirBaseEv+0x8fd>
   11fb9:	89 85 c4 fe ff ff    	mov    %eax,-0x13c(%ebp)
   11fbf:	e8 dc 5a ff ff       	call   7aa0 <__cxa_end_catch@plt>
   11fc4:	8b 8d d8 fe ff ff    	mov    -0x128(%ebp),%ecx
   11fca:	8b 85 c4 fe ff ff    	mov    -0x13c(%ebp),%eax
   11fd0:	8b 51 0c             	mov    0xc(%ecx),%edx
   11fd3:	85 d2                	test   %edx,%edx
   11fd5:	74 c0                	je     11f97 <_ZN5Scene13construirBaseEv+0x957>
   11fd7:	89 85 c4 fe ff ff    	mov    %eax,-0x13c(%ebp)
   11fdd:	89 14 24             	mov    %edx,(%esp)
   11fe0:	e8 eb 54 ff ff       	call   74d0 <_ZdlPv@plt>
   11fe5:	8b 85 c4 fe ff ff    	mov    -0x13c(%ebp),%eax
   11feb:	eb aa                	jmp    11f97 <_ZN5Scene13construirBaseEv+0x957>
   11fed:	83 bb a0 ff ff ff 00 	cmpl   $0x0,-0x60(%ebx)
   11ff4:	74 3d                	je     12033 <_ZN5Scene13construirBaseEv+0x9f3>
   11ff6:	83 ca ff             	or     $0xffffffff,%edx
   11ff9:	f0 0f c1 50 08       	lock xadd %edx,0x8(%eax)
   11ffe:	85 d2                	test   %edx,%edx
   12000:	0f 8f 0a fd ff ff    	jg     11d10 <_ZN5Scene13construirBaseEv+0x6d0>
   12006:	8d 55 e4             	lea    -0x1c(%ebp),%edx
   12009:	89 04 24             	mov    %eax,(%esp)
   1200c:	89 54 24 04          	mov    %edx,0x4(%esp)
   12010:	e8 3b 53 ff ff       	call   7350 <_ZNSs4_Rep10_M_destroyERKSaIcE@plt>
   12015:	e9 f6 fc ff ff       	jmp    11d10 <_ZN5Scene13construirBaseEv+0x6d0>
   1201a:	89 85 c4 fe ff ff    	mov    %eax,-0x13c(%ebp)
   12020:	89 34 24             	mov    %esi,(%esp)
   12023:	e8 c8 59 ff ff       	call   79f0 <_ZNSsD1Ev@plt>
   12028:	8b 85 c4 fe ff ff    	mov    -0x13c(%ebp),%eax
   1202e:	e9 0a ff ff ff       	jmp    11f3d <_ZN5Scene13construirBaseEv+0x8fd>
   12033:	8b 50 08             	mov    0x8(%eax),%edx
   12036:	8d 4a ff             	lea    -0x1(%edx),%ecx
   12039:	89 48 08             	mov    %ecx,0x8(%eax)
   1203c:	eb c0                	jmp    11ffe <_ZN5Scene13construirBaseEv+0x9be>
   1203e:	e9 18 ff ff ff       	jmp    11f5b <_ZN5Scene13construirBaseEv+0x91b>
   12043:	83 bb a0 ff ff ff 00 	cmpl   $0x0,-0x60(%ebx)
   1204a:	0f 84 93 00 00 00    	je     120e3 <_ZN5Scene13construirBaseEv+0xaa3>
   12050:	83 ca ff             	or     $0xffffffff,%edx
   12053:	f0 0f c1 50 08       	lock xadd %edx,0x8(%eax)
   12058:	85 d2                	test   %edx,%edx
   1205a:	0f 8f 44 f6 ff ff    	jg     116a4 <_ZN5Scene13construirBaseEv+0x64>
   12060:	8d 55 e5             	lea    -0x1b(%ebp),%edx
   12063:	89 04 24             	mov    %eax,(%esp)
   12066:	89 54 24 04          	mov    %edx,0x4(%esp)
   1206a:	e8 e1 52 ff ff       	call   7350 <_ZNSs4_Rep10_M_destroyERKSaIcE@plt>
   1206f:	e9 30 f6 ff ff       	jmp    116a4 <_ZN5Scene13construirBaseEv+0x64>
   12074:	89 85 c4 fe ff ff    	mov    %eax,-0x13c(%ebp)
   1207a:	89 34 24             	mov    %esi,(%esp)
   1207d:	e8 6e 59 ff ff       	call   79f0 <_ZNSsD1Ev@plt>
   12082:	8b 85 c4 fe ff ff    	mov    -0x13c(%ebp),%eax
   12088:	e9 e8 fe ff ff       	jmp    11f75 <_ZN5Scene13construirBaseEv+0x935>
   1208d:	83 bb a0 ff ff ff 00 	cmpl   $0x0,-0x60(%ebx)
   12094:	74 3d                	je     120d3 <_ZN5Scene13construirBaseEv+0xa93>
   12096:	83 ca ff             	or     $0xffffffff,%edx
   12099:	f0 0f c1 50 08       	lock xadd %edx,0x8(%eax)
   1209e:	85 d2                	test   %edx,%edx
   120a0:	0f 8f 0a fd ff ff    	jg     11db0 <_ZN5Scene13construirBaseEv+0x770>
   120a6:	8d 55 e3             	lea    -0x1d(%ebp),%edx
   120a9:	89 04 24             	mov    %eax,(%esp)
   120ac:	89 54 24 04          	mov    %edx,0x4(%esp)
   120b0:	e8 9b 52 ff ff       	call   7350 <_ZNSs4_Rep10_M_destroyERKSaIcE@plt>
   120b5:	e9 f6 fc ff ff       	jmp    11db0 <_ZN5Scene13construirBaseEv+0x770>
   120ba:	89 85 c4 fe ff ff    	mov    %eax,-0x13c(%ebp)
   120c0:	89 3c 24             	mov    %edi,(%esp)
   120c3:	e8 98 52 ff ff       	call   7360 <_ZN7ObjecteD1Ev@plt>
   120c8:	8b 85 c4 fe ff ff    	mov    -0x13c(%ebp),%eax
   120ce:	e9 6a fe ff ff       	jmp    11f3d <_ZN5Scene13construirBaseEv+0x8fd>
   120d3:	8b 50 08             	mov    0x8(%eax),%edx
   120d6:	8d 4a ff             	lea    -0x1(%edx),%ecx
   120d9:	89 48 08             	mov    %ecx,0x8(%eax)
   120dc:	eb c0                	jmp    1209e <_ZN5Scene13construirBaseEv+0xa5e>
   120de:	e9 92 fe ff ff       	jmp    11f75 <_ZN5Scene13construirBaseEv+0x935>
   120e3:	8b 50 08             	mov    0x8(%eax),%edx
   120e6:	8d 4a ff             	lea    -0x1(%edx),%ecx
   120e9:	89 48 08             	mov    %ecx,0x8(%eax)
   120ec:	e9 67 ff ff ff       	jmp    12058 <_ZN5Scene13construirBaseEv+0xa18>
   120f1:	e8 ba 4f ff ff       	call   70b0 <_ZSt17__throw_bad_allocv@plt>
   120f6:	e9 9c fe ff ff       	jmp    11f97 <_ZN5Scene13construirBaseEv+0x957>
   120fb:	90                   	nop
   120fc:	8d 74 26 00          	lea    0x0(%esi,%eiz,1),%esi
   12100:	e8 ab 4f ff ff       	call   70b0 <_ZSt17__throw_bad_allocv@plt>
   12105:	e9 33 fe ff ff       	jmp    11f3d <_ZN5Scene13construirBaseEv+0x8fd>
   1210a:	8d b6 00 00 00 00    	lea    0x0(%esi),%esi
   12110:	e8 9b 4f ff ff       	call   70b0 <_ZSt17__throw_bad_allocv@plt>
   12115:	e9 23 fe ff ff       	jmp    11f3d <_ZN5Scene13construirBaseEv+0x8fd>
   1211a:	8d b6 00 00 00 00    	lea    0x0(%esi),%esi
   12120:	eb 98                	jmp    120ba <_ZN5Scene13construirBaseEv+0xa7a>
   12122:	e9 16 fe ff ff       	jmp    11f3d <_ZN5Scene13construirBaseEv+0x8fd>
   12127:	90                   	nop
   12128:	90                   	nop
   12129:	8d b4 26 00 00 00 00 	lea    0x0(%esi,%eiz,1),%esi

00012130 <_ZN5Scene4InitEv>:
   12130:	55                   	push   %ebp
   12131:	89 e5                	mov    %esp,%ebp
   12133:	8d 64 24 e8          	lea    -0x18(%esp),%esp
   12137:	89 5d f8             	mov    %ebx,-0x8(%ebp)
   1213a:	89 75 fc             	mov    %esi,-0x4(%ebp)
   1213d:	e8 f7 5c ff ff       	call   7e39 <__i686.get_pc_thunk.bx>
   12142:	81 c3 62 73 00 00    	add    $0x7362,%ebx
   12148:	8b 75 08             	mov    0x8(%ebp),%esi
   1214b:	89 34 24             	mov    %esi,(%esp)
   1214e:	e8 2d 54 ff ff       	call   7580 <_ZN5Scene13construirBaseEv@plt>
   12153:	89 34 24             	mov    %esi,(%esp)
   12156:	e8 05 59 ff ff       	call   7a60 <_ZN5Scene11ResetCameraEv@plt>
   1215b:	8b 5d f8             	mov    -0x8(%ebp),%ebx
   1215e:	8b 75 fc             	mov    -0x4(%ebp),%esi
   12161:	89 ec                	mov    %ebp,%esp
   12163:	5d                   	pop    %ebp
   12164:	c3                   	ret    
   12165:	90                   	nop
   12166:	90                   	nop
   12167:	90                   	nop
   12168:	90                   	nop
   12169:	90                   	nop
   1216a:	90                   	nop
   1216b:	90                   	nop
   1216c:	90                   	nop
   1216d:	90                   	nop
   1216e:	90                   	nop
   1216f:	90                   	nop

00012170 <_ZN11MaterialLibD1Ev>:
   12170:	55                   	push   %ebp
   12171:	89 e5                	mov    %esp,%ebp
   12173:	57                   	push   %edi
   12174:	56                   	push   %esi
   12175:	53                   	push   %ebx
   12176:	e8 be 5c ff ff       	call   7e39 <__i686.get_pc_thunk.bx>
   1217b:	81 c3 29 73 00 00    	add    $0x7329,%ebx
   12181:	8d 64 24 c4          	lea    -0x3c(%esp),%esp
   12185:	8b 55 08             	mov    0x8(%ebp),%edx
   12188:	8b 42 14             	mov    0x14(%edx),%eax
   1218b:	89 44 24 04          	mov    %eax,0x4(%esp)
   1218f:	89 d0                	mov    %edx,%eax
   12191:	83 c0 0c             	add    $0xc,%eax
   12194:	89 04 24             	mov    %eax,(%esp)
   12197:	e8 84 59 ff ff       	call   7b20 <_ZNSt8_Rb_treeISsSt4pairIKSsiESt10_Select1stIS2_ESt4lessISsESaIS2_EE8_M_eraseEPSt13_Rb_tree_nodeIS2_E@plt>
   1219c:	8b 45 08             	mov    0x8(%ebp),%eax
   1219f:	8b 78 04             	mov    0x4(%eax),%edi
   121a2:	8b 30                	mov    (%eax),%esi
   121a4:	39 f7                	cmp    %esi,%edi
   121a6:	74 20                	je     121c8 <_ZN11MaterialLibD1Ev+0x58>
   121a8:	8d 4d e6             	lea    -0x1a(%ebp),%ecx
   121ab:	8b 93 94 ff ff ff    	mov    -0x6c(%ebx),%edx
   121b1:	89 4d d4             	mov    %ecx,-0x2c(%ebp)
   121b4:	8d 74 26 00          	lea    0x0(%esi,%eiz,1),%esi
   121b8:	8b 06                	mov    (%esi),%eax
   121ba:	83 e8 0c             	sub    $0xc,%eax
   121bd:	39 d0                	cmp    %edx,%eax
   121bf:	75 21                	jne    121e2 <_ZN11MaterialLibD1Ev+0x72>
   121c1:	8d 76 38             	lea    0x38(%esi),%esi
   121c4:	39 f7                	cmp    %esi,%edi
   121c6:	75 f0                	jne    121b8 <_ZN11MaterialLibD1Ev+0x48>
   121c8:	8b 55 08             	mov    0x8(%ebp),%edx
   121cb:	8b 02                	mov    (%edx),%eax
   121cd:	85 c0                	test   %eax,%eax
   121cf:	74 08                	je     121d9 <_ZN11MaterialLibD1Ev+0x69>
   121d1:	89 04 24             	mov    %eax,(%esp)
   121d4:	e8 f7 52 ff ff       	call   74d0 <_ZdlPv@plt>
   121d9:	8d 64 24 3c          	lea    0x3c(%esp),%esp
   121dd:	5b                   	pop    %ebx
   121de:	5e                   	pop    %esi
   121df:	5f                   	pop    %edi
   121e0:	5d                   	pop    %ebp
   121e1:	c3                   	ret    
   121e2:	83 bb a0 ff ff ff 00 	cmpl   $0x0,-0x60(%ebx)
   121e9:	74 53                	je     1223e <_ZN11MaterialLibD1Ev+0xce>
   121eb:	83 c9 ff             	or     $0xffffffff,%ecx
   121ee:	f0 0f c1 48 08       	lock xadd %ecx,0x8(%eax)
   121f3:	89 4d d0             	mov    %ecx,-0x30(%ebp)
   121f6:	83 7d d0 00          	cmpl   $0x0,-0x30(%ebp)
   121fa:	7f c5                	jg     121c1 <_ZN11MaterialLibD1Ev+0x51>
   121fc:	8b 4d d4             	mov    -0x2c(%ebp),%ecx
   121ff:	89 55 cc             	mov    %edx,-0x34(%ebp)
   12202:	89 4c 24 04          	mov    %ecx,0x4(%esp)
   12206:	89 04 24             	mov    %eax,(%esp)
   12209:	e8 42 51 ff ff       	call   7350 <_ZNSs4_Rep10_M_destroyERKSaIcE@plt>
   1220e:	8b 55 cc             	mov    -0x34(%ebp),%edx
   12211:	eb ae                	jmp    121c1 <_ZN11MaterialLibD1Ev+0x51>
   12213:	8b 4d 08             	mov    0x8(%ebp),%ecx
   12216:	89 45 d0             	mov    %eax,-0x30(%ebp)
   12219:	8b 45 08             	mov    0x8(%ebp),%eax
   1221c:	8d 7d e7             	lea    -0x19(%ebp),%edi
   1221f:	8b 49 04             	mov    0x4(%ecx),%ecx
   12222:	89 4d d4             	mov    %ecx,-0x2c(%ebp)
   12225:	8b 30                	mov    (%eax),%esi
   12227:	39 75 d4             	cmp    %esi,-0x2c(%ebp)
   1222a:	74 43                	je     1226f <_ZN11MaterialLibD1Ev+0xff>
   1222c:	8b 06                	mov    (%esi),%eax
   1222e:	83 e8 0c             	sub    $0xc,%eax
   12231:	3b 83 94 ff ff ff    	cmp    -0x6c(%ebx),%eax
   12237:	75 13                	jne    1224c <_ZN11MaterialLibD1Ev+0xdc>
   12239:	8d 76 38             	lea    0x38(%esi),%esi
   1223c:	eb e9                	jmp    12227 <_ZN11MaterialLibD1Ev+0xb7>
   1223e:	8b 48 08             	mov    0x8(%eax),%ecx
   12241:	89 4d d0             	mov    %ecx,-0x30(%ebp)
   12244:	83 e9 01             	sub    $0x1,%ecx
   12247:	89 48 08             	mov    %ecx,0x8(%eax)
   1224a:	eb aa                	jmp    121f6 <_ZN11MaterialLibD1Ev+0x86>
   1224c:	83 bb a0 ff ff ff 00 	cmpl   $0x0,-0x60(%ebx)
   12253:	74 36                	je     1228b <_ZN11MaterialLibD1Ev+0x11b>
   12255:	83 ca ff             	or     $0xffffffff,%edx
   12258:	f0 0f c1 50 08       	lock xadd %edx,0x8(%eax)
   1225d:	85 d2                	test   %edx,%edx
   1225f:	7f d8                	jg     12239 <_ZN11MaterialLibD1Ev+0xc9>
   12261:	89 7c 24 04          	mov    %edi,0x4(%esp)
   12265:	89 04 24             	mov    %eax,(%esp)
   12268:	e8 e3 50 ff ff       	call   7350 <_ZNSs4_Rep10_M_destroyERKSaIcE@plt>
   1226d:	eb ca                	jmp    12239 <_ZN11MaterialLibD1Ev+0xc9>
   1226f:	8b 55 08             	mov    0x8(%ebp),%edx
   12272:	8b 02                	mov    (%edx),%eax
   12274:	85 c0                	test   %eax,%eax
   12276:	74 08                	je     12280 <_ZN11MaterialLibD1Ev+0x110>
   12278:	89 04 24             	mov    %eax,(%esp)
   1227b:	e8 50 52 ff ff       	call   74d0 <_ZdlPv@plt>
   12280:	8b 4d d0             	mov    -0x30(%ebp),%ecx
   12283:	89 0c 24             	mov    %ecx,(%esp)
   12286:	e8 f5 58 ff ff       	call   7b80 <_Unwind_Resume@plt>
   1228b:	8b 50 08             	mov    0x8(%eax),%edx
   1228e:	8d 4a ff             	lea    -0x1(%edx),%ecx
   12291:	89 48 08             	mov    %ecx,0x8(%eax)
   12294:	eb c7                	jmp    1225d <_ZN11MaterialLibD1Ev+0xed>
   12296:	90                   	nop
   12297:	90                   	nop
   12298:	90                   	nop
   12299:	90                   	nop
   1229a:	90                   	nop
   1229b:	90                   	nop
   1229c:	90                   	nop
   1229d:	90                   	nop
   1229e:	90                   	nop
   1229f:	90                   	nop

000122a0 <_ZN5ModelD1Ev>:
   122a0:	55                   	push   %ebp
   122a1:	89 e5                	mov    %esp,%ebp
   122a3:	57                   	push   %edi
   122a4:	56                   	push   %esi
   122a5:	53                   	push   %ebx
   122a6:	e8 8e 5b ff ff       	call   7e39 <__i686.get_pc_thunk.bx>
   122ab:	81 c3 f9 71 00 00    	add    $0x71f9,%ebx
   122b1:	8d 64 24 d4          	lea    -0x2c(%esp),%esp
   122b5:	8b 55 08             	mov    0x8(%ebp),%edx
   122b8:	8b 42 18             	mov    0x18(%edx),%eax
   122bb:	83 e8 0c             	sub    $0xc,%eax
   122be:	3b 83 94 ff ff ff    	cmp    -0x6c(%ebx),%eax
   122c4:	75 54                	jne    1231a <_ZN5ModelD1Ev+0x7a>
   122c6:	8b 45 08             	mov    0x8(%ebp),%eax
   122c9:	8b 78 10             	mov    0x10(%eax),%edi
   122cc:	8b 70 0c             	mov    0xc(%eax),%esi
   122cf:	39 f7                	cmp    %esi,%edi
   122d1:	74 1b                	je     122ee <_ZN5ModelD1Ev+0x4e>
   122d3:	90                   	nop
   122d4:	8d 74 26 00          	lea    0x0(%esi,%eiz,1),%esi
   122d8:	8b 46 04             	mov    0x4(%esi),%eax
   122db:	85 c0                	test   %eax,%eax
   122dd:	74 08                	je     122e7 <_ZN5ModelD1Ev+0x47>
   122df:	89 04 24             	mov    %eax,(%esp)
   122e2:	e8 e9 51 ff ff       	call   74d0 <_ZdlPv@plt>
   122e7:	8d 76 1c             	lea    0x1c(%esi),%esi
   122ea:	39 f7                	cmp    %esi,%edi
   122ec:	75 ea                	jne    122d8 <_ZN5ModelD1Ev+0x38>
   122ee:	8b 55 08             	mov    0x8(%ebp),%edx
   122f1:	8b 42 0c             	mov    0xc(%edx),%eax
   122f4:	85 c0                	test   %eax,%eax
   122f6:	74 08                	je     12300 <_ZN5ModelD1Ev+0x60>
   122f8:	89 04 24             	mov    %eax,(%esp)
   122fb:	e8 d0 51 ff ff       	call   74d0 <_ZdlPv@plt>
   12300:	8b 55 08             	mov    0x8(%ebp),%edx
   12303:	8b 02                	mov    (%edx),%eax
   12305:	85 c0                	test   %eax,%eax
   12307:	74 08                	je     12311 <_ZN5ModelD1Ev+0x71>
   12309:	89 04 24             	mov    %eax,(%esp)
   1230c:	e8 bf 51 ff ff       	call   74d0 <_ZdlPv@plt>
   12311:	8d 64 24 2c          	lea    0x2c(%esp),%esp
   12315:	5b                   	pop    %ebx
   12316:	5e                   	pop    %esi
   12317:	5f                   	pop    %edi
   12318:	5d                   	pop    %ebp
   12319:	c3                   	ret    
   1231a:	83 bb a0 ff ff ff 00 	cmpl   $0x0,-0x60(%ebx)
   12321:	74 1d                	je     12340 <_ZN5ModelD1Ev+0xa0>
   12323:	83 ca ff             	or     $0xffffffff,%edx
   12326:	f0 0f c1 50 08       	lock xadd %edx,0x8(%eax)
   1232b:	85 d2                	test   %edx,%edx
   1232d:	7f 97                	jg     122c6 <_ZN5ModelD1Ev+0x26>
   1232f:	8d 55 e7             	lea    -0x19(%ebp),%edx
   12332:	89 04 24             	mov    %eax,(%esp)
   12335:	89 54 24 04          	mov    %edx,0x4(%esp)
   12339:	e8 12 50 ff ff       	call   7350 <_ZNSs4_Rep10_M_destroyERKSaIcE@plt>
   1233e:	eb 86                	jmp    122c6 <_ZN5ModelD1Ev+0x26>
   12340:	8b 50 08             	mov    0x8(%eax),%edx
   12343:	8d 4a ff             	lea    -0x1(%edx),%ecx
   12346:	89 48 08             	mov    %ecx,0x8(%eax)
   12349:	eb e0                	jmp    1232b <_ZN5ModelD1Ev+0x8b>
   1234b:	90                   	nop
   1234c:	90                   	nop
   1234d:	90                   	nop
   1234e:	90                   	nop
   1234f:	90                   	nop

00012350 <_ZNSt6vectorI6VertexSaIS0_EEaSERKS2_>:
   12350:	55                   	push   %ebp
   12351:	89 e5                	mov    %esp,%ebp
   12353:	57                   	push   %edi
   12354:	56                   	push   %esi
   12355:	53                   	push   %ebx
   12356:	e8 de 5a ff ff       	call   7e39 <__i686.get_pc_thunk.bx>
   1235b:	81 c3 49 71 00 00    	add    $0x7149,%ebx
   12361:	8d 64 24 c4          	lea    -0x3c(%esp),%esp
   12365:	8b 45 08             	mov    0x8(%ebp),%eax
   12368:	39 45 0c             	cmp    %eax,0xc(%ebp)
   1236b:	0f 84 99 00 00 00    	je     1240a <_ZNSt6vectorI6VertexSaIS0_EEaSERKS2_+0xba>
   12371:	8b 55 0c             	mov    0xc(%ebp),%edx
   12374:	8b 7a 04             	mov    0x4(%edx),%edi
   12377:	8b 32                	mov    (%edx),%esi
   12379:	89 f9                	mov    %edi,%ecx
   1237b:	8b 55 08             	mov    0x8(%ebp),%edx
   1237e:	29 f1                	sub    %esi,%ecx
   12380:	c1 f9 02             	sar    $0x2,%ecx
   12383:	69 c1 ab aa aa aa    	imul   $0xaaaaaaab,%ecx,%eax
   12389:	89 4d e4             	mov    %ecx,-0x1c(%ebp)
   1238c:	89 45 e0             	mov    %eax,-0x20(%ebp)
   1238f:	89 45 d4             	mov    %eax,-0x2c(%ebp)
   12392:	8b 02                	mov    (%edx),%eax
   12394:	8b 52 08             	mov    0x8(%edx),%edx
   12397:	29 c2                	sub    %eax,%edx
   12399:	c1 fa 02             	sar    $0x2,%edx
   1239c:	69 d2 ab aa aa aa    	imul   $0xaaaaaaab,%edx,%edx
   123a2:	39 55 e0             	cmp    %edx,-0x20(%ebp)
   123a5:	0f 87 15 01 00 00    	ja     124c0 <_ZNSt6vectorI6VertexSaIS0_EEaSERKS2_+0x170>
   123ab:	8b 4d 08             	mov    0x8(%ebp),%ecx
   123ae:	8b 51 04             	mov    0x4(%ecx),%edx
   123b1:	89 d1                	mov    %edx,%ecx
   123b3:	29 c1                	sub    %eax,%ecx
   123b5:	c1 f9 02             	sar    $0x2,%ecx
   123b8:	89 4d d8             	mov    %ecx,-0x28(%ebp)
   123bb:	69 c9 ab aa aa aa    	imul   $0xaaaaaaab,%ecx,%ecx
   123c1:	39 4d e0             	cmp    %ecx,-0x20(%ebp)
   123c4:	77 52                	ja     12418 <_ZNSt6vectorI6VertexSaIS0_EEaSERKS2_+0xc8>
   123c6:	8b 7d e4             	mov    -0x1c(%ebp),%edi
   123c9:	31 d2                	xor    %edx,%edx
   123cb:	8d 0c b8             	lea    (%eax,%edi,4),%ecx
   123ce:	8b 7d e0             	mov    -0x20(%ebp),%edi
   123d1:	85 ff                	test   %edi,%edi
   123d3:	7e 2f                	jle    12404 <_ZNSt6vectorI6VertexSaIS0_EEaSERKS2_+0xb4>
   123d5:	8b 4d d4             	mov    -0x2c(%ebp),%ecx
   123d8:	8b 3c 16             	mov    (%esi,%edx,1),%edi
   123db:	83 e9 01             	sub    $0x1,%ecx
   123de:	89 3c 10             	mov    %edi,(%eax,%edx,1)
   123e1:	8b 7c 16 04          	mov    0x4(%esi,%edx,1),%edi
   123e5:	89 7c 10 04          	mov    %edi,0x4(%eax,%edx,1)
   123e9:	8b 7c 16 08          	mov    0x8(%esi,%edx,1),%edi
   123ed:	89 7c 10 08          	mov    %edi,0x8(%eax,%edx,1)
   123f1:	8d 52 0c             	lea    0xc(%edx),%edx
   123f4:	75 e2                	jne    123d8 <_ZNSt6vectorI6VertexSaIS0_EEaSERKS2_+0x88>
   123f6:	8b 45 e0             	mov    -0x20(%ebp),%eax
   123f9:	8b 55 08             	mov    0x8(%ebp),%edx
   123fc:	8d 0c 40             	lea    (%eax,%eax,2),%ecx
   123ff:	c1 e1 02             	shl    $0x2,%ecx
   12402:	03 0a                	add    (%edx),%ecx
   12404:	8b 55 08             	mov    0x8(%ebp),%edx
   12407:	89 4a 04             	mov    %ecx,0x4(%edx)
   1240a:	8b 45 08             	mov    0x8(%ebp),%eax
   1240d:	8d 64 24 3c          	lea    0x3c(%esp),%esp
   12411:	5b                   	pop    %ebx
   12412:	5e                   	pop    %esi
   12413:	5f                   	pop    %edi
   12414:	5d                   	pop    %ebp
   12415:	c3                   	ret    
   12416:	66 90                	xchg   %ax,%ax
   12418:	8b 4d d8             	mov    -0x28(%ebp),%ecx
   1241b:	8d 0c 8e             	lea    (%esi,%ecx,4),%ecx
   1241e:	89 4d e4             	mov    %ecx,-0x1c(%ebp)
   12421:	69 4d d8 ab aa aa aa 	imul   $0xaaaaaaab,-0x28(%ebp),%ecx
   12428:	85 c9                	test   %ecx,%ecx
   1242a:	7e 41                	jle    1246d <_ZNSt6vectorI6VertexSaIS0_EEaSERKS2_+0x11d>
   1242c:	31 d2                	xor    %edx,%edx
   1242e:	66 90                	xchg   %ax,%ax
   12430:	8b 3c 16             	mov    (%esi,%edx,1),%edi
   12433:	83 e9 01             	sub    $0x1,%ecx
   12436:	89 3c 10             	mov    %edi,(%eax,%edx,1)
   12439:	8b 7c 16 04          	mov    0x4(%esi,%edx,1),%edi
   1243d:	89 7c 10 04          	mov    %edi,0x4(%eax,%edx,1)
   12441:	8b 7c 16 08          	mov    0x8(%esi,%edx,1),%edi
   12445:	89 7c 10 08          	mov    %edi,0x8(%eax,%edx,1)
   12449:	8d 52 0c             	lea    0xc(%edx),%edx
   1244c:	75 e2                	jne    12430 <_ZNSt6vectorI6VertexSaIS0_EEaSERKS2_+0xe0>
   1244e:	8b 75 08             	mov    0x8(%ebp),%esi
   12451:	8b 45 0c             	mov    0xc(%ebp),%eax
   12454:	8b 56 04             	mov    0x4(%esi),%edx
   12457:	8b 78 04             	mov    0x4(%eax),%edi
   1245a:	8b 06                	mov    (%esi),%eax
   1245c:	8b 75 0c             	mov    0xc(%ebp),%esi
   1245f:	89 d1                	mov    %edx,%ecx
   12461:	29 c1                	sub    %eax,%ecx
   12463:	83 e1 fc             	and    $0xfffffffc,%ecx
   12466:	8b 36                	mov    (%esi),%esi
   12468:	01 f1                	add    %esi,%ecx
   1246a:	89 4d e4             	mov    %ecx,-0x1c(%ebp)
   1246d:	8b 75 e0             	mov    -0x20(%ebp),%esi
   12470:	8b 4d e4             	mov    -0x1c(%ebp),%ecx
   12473:	89 4d dc             	mov    %ecx,-0x24(%ebp)
   12476:	39 7d dc             	cmp    %edi,-0x24(%ebp)
   12479:	8d 34 76             	lea    (%esi,%esi,2),%esi
   1247c:	8d 0c b0             	lea    (%eax,%esi,4),%ecx
   1247f:	74 83                	je     12404 <_ZNSt6vectorI6VertexSaIS0_EEaSERKS2_+0xb4>
   12481:	8b 75 dc             	mov    -0x24(%ebp),%esi
   12484:	eb 05                	jmp    1248b <_ZNSt6vectorI6VertexSaIS0_EEaSERKS2_+0x13b>
   12486:	66 90                	xchg   %ax,%ax
   12488:	8d 52 0c             	lea    0xc(%edx),%edx
   1248b:	85 d2                	test   %edx,%edx
   1248d:	74 10                	je     1249f <_ZNSt6vectorI6VertexSaIS0_EEaSERKS2_+0x14f>
   1248f:	8b 06                	mov    (%esi),%eax
   12491:	89 02                	mov    %eax,(%edx)
   12493:	8b 46 04             	mov    0x4(%esi),%eax
   12496:	89 42 04             	mov    %eax,0x4(%edx)
   12499:	8b 46 08             	mov    0x8(%esi),%eax
   1249c:	89 42 08             	mov    %eax,0x8(%edx)
   1249f:	8d 76 0c             	lea    0xc(%esi),%esi
   124a2:	39 f7                	cmp    %esi,%edi
   124a4:	75 e2                	jne    12488 <_ZNSt6vectorI6VertexSaIS0_EEaSERKS2_+0x138>
   124a6:	8b 7d e0             	mov    -0x20(%ebp),%edi
   124a9:	8b 45 08             	mov    0x8(%ebp),%eax
   124ac:	8d 0c 7f             	lea    (%edi,%edi,2),%ecx
   124af:	c1 e1 02             	shl    $0x2,%ecx
   124b2:	03 08                	add    (%eax),%ecx
   124b4:	e9 4b ff ff ff       	jmp    12404 <_ZNSt6vectorI6VertexSaIS0_EEaSERKS2_+0xb4>
   124b9:	8d b4 26 00 00 00 00 	lea    0x0(%esi,%eiz,1),%esi
   124c0:	8b 45 e0             	mov    -0x20(%ebp),%eax
   124c3:	31 c9                	xor    %ecx,%ecx
   124c5:	85 c0                	test   %eax,%eax
   124c7:	c7 45 dc 00 00 00 00 	movl   $0x0,-0x24(%ebp)
   124ce:	74 1c                	je     124ec <_ZNSt6vectorI6VertexSaIS0_EEaSERKS2_+0x19c>
   124d0:	81 7d e0 55 55 55 15 	cmpl   $0x15555555,-0x20(%ebp)
   124d7:	77 64                	ja     1253d <_ZNSt6vectorI6VertexSaIS0_EEaSERKS2_+0x1ed>
   124d9:	8b 45 e4             	mov    -0x1c(%ebp),%eax
   124dc:	c1 e0 02             	shl    $0x2,%eax
   124df:	89 45 dc             	mov    %eax,-0x24(%ebp)
   124e2:	89 04 24             	mov    %eax,(%esp)
   124e5:	e8 66 49 ff ff       	call   6e50 <_Znwj@plt>
   124ea:	89 c1                	mov    %eax,%ecx
   124ec:	39 f7                	cmp    %esi,%edi
   124ee:	74 26                	je     12516 <_ZNSt6vectorI6VertexSaIS0_EEaSERKS2_+0x1c6>
   124f0:	89 c8                	mov    %ecx,%eax
   124f2:	eb 07                	jmp    124fb <_ZNSt6vectorI6VertexSaIS0_EEaSERKS2_+0x1ab>
   124f4:	8d 74 26 00          	lea    0x0(%esi,%eiz,1),%esi
   124f8:	8d 40 0c             	lea    0xc(%eax),%eax
   124fb:	85 c0                	test   %eax,%eax
   124fd:	74 10                	je     1250f <_ZNSt6vectorI6VertexSaIS0_EEaSERKS2_+0x1bf>
   124ff:	8b 16                	mov    (%esi),%edx
   12501:	89 10                	mov    %edx,(%eax)
   12503:	8b 56 04             	mov    0x4(%esi),%edx
   12506:	89 50 04             	mov    %edx,0x4(%eax)
   12509:	8b 56 08             	mov    0x8(%esi),%edx
   1250c:	89 50 08             	mov    %edx,0x8(%eax)
   1250f:	8d 76 0c             	lea    0xc(%esi),%esi
   12512:	39 f7                	cmp    %esi,%edi
   12514:	75 e2                	jne    124f8 <_ZNSt6vectorI6VertexSaIS0_EEaSERKS2_+0x1a8>
   12516:	8b 55 08             	mov    0x8(%ebp),%edx
   12519:	8b 02                	mov    (%edx),%eax
   1251b:	85 c0                	test   %eax,%eax
   1251d:	74 0e                	je     1252d <_ZNSt6vectorI6VertexSaIS0_EEaSERKS2_+0x1dd>
   1251f:	89 4d d0             	mov    %ecx,-0x30(%ebp)
   12522:	89 04 24             	mov    %eax,(%esp)
   12525:	e8 a6 4f ff ff       	call   74d0 <_ZdlPv@plt>
   1252a:	8b 4d d0             	mov    -0x30(%ebp),%ecx
   1252d:	8b 75 08             	mov    0x8(%ebp),%esi
   12530:	89 0e                	mov    %ecx,(%esi)
   12532:	03 4d dc             	add    -0x24(%ebp),%ecx
   12535:	89 4e 08             	mov    %ecx,0x8(%esi)
   12538:	e9 c7 fe ff ff       	jmp    12404 <_ZNSt6vectorI6VertexSaIS0_EEaSERKS2_+0xb4>
   1253d:	e8 6e 4b ff ff       	call   70b0 <_ZSt17__throw_bad_allocv@plt>
   12542:	90                   	nop
   12543:	90                   	nop
   12544:	90                   	nop
   12545:	90                   	nop
   12546:	90                   	nop
   12547:	90                   	nop
   12548:	90                   	nop
   12549:	90                   	nop
   1254a:	90                   	nop
   1254b:	90                   	nop
   1254c:	90                   	nop
   1254d:	90                   	nop
   1254e:	90                   	nop
   1254f:	90                   	nop

00012550 <_ZNSt6vectorI7ObjecteSaIS0_EE13_M_insert_auxEN9__gnu_cxx17__normal_iteratorIPS0_S2_EERKS0_>:
   12550:	55                   	push   %ebp
   12551:	89 e5                	mov    %esp,%ebp
   12553:	57                   	push   %edi
   12554:	56                   	push   %esi
   12555:	53                   	push   %ebx
   12556:	e8 de 58 ff ff       	call   7e39 <__i686.get_pc_thunk.bx>
   1255b:	81 c3 49 6f 00 00    	add    $0x6f49,%ebx
   12561:	8d 64 24 a4          	lea    -0x5c(%esp),%esp
   12565:	8b 45 08             	mov    0x8(%ebp),%eax
   12568:	8b 55 08             	mov    0x8(%ebp),%edx
   1256b:	8b 75 10             	mov    0x10(%ebp),%esi
   1256e:	8b 40 04             	mov    0x4(%eax),%eax
   12571:	3b 42 08             	cmp    0x8(%edx),%eax
   12574:	89 45 c4             	mov    %eax,-0x3c(%ebp)
   12577:	0f 84 43 01 00 00    	je     126c0 <_ZNSt6vectorI7ObjecteSaIS0_EE13_M_insert_auxEN9__gnu_cxx17__normal_iteratorIPS0_S2_EERKS0_+0x170>
   1257d:	85 c0                	test   %eax,%eax
   1257f:	0f 84 23 03 00 00    	je     128a8 <_ZNSt6vectorI7ObjecteSaIS0_EE13_M_insert_auxEN9__gnu_cxx17__normal_iteratorIPS0_S2_EERKS0_+0x358>
   12585:	89 c7                	mov    %eax,%edi
   12587:	89 04 24             	mov    %eax,(%esp)
   1258a:	83 ef 20             	sub    $0x20,%edi
   1258d:	89 7c 24 04          	mov    %edi,0x4(%esp)
   12591:	e8 5a 4c ff ff       	call   71f0 <_ZNSsC1ERKSs@plt>
   12596:	8b 55 c4             	mov    -0x3c(%ebp),%edx
   12599:	8b 47 04             	mov    0x4(%edi),%eax
   1259c:	89 42 04             	mov    %eax,0x4(%edx)
   1259f:	8b 47 08             	mov    0x8(%edi),%eax
   125a2:	89 42 08             	mov    %eax,0x8(%edx)
   125a5:	8b 47 0c             	mov    0xc(%edi),%eax
   125a8:	89 42 0c             	mov    %eax,0xc(%edx)
   125ab:	8b 47 10             	mov    0x10(%edi),%eax
   125ae:	89 42 10             	mov    %eax,0x10(%edx)
   125b1:	8b 47 14             	mov    0x14(%edi),%eax
   125b4:	89 42 14             	mov    %eax,0x14(%edx)
   125b7:	8b 47 18             	mov    0x18(%edi),%eax
   125ba:	89 42 18             	mov    %eax,0x18(%edx)
   125bd:	8b 47 1c             	mov    0x1c(%edi),%eax
   125c0:	89 42 1c             	mov    %eax,0x1c(%edx)
   125c3:	8b 55 08             	mov    0x8(%ebp),%edx
   125c6:	8b 42 04             	mov    0x4(%edx),%eax
   125c9:	8b 55 08             	mov    0x8(%ebp),%edx
   125cc:	8d 40 20             	lea    0x20(%eax),%eax
   125cf:	89 42 04             	mov    %eax,0x4(%edx)
   125d2:	8d 45 c8             	lea    -0x38(%ebp),%eax
   125d5:	89 74 24 04          	mov    %esi,0x4(%esp)
   125d9:	89 45 c4             	mov    %eax,-0x3c(%ebp)
   125dc:	89 04 24             	mov    %eax,(%esp)
   125df:	e8 0c 4c ff ff       	call   71f0 <_ZNSsC1ERKSs@plt>
   125e4:	8b 46 04             	mov    0x4(%esi),%eax
   125e7:	8b 55 08             	mov    0x8(%ebp),%edx
   125ea:	89 45 cc             	mov    %eax,-0x34(%ebp)
   125ed:	8b 46 08             	mov    0x8(%esi),%eax
   125f0:	89 45 d0             	mov    %eax,-0x30(%ebp)
   125f3:	8b 46 0c             	mov    0xc(%esi),%eax
   125f6:	89 45 d4             	mov    %eax,-0x2c(%ebp)
   125f9:	8b 46 10             	mov    0x10(%esi),%eax
   125fc:	89 45 d8             	mov    %eax,-0x28(%ebp)
   125ff:	8b 46 14             	mov    0x14(%esi),%eax
   12602:	89 45 dc             	mov    %eax,-0x24(%ebp)
   12605:	8b 46 18             	mov    0x18(%esi),%eax
   12608:	89 45 e0             	mov    %eax,-0x20(%ebp)
   1260b:	8b 46 1c             	mov    0x1c(%esi),%eax
   1260e:	8b 72 04             	mov    0x4(%edx),%esi
   12611:	89 45 e4             	mov    %eax,-0x1c(%ebp)
   12614:	8d 7e c0             	lea    -0x40(%esi),%edi
   12617:	2b 7d 0c             	sub    0xc(%ebp),%edi
   1261a:	c1 ff 05             	sar    $0x5,%edi
   1261d:	85 ff                	test   %edi,%edi
   1261f:	7e 4a                	jle    1266b <_ZNSt6vectorI7ObjecteSaIS0_EE13_M_insert_auxEN9__gnu_cxx17__normal_iteratorIPS0_S2_EERKS0_+0x11b>
   12621:	8d 76 e0             	lea    -0x20(%esi),%esi
   12624:	8d 74 26 00          	lea    0x0(%esi,%eiz,1),%esi
   12628:	8d 46 c0             	lea    -0x40(%esi),%eax
   1262b:	8d 76 e0             	lea    -0x20(%esi),%esi
   1262e:	89 44 24 04          	mov    %eax,0x4(%esp)
   12632:	89 34 24             	mov    %esi,(%esp)
   12635:	e8 f6 50 ff ff       	call   7730 <_ZNSs6assignERKSs@plt>
   1263a:	8b 46 e4             	mov    -0x1c(%esi),%eax
   1263d:	8d 7f ff             	lea    -0x1(%edi),%edi
   12640:	89 46 04             	mov    %eax,0x4(%esi)
   12643:	8b 46 e8             	mov    -0x18(%esi),%eax
   12646:	89 46 08             	mov    %eax,0x8(%esi)
   12649:	8b 46 ec             	mov    -0x14(%esi),%eax
   1264c:	89 46 0c             	mov    %eax,0xc(%esi)
   1264f:	8b 46 f0             	mov    -0x10(%esi),%eax
   12652:	89 46 10             	mov    %eax,0x10(%esi)
   12655:	8b 46 f4             	mov    -0xc(%esi),%eax
   12658:	89 46 14             	mov    %eax,0x14(%esi)
   1265b:	8b 46 f8             	mov    -0x8(%esi),%eax
   1265e:	89 46 18             	mov    %eax,0x18(%esi)
   12661:	85 ff                	test   %edi,%edi
   12663:	8b 46 fc             	mov    -0x4(%esi),%eax
   12666:	89 46 1c             	mov    %eax,0x1c(%esi)
   12669:	7f bd                	jg     12628 <_ZNSt6vectorI7ObjecteSaIS0_EE13_M_insert_auxEN9__gnu_cxx17__normal_iteratorIPS0_S2_EERKS0_+0xd8>
   1266b:	8b 45 c4             	mov    -0x3c(%ebp),%eax
   1266e:	8b 55 0c             	mov    0xc(%ebp),%edx
   12671:	89 44 24 04          	mov    %eax,0x4(%esp)
   12675:	89 14 24             	mov    %edx,(%esp)
   12678:	e8 b3 50 ff ff       	call   7730 <_ZNSs6assignERKSs@plt>
   1267d:	8b 55 0c             	mov    0xc(%ebp),%edx
   12680:	8b 45 cc             	mov    -0x34(%ebp),%eax
   12683:	89 42 04             	mov    %eax,0x4(%edx)
   12686:	8b 45 d0             	mov    -0x30(%ebp),%eax
   12689:	89 42 08             	mov    %eax,0x8(%edx)
   1268c:	8b 45 d4             	mov    -0x2c(%ebp),%eax
   1268f:	89 42 0c             	mov    %eax,0xc(%edx)
   12692:	8b 45 d8             	mov    -0x28(%ebp),%eax
   12695:	89 42 10             	mov    %eax,0x10(%edx)
   12698:	8b 45 dc             	mov    -0x24(%ebp),%eax
   1269b:	89 42 14             	mov    %eax,0x14(%edx)
   1269e:	8b 45 e0             	mov    -0x20(%ebp),%eax
   126a1:	89 42 18             	mov    %eax,0x18(%edx)
   126a4:	8b 45 e4             	mov    -0x1c(%ebp),%eax
   126a7:	89 42 1c             	mov    %eax,0x1c(%edx)
   126aa:	8b 45 c4             	mov    -0x3c(%ebp),%eax
   126ad:	89 04 24             	mov    %eax,(%esp)
   126b0:	e8 ab 4c ff ff       	call   7360 <_ZN7ObjecteD1Ev@plt>
   126b5:	8d 64 24 5c          	lea    0x5c(%esp),%esp
   126b9:	5b                   	pop    %ebx
   126ba:	5e                   	pop    %esi
   126bb:	5f                   	pop    %edi
   126bc:	5d                   	pop    %ebp
   126bd:	c3                   	ret    
   126be:	66 90                	xchg   %ax,%ax
   126c0:	8b 45 08             	mov    0x8(%ebp),%eax
   126c3:	8b 38                	mov    (%eax),%edi
   126c5:	8b 45 c4             	mov    -0x3c(%ebp),%eax
   126c8:	29 f8                	sub    %edi,%eax
   126ca:	c1 f8 05             	sar    $0x5,%eax
   126cd:	0f 84 b5 01 00 00    	je     12888 <_ZNSt6vectorI7ObjecteSaIS0_EE13_M_insert_auxEN9__gnu_cxx17__normal_iteratorIPS0_S2_EERKS0_+0x338>
   126d3:	8d 14 00             	lea    (%eax,%eax,1),%edx
   126d6:	89 55 ac             	mov    %edx,-0x54(%ebp)
   126d9:	39 d0                	cmp    %edx,%eax
   126db:	0f 86 ce 01 00 00    	jbe    128af <_ZNSt6vectorI7ObjecteSaIS0_EE13_M_insert_auxEN9__gnu_cxx17__normal_iteratorIPS0_S2_EERKS0_+0x35f>
   126e1:	8b 55 0c             	mov    0xc(%ebp),%edx
   126e4:	b8 e0 ff ff ff       	mov    $0xffffffe0,%eax
   126e9:	29 fa                	sub    %edi,%edx
   126eb:	c7 45 ac ff ff ff 07 	movl   $0x7ffffff,-0x54(%ebp)
   126f2:	89 d7                	mov    %edx,%edi
   126f4:	c1 ff 05             	sar    $0x5,%edi
   126f7:	89 04 24             	mov    %eax,(%esp)
   126fa:	e8 51 47 ff ff       	call   6e50 <_Znwj@plt>
   126ff:	89 45 bc             	mov    %eax,-0x44(%ebp)
   12702:	8b 55 bc             	mov    -0x44(%ebp),%edx
   12705:	c1 e7 05             	shl    $0x5,%edi
   12708:	89 55 b0             	mov    %edx,-0x50(%ebp)
   1270b:	01 d7                	add    %edx,%edi
   1270d:	89 7d b8             	mov    %edi,-0x48(%ebp)
   12710:	74 39                	je     1274b <_ZNSt6vectorI7ObjecteSaIS0_EE13_M_insert_auxEN9__gnu_cxx17__normal_iteratorIPS0_S2_EERKS0_+0x1fb>
   12712:	89 74 24 04          	mov    %esi,0x4(%esp)
   12716:	89 3c 24             	mov    %edi,(%esp)
   12719:	e8 d2 4a ff ff       	call   71f0 <_ZNSsC1ERKSs@plt>
   1271e:	8b 55 b8             	mov    -0x48(%ebp),%edx
   12721:	8b 46 04             	mov    0x4(%esi),%eax
   12724:	89 42 04             	mov    %eax,0x4(%edx)
   12727:	8b 46 08             	mov    0x8(%esi),%eax
   1272a:	89 42 08             	mov    %eax,0x8(%edx)
   1272d:	8b 46 0c             	mov    0xc(%esi),%eax
   12730:	89 42 0c             	mov    %eax,0xc(%edx)
   12733:	8b 46 10             	mov    0x10(%esi),%eax
   12736:	89 42 10             	mov    %eax,0x10(%edx)
   12739:	8b 46 14             	mov    0x14(%esi),%eax
   1273c:	89 42 14             	mov    %eax,0x14(%edx)
   1273f:	8b 46 18             	mov    0x18(%esi),%eax
   12742:	89 42 18             	mov    %eax,0x18(%edx)
   12745:	8b 46 1c             	mov    0x1c(%esi),%eax
   12748:	89 42 1c             	mov    %eax,0x1c(%edx)
   1274b:	8b 45 08             	mov    0x8(%ebp),%eax
   1274e:	8b 7d bc             	mov    -0x44(%ebp),%edi
   12751:	c7 45 b0 00 00 00 00 	movl   $0x0,-0x50(%ebp)
   12758:	89 7d b4             	mov    %edi,-0x4c(%ebp)
   1275b:	8b 30                	mov    (%eax),%esi
   1275d:	3b 75 0c             	cmp    0xc(%ebp),%esi
   12760:	74 52                	je     127b4 <_ZNSt6vectorI7ObjecteSaIS0_EE13_M_insert_auxEN9__gnu_cxx17__normal_iteratorIPS0_S2_EERKS0_+0x264>
   12762:	89 7d c4             	mov    %edi,-0x3c(%ebp)
   12765:	8b 7d b4             	mov    -0x4c(%ebp),%edi
   12768:	85 ff                	test   %edi,%edi
   1276a:	74 36                	je     127a2 <_ZNSt6vectorI7ObjecteSaIS0_EE13_M_insert_auxEN9__gnu_cxx17__normal_iteratorIPS0_S2_EERKS0_+0x252>
   1276c:	89 74 24 04          	mov    %esi,0x4(%esp)
   12770:	89 3c 24             	mov    %edi,(%esp)
   12773:	e8 78 4a ff ff       	call   71f0 <_ZNSsC1ERKSs@plt>
   12778:	8b 46 04             	mov    0x4(%esi),%eax
   1277b:	89 47 04             	mov    %eax,0x4(%edi)
   1277e:	8b 46 08             	mov    0x8(%esi),%eax
   12781:	89 47 08             	mov    %eax,0x8(%edi)
   12784:	8b 46 0c             	mov    0xc(%esi),%eax
   12787:	89 47 0c             	mov    %eax,0xc(%edi)
   1278a:	8b 46 10             	mov    0x10(%esi),%eax
   1278d:	89 47 10             	mov    %eax,0x10(%edi)
   12790:	8b 46 14             	mov    0x14(%esi),%eax
   12793:	89 47 14             	mov    %eax,0x14(%edi)
   12796:	8b 46 18             	mov    0x18(%esi),%eax
   12799:	89 47 18             	mov    %eax,0x18(%edi)
   1279c:	8b 46 1c             	mov    0x1c(%esi),%eax
   1279f:	89 47 1c             	mov    %eax,0x1c(%edi)
   127a2:	83 45 c4 20          	addl   $0x20,-0x3c(%ebp)
   127a6:	8d 76 20             	lea    0x20(%esi),%esi
   127a9:	3b 75 0c             	cmp    0xc(%ebp),%esi
   127ac:	8b 7d c4             	mov    -0x3c(%ebp),%edi
   127af:	75 b7                	jne    12768 <_ZNSt6vectorI7ObjecteSaIS0_EE13_M_insert_auxEN9__gnu_cxx17__normal_iteratorIPS0_S2_EERKS0_+0x218>
   127b1:	89 7d b4             	mov    %edi,-0x4c(%ebp)
   127b4:	8b 45 08             	mov    0x8(%ebp),%eax
   127b7:	8b 55 b4             	mov    -0x4c(%ebp),%edx
   127ba:	83 c2 20             	add    $0x20,%edx
   127bd:	89 55 b0             	mov    %edx,-0x50(%ebp)
   127c0:	89 d7                	mov    %edx,%edi
   127c2:	8b 40 04             	mov    0x4(%eax),%eax
   127c5:	39 f0                	cmp    %esi,%eax
   127c7:	89 45 c0             	mov    %eax,-0x40(%ebp)
   127ca:	74 5d                	je     12829 <_ZNSt6vectorI7ObjecteSaIS0_EE13_M_insert_auxEN9__gnu_cxx17__normal_iteratorIPS0_S2_EERKS0_+0x2d9>
   127cc:	8b 55 b4             	mov    -0x4c(%ebp),%edx
   127cf:	83 c2 40             	add    $0x40,%edx
   127d2:	89 55 c4             	mov    %edx,-0x3c(%ebp)
   127d5:	8d 76 00             	lea    0x0(%esi),%esi
   127d8:	85 ff                	test   %edi,%edi
   127da:	74 36                	je     12812 <_ZNSt6vectorI7ObjecteSaIS0_EE13_M_insert_auxEN9__gnu_cxx17__normal_iteratorIPS0_S2_EERKS0_+0x2c2>
   127dc:	89 74 24 04          	mov    %esi,0x4(%esp)
   127e0:	89 3c 24             	mov    %edi,(%esp)
   127e3:	e8 08 4a ff ff       	call   71f0 <_ZNSsC1ERKSs@plt>
   127e8:	8b 46 04             	mov    0x4(%esi),%eax
   127eb:	89 47 04             	mov    %eax,0x4(%edi)
   127ee:	8b 46 08             	mov    0x8(%esi),%eax
   127f1:	89 47 08             	mov    %eax,0x8(%edi)
   127f4:	8b 46 0c             	mov    0xc(%esi),%eax
   127f7:	89 47 0c             	mov    %eax,0xc(%edi)
   127fa:	8b 46 10             	mov    0x10(%esi),%eax
   127fd:	89 47 10             	mov    %eax,0x10(%edi)
   12800:	8b 46 14             	mov    0x14(%esi),%eax
   12803:	89 47 14             	mov    %eax,0x14(%edi)
   12806:	8b 46 18             	mov    0x18(%esi),%eax
   12809:	89 47 18             	mov    %eax,0x18(%edi)
   1280c:	8b 46 1c             	mov    0x1c(%esi),%eax
   1280f:	89 47 1c             	mov    %eax,0x1c(%edi)
   12812:	8b 7d c4             	mov    -0x3c(%ebp),%edi
   12815:	8d 76 20             	lea    0x20(%esi),%esi
   12818:	39 75 c0             	cmp    %esi,-0x40(%ebp)
   1281b:	8d 47 20             	lea    0x20(%edi),%eax
   1281e:	89 45 c4             	mov    %eax,-0x3c(%ebp)
   12821:	75 b5                	jne    127d8 <_ZNSt6vectorI7ObjecteSaIS0_EE13_M_insert_auxEN9__gnu_cxx17__normal_iteratorIPS0_S2_EERKS0_+0x288>
   12823:	8b 55 08             	mov    0x8(%ebp),%edx
   12826:	8b 72 04             	mov    0x4(%edx),%esi
   12829:	8b 55 08             	mov    0x8(%ebp),%edx
   1282c:	8b 02                	mov    (%edx),%eax
   1282e:	39 f0                	cmp    %esi,%eax
   12830:	74 25                	je     12857 <_ZNSt6vectorI7ObjecteSaIS0_EE13_M_insert_auxEN9__gnu_cxx17__normal_iteratorIPS0_S2_EERKS0_+0x307>
   12832:	89 7d c4             	mov    %edi,-0x3c(%ebp)
   12835:	89 f7                	mov    %esi,%edi
   12837:	89 c6                	mov    %eax,%esi
   12839:	8d b4 26 00 00 00 00 	lea    0x0(%esi,%eiz,1),%esi
   12840:	89 34 24             	mov    %esi,(%esp)
   12843:	8d 76 20             	lea    0x20(%esi),%esi
   12846:	e8 15 4b ff ff       	call   7360 <_ZN7ObjecteD1Ev@plt>
   1284b:	39 fe                	cmp    %edi,%esi
   1284d:	75 f1                	jne    12840 <_ZNSt6vectorI7ObjecteSaIS0_EE13_M_insert_auxEN9__gnu_cxx17__normal_iteratorIPS0_S2_EERKS0_+0x2f0>
   1284f:	8b 45 08             	mov    0x8(%ebp),%eax
   12852:	8b 7d c4             	mov    -0x3c(%ebp),%edi
   12855:	8b 30                	mov    (%eax),%esi
   12857:	85 f6                	test   %esi,%esi
   12859:	74 08                	je     12863 <_ZNSt6vectorI7ObjecteSaIS0_EE13_M_insert_auxEN9__gnu_cxx17__normal_iteratorIPS0_S2_EERKS0_+0x313>
   1285b:	89 34 24             	mov    %esi,(%esp)
   1285e:	e8 6d 4c ff ff       	call   74d0 <_ZdlPv@plt>
   12863:	8b 55 08             	mov    0x8(%ebp),%edx
   12866:	8b 45 bc             	mov    -0x44(%ebp),%eax
   12869:	89 02                	mov    %eax,(%edx)
   1286b:	8b 45 ac             	mov    -0x54(%ebp),%eax
   1286e:	c1 e0 05             	shl    $0x5,%eax
   12871:	03 45 bc             	add    -0x44(%ebp),%eax
   12874:	89 7a 04             	mov    %edi,0x4(%edx)
   12877:	89 42 08             	mov    %eax,0x8(%edx)
   1287a:	8d 64 24 5c          	lea    0x5c(%esp),%esp
   1287e:	5b                   	pop    %ebx
   1287f:	5e                   	pop    %esi
   12880:	5f                   	pop    %edi
   12881:	5d                   	pop    %ebp
   12882:	c3                   	ret    
   12883:	90                   	nop
   12884:	8d 74 26 00          	lea    0x0(%esi,%eiz,1),%esi
   12888:	8b 45 0c             	mov    0xc(%ebp),%eax
   1288b:	c7 45 ac 01 00 00 00 	movl   $0x1,-0x54(%ebp)
   12892:	29 f8                	sub    %edi,%eax
   12894:	89 c7                	mov    %eax,%edi
   12896:	c1 ff 05             	sar    $0x5,%edi
   12899:	8b 45 ac             	mov    -0x54(%ebp),%eax
   1289c:	c1 e0 05             	shl    $0x5,%eax
   1289f:	e9 53 fe ff ff       	jmp    126f7 <_ZNSt6vectorI7ObjecteSaIS0_EE13_M_insert_auxEN9__gnu_cxx17__normal_iteratorIPS0_S2_EERKS0_+0x1a7>
   128a4:	8d 74 26 00          	lea    0x0(%esi,%eiz,1),%esi
   128a8:	31 c0                	xor    %eax,%eax
   128aa:	e9 1a fd ff ff       	jmp    125c9 <_ZNSt6vectorI7ObjecteSaIS0_EE13_M_insert_auxEN9__gnu_cxx17__normal_iteratorIPS0_S2_EERKS0_+0x79>
   128af:	81 fa ff ff ff 07    	cmp    $0x7ffffff,%edx
   128b5:	0f 87 26 fe ff ff    	ja     126e1 <_ZNSt6vectorI7ObjecteSaIS0_EE13_M_insert_auxEN9__gnu_cxx17__normal_iteratorIPS0_S2_EERKS0_+0x191>
   128bb:	8b 45 0c             	mov    0xc(%ebp),%eax
   128be:	c7 45 bc 00 00 00 00 	movl   $0x0,-0x44(%ebp)
   128c5:	29 f8                	sub    %edi,%eax
   128c7:	89 c7                	mov    %eax,%edi
   128c9:	c1 ff 05             	sar    $0x5,%edi
   128cc:	85 d2                	test   %edx,%edx
   128ce:	0f 84 2e fe ff ff    	je     12702 <_ZNSt6vectorI7ObjecteSaIS0_EE13_M_insert_auxEN9__gnu_cxx17__normal_iteratorIPS0_S2_EERKS0_+0x1b2>
   128d4:	eb c3                	jmp    12899 <_ZNSt6vectorI7ObjecteSaIS0_EE13_M_insert_auxEN9__gnu_cxx17__normal_iteratorIPS0_S2_EERKS0_+0x349>
   128d6:	89 c6                	mov    %eax,%esi
   128d8:	8b 55 c4             	mov    -0x3c(%ebp),%edx
   128db:	89 14 24             	mov    %edx,(%esp)
   128de:	e8 7d 4a ff ff       	call   7360 <_ZN7ObjecteD1Ev@plt>
   128e3:	89 34 24             	mov    %esi,(%esp)
   128e6:	e8 95 52 ff ff       	call   7b80 <_Unwind_Resume@plt>
   128eb:	89 04 24             	mov    %eax,(%esp)
   128ee:	e8 8d 52 ff ff       	call   7b80 <_Unwind_Resume@plt>
   128f3:	89 04 24             	mov    %eax,(%esp)
   128f6:	e8 d5 47 ff ff       	call   70d0 <__cxa_begin_catch@plt>
   128fb:	8b 75 b0             	mov    -0x50(%ebp),%esi
   128fe:	39 f7                	cmp    %esi,%edi
   12900:	74 60                	je     12962 <_ZNSt6vectorI7ObjecteSaIS0_EE13_M_insert_auxEN9__gnu_cxx17__normal_iteratorIPS0_S2_EERKS0_+0x412>
   12902:	89 34 24             	mov    %esi,(%esp)
   12905:	e8 56 4a ff ff       	call   7360 <_ZN7ObjecteD1Ev@plt>
   1290a:	8d 76 20             	lea    0x20(%esi),%esi
   1290d:	eb ef                	jmp    128fe <_ZNSt6vectorI7ObjecteSaIS0_EE13_M_insert_auxEN9__gnu_cxx17__normal_iteratorIPS0_S2_EERKS0_+0x3ae>
   1290f:	89 7d b4             	mov    %edi,-0x4c(%ebp)
   12912:	89 04 24             	mov    %eax,(%esp)
   12915:	e8 b6 47 ff ff       	call   70d0 <__cxa_begin_catch@plt>
   1291a:	8b 75 bc             	mov    -0x44(%ebp),%esi
   1291d:	39 75 b4             	cmp    %esi,-0x4c(%ebp)
   12920:	74 45                	je     12967 <_ZNSt6vectorI7ObjecteSaIS0_EE13_M_insert_auxEN9__gnu_cxx17__normal_iteratorIPS0_S2_EERKS0_+0x417>
   12922:	89 34 24             	mov    %esi,(%esp)
   12925:	e8 36 4a ff ff       	call   7360 <_ZN7ObjecteD1Ev@plt>
   1292a:	8d 76 20             	lea    0x20(%esi),%esi
   1292d:	eb ee                	jmp    1291d <_ZNSt6vectorI7ObjecteSaIS0_EE13_M_insert_auxEN9__gnu_cxx17__normal_iteratorIPS0_S2_EERKS0_+0x3cd>
   1292f:	89 c6                	mov    %eax,%esi
   12931:	89 34 24             	mov    %esi,(%esp)
   12934:	e8 97 47 ff ff       	call   70d0 <__cxa_begin_catch@plt>
   12939:	83 7d b0 00          	cmpl   $0x0,-0x50(%ebp)
   1293d:	8b 75 bc             	mov    -0x44(%ebp),%esi
   12940:	74 39                	je     1297b <_ZNSt6vectorI7ObjecteSaIS0_EE13_M_insert_auxEN9__gnu_cxx17__normal_iteratorIPS0_S2_EERKS0_+0x42b>
   12942:	39 75 b0             	cmp    %esi,-0x50(%ebp)
   12945:	74 3f                	je     12986 <_ZNSt6vectorI7ObjecteSaIS0_EE13_M_insert_auxEN9__gnu_cxx17__normal_iteratorIPS0_S2_EERKS0_+0x436>
   12947:	89 34 24             	mov    %esi,(%esp)
   1294a:	e8 11 4a ff ff       	call   7360 <_ZN7ObjecteD1Ev@plt>
   1294f:	8d 76 20             	lea    0x20(%esi),%esi
   12952:	eb ee                	jmp    12942 <_ZNSt6vectorI7ObjecteSaIS0_EE13_M_insert_auxEN9__gnu_cxx17__normal_iteratorIPS0_S2_EERKS0_+0x3f2>
   12954:	89 c6                	mov    %eax,%esi
   12956:	e8 45 51 ff ff       	call   7aa0 <__cxa_end_catch@plt>
   1295b:	eb d4                	jmp    12931 <_ZNSt6vectorI7ObjecteSaIS0_EE13_M_insert_auxEN9__gnu_cxx17__normal_iteratorIPS0_S2_EERKS0_+0x3e1>
   1295d:	8d 76 00             	lea    0x0(%esi),%esi
   12960:	eb f2                	jmp    12954 <_ZNSt6vectorI7ObjecteSaIS0_EE13_M_insert_auxEN9__gnu_cxx17__normal_iteratorIPS0_S2_EERKS0_+0x404>
   12962:	e8 99 4f ff ff       	call   7900 <__cxa_rethrow@plt>
   12967:	e8 94 4f ff ff       	call   7900 <__cxa_rethrow@plt>
   1296c:	89 c6                	mov    %eax,%esi
   1296e:	e8 2d 51 ff ff       	call   7aa0 <__cxa_end_catch@plt>
   12973:	89 34 24             	mov    %esi,(%esp)
   12976:	e8 05 52 ff ff       	call   7b80 <_Unwind_Resume@plt>
   1297b:	8b 55 b8             	mov    -0x48(%ebp),%edx
   1297e:	89 14 24             	mov    %edx,(%esp)
   12981:	e8 da 49 ff ff       	call   7360 <_ZN7ObjecteD1Ev@plt>
   12986:	83 7d bc 00          	cmpl   $0x0,-0x44(%ebp)
   1298a:	74 0b                	je     12997 <_ZNSt6vectorI7ObjecteSaIS0_EE13_M_insert_auxEN9__gnu_cxx17__normal_iteratorIPS0_S2_EERKS0_+0x447>
   1298c:	8b 45 bc             	mov    -0x44(%ebp),%eax
   1298f:	89 04 24             	mov    %eax,(%esp)
   12992:	e8 39 4b ff ff       	call   74d0 <_ZdlPv@plt>
   12997:	e8 64 4f ff ff       	call   7900 <__cxa_rethrow@plt>
   1299c:	90                   	nop
   1299d:	90                   	nop
   1299e:	90                   	nop
   1299f:	90                   	nop

000129a0 <_ZNSt6vectorI4FaceSaIS0_EEaSERKS2_>:
   129a0:	55                   	push   %ebp
   129a1:	89 e5                	mov    %esp,%ebp
   129a3:	57                   	push   %edi
   129a4:	56                   	push   %esi
   129a5:	53                   	push   %ebx
   129a6:	e8 8e 54 ff ff       	call   7e39 <__i686.get_pc_thunk.bx>
   129ab:	81 c3 f9 6a 00 00    	add    $0x6af9,%ebx
   129b1:	8d 64 24 b4          	lea    -0x4c(%esp),%esp
   129b5:	8b 45 08             	mov    0x8(%ebp),%eax
   129b8:	39 45 0c             	cmp    %eax,0xc(%ebp)
   129bb:	0f 84 e4 00 00 00    	je     12aa5 <_ZNSt6vectorI4FaceSaIS0_EEaSERKS2_+0x105>
   129c1:	8b 55 0c             	mov    0xc(%ebp),%edx
   129c4:	8b 4d 0c             	mov    0xc(%ebp),%ecx
   129c7:	8b 52 04             	mov    0x4(%edx),%edx
   129ca:	8b 31                	mov    (%ecx),%esi
   129cc:	89 d7                	mov    %edx,%edi
   129ce:	8b 4d 08             	mov    0x8(%ebp),%ecx
   129d1:	29 f7                	sub    %esi,%edi
   129d3:	89 55 dc             	mov    %edx,-0x24(%ebp)
   129d6:	c1 ff 02             	sar    $0x2,%edi
   129d9:	69 c7 b7 6d db b6    	imul   $0xb6db6db7,%edi,%eax
   129df:	8b 11                	mov    (%ecx),%edx
   129e1:	89 45 d8             	mov    %eax,-0x28(%ebp)
   129e4:	89 45 c4             	mov    %eax,-0x3c(%ebp)
   129e7:	8b 41 08             	mov    0x8(%ecx),%eax
   129ea:	29 d0                	sub    %edx,%eax
   129ec:	c1 f8 02             	sar    $0x2,%eax
   129ef:	69 c0 b7 6d db b6    	imul   $0xb6db6db7,%eax,%eax
   129f5:	39 45 d8             	cmp    %eax,-0x28(%ebp)
   129f8:	0f 87 fa 01 00 00    	ja     12bf8 <_ZNSt6vectorI4FaceSaIS0_EEaSERKS2_+0x258>
   129fe:	8b 4d 08             	mov    0x8(%ebp),%ecx
   12a01:	8b 49 04             	mov    0x4(%ecx),%ecx
   12a04:	89 4d d4             	mov    %ecx,-0x2c(%ebp)
   12a07:	29 d1                	sub    %edx,%ecx
   12a09:	c1 f9 02             	sar    $0x2,%ecx
   12a0c:	69 c1 b7 6d db b6    	imul   $0xb6db6db7,%ecx,%eax
   12a12:	39 45 d8             	cmp    %eax,-0x28(%ebp)
   12a15:	0f 87 9d 00 00 00    	ja     12ab8 <_ZNSt6vectorI4FaceSaIS0_EEaSERKS2_+0x118>
   12a1b:	8b 4d d8             	mov    -0x28(%ebp),%ecx
   12a1e:	85 c9                	test   %ecx,%ecx
   12a20:	7e 52                	jle    12a74 <_ZNSt6vectorI4FaceSaIS0_EEaSERKS2_+0xd4>
   12a22:	89 d7                	mov    %edx,%edi
   12a24:	89 55 e4             	mov    %edx,-0x1c(%ebp)
   12a27:	8b 4d c4             	mov    -0x3c(%ebp),%ecx
   12a2a:	8d b6 00 00 00 00    	lea    0x0(%esi),%esi
   12a30:	8b 06                	mov    (%esi),%eax
   12a32:	89 07                	mov    %eax,(%edi)
   12a34:	8d 46 04             	lea    0x4(%esi),%eax
   12a37:	89 4d d0             	mov    %ecx,-0x30(%ebp)
   12a3a:	89 44 24 04          	mov    %eax,0x4(%esp)
   12a3e:	8d 47 04             	lea    0x4(%edi),%eax
   12a41:	89 04 24             	mov    %eax,(%esp)
   12a44:	e8 47 4c ff ff       	call   7690 <_ZNSt6vectorIiSaIiEEaSERKS1_@plt>
   12a49:	8b 46 10             	mov    0x10(%esi),%eax
   12a4c:	89 47 10             	mov    %eax,0x10(%edi)
   12a4f:	8b 46 14             	mov    0x14(%esi),%eax
   12a52:	89 47 14             	mov    %eax,0x14(%edi)
   12a55:	8b 46 18             	mov    0x18(%esi),%eax
   12a58:	89 47 18             	mov    %eax,0x18(%edi)
   12a5b:	8b 4d d0             	mov    -0x30(%ebp),%ecx
   12a5e:	83 e9 01             	sub    $0x1,%ecx
   12a61:	8d 76 1c             	lea    0x1c(%esi),%esi
   12a64:	85 c9                	test   %ecx,%ecx
   12a66:	8d 7f 1c             	lea    0x1c(%edi),%edi
   12a69:	7f c5                	jg     12a30 <_ZNSt6vectorI4FaceSaIS0_EEaSERKS2_+0x90>
   12a6b:	6b 45 d8 1c          	imul   $0x1c,-0x28(%ebp),%eax
   12a6f:	8b 55 e4             	mov    -0x1c(%ebp),%edx
   12a72:	01 c2                	add    %eax,%edx
   12a74:	3b 55 d4             	cmp    -0x2c(%ebp),%edx
   12a77:	74 1d                	je     12a96 <_ZNSt6vectorI4FaceSaIS0_EEaSERKS2_+0xf6>
   12a79:	89 d6                	mov    %edx,%esi
   12a7b:	8b 7d d4             	mov    -0x2c(%ebp),%edi
   12a7e:	66 90                	xchg   %ax,%ax
   12a80:	8b 46 04             	mov    0x4(%esi),%eax
   12a83:	85 c0                	test   %eax,%eax
   12a85:	74 08                	je     12a8f <_ZNSt6vectorI4FaceSaIS0_EEaSERKS2_+0xef>
   12a87:	89 04 24             	mov    %eax,(%esp)
   12a8a:	e8 41 4a ff ff       	call   74d0 <_ZdlPv@plt>
   12a8f:	8d 76 1c             	lea    0x1c(%esi),%esi
   12a92:	39 f7                	cmp    %esi,%edi
   12a94:	75 ea                	jne    12a80 <_ZNSt6vectorI4FaceSaIS0_EEaSERKS2_+0xe0>
   12a96:	8b 45 08             	mov    0x8(%ebp),%eax
   12a99:	6b 55 d8 1c          	imul   $0x1c,-0x28(%ebp),%edx
   12a9d:	03 10                	add    (%eax),%edx
   12a9f:	8b 4d 08             	mov    0x8(%ebp),%ecx
   12aa2:	89 51 04             	mov    %edx,0x4(%ecx)
   12aa5:	8b 45 08             	mov    0x8(%ebp),%eax
   12aa8:	8d 64 24 4c          	lea    0x4c(%esp),%esp
   12aac:	5b                   	pop    %ebx
   12aad:	5e                   	pop    %esi
   12aae:	5f                   	pop    %edi
   12aaf:	5d                   	pop    %ebp
   12ab0:	c3                   	ret    
   12ab1:	8d b4 26 00 00 00 00 	lea    0x0(%esi,%eiz,1),%esi
   12ab8:	8d 3c 8e             	lea    (%esi,%ecx,4),%edi
   12abb:	69 c9 b7 6d db b6    	imul   $0xb6db6db7,%ecx,%ecx
   12ac1:	85 c9                	test   %ecx,%ecx
   12ac3:	7e 62                	jle    12b27 <_ZNSt6vectorI4FaceSaIS0_EEaSERKS2_+0x187>
   12ac5:	89 d7                	mov    %edx,%edi
   12ac7:	90                   	nop
   12ac8:	8b 06                	mov    (%esi),%eax
   12aca:	89 07                	mov    %eax,(%edi)
   12acc:	8d 46 04             	lea    0x4(%esi),%eax
   12acf:	89 4d d0             	mov    %ecx,-0x30(%ebp)
   12ad2:	89 44 24 04          	mov    %eax,0x4(%esp)
   12ad6:	8d 47 04             	lea    0x4(%edi),%eax
   12ad9:	89 04 24             	mov    %eax,(%esp)
   12adc:	e8 af 4b ff ff       	call   7690 <_ZNSt6vectorIiSaIiEEaSERKS1_@plt>
   12ae1:	8b 46 10             	mov    0x10(%esi),%eax
   12ae4:	89 47 10             	mov    %eax,0x10(%edi)
   12ae7:	8b 46 14             	mov    0x14(%esi),%eax
   12aea:	89 47 14             	mov    %eax,0x14(%edi)
   12aed:	8b 46 18             	mov    0x18(%esi),%eax
   12af0:	89 47 18             	mov    %eax,0x18(%edi)
   12af3:	8b 4d d0             	mov    -0x30(%ebp),%ecx
   12af6:	83 e9 01             	sub    $0x1,%ecx
   12af9:	8d 76 1c             	lea    0x1c(%esi),%esi
   12afc:	85 c9                	test   %ecx,%ecx
   12afe:	8d 7f 1c             	lea    0x1c(%edi),%edi
   12b01:	7f c5                	jg     12ac8 <_ZNSt6vectorI4FaceSaIS0_EEaSERKS2_+0x128>
   12b03:	8b 4d 0c             	mov    0xc(%ebp),%ecx
   12b06:	8b 55 08             	mov    0x8(%ebp),%edx
   12b09:	8b 45 08             	mov    0x8(%ebp),%eax
   12b0c:	8b 49 04             	mov    0x4(%ecx),%ecx
   12b0f:	8b 52 04             	mov    0x4(%edx),%edx
   12b12:	89 4d dc             	mov    %ecx,-0x24(%ebp)
   12b15:	8b 4d 0c             	mov    0xc(%ebp),%ecx
   12b18:	89 55 d4             	mov    %edx,-0x2c(%ebp)
   12b1b:	8b 10                	mov    (%eax),%edx
   12b1d:	8b 7d d4             	mov    -0x2c(%ebp),%edi
   12b20:	29 d7                	sub    %edx,%edi
   12b22:	83 e7 fc             	and    $0xfffffffc,%edi
   12b25:	03 39                	add    (%ecx),%edi
   12b27:	8b 45 d4             	mov    -0x2c(%ebp),%eax
   12b2a:	39 7d dc             	cmp    %edi,-0x24(%ebp)
   12b2d:	89 45 e4             	mov    %eax,-0x1c(%ebp)
   12b30:	89 c6                	mov    %eax,%esi
   12b32:	0f 84 00 02 00 00    	je     12d38 <_ZNSt6vectorI4FaceSaIS0_EEaSERKS2_+0x398>
   12b38:	85 f6                	test   %esi,%esi
   12b3a:	0f 84 94 00 00 00    	je     12bd4 <_ZNSt6vectorI4FaceSaIS0_EEaSERKS2_+0x234>
   12b40:	8b 07                	mov    (%edi),%eax
   12b42:	31 d2                	xor    %edx,%edx
   12b44:	89 06                	mov    %eax,(%esi)
   12b46:	8b 47 08             	mov    0x8(%edi),%eax
   12b49:	2b 47 04             	sub    0x4(%edi),%eax
   12b4c:	c7 46 08 00 00 00 00 	movl   $0x0,0x8(%esi)
   12b53:	c1 f8 02             	sar    $0x2,%eax
   12b56:	c7 46 04 00 00 00 00 	movl   $0x0,0x4(%esi)
   12b5d:	c7 46 0c 00 00 00 00 	movl   $0x0,0xc(%esi)
   12b64:	c7 45 e0 00 00 00 00 	movl   $0x0,-0x20(%ebp)
   12b6b:	74 1b                	je     12b88 <_ZNSt6vectorI4FaceSaIS0_EEaSERKS2_+0x1e8>
   12b6d:	3d ff ff ff 3f       	cmp    $0x3fffffff,%eax
   12b72:	0f 87 cb 01 00 00    	ja     12d43 <_ZNSt6vectorI4FaceSaIS0_EEaSERKS2_+0x3a3>
   12b78:	c1 e0 02             	shl    $0x2,%eax
   12b7b:	89 45 e0             	mov    %eax,-0x20(%ebp)
   12b7e:	89 04 24             	mov    %eax,(%esp)
   12b81:	e8 ca 42 ff ff       	call   6e50 <_Znwj@plt>
   12b86:	89 c2                	mov    %eax,%edx
   12b88:	8b 45 e0             	mov    -0x20(%ebp),%eax
   12b8b:	89 56 04             	mov    %edx,0x4(%esi)
   12b8e:	01 d0                	add    %edx,%eax
   12b90:	89 56 08             	mov    %edx,0x8(%esi)
   12b93:	89 46 0c             	mov    %eax,0xc(%esi)
   12b96:	8b 4f 08             	mov    0x8(%edi),%ecx
   12b99:	8b 47 04             	mov    0x4(%edi),%eax
   12b9c:	89 14 24             	mov    %edx,(%esp)
   12b9f:	29 c1                	sub    %eax,%ecx
   12ba1:	89 55 cc             	mov    %edx,-0x34(%ebp)
   12ba4:	83 e1 fc             	and    $0xfffffffc,%ecx
   12ba7:	89 44 24 04          	mov    %eax,0x4(%esp)
   12bab:	89 4c 24 08          	mov    %ecx,0x8(%esp)
   12baf:	89 4d d0             	mov    %ecx,-0x30(%ebp)
   12bb2:	e8 49 50 ff ff       	call   7c00 <memmove@plt>
   12bb7:	8b 47 10             	mov    0x10(%edi),%eax
   12bba:	8b 55 cc             	mov    -0x34(%ebp),%edx
   12bbd:	89 46 10             	mov    %eax,0x10(%esi)
   12bc0:	8b 4d d0             	mov    -0x30(%ebp),%ecx
   12bc3:	8b 47 14             	mov    0x14(%edi),%eax
   12bc6:	01 ca                	add    %ecx,%edx
   12bc8:	89 46 14             	mov    %eax,0x14(%esi)
   12bcb:	8b 47 18             	mov    0x18(%edi),%eax
   12bce:	89 56 08             	mov    %edx,0x8(%esi)
   12bd1:	89 46 18             	mov    %eax,0x18(%esi)
   12bd4:	83 45 e4 1c          	addl   $0x1c,-0x1c(%ebp)
   12bd8:	8d 7f 1c             	lea    0x1c(%edi),%edi
   12bdb:	3b 7d dc             	cmp    -0x24(%ebp),%edi
   12bde:	8b 75 e4             	mov    -0x1c(%ebp),%esi
   12be1:	0f 85 51 ff ff ff    	jne    12b38 <_ZNSt6vectorI4FaceSaIS0_EEaSERKS2_+0x198>
   12be7:	8b 4d 08             	mov    0x8(%ebp),%ecx
   12bea:	6b 55 d8 1c          	imul   $0x1c,-0x28(%ebp),%edx
   12bee:	03 11                	add    (%ecx),%edx
   12bf0:	e9 aa fe ff ff       	jmp    12a9f <_ZNSt6vectorI4FaceSaIS0_EEaSERKS2_+0xff>
   12bf5:	8d 76 00             	lea    0x0(%esi),%esi
   12bf8:	8b 45 d8             	mov    -0x28(%ebp),%eax
   12bfb:	c7 45 d4 00 00 00 00 	movl   $0x0,-0x2c(%ebp)
   12c02:	85 c0                	test   %eax,%eax
   12c04:	74 1b                	je     12c21 <_ZNSt6vectorI4FaceSaIS0_EEaSERKS2_+0x281>
   12c06:	81 7d d8 49 92 24 09 	cmpl   $0x9249249,-0x28(%ebp)
   12c0d:	0f 87 3a 01 00 00    	ja     12d4d <_ZNSt6vectorI4FaceSaIS0_EEaSERKS2_+0x3ad>
   12c13:	c1 e7 02             	shl    $0x2,%edi
   12c16:	89 3c 24             	mov    %edi,(%esp)
   12c19:	e8 32 42 ff ff       	call   6e50 <_Znwj@plt>
   12c1e:	89 45 d4             	mov    %eax,-0x2c(%ebp)
   12c21:	39 75 dc             	cmp    %esi,-0x24(%ebp)
   12c24:	0f 84 bd 00 00 00    	je     12ce7 <_ZNSt6vectorI4FaceSaIS0_EEaSERKS2_+0x347>
   12c2a:	8b 45 d4             	mov    -0x2c(%ebp),%eax
   12c2d:	89 45 e4             	mov    %eax,-0x1c(%ebp)
   12c30:	89 c7                	mov    %eax,%edi
   12c32:	8d b6 00 00 00 00    	lea    0x0(%esi),%esi
   12c38:	85 ff                	test   %edi,%edi
   12c3a:	0f 84 94 00 00 00    	je     12cd4 <_ZNSt6vectorI4FaceSaIS0_EEaSERKS2_+0x334>
   12c40:	8b 06                	mov    (%esi),%eax
   12c42:	31 d2                	xor    %edx,%edx
   12c44:	89 07                	mov    %eax,(%edi)
   12c46:	8b 46 08             	mov    0x8(%esi),%eax
   12c49:	2b 46 04             	sub    0x4(%esi),%eax
   12c4c:	c7 47 08 00 00 00 00 	movl   $0x0,0x8(%edi)
   12c53:	c1 f8 02             	sar    $0x2,%eax
   12c56:	c7 47 04 00 00 00 00 	movl   $0x0,0x4(%edi)
   12c5d:	c7 47 0c 00 00 00 00 	movl   $0x0,0xc(%edi)
   12c64:	c7 45 e0 00 00 00 00 	movl   $0x0,-0x20(%ebp)
   12c6b:	74 1b                	je     12c88 <_ZNSt6vectorI4FaceSaIS0_EEaSERKS2_+0x2e8>
   12c6d:	3d ff ff ff 3f       	cmp    $0x3fffffff,%eax
   12c72:	0f 87 d0 00 00 00    	ja     12d48 <_ZNSt6vectorI4FaceSaIS0_EEaSERKS2_+0x3a8>
   12c78:	c1 e0 02             	shl    $0x2,%eax
   12c7b:	89 45 e0             	mov    %eax,-0x20(%ebp)
   12c7e:	89 04 24             	mov    %eax,(%esp)
   12c81:	e8 ca 41 ff ff       	call   6e50 <_Znwj@plt>
   12c86:	89 c2                	mov    %eax,%edx
   12c88:	8b 45 e0             	mov    -0x20(%ebp),%eax
   12c8b:	89 57 04             	mov    %edx,0x4(%edi)
   12c8e:	01 d0                	add    %edx,%eax
   12c90:	89 57 08             	mov    %edx,0x8(%edi)
   12c93:	89 47 0c             	mov    %eax,0xc(%edi)
   12c96:	8b 4e 08             	mov    0x8(%esi),%ecx
   12c99:	8b 46 04             	mov    0x4(%esi),%eax
   12c9c:	89 14 24             	mov    %edx,(%esp)
   12c9f:	29 c1                	sub    %eax,%ecx
   12ca1:	89 55 cc             	mov    %edx,-0x34(%ebp)
   12ca4:	83 e1 fc             	and    $0xfffffffc,%ecx
   12ca7:	89 44 24 04          	mov    %eax,0x4(%esp)
   12cab:	89 4c 24 08          	mov    %ecx,0x8(%esp)
   12caf:	89 4d d0             	mov    %ecx,-0x30(%ebp)
   12cb2:	e8 49 4f ff ff       	call   7c00 <memmove@plt>
   12cb7:	8b 46 10             	mov    0x10(%esi),%eax
   12cba:	8b 55 cc             	mov    -0x34(%ebp),%edx
   12cbd:	89 47 10             	mov    %eax,0x10(%edi)
   12cc0:	8b 4d d0             	mov    -0x30(%ebp),%ecx
   12cc3:	8b 46 14             	mov    0x14(%esi),%eax
   12cc6:	01 ca                	add    %ecx,%edx
   12cc8:	89 47 14             	mov    %eax,0x14(%edi)
   12ccb:	8b 46 18             	mov    0x18(%esi),%eax
   12cce:	89 57 08             	mov    %edx,0x8(%edi)
   12cd1:	89 47 18             	mov    %eax,0x18(%edi)
   12cd4:	83 45 e4 1c          	addl   $0x1c,-0x1c(%ebp)
   12cd8:	8d 76 1c             	lea    0x1c(%esi),%esi
   12cdb:	39 75 dc             	cmp    %esi,-0x24(%ebp)
   12cde:	8b 7d e4             	mov    -0x1c(%ebp),%edi
   12ce1:	0f 85 51 ff ff ff    	jne    12c38 <_ZNSt6vectorI4FaceSaIS0_EEaSERKS2_+0x298>
   12ce7:	8b 55 08             	mov    0x8(%ebp),%edx
   12cea:	8b 7a 04             	mov    0x4(%edx),%edi
   12ced:	8b 32                	mov    (%edx),%esi
   12cef:	39 f7                	cmp    %esi,%edi
   12cf1:	74 20                	je     12d13 <_ZNSt6vectorI4FaceSaIS0_EEaSERKS2_+0x373>
   12cf3:	90                   	nop
   12cf4:	8d 74 26 00          	lea    0x0(%esi,%eiz,1),%esi
   12cf8:	8b 46 04             	mov    0x4(%esi),%eax
   12cfb:	85 c0                	test   %eax,%eax
   12cfd:	74 08                	je     12d07 <_ZNSt6vectorI4FaceSaIS0_EEaSERKS2_+0x367>
   12cff:	89 04 24             	mov    %eax,(%esp)
   12d02:	e8 c9 47 ff ff       	call   74d0 <_ZdlPv@plt>
   12d07:	8d 76 1c             	lea    0x1c(%esi),%esi
   12d0a:	39 f7                	cmp    %esi,%edi
   12d0c:	75 ea                	jne    12cf8 <_ZNSt6vectorI4FaceSaIS0_EEaSERKS2_+0x358>
   12d0e:	8b 45 08             	mov    0x8(%ebp),%eax
   12d11:	8b 38                	mov    (%eax),%edi
   12d13:	85 ff                	test   %edi,%edi
   12d15:	74 08                	je     12d1f <_ZNSt6vectorI4FaceSaIS0_EEaSERKS2_+0x37f>
   12d17:	89 3c 24             	mov    %edi,(%esp)
   12d1a:	e8 b1 47 ff ff       	call   74d0 <_ZdlPv@plt>
   12d1f:	8b 55 08             	mov    0x8(%ebp),%edx
   12d22:	8b 4d d4             	mov    -0x2c(%ebp),%ecx
   12d25:	8b 45 08             	mov    0x8(%ebp),%eax
   12d28:	89 0a                	mov    %ecx,(%edx)
   12d2a:	6b 55 d8 1c          	imul   $0x1c,-0x28(%ebp),%edx
   12d2e:	01 ca                	add    %ecx,%edx
   12d30:	89 50 08             	mov    %edx,0x8(%eax)
   12d33:	e9 67 fd ff ff       	jmp    12a9f <_ZNSt6vectorI4FaceSaIS0_EEaSERKS2_+0xff>
   12d38:	6b 45 d8 1c          	imul   $0x1c,-0x28(%ebp),%eax
   12d3c:	01 c2                	add    %eax,%edx
   12d3e:	e9 5c fd ff ff       	jmp    12a9f <_ZNSt6vectorI4FaceSaIS0_EEaSERKS2_+0xff>
   12d43:	e8 68 43 ff ff       	call   70b0 <_ZSt17__throw_bad_allocv@plt>
   12d48:	e8 63 43 ff ff       	call   70b0 <_ZSt17__throw_bad_allocv@plt>
   12d4d:	8d 76 00             	lea    0x0(%esi),%esi
   12d50:	e8 5b 43 ff ff       	call   70b0 <_ZSt17__throw_bad_allocv@plt>
   12d55:	89 04 24             	mov    %eax,(%esp)
   12d58:	e8 73 43 ff ff       	call   70d0 <__cxa_begin_catch@plt>
   12d5d:	8b 75 d4             	mov    -0x2c(%ebp),%esi
   12d60:	39 f7                	cmp    %esi,%edi
   12d62:	74 14                	je     12d78 <_ZNSt6vectorI4FaceSaIS0_EEaSERKS2_+0x3d8>
   12d64:	8b 46 04             	mov    0x4(%esi),%eax
   12d67:	85 c0                	test   %eax,%eax
   12d69:	74 08                	je     12d73 <_ZNSt6vectorI4FaceSaIS0_EEaSERKS2_+0x3d3>
   12d6b:	89 04 24             	mov    %eax,(%esp)
   12d6e:	e8 5d 47 ff ff       	call   74d0 <_ZdlPv@plt>
   12d73:	8d 76 1c             	lea    0x1c(%esi),%esi
   12d76:	eb e8                	jmp    12d60 <_ZNSt6vectorI4FaceSaIS0_EEaSERKS2_+0x3c0>
   12d78:	e8 83 4b ff ff       	call   7900 <__cxa_rethrow@plt>
   12d7d:	89 04 24             	mov    %eax,(%esp)
   12d80:	e8 4b 43 ff ff       	call   70d0 <__cxa_begin_catch@plt>
   12d85:	8b 7d d4             	mov    -0x2c(%ebp),%edi
   12d88:	39 fe                	cmp    %edi,%esi
   12d8a:	74 14                	je     12da0 <_ZNSt6vectorI4FaceSaIS0_EEaSERKS2_+0x400>
   12d8c:	8b 47 04             	mov    0x4(%edi),%eax
   12d8f:	85 c0                	test   %eax,%eax
   12d91:	74 08                	je     12d9b <_ZNSt6vectorI4FaceSaIS0_EEaSERKS2_+0x3fb>
   12d93:	89 04 24             	mov    %eax,(%esp)
   12d96:	e8 35 47 ff ff       	call   74d0 <_ZdlPv@plt>
   12d9b:	8d 7f 1c             	lea    0x1c(%edi),%edi
   12d9e:	eb e8                	jmp    12d88 <_ZNSt6vectorI4FaceSaIS0_EEaSERKS2_+0x3e8>
   12da0:	e8 5b 4b ff ff       	call   7900 <__cxa_rethrow@plt>
   12da5:	89 45 d0             	mov    %eax,-0x30(%ebp)
   12da8:	e8 f3 4c ff ff       	call   7aa0 <__cxa_end_catch@plt>
   12dad:	8b 45 d0             	mov    -0x30(%ebp),%eax
   12db0:	89 04 24             	mov    %eax,(%esp)
   12db3:	e8 18 43 ff ff       	call   70d0 <__cxa_begin_catch@plt>
   12db8:	83 7d d4 00          	cmpl   $0x0,-0x2c(%ebp)
   12dbc:	74 0b                	je     12dc9 <_ZNSt6vectorI4FaceSaIS0_EEaSERKS2_+0x429>
   12dbe:	8b 4d d4             	mov    -0x2c(%ebp),%ecx
   12dc1:	89 0c 24             	mov    %ecx,(%esp)
   12dc4:	e8 07 47 ff ff       	call   74d0 <_ZdlPv@plt>
   12dc9:	e8 32 4b ff ff       	call   7900 <__cxa_rethrow@plt>
   12dce:	89 45 d0             	mov    %eax,-0x30(%ebp)
   12dd1:	e8 ca 4c ff ff       	call   7aa0 <__cxa_end_catch@plt>
   12dd6:	8b 45 d0             	mov    -0x30(%ebp),%eax
   12dd9:	89 04 24             	mov    %eax,(%esp)
   12ddc:	e8 9f 4d ff ff       	call   7b80 <_Unwind_Resume@plt>
   12de1:	eb eb                	jmp    12dce <_ZNSt6vectorI4FaceSaIS0_EEaSERKS2_+0x42e>
   12de3:	90                   	nop
   12de4:	90                   	nop
   12de5:	90                   	nop
   12de6:	90                   	nop
   12de7:	90                   	nop
   12de8:	90                   	nop
   12de9:	90                   	nop
   12dea:	90                   	nop
   12deb:	90                   	nop
   12dec:	90                   	nop
   12ded:	90                   	nop
   12dee:	90                   	nop
   12def:	90                   	nop

00012df0 <_ZSt22__uninitialized_move_aIP5ModelS1_SaIS0_EET0_T_S4_S3_RT1_>:
   12df0:	55                   	push   %ebp
   12df1:	89 e5                	mov    %esp,%ebp
   12df3:	57                   	push   %edi
   12df4:	56                   	push   %esi
   12df5:	53                   	push   %ebx
   12df6:	e8 3e 50 ff ff       	call   7e39 <__i686.get_pc_thunk.bx>
   12dfb:	81 c3 a9 66 00 00    	add    $0x66a9,%ebx
   12e01:	8d 64 24 b4          	lea    -0x4c(%esp),%esp
   12e05:	8b 45 0c             	mov    0xc(%ebp),%eax
   12e08:	39 45 08             	cmp    %eax,0x8(%ebp)
   12e0b:	0f 84 63 02 00 00    	je     13074 <_ZSt22__uninitialized_move_aIP5ModelS1_SaIS0_EET0_T_S4_S3_RT1_+0x284>
   12e11:	8b 55 10             	mov    0x10(%ebp),%edx
   12e14:	89 55 d4             	mov    %edx,-0x2c(%ebp)
   12e17:	89 55 d8             	mov    %edx,-0x28(%ebp)
   12e1a:	8d b6 00 00 00 00    	lea    0x0(%esi),%esi
   12e20:	8b 55 d8             	mov    -0x28(%ebp),%edx
   12e23:	85 d2                	test   %edx,%edx
   12e25:	0f 84 2c 02 00 00    	je     13057 <_ZSt22__uninitialized_move_aIP5ModelS1_SaIS0_EET0_T_S4_S3_RT1_+0x267>
   12e2b:	8b 4d 08             	mov    0x8(%ebp),%ecx
   12e2e:	8b 45 d8             	mov    -0x28(%ebp),%eax
   12e31:	31 f6                	xor    %esi,%esi
   12e33:	8b 51 04             	mov    0x4(%ecx),%edx
   12e36:	2b 11                	sub    (%ecx),%edx
   12e38:	c1 fa 02             	sar    $0x2,%edx
   12e3b:	c7 00 00 00 00 00    	movl   $0x0,(%eax)
   12e41:	69 ca ab aa aa aa    	imul   $0xaaaaaaab,%edx,%ecx
   12e47:	c7 40 04 00 00 00 00 	movl   $0x0,0x4(%eax)
   12e4e:	c7 40 08 00 00 00 00 	movl   $0x0,0x8(%eax)
   12e55:	31 c0                	xor    %eax,%eax
   12e57:	85 c9                	test   %ecx,%ecx
   12e59:	74 1b                	je     12e76 <_ZSt22__uninitialized_move_aIP5ModelS1_SaIS0_EET0_T_S4_S3_RT1_+0x86>
   12e5b:	81 f9 55 55 55 15    	cmp    $0x15555555,%ecx
   12e61:	0f 87 a0 02 00 00    	ja     13107 <_ZSt22__uninitialized_move_aIP5ModelS1_SaIS0_EET0_T_S4_S3_RT1_+0x317>
   12e67:	8d 34 95 00 00 00 00 	lea    0x0(,%edx,4),%esi
   12e6e:	89 34 24             	mov    %esi,(%esp)
   12e71:	e8 da 3f ff ff       	call   6e50 <_Znwj@plt>
   12e76:	8b 55 d8             	mov    -0x28(%ebp),%edx
   12e79:	8b 4d 08             	mov    0x8(%ebp),%ecx
   12e7c:	8d 34 30             	lea    (%eax,%esi,1),%esi
   12e7f:	89 42 04             	mov    %eax,0x4(%edx)
   12e82:	89 02                	mov    %eax,(%edx)
   12e84:	89 72 08             	mov    %esi,0x8(%edx)
   12e87:	8b 11                	mov    (%ecx),%edx
   12e89:	8b 79 04             	mov    0x4(%ecx),%edi
   12e8c:	89 d1                	mov    %edx,%ecx
   12e8e:	39 cf                	cmp    %ecx,%edi
   12e90:	89 55 e4             	mov    %edx,-0x1c(%ebp)
   12e93:	89 c2                	mov    %eax,%edx
   12e95:	74 3d                	je     12ed4 <_ZSt22__uninitialized_move_aIP5ModelS1_SaIS0_EET0_T_S4_S3_RT1_+0xe4>
   12e97:	90                   	nop
   12e98:	85 d2                	test   %edx,%edx
   12e9a:	74 10                	je     12eac <_ZSt22__uninitialized_move_aIP5ModelS1_SaIS0_EET0_T_S4_S3_RT1_+0xbc>
   12e9c:	8b 31                	mov    (%ecx),%esi
   12e9e:	89 32                	mov    %esi,(%edx)
   12ea0:	8b 71 04             	mov    0x4(%ecx),%esi
   12ea3:	89 72 04             	mov    %esi,0x4(%edx)
   12ea6:	8b 71 08             	mov    0x8(%ecx),%esi
   12ea9:	89 72 08             	mov    %esi,0x8(%edx)
   12eac:	8d 49 0c             	lea    0xc(%ecx),%ecx
   12eaf:	8d 52 0c             	lea    0xc(%edx),%edx
   12eb2:	39 cf                	cmp    %ecx,%edi
   12eb4:	75 e2                	jne    12e98 <_ZSt22__uninitialized_move_aIP5ModelS1_SaIS0_EET0_T_S4_S3_RT1_+0xa8>
   12eb6:	8b 55 e4             	mov    -0x1c(%ebp),%edx
   12eb9:	83 c2 0c             	add    $0xc,%edx
   12ebc:	29 d7                	sub    %edx,%edi
   12ebe:	c1 ef 02             	shr    $0x2,%edi
   12ec1:	69 d7 ab aa aa 2a    	imul   $0x2aaaaaab,%edi,%edx
   12ec7:	81 e2 ff ff ff 3f    	and    $0x3fffffff,%edx
   12ecd:	8d 54 52 03          	lea    0x3(%edx,%edx,2),%edx
   12ed1:	8d 04 90             	lea    (%eax,%edx,4),%eax
   12ed4:	8b 4d d8             	mov    -0x28(%ebp),%ecx
   12ed7:	8b 55 08             	mov    0x8(%ebp),%edx
   12eda:	31 f6                	xor    %esi,%esi
   12edc:	31 ff                	xor    %edi,%edi
   12ede:	89 41 04             	mov    %eax,0x4(%ecx)
   12ee1:	83 c1 0c             	add    $0xc,%ecx
   12ee4:	89 4d d0             	mov    %ecx,-0x30(%ebp)
   12ee7:	8b 42 10             	mov    0x10(%edx),%eax
   12eea:	2b 42 0c             	sub    0xc(%edx),%eax
   12eed:	8b 4d d8             	mov    -0x28(%ebp),%ecx
   12ef0:	c1 f8 02             	sar    $0x2,%eax
   12ef3:	69 d0 b7 6d db b6    	imul   $0xb6db6db7,%eax,%edx
   12ef9:	c7 41 0c 00 00 00 00 	movl   $0x0,0xc(%ecx)
   12f00:	85 d2                	test   %edx,%edx
   12f02:	c7 41 10 00 00 00 00 	movl   $0x0,0x10(%ecx)
   12f09:	c7 41 14 00 00 00 00 	movl   $0x0,0x14(%ecx)
   12f10:	74 1d                	je     12f2f <_ZSt22__uninitialized_move_aIP5ModelS1_SaIS0_EET0_T_S4_S3_RT1_+0x13f>
   12f12:	81 fa 49 92 24 09    	cmp    $0x9249249,%edx
   12f18:	0f 87 ee 01 00 00    	ja     1310c <_ZSt22__uninitialized_move_aIP5ModelS1_SaIS0_EET0_T_S4_S3_RT1_+0x31c>
   12f1e:	8d 34 85 00 00 00 00 	lea    0x0(,%eax,4),%esi
   12f25:	89 34 24             	mov    %esi,(%esp)
   12f28:	e8 23 3f ff ff       	call   6e50 <_Znwj@plt>
   12f2d:	89 c7                	mov    %eax,%edi
   12f2f:	8b 45 d8             	mov    -0x28(%ebp),%eax
   12f32:	8b 55 08             	mov    0x8(%ebp),%edx
   12f35:	8b 4d 08             	mov    0x8(%ebp),%ecx
   12f38:	89 7d cc             	mov    %edi,-0x34(%ebp)
   12f3b:	8d 34 37             	lea    (%edi,%esi,1),%esi
   12f3e:	89 78 10             	mov    %edi,0x10(%eax)
   12f41:	8b 52 10             	mov    0x10(%edx),%edx
   12f44:	89 78 0c             	mov    %edi,0xc(%eax)
   12f47:	89 70 14             	mov    %esi,0x14(%eax)
   12f4a:	89 55 dc             	mov    %edx,-0x24(%ebp)
   12f4d:	8b 71 0c             	mov    0xc(%ecx),%esi
   12f50:	39 f2                	cmp    %esi,%edx
   12f52:	0f 84 b7 00 00 00    	je     1300f <_ZSt22__uninitialized_move_aIP5ModelS1_SaIS0_EET0_T_S4_S3_RT1_+0x21f>
   12f58:	89 7d e4             	mov    %edi,-0x1c(%ebp)
   12f5b:	90                   	nop
   12f5c:	8d 74 26 00          	lea    0x0(%esi,%eiz,1),%esi
   12f60:	85 ff                	test   %edi,%edi
   12f62:	0f 84 94 00 00 00    	je     12ffc <_ZSt22__uninitialized_move_aIP5ModelS1_SaIS0_EET0_T_S4_S3_RT1_+0x20c>
   12f68:	8b 06                	mov    (%esi),%eax
   12f6a:	31 d2                	xor    %edx,%edx
   12f6c:	89 07                	mov    %eax,(%edi)
   12f6e:	8b 46 08             	mov    0x8(%esi),%eax
   12f71:	2b 46 04             	sub    0x4(%esi),%eax
   12f74:	c7 47 08 00 00 00 00 	movl   $0x0,0x8(%edi)
   12f7b:	c1 f8 02             	sar    $0x2,%eax
   12f7e:	c7 47 04 00 00 00 00 	movl   $0x0,0x4(%edi)
   12f85:	c7 47 0c 00 00 00 00 	movl   $0x0,0xc(%edi)
   12f8c:	c7 45 e0 00 00 00 00 	movl   $0x0,-0x20(%ebp)
   12f93:	74 1b                	je     12fb0 <_ZSt22__uninitialized_move_aIP5ModelS1_SaIS0_EET0_T_S4_S3_RT1_+0x1c0>
   12f95:	3d ff ff ff 3f       	cmp    $0x3fffffff,%eax
   12f9a:	0f 87 e0 00 00 00    	ja     13080 <_ZSt22__uninitialized_move_aIP5ModelS1_SaIS0_EET0_T_S4_S3_RT1_+0x290>
   12fa0:	c1 e0 02             	shl    $0x2,%eax
   12fa3:	89 45 e0             	mov    %eax,-0x20(%ebp)
   12fa6:	89 04 24             	mov    %eax,(%esp)
   12fa9:	e8 a2 3e ff ff       	call   6e50 <_Znwj@plt>
   12fae:	89 c2                	mov    %eax,%edx
   12fb0:	89 57 04             	mov    %edx,0x4(%edi)
   12fb3:	89 57 08             	mov    %edx,0x8(%edi)
   12fb6:	8b 45 e0             	mov    -0x20(%ebp),%eax
   12fb9:	8b 4e 08             	mov    0x8(%esi),%ecx
   12fbc:	01 d0                	add    %edx,%eax
   12fbe:	89 47 0c             	mov    %eax,0xc(%edi)
   12fc1:	8b 46 04             	mov    0x4(%esi),%eax
   12fc4:	29 c1                	sub    %eax,%ecx
   12fc6:	89 14 24             	mov    %edx,(%esp)
   12fc9:	83 e1 fc             	and    $0xfffffffc,%ecx
   12fcc:	89 55 c4             	mov    %edx,-0x3c(%ebp)
   12fcf:	89 4c 24 08          	mov    %ecx,0x8(%esp)
   12fd3:	89 4d c8             	mov    %ecx,-0x38(%ebp)
   12fd6:	89 44 24 04          	mov    %eax,0x4(%esp)
   12fda:	e8 21 4c ff ff       	call   7c00 <memmove@plt>
   12fdf:	8b 46 10             	mov    0x10(%esi),%eax
   12fe2:	8b 55 c4             	mov    -0x3c(%ebp),%edx
   12fe5:	8b 4d c8             	mov    -0x38(%ebp),%ecx
   12fe8:	89 47 10             	mov    %eax,0x10(%edi)
   12feb:	8b 46 14             	mov    0x14(%esi),%eax
   12fee:	01 ca                	add    %ecx,%edx
   12ff0:	89 47 14             	mov    %eax,0x14(%edi)
   12ff3:	8b 46 18             	mov    0x18(%esi),%eax
   12ff6:	89 57 08             	mov    %edx,0x8(%edi)
   12ff9:	89 47 18             	mov    %eax,0x18(%edi)
   12ffc:	83 45 e4 1c          	addl   $0x1c,-0x1c(%ebp)
   13000:	8d 76 1c             	lea    0x1c(%esi),%esi
   13003:	39 75 dc             	cmp    %esi,-0x24(%ebp)
   13006:	8b 7d e4             	mov    -0x1c(%ebp),%edi
   13009:	0f 85 51 ff ff ff    	jne    12f60 <_ZSt22__uninitialized_move_aIP5ModelS1_SaIS0_EET0_T_S4_S3_RT1_+0x170>
   1300f:	8b 45 d8             	mov    -0x28(%ebp),%eax
   13012:	89 78 10             	mov    %edi,0x10(%eax)
   13015:	8b 45 08             	mov    0x8(%ebp),%eax
   13018:	83 c0 18             	add    $0x18,%eax
   1301b:	89 44 24 04          	mov    %eax,0x4(%esp)
   1301f:	8b 45 d8             	mov    -0x28(%ebp),%eax
   13022:	83 c0 18             	add    $0x18,%eax
   13025:	89 04 24             	mov    %eax,(%esp)
   13028:	e8 c3 41 ff ff       	call   71f0 <_ZNSsC1ERKSs@plt>
   1302d:	8b 4d 08             	mov    0x8(%ebp),%ecx
   13030:	8b 55 d8             	mov    -0x28(%ebp),%edx
   13033:	8b 41 1c             	mov    0x1c(%ecx),%eax
   13036:	89 42 1c             	mov    %eax,0x1c(%edx)
   13039:	8b 41 20             	mov    0x20(%ecx),%eax
   1303c:	89 42 20             	mov    %eax,0x20(%edx)
   1303f:	8b 41 24             	mov    0x24(%ecx),%eax
   13042:	89 42 24             	mov    %eax,0x24(%edx)
   13045:	8b 41 28             	mov    0x28(%ecx),%eax
   13048:	89 42 28             	mov    %eax,0x28(%edx)
   1304b:	8b 41 2c             	mov    0x2c(%ecx),%eax
   1304e:	89 42 2c             	mov    %eax,0x2c(%edx)
   13051:	8b 41 30             	mov    0x30(%ecx),%eax
   13054:	89 42 30             	mov    %eax,0x30(%edx)
   13057:	83 45 08 34          	addl   $0x34,0x8(%ebp)
   1305b:	83 45 d4 34          	addl   $0x34,-0x2c(%ebp)
   1305f:	8b 45 08             	mov    0x8(%ebp),%eax
   13062:	8b 4d d4             	mov    -0x2c(%ebp),%ecx
   13065:	39 45 0c             	cmp    %eax,0xc(%ebp)
   13068:	89 4d d8             	mov    %ecx,-0x28(%ebp)
   1306b:	0f 85 af fd ff ff    	jne    12e20 <_ZSt22__uninitialized_move_aIP5ModelS1_SaIS0_EET0_T_S4_S3_RT1_+0x30>
   13071:	89 4d 10             	mov    %ecx,0x10(%ebp)
   13074:	8b 45 10             	mov    0x10(%ebp),%eax
   13077:	8d 64 24 4c          	lea    0x4c(%esp),%esp
   1307b:	5b                   	pop    %ebx
   1307c:	5e                   	pop    %esi
   1307d:	5f                   	pop    %edi
   1307e:	5d                   	pop    %ebp
   1307f:	c3                   	ret    
   13080:	e8 2b 40 ff ff       	call   70b0 <_ZSt17__throw_bad_allocv@plt>
   13085:	89 04 24             	mov    %eax,(%esp)
   13088:	e8 43 40 ff ff       	call   70d0 <__cxa_begin_catch@plt>
   1308d:	8b 75 cc             	mov    -0x34(%ebp),%esi
   13090:	39 f7                	cmp    %esi,%edi
   13092:	74 14                	je     130a8 <_ZSt22__uninitialized_move_aIP5ModelS1_SaIS0_EET0_T_S4_S3_RT1_+0x2b8>
   13094:	8b 46 04             	mov    0x4(%esi),%eax
   13097:	85 c0                	test   %eax,%eax
   13099:	74 08                	je     130a3 <_ZSt22__uninitialized_move_aIP5ModelS1_SaIS0_EET0_T_S4_S3_RT1_+0x2b3>
   1309b:	89 04 24             	mov    %eax,(%esp)
   1309e:	e8 2d 44 ff ff       	call   74d0 <_ZdlPv@plt>
   130a3:	8d 76 1c             	lea    0x1c(%esi),%esi
   130a6:	eb e8                	jmp    13090 <_ZSt22__uninitialized_move_aIP5ModelS1_SaIS0_EET0_T_S4_S3_RT1_+0x2a0>
   130a8:	e8 53 48 ff ff       	call   7900 <__cxa_rethrow@plt>
   130ad:	8b 4d d0             	mov    -0x30(%ebp),%ecx
   130b0:	89 c6                	mov    %eax,%esi
   130b2:	89 0c 24             	mov    %ecx,(%esp)
   130b5:	e8 b6 49 ff ff       	call   7a70 <_ZNSt6vectorI4FaceSaIS0_EED1Ev@plt>
   130ba:	8b 55 d8             	mov    -0x28(%ebp),%edx
   130bd:	8b 02                	mov    (%edx),%eax
   130bf:	85 c0                	test   %eax,%eax
   130c1:	74 08                	je     130cb <_ZSt22__uninitialized_move_aIP5ModelS1_SaIS0_EET0_T_S4_S3_RT1_+0x2db>
   130c3:	89 04 24             	mov    %eax,(%esp)
   130c6:	e8 05 44 ff ff       	call   74d0 <_ZdlPv@plt>
   130cb:	89 34 24             	mov    %esi,(%esp)
   130ce:	e8 fd 3f ff ff       	call   70d0 <__cxa_begin_catch@plt>
   130d3:	8b 75 10             	mov    0x10(%ebp),%esi
   130d6:	39 75 d8             	cmp    %esi,-0x28(%ebp)
   130d9:	74 27                	je     13102 <_ZSt22__uninitialized_move_aIP5ModelS1_SaIS0_EET0_T_S4_S3_RT1_+0x312>
   130db:	89 34 24             	mov    %esi,(%esp)
   130de:	8d 76 34             	lea    0x34(%esi),%esi
   130e1:	e8 8a 46 ff ff       	call   7770 <_ZN5ModelD1Ev@plt>
   130e6:	eb ee                	jmp    130d6 <_ZSt22__uninitialized_move_aIP5ModelS1_SaIS0_EET0_T_S4_S3_RT1_+0x2e6>
   130e8:	89 c6                	mov    %eax,%esi
   130ea:	e8 b1 49 ff ff       	call   7aa0 <__cxa_end_catch@plt>
   130ef:	8b 55 d0             	mov    -0x30(%ebp),%edx
   130f2:	8b 02                	mov    (%edx),%eax
   130f4:	85 c0                	test   %eax,%eax
   130f6:	74 c2                	je     130ba <_ZSt22__uninitialized_move_aIP5ModelS1_SaIS0_EET0_T_S4_S3_RT1_+0x2ca>
   130f8:	89 04 24             	mov    %eax,(%esp)
   130fb:	e8 d0 43 ff ff       	call   74d0 <_ZdlPv@plt>
   13100:	eb b8                	jmp    130ba <_ZSt22__uninitialized_move_aIP5ModelS1_SaIS0_EET0_T_S4_S3_RT1_+0x2ca>
   13102:	e8 f9 47 ff ff       	call   7900 <__cxa_rethrow@plt>
   13107:	e8 a4 3f ff ff       	call   70b0 <_ZSt17__throw_bad_allocv@plt>
   1310c:	8d 74 26 00          	lea    0x0(%esi,%eiz,1),%esi
   13110:	e8 9b 3f ff ff       	call   70b0 <_ZSt17__throw_bad_allocv@plt>
   13115:	89 c6                	mov    %eax,%esi
   13117:	eb a1                	jmp    130ba <_ZSt22__uninitialized_move_aIP5ModelS1_SaIS0_EET0_T_S4_S3_RT1_+0x2ca>
   13119:	89 c6                	mov    %eax,%esi
   1311b:	eb ae                	jmp    130cb <_ZSt22__uninitialized_move_aIP5ModelS1_SaIS0_EET0_T_S4_S3_RT1_+0x2db>
   1311d:	89 c6                	mov    %eax,%esi
   1311f:	90                   	nop
   13120:	e8 7b 49 ff ff       	call   7aa0 <__cxa_end_catch@plt>
   13125:	89 34 24             	mov    %esi,(%esp)
   13128:	e8 53 4a ff ff       	call   7b80 <_Unwind_Resume@plt>
   1312d:	90                   	nop
   1312e:	90                   	nop
   1312f:	90                   	nop

00013130 <_ZNSt6vectorI5ModelSaIS0_EE13_M_insert_auxEN9__gnu_cxx17__normal_iteratorIPS0_S2_EERKS0_>:
   13130:	55                   	push   %ebp
   13131:	89 e5                	mov    %esp,%ebp
   13133:	57                   	push   %edi
   13134:	56                   	push   %esi
   13135:	53                   	push   %ebx
   13136:	e8 fe 4c ff ff       	call   7e39 <__i686.get_pc_thunk.bx>
   1313b:	81 c3 69 63 00 00    	add    $0x6369,%ebx
   13141:	8d a4 24 74 ff ff ff 	lea    -0x8c(%esp),%esp
   13148:	8b 45 08             	mov    0x8(%ebp),%eax
   1314b:	8b 55 08             	mov    0x8(%ebp),%edx
   1314e:	8b 40 04             	mov    0x4(%eax),%eax
   13151:	3b 42 08             	cmp    0x8(%edx),%eax
   13154:	89 45 98             	mov    %eax,-0x68(%ebp)
   13157:	0f 84 0b 06 00 00    	je     13768 <_ZNSt6vectorI5ModelSaIS0_EE13_M_insert_auxEN9__gnu_cxx17__normal_iteratorIPS0_S2_EERKS0_+0x638>
   1315d:	85 c0                	test   %eax,%eax
   1315f:	0f 84 bd 09 00 00    	je     13b22 <_ZNSt6vectorI5ModelSaIS0_EE13_M_insert_auxEN9__gnu_cxx17__normal_iteratorIPS0_S2_EERKS0_+0x9f2>
   13165:	8b 4d 98             	mov    -0x68(%ebp),%ecx
   13168:	8d 40 cc             	lea    -0x34(%eax),%eax
   1316b:	89 45 94             	mov    %eax,-0x6c(%ebp)
   1316e:	31 f6                	xor    %esi,%esi
   13170:	31 ff                	xor    %edi,%edi
   13172:	8b 49 cc             	mov    -0x34(%ecx),%ecx
   13175:	89 4d a4             	mov    %ecx,-0x5c(%ebp)
   13178:	8b 40 04             	mov    0x4(%eax),%eax
   1317b:	29 c8                	sub    %ecx,%eax
   1317d:	8b 4d 98             	mov    -0x68(%ebp),%ecx
   13180:	c1 f8 02             	sar    $0x2,%eax
   13183:	69 d0 ab aa aa aa    	imul   $0xaaaaaaab,%eax,%edx
   13189:	c7 01 00 00 00 00    	movl   $0x0,(%ecx)
   1318f:	85 d2                	test   %edx,%edx
   13191:	c7 41 04 00 00 00 00 	movl   $0x0,0x4(%ecx)
   13198:	c7 41 08 00 00 00 00 	movl   $0x0,0x8(%ecx)
   1319f:	74 26                	je     131c7 <_ZNSt6vectorI5ModelSaIS0_EE13_M_insert_auxEN9__gnu_cxx17__normal_iteratorIPS0_S2_EERKS0_+0x97>
   131a1:	81 fa 55 55 55 15    	cmp    $0x15555555,%edx
   131a7:	0f 87 d1 0a 00 00    	ja     13c7e <_ZNSt6vectorI5ModelSaIS0_EE13_M_insert_auxEN9__gnu_cxx17__normal_iteratorIPS0_S2_EERKS0_+0xb4e>
   131ad:	8d 34 85 00 00 00 00 	lea    0x0(,%eax,4),%esi
   131b4:	89 34 24             	mov    %esi,(%esp)
   131b7:	e8 94 3c ff ff       	call   6e50 <_Znwj@plt>
   131bc:	89 c7                	mov    %eax,%edi
   131be:	8b 45 98             	mov    -0x68(%ebp),%eax
   131c1:	8b 40 cc             	mov    -0x34(%eax),%eax
   131c4:	89 45 a4             	mov    %eax,-0x5c(%ebp)
   131c7:	8b 55 98             	mov    -0x68(%ebp),%edx
   131ca:	8d 04 37             	lea    (%edi,%esi,1),%eax
   131cd:	89 7a 04             	mov    %edi,0x4(%edx)
   131d0:	89 42 08             	mov    %eax,0x8(%edx)
   131d3:	89 3a                	mov    %edi,(%edx)
   131d5:	8b 4d 94             	mov    -0x6c(%ebp),%ecx
   131d8:	8b 55 a4             	mov    -0x5c(%ebp),%edx
   131db:	89 f8                	mov    %edi,%eax
   131dd:	8b 71 04             	mov    0x4(%ecx),%esi
   131e0:	39 d6                	cmp    %edx,%esi
   131e2:	74 3f                	je     13223 <_ZNSt6vectorI5ModelSaIS0_EE13_M_insert_auxEN9__gnu_cxx17__normal_iteratorIPS0_S2_EERKS0_+0xf3>
   131e4:	8d 74 26 00          	lea    0x0(%esi,%eiz,1),%esi
   131e8:	85 c0                	test   %eax,%eax
   131ea:	74 10                	je     131fc <_ZNSt6vectorI5ModelSaIS0_EE13_M_insert_auxEN9__gnu_cxx17__normal_iteratorIPS0_S2_EERKS0_+0xcc>
   131ec:	8b 0a                	mov    (%edx),%ecx
   131ee:	89 08                	mov    %ecx,(%eax)
   131f0:	8b 4a 04             	mov    0x4(%edx),%ecx
   131f3:	89 48 04             	mov    %ecx,0x4(%eax)
   131f6:	8b 4a 08             	mov    0x8(%edx),%ecx
   131f9:	89 48 08             	mov    %ecx,0x8(%eax)
   131fc:	8d 52 0c             	lea    0xc(%edx),%edx
   131ff:	8d 40 0c             	lea    0xc(%eax),%eax
   13202:	39 d6                	cmp    %edx,%esi
   13204:	75 e2                	jne    131e8 <_ZNSt6vectorI5ModelSaIS0_EE13_M_insert_auxEN9__gnu_cxx17__normal_iteratorIPS0_S2_EERKS0_+0xb8>
   13206:	8b 45 a4             	mov    -0x5c(%ebp),%eax
   13209:	83 c0 0c             	add    $0xc,%eax
   1320c:	29 c6                	sub    %eax,%esi
   1320e:	c1 ee 02             	shr    $0x2,%esi
   13211:	69 c6 ab aa aa 2a    	imul   $0x2aaaaaab,%esi,%eax
   13217:	25 ff ff ff 3f       	and    $0x3fffffff,%eax
   1321c:	8d 44 40 03          	lea    0x3(%eax,%eax,2),%eax
   13220:	8d 3c 87             	lea    (%edi,%eax,4),%edi
   13223:	8b 45 98             	mov    -0x68(%ebp),%eax
   13226:	31 f6                	xor    %esi,%esi
   13228:	89 78 04             	mov    %edi,0x4(%eax)
   1322b:	8b 55 94             	mov    -0x6c(%ebp),%edx
   1322e:	8b 4d 98             	mov    -0x68(%ebp),%ecx
   13231:	8b 42 10             	mov    0x10(%edx),%eax
   13234:	2b 42 0c             	sub    0xc(%edx),%eax
   13237:	c1 f8 02             	sar    $0x2,%eax
   1323a:	c7 41 0c 00 00 00 00 	movl   $0x0,0xc(%ecx)
   13241:	69 d0 b7 6d db b6    	imul   $0xb6db6db7,%eax,%edx
   13247:	c7 41 10 00 00 00 00 	movl   $0x0,0x10(%ecx)
   1324e:	85 d2                	test   %edx,%edx
   13250:	c7 41 14 00 00 00 00 	movl   $0x0,0x14(%ecx)
   13257:	c7 45 90 00 00 00 00 	movl   $0x0,-0x70(%ebp)
   1325e:	74 1e                	je     1327e <_ZNSt6vectorI5ModelSaIS0_EE13_M_insert_auxEN9__gnu_cxx17__normal_iteratorIPS0_S2_EERKS0_+0x14e>
   13260:	81 fa 49 92 24 09    	cmp    $0x9249249,%edx
   13266:	0f 87 c4 0a 00 00    	ja     13d30 <_ZNSt6vectorI5ModelSaIS0_EE13_M_insert_auxEN9__gnu_cxx17__normal_iteratorIPS0_S2_EERKS0_+0xc00>
   1326c:	8d 34 85 00 00 00 00 	lea    0x0(,%eax,4),%esi
   13273:	89 34 24             	mov    %esi,(%esp)
   13276:	e8 d5 3b ff ff       	call   6e50 <_Znwj@plt>
   1327b:	89 45 90             	mov    %eax,-0x70(%ebp)
   1327e:	8b 55 98             	mov    -0x68(%ebp),%edx
   13281:	8b 45 98             	mov    -0x68(%ebp),%eax
   13284:	8b 4d 90             	mov    -0x70(%ebp),%ecx
   13287:	83 c0 0c             	add    $0xc,%eax
   1328a:	01 ce                	add    %ecx,%esi
   1328c:	89 45 8c             	mov    %eax,-0x74(%ebp)
   1328f:	89 4a 0c             	mov    %ecx,0xc(%edx)
   13292:	89 4a 10             	mov    %ecx,0x10(%edx)
   13295:	89 72 14             	mov    %esi,0x14(%edx)
   13298:	8b 45 94             	mov    -0x6c(%ebp),%eax
   1329b:	8b 55 94             	mov    -0x6c(%ebp),%edx
   1329e:	8b 40 10             	mov    0x10(%eax),%eax
   132a1:	89 45 9c             	mov    %eax,-0x64(%ebp)
   132a4:	8b 72 0c             	mov    0xc(%edx),%esi
   132a7:	39 f0                	cmp    %esi,%eax
   132a9:	0f 84 c1 00 00 00    	je     13370 <_ZNSt6vectorI5ModelSaIS0_EE13_M_insert_auxEN9__gnu_cxx17__normal_iteratorIPS0_S2_EERKS0_+0x240>
   132af:	89 4d a4             	mov    %ecx,-0x5c(%ebp)
   132b2:	8b 7d 90             	mov    -0x70(%ebp),%edi
   132b5:	8d 76 00             	lea    0x0(%esi),%esi
   132b8:	85 ff                	test   %edi,%edi
   132ba:	0f 84 9a 00 00 00    	je     1335a <_ZNSt6vectorI5ModelSaIS0_EE13_M_insert_auxEN9__gnu_cxx17__normal_iteratorIPS0_S2_EERKS0_+0x22a>
   132c0:	8b 06                	mov    (%esi),%eax
   132c2:	31 d2                	xor    %edx,%edx
   132c4:	89 07                	mov    %eax,(%edi)
   132c6:	8b 46 08             	mov    0x8(%esi),%eax
   132c9:	2b 46 04             	sub    0x4(%esi),%eax
   132cc:	c7 47 08 00 00 00 00 	movl   $0x0,0x8(%edi)
   132d3:	c1 f8 02             	sar    $0x2,%eax
   132d6:	c7 47 04 00 00 00 00 	movl   $0x0,0x4(%edi)
   132dd:	c7 47 0c 00 00 00 00 	movl   $0x0,0xc(%edi)
   132e4:	c7 45 a0 00 00 00 00 	movl   $0x0,-0x60(%ebp)
   132eb:	74 1b                	je     13308 <_ZNSt6vectorI5ModelSaIS0_EE13_M_insert_auxEN9__gnu_cxx17__normal_iteratorIPS0_S2_EERKS0_+0x1d8>
   132ed:	3d ff ff ff 3f       	cmp    $0x3fffffff,%eax
   132f2:	0f 87 56 08 00 00    	ja     13b4e <_ZNSt6vectorI5ModelSaIS0_EE13_M_insert_auxEN9__gnu_cxx17__normal_iteratorIPS0_S2_EERKS0_+0xa1e>
   132f8:	c1 e0 02             	shl    $0x2,%eax
   132fb:	89 45 a0             	mov    %eax,-0x60(%ebp)
   132fe:	89 04 24             	mov    %eax,(%esp)
   13301:	e8 4a 3b ff ff       	call   6e50 <_Znwj@plt>
   13306:	89 c2                	mov    %eax,%edx
   13308:	89 57 04             	mov    %edx,0x4(%edi)
   1330b:	89 57 08             	mov    %edx,0x8(%edi)
   1330e:	8b 45 a0             	mov    -0x60(%ebp),%eax
   13311:	8b 4e 08             	mov    0x8(%esi),%ecx
   13314:	01 d0                	add    %edx,%eax
   13316:	89 47 0c             	mov    %eax,0xc(%edi)
   13319:	8b 46 04             	mov    0x4(%esi),%eax
   1331c:	29 c1                	sub    %eax,%ecx
   1331e:	89 14 24             	mov    %edx,(%esp)
   13321:	83 e1 fc             	and    $0xfffffffc,%ecx
   13324:	89 95 7c ff ff ff    	mov    %edx,-0x84(%ebp)
   1332a:	89 4c 24 08          	mov    %ecx,0x8(%esp)
   1332e:	89 4d 80             	mov    %ecx,-0x80(%ebp)
   13331:	89 44 24 04          	mov    %eax,0x4(%esp)
   13335:	e8 c6 48 ff ff       	call   7c00 <memmove@plt>
   1333a:	8b 46 10             	mov    0x10(%esi),%eax
   1333d:	8b 95 7c ff ff ff    	mov    -0x84(%ebp),%edx
   13343:	8b 4d 80             	mov    -0x80(%ebp),%ecx
   13346:	89 47 10             	mov    %eax,0x10(%edi)
   13349:	8b 46 14             	mov    0x14(%esi),%eax
   1334c:	01 ca                	add    %ecx,%edx
   1334e:	89 47 14             	mov    %eax,0x14(%edi)
   13351:	8b 46 18             	mov    0x18(%esi),%eax
   13354:	89 57 08             	mov    %edx,0x8(%edi)
   13357:	89 47 18             	mov    %eax,0x18(%edi)
   1335a:	83 45 a4 1c          	addl   $0x1c,-0x5c(%ebp)
   1335e:	8d 76 1c             	lea    0x1c(%esi),%esi
   13361:	39 75 9c             	cmp    %esi,-0x64(%ebp)
   13364:	8b 7d a4             	mov    -0x5c(%ebp),%edi
   13367:	0f 85 4b ff ff ff    	jne    132b8 <_ZNSt6vectorI5ModelSaIS0_EE13_M_insert_auxEN9__gnu_cxx17__normal_iteratorIPS0_S2_EERKS0_+0x188>
   1336d:	89 7d 90             	mov    %edi,-0x70(%ebp)
   13370:	8b 4d 98             	mov    -0x68(%ebp),%ecx
   13373:	8b 45 90             	mov    -0x70(%ebp),%eax
   13376:	89 41 10             	mov    %eax,0x10(%ecx)
   13379:	8b 45 94             	mov    -0x6c(%ebp),%eax
   1337c:	83 c0 18             	add    $0x18,%eax
   1337f:	89 44 24 04          	mov    %eax,0x4(%esp)
   13383:	89 c8                	mov    %ecx,%eax
   13385:	83 c0 18             	add    $0x18,%eax
   13388:	89 04 24             	mov    %eax,(%esp)
   1338b:	e8 60 3e ff ff       	call   71f0 <_ZNSsC1ERKSs@plt>
   13390:	8b 4d 94             	mov    -0x6c(%ebp),%ecx
   13393:	8b 55 98             	mov    -0x68(%ebp),%edx
   13396:	8b 41 1c             	mov    0x1c(%ecx),%eax
   13399:	89 42 1c             	mov    %eax,0x1c(%edx)
   1339c:	8b 41 20             	mov    0x20(%ecx),%eax
   1339f:	89 42 20             	mov    %eax,0x20(%edx)
   133a2:	8b 41 24             	mov    0x24(%ecx),%eax
   133a5:	89 42 24             	mov    %eax,0x24(%edx)
   133a8:	8b 41 28             	mov    0x28(%ecx),%eax
   133ab:	89 42 28             	mov    %eax,0x28(%edx)
   133ae:	8b 41 2c             	mov    0x2c(%ecx),%eax
   133b1:	89 42 2c             	mov    %eax,0x2c(%edx)
   133b4:	8b 41 30             	mov    0x30(%ecx),%eax
   133b7:	89 42 30             	mov    %eax,0x30(%edx)
   133ba:	8b 4d 08             	mov    0x8(%ebp),%ecx
   133bd:	8b 41 04             	mov    0x4(%ecx),%eax
   133c0:	8b 4d 08             	mov    0x8(%ebp),%ecx
   133c3:	8b 55 10             	mov    0x10(%ebp),%edx
   133c6:	8d 40 34             	lea    0x34(%eax),%eax
   133c9:	31 f6                	xor    %esi,%esi
   133cb:	c7 45 b8 00 00 00 00 	movl   $0x0,-0x48(%ebp)
   133d2:	89 41 04             	mov    %eax,0x4(%ecx)
   133d5:	8b 45 10             	mov    0x10(%ebp),%eax
   133d8:	8b 7a 04             	mov    0x4(%edx),%edi
   133db:	c7 45 b4 00 00 00 00 	movl   $0x0,-0x4c(%ebp)
   133e2:	89 fa                	mov    %edi,%edx
   133e4:	8b 00                	mov    (%eax),%eax
   133e6:	c7 45 b0 00 00 00 00 	movl   $0x0,-0x50(%ebp)
   133ed:	29 c2                	sub    %eax,%edx
   133ef:	89 45 a4             	mov    %eax,-0x5c(%ebp)
   133f2:	c1 fa 02             	sar    $0x2,%edx
   133f5:	31 c0                	xor    %eax,%eax
   133f7:	69 ca ab aa aa aa    	imul   $0xaaaaaaab,%edx,%ecx
   133fd:	85 c9                	test   %ecx,%ecx
   133ff:	74 29                	je     1342a <_ZNSt6vectorI5ModelSaIS0_EE13_M_insert_auxEN9__gnu_cxx17__normal_iteratorIPS0_S2_EERKS0_+0x2fa>
   13401:	81 f9 55 55 55 15    	cmp    $0x15555555,%ecx
   13407:	0f 87 67 08 00 00    	ja     13c74 <_ZNSt6vectorI5ModelSaIS0_EE13_M_insert_auxEN9__gnu_cxx17__normal_iteratorIPS0_S2_EERKS0_+0xb44>
   1340d:	8d 34 95 00 00 00 00 	lea    0x0(,%edx,4),%esi
   13414:	89 34 24             	mov    %esi,(%esp)
   13417:	e8 34 3a ff ff       	call   6e50 <_Znwj@plt>
   1341c:	8b 4d 10             	mov    0x10(%ebp),%ecx
   1341f:	8b 55 10             	mov    0x10(%ebp),%edx
   13422:	8b 09                	mov    (%ecx),%ecx
   13424:	8b 7a 04             	mov    0x4(%edx),%edi
   13427:	89 4d a4             	mov    %ecx,-0x5c(%ebp)
   1342a:	8b 4d a4             	mov    -0x5c(%ebp),%ecx
   1342d:	8d 34 30             	lea    (%eax,%esi,1),%esi
   13430:	39 cf                	cmp    %ecx,%edi
   13432:	89 45 b0             	mov    %eax,-0x50(%ebp)
   13435:	89 45 b4             	mov    %eax,-0x4c(%ebp)
   13438:	89 75 b8             	mov    %esi,-0x48(%ebp)
   1343b:	89 c2                	mov    %eax,%edx
   1343d:	74 3d                	je     1347c <_ZNSt6vectorI5ModelSaIS0_EE13_M_insert_auxEN9__gnu_cxx17__normal_iteratorIPS0_S2_EERKS0_+0x34c>
   1343f:	90                   	nop
   13440:	85 d2                	test   %edx,%edx
   13442:	74 10                	je     13454 <_ZNSt6vectorI5ModelSaIS0_EE13_M_insert_auxEN9__gnu_cxx17__normal_iteratorIPS0_S2_EERKS0_+0x324>
   13444:	8b 31                	mov    (%ecx),%esi
   13446:	89 32                	mov    %esi,(%edx)
   13448:	8b 71 04             	mov    0x4(%ecx),%esi
   1344b:	89 72 04             	mov    %esi,0x4(%edx)
   1344e:	8b 71 08             	mov    0x8(%ecx),%esi
   13451:	89 72 08             	mov    %esi,0x8(%edx)
   13454:	8d 49 0c             	lea    0xc(%ecx),%ecx
   13457:	8d 52 0c             	lea    0xc(%edx),%edx
   1345a:	39 cf                	cmp    %ecx,%edi
   1345c:	75 e2                	jne    13440 <_ZNSt6vectorI5ModelSaIS0_EE13_M_insert_auxEN9__gnu_cxx17__normal_iteratorIPS0_S2_EERKS0_+0x310>
   1345e:	8b 55 a4             	mov    -0x5c(%ebp),%edx
   13461:	83 c2 0c             	add    $0xc,%edx
   13464:	29 d7                	sub    %edx,%edi
   13466:	c1 ef 02             	shr    $0x2,%edi
   13469:	69 d7 ab aa aa 2a    	imul   $0x2aaaaaab,%edi,%edx
   1346f:	81 e2 ff ff ff 3f    	and    $0x3fffffff,%edx
   13475:	8d 54 52 03          	lea    0x3(%edx,%edx,2),%edx
   13479:	8d 04 90             	lea    (%eax,%edx,4),%eax
   1347c:	8b 4d 10             	mov    0x10(%ebp),%ecx
   1347f:	89 45 b4             	mov    %eax,-0x4c(%ebp)
   13482:	31 ff                	xor    %edi,%edi
   13484:	c7 45 c4 00 00 00 00 	movl   $0x0,-0x3c(%ebp)
   1348b:	c7 45 98 00 00 00 00 	movl   $0x0,-0x68(%ebp)
   13492:	8b 41 10             	mov    0x10(%ecx),%eax
   13495:	8b 71 0c             	mov    0xc(%ecx),%esi
   13498:	89 45 9c             	mov    %eax,-0x64(%ebp)
   1349b:	29 f0                	sub    %esi,%eax
   1349d:	c1 f8 02             	sar    $0x2,%eax
   134a0:	c7 45 bc 00 00 00 00 	movl   $0x0,-0x44(%ebp)
   134a7:	69 d0 b7 6d db b6    	imul   $0xb6db6db7,%eax,%edx
   134ad:	c7 45 c0 00 00 00 00 	movl   $0x0,-0x40(%ebp)
   134b4:	85 d2                	test   %edx,%edx
   134b6:	74 2a                	je     134e2 <_ZNSt6vectorI5ModelSaIS0_EE13_M_insert_auxEN9__gnu_cxx17__normal_iteratorIPS0_S2_EERKS0_+0x3b2>
   134b8:	81 fa 49 92 24 09    	cmp    $0x9249249,%edx
   134be:	0f 87 b5 07 00 00    	ja     13c79 <_ZNSt6vectorI5ModelSaIS0_EE13_M_insert_auxEN9__gnu_cxx17__normal_iteratorIPS0_S2_EERKS0_+0xb49>
   134c4:	8d 3c 85 00 00 00 00 	lea    0x0(,%eax,4),%edi
   134cb:	89 3c 24             	mov    %edi,(%esp)
   134ce:	e8 7d 39 ff ff       	call   6e50 <_Znwj@plt>
   134d3:	8b 55 10             	mov    0x10(%ebp),%edx
   134d6:	89 45 98             	mov    %eax,-0x68(%ebp)
   134d9:	8b 4a 10             	mov    0x10(%edx),%ecx
   134dc:	8b 72 0c             	mov    0xc(%edx),%esi
   134df:	89 4d 9c             	mov    %ecx,-0x64(%ebp)
   134e2:	8b 45 98             	mov    -0x68(%ebp),%eax
   134e5:	01 c7                	add    %eax,%edi
   134e7:	39 75 9c             	cmp    %esi,-0x64(%ebp)
   134ea:	89 45 bc             	mov    %eax,-0x44(%ebp)
   134ed:	89 45 c0             	mov    %eax,-0x40(%ebp)
   134f0:	89 7d c4             	mov    %edi,-0x3c(%ebp)
   134f3:	0f 84 bf 00 00 00    	je     135b8 <_ZNSt6vectorI5ModelSaIS0_EE13_M_insert_auxEN9__gnu_cxx17__normal_iteratorIPS0_S2_EERKS0_+0x488>
   134f9:	89 45 a4             	mov    %eax,-0x5c(%ebp)
   134fc:	89 c7                	mov    %eax,%edi
   134fe:	66 90                	xchg   %ax,%ax
   13500:	85 ff                	test   %edi,%edi
   13502:	0f 84 9a 00 00 00    	je     135a2 <_ZNSt6vectorI5ModelSaIS0_EE13_M_insert_auxEN9__gnu_cxx17__normal_iteratorIPS0_S2_EERKS0_+0x472>
   13508:	8b 06                	mov    (%esi),%eax
   1350a:	31 d2                	xor    %edx,%edx
   1350c:	89 07                	mov    %eax,(%edi)
   1350e:	8b 46 08             	mov    0x8(%esi),%eax
   13511:	2b 46 04             	sub    0x4(%esi),%eax
   13514:	c7 47 08 00 00 00 00 	movl   $0x0,0x8(%edi)
   1351b:	c1 f8 02             	sar    $0x2,%eax
   1351e:	c7 47 04 00 00 00 00 	movl   $0x0,0x4(%edi)
   13525:	c7 47 0c 00 00 00 00 	movl   $0x0,0xc(%edi)
   1352c:	c7 45 a0 00 00 00 00 	movl   $0x0,-0x60(%ebp)
   13533:	74 1b                	je     13550 <_ZNSt6vectorI5ModelSaIS0_EE13_M_insert_auxEN9__gnu_cxx17__normal_iteratorIPS0_S2_EERKS0_+0x420>
   13535:	3d ff ff ff 3f       	cmp    $0x3fffffff,%eax
   1353a:	0f 87 09 06 00 00    	ja     13b49 <_ZNSt6vectorI5ModelSaIS0_EE13_M_insert_auxEN9__gnu_cxx17__normal_iteratorIPS0_S2_EERKS0_+0xa19>
   13540:	c1 e0 02             	shl    $0x2,%eax
   13543:	89 45 a0             	mov    %eax,-0x60(%ebp)
   13546:	89 04 24             	mov    %eax,(%esp)
   13549:	e8 02 39 ff ff       	call   6e50 <_Znwj@plt>
   1354e:	89 c2                	mov    %eax,%edx
   13550:	8b 45 a0             	mov    -0x60(%ebp),%eax
   13553:	89 57 04             	mov    %edx,0x4(%edi)
   13556:	01 d0                	add    %edx,%eax
   13558:	89 57 08             	mov    %edx,0x8(%edi)
   1355b:	89 47 0c             	mov    %eax,0xc(%edi)
   1355e:	8b 4e 08             	mov    0x8(%esi),%ecx
   13561:	8b 46 04             	mov    0x4(%esi),%eax
   13564:	89 14 24             	mov    %edx,(%esp)
   13567:	29 c1                	sub    %eax,%ecx
   13569:	89 95 7c ff ff ff    	mov    %edx,-0x84(%ebp)
   1356f:	83 e1 fc             	and    $0xfffffffc,%ecx
   13572:	89 44 24 04          	mov    %eax,0x4(%esp)
   13576:	89 4c 24 08          	mov    %ecx,0x8(%esp)
   1357a:	89 4d 80             	mov    %ecx,-0x80(%ebp)
   1357d:	e8 7e 46 ff ff       	call   7c00 <memmove@plt>
   13582:	8b 46 10             	mov    0x10(%esi),%eax
   13585:	8b 95 7c ff ff ff    	mov    -0x84(%ebp),%edx
   1358b:	89 47 10             	mov    %eax,0x10(%edi)
   1358e:	8b 4d 80             	mov    -0x80(%ebp),%ecx
   13591:	8b 46 14             	mov    0x14(%esi),%eax
   13594:	01 ca                	add    %ecx,%edx
   13596:	89 47 14             	mov    %eax,0x14(%edi)
   13599:	8b 46 18             	mov    0x18(%esi),%eax
   1359c:	89 57 08             	mov    %edx,0x8(%edi)
   1359f:	89 47 18             	mov    %eax,0x18(%edi)
   135a2:	83 45 a4 1c          	addl   $0x1c,-0x5c(%ebp)
   135a6:	8d 76 1c             	lea    0x1c(%esi),%esi
   135a9:	39 75 9c             	cmp    %esi,-0x64(%ebp)
   135ac:	8b 7d a4             	mov    -0x5c(%ebp),%edi
   135af:	0f 85 4b ff ff ff    	jne    13500 <_ZNSt6vectorI5ModelSaIS0_EE13_M_insert_auxEN9__gnu_cxx17__normal_iteratorIPS0_S2_EERKS0_+0x3d0>
   135b5:	89 7d 98             	mov    %edi,-0x68(%ebp)
   135b8:	8b 45 10             	mov    0x10(%ebp),%eax
   135bb:	8b 55 98             	mov    -0x68(%ebp),%edx
   135be:	83 c0 18             	add    $0x18,%eax
   135c1:	8d 4d c8             	lea    -0x38(%ebp),%ecx
   135c4:	89 55 c0             	mov    %edx,-0x40(%ebp)
   135c7:	89 44 24 04          	mov    %eax,0x4(%esp)
   135cb:	89 4d 98             	mov    %ecx,-0x68(%ebp)
   135ce:	89 0c 24             	mov    %ecx,(%esp)
   135d1:	e8 1a 3c ff ff       	call   71f0 <_ZNSsC1ERKSs@plt>
   135d6:	8b 55 10             	mov    0x10(%ebp),%edx
   135d9:	8b 4d 08             	mov    0x8(%ebp),%ecx
   135dc:	8b 42 1c             	mov    0x1c(%edx),%eax
   135df:	8b 71 04             	mov    0x4(%ecx),%esi
   135e2:	89 45 cc             	mov    %eax,-0x34(%ebp)
   135e5:	8b 42 20             	mov    0x20(%edx),%eax
   135e8:	89 45 d0             	mov    %eax,-0x30(%ebp)
   135eb:	8b 42 24             	mov    0x24(%edx),%eax
   135ee:	89 45 d4             	mov    %eax,-0x2c(%ebp)
   135f1:	8b 42 28             	mov    0x28(%edx),%eax
   135f4:	89 45 d8             	mov    %eax,-0x28(%ebp)
   135f7:	8b 42 2c             	mov    0x2c(%edx),%eax
   135fa:	89 45 dc             	mov    %eax,-0x24(%ebp)
   135fd:	8b 42 30             	mov    0x30(%edx),%eax
   13600:	89 45 e0             	mov    %eax,-0x20(%ebp)
   13603:	8d 46 98             	lea    -0x68(%esi),%eax
   13606:	2b 45 0c             	sub    0xc(%ebp),%eax
   13609:	c1 f8 02             	sar    $0x2,%eax
   1360c:	69 c0 c5 4e ec c4    	imul   $0xc4ec4ec5,%eax,%eax
   13612:	85 c0                	test   %eax,%eax
   13614:	89 45 a0             	mov    %eax,-0x60(%ebp)
   13617:	0f 8e 82 00 00 00    	jle    1369f <_ZNSt6vectorI5ModelSaIS0_EE13_M_insert_auxEN9__gnu_cxx17__normal_iteratorIPS0_S2_EERKS0_+0x56f>
   1361d:	8d 45 b0             	lea    -0x50(%ebp),%eax
   13620:	8d 76 cc             	lea    -0x34(%esi),%esi
   13623:	89 45 9c             	mov    %eax,-0x64(%ebp)
   13626:	66 90                	xchg   %ax,%ax
   13628:	8b 55 9c             	mov    -0x64(%ebp),%edx
   1362b:	8d 7e 98             	lea    -0x68(%esi),%edi
   1362e:	89 55 a4             	mov    %edx,-0x5c(%ebp)
   13631:	8d 76 cc             	lea    -0x34(%esi),%esi
   13634:	89 7c 24 04          	mov    %edi,0x4(%esp)
   13638:	89 34 24             	mov    %esi,(%esp)
   1363b:	e8 60 3b ff ff       	call   71a0 <_ZNSt6vectorI6VertexSaIS0_EEaSERKS2_@plt>
   13640:	8b 4d 9c             	mov    -0x64(%ebp),%ecx
   13643:	8d 47 0c             	lea    0xc(%edi),%eax
   13646:	89 4d a4             	mov    %ecx,-0x5c(%ebp)
   13649:	89 44 24 04          	mov    %eax,0x4(%esp)
   1364d:	8d 46 0c             	lea    0xc(%esi),%eax
   13650:	89 04 24             	mov    %eax,(%esp)
   13653:	e8 c8 3c ff ff       	call   7320 <_ZNSt6vectorI4FaceSaIS0_EEaSERKS2_@plt>
   13658:	8d 46 18             	lea    0x18(%esi),%eax
   1365b:	89 04 24             	mov    %eax,(%esp)
   1365e:	8b 45 9c             	mov    -0x64(%ebp),%eax
   13661:	8d 7f 18             	lea    0x18(%edi),%edi
   13664:	89 45 a4             	mov    %eax,-0x5c(%ebp)
   13667:	89 7c 24 04          	mov    %edi,0x4(%esp)
   1366b:	e8 c0 40 ff ff       	call   7730 <_ZNSs6assignERKSs@plt>
   13670:	8b 46 e8             	mov    -0x18(%esi),%eax
   13673:	89 46 1c             	mov    %eax,0x1c(%esi)
   13676:	8b 46 ec             	mov    -0x14(%esi),%eax
   13679:	89 46 20             	mov    %eax,0x20(%esi)
   1367c:	8b 46 f0             	mov    -0x10(%esi),%eax
   1367f:	89 46 24             	mov    %eax,0x24(%esi)
   13682:	8b 46 f4             	mov    -0xc(%esi),%eax
   13685:	89 46 28             	mov    %eax,0x28(%esi)
   13688:	8b 46 f8             	mov    -0x8(%esi),%eax
   1368b:	89 46 2c             	mov    %eax,0x2c(%esi)
   1368e:	8b 46 fc             	mov    -0x4(%esi),%eax
   13691:	89 46 30             	mov    %eax,0x30(%esi)
   13694:	83 6d a0 01          	subl   $0x1,-0x60(%ebp)
   13698:	8b 4d a0             	mov    -0x60(%ebp),%ecx
   1369b:	85 c9                	test   %ecx,%ecx
   1369d:	7f 89                	jg     13628 <_ZNSt6vectorI5ModelSaIS0_EE13_M_insert_auxEN9__gnu_cxx17__normal_iteratorIPS0_S2_EERKS0_+0x4f8>
   1369f:	8b 4d 0c             	mov    0xc(%ebp),%ecx
   136a2:	8d 55 b0             	lea    -0x50(%ebp),%edx
   136a5:	89 0c 24             	mov    %ecx,(%esp)
   136a8:	89 55 a4             	mov    %edx,-0x5c(%ebp)
   136ab:	89 54 24 04          	mov    %edx,0x4(%esp)
   136af:	e8 ec 3a ff ff       	call   71a0 <_ZNSt6vectorI6VertexSaIS0_EEaSERKS2_@plt>
   136b4:	8d 45 bc             	lea    -0x44(%ebp),%eax
   136b7:	89 44 24 04          	mov    %eax,0x4(%esp)
   136bb:	8b 45 0c             	mov    0xc(%ebp),%eax
   136be:	83 c0 0c             	add    $0xc,%eax
   136c1:	89 04 24             	mov    %eax,(%esp)
   136c4:	e8 57 3c ff ff       	call   7320 <_ZNSt6vectorI4FaceSaIS0_EEaSERKS2_@plt>
   136c9:	8b 45 98             	mov    -0x68(%ebp),%eax
   136cc:	89 44 24 04          	mov    %eax,0x4(%esp)
   136d0:	8b 45 0c             	mov    0xc(%ebp),%eax
   136d3:	83 c0 18             	add    $0x18,%eax
   136d6:	89 04 24             	mov    %eax,(%esp)
   136d9:	e8 52 40 ff ff       	call   7730 <_ZNSs6assignERKSs@plt>
   136de:	8b 55 0c             	mov    0xc(%ebp),%edx
   136e1:	8b 45 cc             	mov    -0x34(%ebp),%eax
   136e4:	89 42 1c             	mov    %eax,0x1c(%edx)
   136e7:	8b 45 d0             	mov    -0x30(%ebp),%eax
   136ea:	89 42 20             	mov    %eax,0x20(%edx)
   136ed:	8b 45 d4             	mov    -0x2c(%ebp),%eax
   136f0:	89 42 24             	mov    %eax,0x24(%edx)
   136f3:	8b 45 d8             	mov    -0x28(%ebp),%eax
   136f6:	89 42 28             	mov    %eax,0x28(%edx)
   136f9:	8b 45 dc             	mov    -0x24(%ebp),%eax
   136fc:	89 42 2c             	mov    %eax,0x2c(%edx)
   136ff:	8b 45 e0             	mov    -0x20(%ebp),%eax
   13702:	89 42 30             	mov    %eax,0x30(%edx)
   13705:	8b 45 c8             	mov    -0x38(%ebp),%eax
   13708:	83 e8 0c             	sub    $0xc,%eax
   1370b:	3b 83 94 ff ff ff    	cmp    -0x6c(%ebx),%eax
   13711:	0f 85 51 06 00 00    	jne    13d68 <_ZNSt6vectorI5ModelSaIS0_EE13_M_insert_auxEN9__gnu_cxx17__normal_iteratorIPS0_S2_EERKS0_+0xc38>
   13717:	8b 7d c0             	mov    -0x40(%ebp),%edi
   1371a:	8b 75 bc             	mov    -0x44(%ebp),%esi
   1371d:	39 f7                	cmp    %esi,%edi
   1371f:	74 20                	je     13741 <_ZNSt6vectorI5ModelSaIS0_EE13_M_insert_auxEN9__gnu_cxx17__normal_iteratorIPS0_S2_EERKS0_+0x611>
   13721:	8d b4 26 00 00 00 00 	lea    0x0(%esi,%eiz,1),%esi
   13728:	8b 46 04             	mov    0x4(%esi),%eax
   1372b:	85 c0                	test   %eax,%eax
   1372d:	74 08                	je     13737 <_ZNSt6vectorI5ModelSaIS0_EE13_M_insert_auxEN9__gnu_cxx17__normal_iteratorIPS0_S2_EERKS0_+0x607>
   1372f:	89 04 24             	mov    %eax,(%esp)
   13732:	e8 99 3d ff ff       	call   74d0 <_ZdlPv@plt>
   13737:	8d 76 1c             	lea    0x1c(%esi),%esi
   1373a:	39 f7                	cmp    %esi,%edi
   1373c:	75 ea                	jne    13728 <_ZNSt6vectorI5ModelSaIS0_EE13_M_insert_auxEN9__gnu_cxx17__normal_iteratorIPS0_S2_EERKS0_+0x5f8>
   1373e:	8b 7d bc             	mov    -0x44(%ebp),%edi
   13741:	85 ff                	test   %edi,%edi
   13743:	74 08                	je     1374d <_ZNSt6vectorI5ModelSaIS0_EE13_M_insert_auxEN9__gnu_cxx17__normal_iteratorIPS0_S2_EERKS0_+0x61d>
   13745:	89 3c 24             	mov    %edi,(%esp)
   13748:	e8 83 3d ff ff       	call   74d0 <_ZdlPv@plt>
   1374d:	8b 45 b0             	mov    -0x50(%ebp),%eax
   13750:	85 c0                	test   %eax,%eax
   13752:	74 08                	je     1375c <_ZNSt6vectorI5ModelSaIS0_EE13_M_insert_auxEN9__gnu_cxx17__normal_iteratorIPS0_S2_EERKS0_+0x62c>
   13754:	89 04 24             	mov    %eax,(%esp)
   13757:	e8 74 3d ff ff       	call   74d0 <_ZdlPv@plt>
   1375c:	8d a4 24 8c 00 00 00 	lea    0x8c(%esp),%esp
   13763:	5b                   	pop    %ebx
   13764:	5e                   	pop    %esi
   13765:	5f                   	pop    %edi
   13766:	5d                   	pop    %ebp
   13767:	c3                   	ret    
   13768:	8b 55 08             	mov    0x8(%ebp),%edx
   1376b:	8b 02                	mov    (%edx),%eax
   1376d:	8b 55 98             	mov    -0x68(%ebp),%edx
   13770:	29 c2                	sub    %eax,%edx
   13772:	c1 fa 02             	sar    $0x2,%edx
   13775:	69 d2 c5 4e ec c4    	imul   $0xc4ec4ec5,%edx,%edx
   1377b:	85 d2                	test   %edx,%edx
   1377d:	0f 84 a6 03 00 00    	je     13b29 <_ZNSt6vectorI5ModelSaIS0_EE13_M_insert_auxEN9__gnu_cxx17__normal_iteratorIPS0_S2_EERKS0_+0x9f9>
   13783:	8d 0c 12             	lea    (%edx,%edx,1),%ecx
   13786:	89 4d 88             	mov    %ecx,-0x78(%ebp)
   13789:	39 ca                	cmp    %ecx,%edx
   1378b:	0f 86 38 05 00 00    	jbe    13cc9 <_ZNSt6vectorI5ModelSaIS0_EE13_M_insert_auxEN9__gnu_cxx17__normal_iteratorIPS0_S2_EERKS0_+0xb99>
   13791:	8b 55 0c             	mov    0xc(%ebp),%edx
   13794:	c7 45 88 c4 4e ec 04 	movl   $0x4ec4ec4,-0x78(%ebp)
   1379b:	29 c2                	sub    %eax,%edx
   1379d:	89 d0                	mov    %edx,%eax
   1379f:	c1 f8 02             	sar    $0x2,%eax
   137a2:	69 f0 c5 4e ec c4    	imul   $0xc4ec4ec5,%eax,%esi
   137a8:	b8 d0 ff ff ff       	mov    $0xffffffd0,%eax
   137ad:	89 04 24             	mov    %eax,(%esp)
   137b0:	e8 9b 36 ff ff       	call   6e50 <_Znwj@plt>
   137b5:	89 45 94             	mov    %eax,-0x6c(%ebp)
   137b8:	6b f6 34             	imul   $0x34,%esi,%esi
   137bb:	8b 4d 94             	mov    -0x6c(%ebp),%ecx
   137be:	01 ce                	add    %ecx,%esi
   137c0:	89 4d 8c             	mov    %ecx,-0x74(%ebp)
   137c3:	89 75 98             	mov    %esi,-0x68(%ebp)
   137c6:	0f 84 46 02 00 00    	je     13a12 <_ZNSt6vectorI5ModelSaIS0_EE13_M_insert_auxEN9__gnu_cxx17__normal_iteratorIPS0_S2_EERKS0_+0x8e2>
   137cc:	8b 55 10             	mov    0x10(%ebp),%edx
   137cf:	31 ff                	xor    %edi,%edi
   137d1:	8b 42 04             	mov    0x4(%edx),%eax
   137d4:	2b 02                	sub    (%edx),%eax
   137d6:	c1 f8 02             	sar    $0x2,%eax
   137d9:	c7 06 00 00 00 00    	movl   $0x0,(%esi)
   137df:	69 d0 ab aa aa aa    	imul   $0xaaaaaaab,%eax,%edx
   137e5:	8b 4d 98             	mov    -0x68(%ebp),%ecx
   137e8:	31 f6                	xor    %esi,%esi
   137ea:	85 d2                	test   %edx,%edx
   137ec:	c7 41 04 00 00 00 00 	movl   $0x0,0x4(%ecx)
   137f3:	c7 41 08 00 00 00 00 	movl   $0x0,0x8(%ecx)
   137fa:	74 1d                	je     13819 <_ZNSt6vectorI5ModelSaIS0_EE13_M_insert_auxEN9__gnu_cxx17__normal_iteratorIPS0_S2_EERKS0_+0x6e9>
   137fc:	81 fa 55 55 55 15    	cmp    $0x15555555,%edx
   13802:	0f 87 22 04 00 00    	ja     13c2a <_ZNSt6vectorI5ModelSaIS0_EE13_M_insert_auxEN9__gnu_cxx17__normal_iteratorIPS0_S2_EERKS0_+0xafa>
   13808:	8d 34 85 00 00 00 00 	lea    0x0(,%eax,4),%esi
   1380f:	89 34 24             	mov    %esi,(%esp)
   13812:	e8 39 36 ff ff       	call   6e50 <_Znwj@plt>
   13817:	89 c7                	mov    %eax,%edi
   13819:	8b 45 98             	mov    -0x68(%ebp),%eax
   1381c:	89 38                	mov    %edi,(%eax)
   1381e:	89 78 04             	mov    %edi,0x4(%eax)
   13821:	8b 55 98             	mov    -0x68(%ebp),%edx
   13824:	8d 04 37             	lea    (%edi,%esi,1),%eax
   13827:	89 42 08             	mov    %eax,0x8(%edx)
   1382a:	8b 4d 10             	mov    0x10(%ebp),%ecx
   1382d:	8b 01                	mov    (%ecx),%eax
   1382f:	8b 71 04             	mov    0x4(%ecx),%esi
   13832:	89 c2                	mov    %eax,%edx
   13834:	89 45 a4             	mov    %eax,-0x5c(%ebp)
   13837:	39 d6                	cmp    %edx,%esi
   13839:	89 f8                	mov    %edi,%eax
   1383b:	74 3e                	je     1387b <_ZNSt6vectorI5ModelSaIS0_EE13_M_insert_auxEN9__gnu_cxx17__normal_iteratorIPS0_S2_EERKS0_+0x74b>
   1383d:	8d 76 00             	lea    0x0(%esi),%esi
   13840:	85 c0                	test   %eax,%eax
   13842:	74 10                	je     13854 <_ZNSt6vectorI5ModelSaIS0_EE13_M_insert_auxEN9__gnu_cxx17__normal_iteratorIPS0_S2_EERKS0_+0x724>
   13844:	8b 0a                	mov    (%edx),%ecx
   13846:	89 08                	mov    %ecx,(%eax)
   13848:	8b 4a 04             	mov    0x4(%edx),%ecx
   1384b:	89 48 04             	mov    %ecx,0x4(%eax)
   1384e:	8b 4a 08             	mov    0x8(%edx),%ecx
   13851:	89 48 08             	mov    %ecx,0x8(%eax)
   13854:	8d 52 0c             	lea    0xc(%edx),%edx
   13857:	8d 40 0c             	lea    0xc(%eax),%eax
   1385a:	39 d6                	cmp    %edx,%esi
   1385c:	75 e2                	jne    13840 <_ZNSt6vectorI5ModelSaIS0_EE13_M_insert_auxEN9__gnu_cxx17__normal_iteratorIPS0_S2_EERKS0_+0x710>
   1385e:	8b 45 a4             	mov    -0x5c(%ebp),%eax
   13861:	83 c0 0c             	add    $0xc,%eax
   13864:	29 c6                	sub    %eax,%esi
   13866:	c1 ee 02             	shr    $0x2,%esi
   13869:	69 c6 ab aa aa 2a    	imul   $0x2aaaaaab,%esi,%eax
   1386f:	25 ff ff ff 3f       	and    $0x3fffffff,%eax
   13874:	8d 44 40 03          	lea    0x3(%eax,%eax,2),%eax
   13878:	8d 3c 87             	lea    (%edi,%eax,4),%edi
   1387b:	8b 55 98             	mov    -0x68(%ebp),%edx
   1387e:	31 f6                	xor    %esi,%esi
   13880:	89 7a 04             	mov    %edi,0x4(%edx)
   13883:	8b 4d 10             	mov    0x10(%ebp),%ecx
   13886:	8b 41 10             	mov    0x10(%ecx),%eax
   13889:	2b 41 0c             	sub    0xc(%ecx),%eax
   1388c:	c1 f8 02             	sar    $0x2,%eax
   1388f:	8b 4d 98             	mov    -0x68(%ebp),%ecx
   13892:	69 d0 b7 6d db b6    	imul   $0xb6db6db7,%eax,%edx
   13898:	c7 41 0c 00 00 00 00 	movl   $0x0,0xc(%ecx)
   1389f:	85 d2                	test   %edx,%edx
   138a1:	c7 41 10 00 00 00 00 	movl   $0x0,0x10(%ecx)
   138a8:	c7 41 14 00 00 00 00 	movl   $0x0,0x14(%ecx)
   138af:	c7 45 90 00 00 00 00 	movl   $0x0,-0x70(%ebp)
   138b6:	74 1e                	je     138d6 <_ZNSt6vectorI5ModelSaIS0_EE13_M_insert_auxEN9__gnu_cxx17__normal_iteratorIPS0_S2_EERKS0_+0x7a6>
   138b8:	81 fa 49 92 24 09    	cmp    $0x9249249,%edx
   138be:	0f 87 5a 03 00 00    	ja     13c1e <_ZNSt6vectorI5ModelSaIS0_EE13_M_insert_auxEN9__gnu_cxx17__normal_iteratorIPS0_S2_EERKS0_+0xaee>
   138c4:	8d 34 85 00 00 00 00 	lea    0x0(,%eax,4),%esi
   138cb:	89 34 24             	mov    %esi,(%esp)
   138ce:	e8 7d 35 ff ff       	call   6e50 <_Znwj@plt>
   138d3:	89 45 90             	mov    %eax,-0x70(%ebp)
   138d6:	8b 45 98             	mov    -0x68(%ebp),%eax
   138d9:	8b 55 98             	mov    -0x68(%ebp),%edx
   138dc:	8b 4d 90             	mov    -0x70(%ebp),%ecx
   138df:	83 c0 0c             	add    $0xc,%eax
   138e2:	89 45 84             	mov    %eax,-0x7c(%ebp)
   138e5:	89 c8                	mov    %ecx,%eax
   138e7:	01 f0                	add    %esi,%eax
   138e9:	89 4a 0c             	mov    %ecx,0xc(%edx)
   138ec:	89 4a 10             	mov    %ecx,0x10(%edx)
   138ef:	89 42 14             	mov    %eax,0x14(%edx)
   138f2:	8b 45 10             	mov    0x10(%ebp),%eax
   138f5:	8b 55 10             	mov    0x10(%ebp),%edx
   138f8:	8b 40 10             	mov    0x10(%eax),%eax
   138fb:	8b 72 0c             	mov    0xc(%edx),%esi
   138fe:	89 45 9c             	mov    %eax,-0x64(%ebp)
   13901:	39 f0                	cmp    %esi,%eax
   13903:	0f 84 bf 00 00 00    	je     139c8 <_ZNSt6vectorI5ModelSaIS0_EE13_M_insert_auxEN9__gnu_cxx17__normal_iteratorIPS0_S2_EERKS0_+0x898>
   13909:	89 4d a4             	mov    %ecx,-0x5c(%ebp)
   1390c:	8b 7d 90             	mov    -0x70(%ebp),%edi
   1390f:	90                   	nop
   13910:	85 ff                	test   %edi,%edi
   13912:	0f 84 9a 00 00 00    	je     139b2 <_ZNSt6vectorI5ModelSaIS0_EE13_M_insert_auxEN9__gnu_cxx17__normal_iteratorIPS0_S2_EERKS0_+0x882>
   13918:	8b 06                	mov    (%esi),%eax
   1391a:	31 d2                	xor    %edx,%edx
   1391c:	89 07                	mov    %eax,(%edi)
   1391e:	8b 46 08             	mov    0x8(%esi),%eax
   13921:	2b 46 04             	sub    0x4(%esi),%eax
   13924:	c7 47 08 00 00 00 00 	movl   $0x0,0x8(%edi)
   1392b:	c1 f8 02             	sar    $0x2,%eax
   1392e:	c7 47 04 00 00 00 00 	movl   $0x0,0x4(%edi)
   13935:	c7 47 0c 00 00 00 00 	movl   $0x0,0xc(%edi)
   1393c:	c7 45 a0 00 00 00 00 	movl   $0x0,-0x60(%ebp)
   13943:	74 1b                	je     13960 <_ZNSt6vectorI5ModelSaIS0_EE13_M_insert_auxEN9__gnu_cxx17__normal_iteratorIPS0_S2_EERKS0_+0x830>
   13945:	3d ff ff ff 3f       	cmp    $0x3fffffff,%eax
   1394a:	0f 87 a0 02 00 00    	ja     13bf0 <_ZNSt6vectorI5ModelSaIS0_EE13_M_insert_auxEN9__gnu_cxx17__normal_iteratorIPS0_S2_EERKS0_+0xac0>
   13950:	c1 e0 02             	shl    $0x2,%eax
   13953:	89 45 a0             	mov    %eax,-0x60(%ebp)
   13956:	89 04 24             	mov    %eax,(%esp)
   13959:	e8 f2 34 ff ff       	call   6e50 <_Znwj@plt>
   1395e:	89 c2                	mov    %eax,%edx
   13960:	8b 45 a0             	mov    -0x60(%ebp),%eax
   13963:	89 57 04             	mov    %edx,0x4(%edi)
   13966:	01 d0                	add    %edx,%eax
   13968:	89 57 08             	mov    %edx,0x8(%edi)
   1396b:	89 47 0c             	mov    %eax,0xc(%edi)
   1396e:	8b 4e 08             	mov    0x8(%esi),%ecx
   13971:	8b 46 04             	mov    0x4(%esi),%eax
   13974:	89 14 24             	mov    %edx,(%esp)
   13977:	29 c1                	sub    %eax,%ecx
   13979:	89 95 7c ff ff ff    	mov    %edx,-0x84(%ebp)
   1397f:	83 e1 fc             	and    $0xfffffffc,%ecx
   13982:	89 44 24 04          	mov    %eax,0x4(%esp)
   13986:	89 4c 24 08          	mov    %ecx,0x8(%esp)
   1398a:	89 4d 80             	mov    %ecx,-0x80(%ebp)
   1398d:	e8 6e 42 ff ff       	call   7c00 <memmove@plt>
   13992:	8b 46 10             	mov    0x10(%esi),%eax
   13995:	8b 95 7c ff ff ff    	mov    -0x84(%ebp),%edx
   1399b:	89 47 10             	mov    %eax,0x10(%edi)
   1399e:	8b 4d 80             	mov    -0x80(%ebp),%ecx
   139a1:	8b 46 14             	mov    0x14(%esi),%eax
   139a4:	01 ca                	add    %ecx,%edx
   139a6:	89 47 14             	mov    %eax,0x14(%edi)
   139a9:	8b 46 18             	mov    0x18(%esi),%eax
   139ac:	89 57 08             	mov    %edx,0x8(%edi)
   139af:	89 47 18             	mov    %eax,0x18(%edi)
   139b2:	83 45 a4 1c          	addl   $0x1c,-0x5c(%ebp)
   139b6:	8d 76 1c             	lea    0x1c(%esi),%esi
   139b9:	39 75 9c             	cmp    %esi,-0x64(%ebp)
   139bc:	8b 7d a4             	mov    -0x5c(%ebp),%edi
   139bf:	0f 85 4b ff ff ff    	jne    13910 <_ZNSt6vectorI5ModelSaIS0_EE13_M_insert_auxEN9__gnu_cxx17__normal_iteratorIPS0_S2_EERKS0_+0x7e0>
   139c5:	89 7d 90             	mov    %edi,-0x70(%ebp)
   139c8:	8b 4d 98             	mov    -0x68(%ebp),%ecx
   139cb:	8b 45 90             	mov    -0x70(%ebp),%eax
   139ce:	89 41 10             	mov    %eax,0x10(%ecx)
   139d1:	8b 45 10             	mov    0x10(%ebp),%eax
   139d4:	83 c0 18             	add    $0x18,%eax
   139d7:	89 44 24 04          	mov    %eax,0x4(%esp)
   139db:	89 c8                	mov    %ecx,%eax
   139dd:	83 c0 18             	add    $0x18,%eax
   139e0:	89 04 24             	mov    %eax,(%esp)
   139e3:	e8 08 38 ff ff       	call   71f0 <_ZNSsC1ERKSs@plt>
   139e8:	8b 4d 10             	mov    0x10(%ebp),%ecx
   139eb:	8b 55 98             	mov    -0x68(%ebp),%edx
   139ee:	8b 41 1c             	mov    0x1c(%ecx),%eax
   139f1:	89 42 1c             	mov    %eax,0x1c(%edx)
   139f4:	8b 41 20             	mov    0x20(%ecx),%eax
   139f7:	89 42 20             	mov    %eax,0x20(%edx)
   139fa:	8b 41 24             	mov    0x24(%ecx),%eax
   139fd:	89 42 24             	mov    %eax,0x24(%edx)
   13a00:	8b 41 28             	mov    0x28(%ecx),%eax
   13a03:	89 42 28             	mov    %eax,0x28(%edx)
   13a06:	8b 41 2c             	mov    0x2c(%ecx),%eax
   13a09:	89 42 2c             	mov    %eax,0x2c(%edx)
   13a0c:	8b 41 30             	mov    0x30(%ecx),%eax
   13a0f:	89 42 30             	mov    %eax,0x30(%edx)
   13a12:	8b 4d 08             	mov    0x8(%ebp),%ecx
   13a15:	8b 45 94             	mov    -0x6c(%ebp),%eax
   13a18:	8b 55 0c             	mov    0xc(%ebp),%edx
   13a1b:	89 4c 24 0c          	mov    %ecx,0xc(%esp)
   13a1f:	89 44 24 08          	mov    %eax,0x8(%esp)
   13a23:	89 54 24 04          	mov    %edx,0x4(%esp)
   13a27:	c7 45 8c 00 00 00 00 	movl   $0x0,-0x74(%ebp)
   13a2e:	8b 01                	mov    (%ecx),%eax
   13a30:	89 04 24             	mov    %eax,(%esp)
   13a33:	e8 98 3d ff ff       	call   77d0 <_ZSt22__uninitialized_move_aIP5ModelS1_SaIS0_EET0_T_S4_S3_RT1_@plt>
   13a38:	8b 4d 08             	mov    0x8(%ebp),%ecx
   13a3b:	8d 40 34             	lea    0x34(%eax),%eax
   13a3e:	89 4c 24 0c          	mov    %ecx,0xc(%esp)
   13a42:	89 45 8c             	mov    %eax,-0x74(%ebp)
   13a45:	89 44 24 08          	mov    %eax,0x8(%esp)
   13a49:	8b 41 04             	mov    0x4(%ecx),%eax
   13a4c:	89 44 24 04          	mov    %eax,0x4(%esp)
   13a50:	8b 45 0c             	mov    0xc(%ebp),%eax
   13a53:	89 04 24             	mov    %eax,(%esp)
   13a56:	e8 75 3d ff ff       	call   77d0 <_ZSt22__uninitialized_move_aIP5ModelS1_SaIS0_EET0_T_S4_S3_RT1_@plt>
   13a5b:	8b 55 08             	mov    0x8(%ebp),%edx
   13a5e:	8b 4d 08             	mov    0x8(%ebp),%ecx
   13a61:	89 45 9c             	mov    %eax,-0x64(%ebp)
   13a64:	8b 09                	mov    (%ecx),%ecx
   13a66:	8b 52 04             	mov    0x4(%edx),%edx
   13a69:	39 ca                	cmp    %ecx,%edx
   13a6b:	89 55 a0             	mov    %edx,-0x60(%ebp)
   13a6e:	89 4d a4             	mov    %ecx,-0x5c(%ebp)
   13a71:	89 c8                	mov    %ecx,%eax
   13a73:	74 7d                	je     13af2 <_ZNSt6vectorI5ModelSaIS0_EE13_M_insert_auxEN9__gnu_cxx17__normal_iteratorIPS0_S2_EERKS0_+0x9c2>
   13a75:	8d 45 e6             	lea    -0x1a(%ebp),%eax
   13a78:	89 45 98             	mov    %eax,-0x68(%ebp)
   13a7b:	90                   	nop
   13a7c:	8d 74 26 00          	lea    0x0(%esi,%eiz,1),%esi
   13a80:	8b 55 a4             	mov    -0x5c(%ebp),%edx
   13a83:	8b 42 18             	mov    0x18(%edx),%eax
   13a86:	83 e8 0c             	sub    $0xc,%eax
   13a89:	39 83 94 ff ff ff    	cmp    %eax,-0x6c(%ebx)
   13a8f:	0f 85 a0 01 00 00    	jne    13c35 <_ZNSt6vectorI5ModelSaIS0_EE13_M_insert_auxEN9__gnu_cxx17__normal_iteratorIPS0_S2_EERKS0_+0xb05>
   13a95:	8b 45 a4             	mov    -0x5c(%ebp),%eax
   13a98:	8b 78 10             	mov    0x10(%eax),%edi
   13a9b:	8b 70 0c             	mov    0xc(%eax),%esi
   13a9e:	39 f7                	cmp    %esi,%edi
   13aa0:	74 1c                	je     13abe <_ZNSt6vectorI5ModelSaIS0_EE13_M_insert_auxEN9__gnu_cxx17__normal_iteratorIPS0_S2_EERKS0_+0x98e>
   13aa2:	8d b6 00 00 00 00    	lea    0x0(%esi),%esi
   13aa8:	8b 46 04             	mov    0x4(%esi),%eax
   13aab:	85 c0                	test   %eax,%eax
   13aad:	74 08                	je     13ab7 <_ZNSt6vectorI5ModelSaIS0_EE13_M_insert_auxEN9__gnu_cxx17__normal_iteratorIPS0_S2_EERKS0_+0x987>
   13aaf:	89 04 24             	mov    %eax,(%esp)
   13ab2:	e8 19 3a ff ff       	call   74d0 <_ZdlPv@plt>
   13ab7:	8d 76 1c             	lea    0x1c(%esi),%esi
   13aba:	39 f7                	cmp    %esi,%edi
   13abc:	75 ea                	jne    13aa8 <_ZNSt6vectorI5ModelSaIS0_EE13_M_insert_auxEN9__gnu_cxx17__normal_iteratorIPS0_S2_EERKS0_+0x978>
   13abe:	8b 55 a4             	mov    -0x5c(%ebp),%edx
   13ac1:	8b 42 0c             	mov    0xc(%edx),%eax
   13ac4:	85 c0                	test   %eax,%eax
   13ac6:	74 08                	je     13ad0 <_ZNSt6vectorI5ModelSaIS0_EE13_M_insert_auxEN9__gnu_cxx17__normal_iteratorIPS0_S2_EERKS0_+0x9a0>
   13ac8:	89 04 24             	mov    %eax,(%esp)
   13acb:	e8 00 3a ff ff       	call   74d0 <_ZdlPv@plt>
   13ad0:	8b 4d a4             	mov    -0x5c(%ebp),%ecx
   13ad3:	8b 01                	mov    (%ecx),%eax
   13ad5:	85 c0                	test   %eax,%eax
   13ad7:	74 08                	je     13ae1 <_ZNSt6vectorI5ModelSaIS0_EE13_M_insert_auxEN9__gnu_cxx17__normal_iteratorIPS0_S2_EERKS0_+0x9b1>
   13ad9:	89 04 24             	mov    %eax,(%esp)
   13adc:	e8 ef 39 ff ff       	call   74d0 <_ZdlPv@plt>
   13ae1:	83 45 a4 34          	addl   $0x34,-0x5c(%ebp)
   13ae5:	8b 45 a4             	mov    -0x5c(%ebp),%eax
   13ae8:	39 45 a0             	cmp    %eax,-0x60(%ebp)
   13aeb:	75 93                	jne    13a80 <_ZNSt6vectorI5ModelSaIS0_EE13_M_insert_auxEN9__gnu_cxx17__normal_iteratorIPS0_S2_EERKS0_+0x950>
   13aed:	8b 55 08             	mov    0x8(%ebp),%edx
   13af0:	8b 02                	mov    (%edx),%eax
   13af2:	85 c0                	test   %eax,%eax
   13af4:	74 08                	je     13afe <_ZNSt6vectorI5ModelSaIS0_EE13_M_insert_auxEN9__gnu_cxx17__normal_iteratorIPS0_S2_EERKS0_+0x9ce>
   13af6:	89 04 24             	mov    %eax,(%esp)
   13af9:	e8 d2 39 ff ff       	call   74d0 <_ZdlPv@plt>
   13afe:	8b 4d 08             	mov    0x8(%ebp),%ecx
   13b01:	8b 45 94             	mov    -0x6c(%ebp),%eax
   13b04:	8b 55 9c             	mov    -0x64(%ebp),%edx
   13b07:	89 01                	mov    %eax,(%ecx)
   13b09:	89 51 04             	mov    %edx,0x4(%ecx)
   13b0c:	6b 45 88 34          	imul   $0x34,-0x78(%ebp),%eax
   13b10:	03 45 94             	add    -0x6c(%ebp),%eax
   13b13:	89 41 08             	mov    %eax,0x8(%ecx)
   13b16:	8d a4 24 8c 00 00 00 	lea    0x8c(%esp),%esp
   13b1d:	5b                   	pop    %ebx
   13b1e:	5e                   	pop    %esi
   13b1f:	5f                   	pop    %edi
   13b20:	5d                   	pop    %ebp
   13b21:	c3                   	ret    
   13b22:	31 c0                	xor    %eax,%eax
   13b24:	e9 97 f8 ff ff       	jmp    133c0 <_ZNSt6vectorI5ModelSaIS0_EE13_M_insert_auxEN9__gnu_cxx17__normal_iteratorIPS0_S2_EERKS0_+0x290>
   13b29:	8b 4d 0c             	mov    0xc(%ebp),%ecx
   13b2c:	c7 45 88 01 00 00 00 	movl   $0x1,-0x78(%ebp)
   13b33:	29 c1                	sub    %eax,%ecx
   13b35:	89 c8                	mov    %ecx,%eax
   13b37:	c1 f8 02             	sar    $0x2,%eax
   13b3a:	69 f0 c5 4e ec c4    	imul   $0xc4ec4ec5,%eax,%esi
   13b40:	6b 45 88 34          	imul   $0x34,-0x78(%ebp),%eax
   13b44:	e9 64 fc ff ff       	jmp    137ad <_ZNSt6vectorI5ModelSaIS0_EE13_M_insert_auxEN9__gnu_cxx17__normal_iteratorIPS0_S2_EERKS0_+0x67d>
   13b49:	e8 62 35 ff ff       	call   70b0 <_ZSt17__throw_bad_allocv@plt>
   13b4e:	e8 5d 35 ff ff       	call   70b0 <_ZSt17__throw_bad_allocv@plt>
   13b53:	89 c6                	mov    %eax,%esi
   13b55:	89 34 24             	mov    %esi,(%esp)
   13b58:	e8 73 35 ff ff       	call   70d0 <__cxa_begin_catch@plt>
   13b5d:	83 7d 8c 00          	cmpl   $0x0,-0x74(%ebp)
   13b61:	8b 75 94             	mov    -0x6c(%ebp),%esi
   13b64:	74 32                	je     13b98 <_ZNSt6vectorI5ModelSaIS0_EE13_M_insert_auxEN9__gnu_cxx17__normal_iteratorIPS0_S2_EERKS0_+0xa68>
   13b66:	39 75 8c             	cmp    %esi,-0x74(%ebp)
   13b69:	74 38                	je     13ba3 <_ZNSt6vectorI5ModelSaIS0_EE13_M_insert_auxEN9__gnu_cxx17__normal_iteratorIPS0_S2_EERKS0_+0xa73>
   13b6b:	89 34 24             	mov    %esi,(%esp)
   13b6e:	8d 76 34             	lea    0x34(%esi),%esi
   13b71:	e8 fa 3b ff ff       	call   7770 <_ZN5ModelD1Ev@plt>
   13b76:	eb ee                	jmp    13b66 <_ZNSt6vectorI5ModelSaIS0_EE13_M_insert_auxEN9__gnu_cxx17__normal_iteratorIPS0_S2_EERKS0_+0xa36>
   13b78:	8b 4d 84             	mov    -0x7c(%ebp),%ecx
   13b7b:	89 c6                	mov    %eax,%esi
   13b7d:	89 0c 24             	mov    %ecx,(%esp)
   13b80:	e8 eb 3e ff ff       	call   7a70 <_ZNSt6vectorI4FaceSaIS0_EED1Ev@plt>
   13b85:	8b 55 98             	mov    -0x68(%ebp),%edx
   13b88:	8b 02                	mov    (%edx),%eax
   13b8a:	85 c0                	test   %eax,%eax
   13b8c:	74 c7                	je     13b55 <_ZNSt6vectorI5ModelSaIS0_EE13_M_insert_auxEN9__gnu_cxx17__normal_iteratorIPS0_S2_EERKS0_+0xa25>
   13b8e:	89 04 24             	mov    %eax,(%esp)
   13b91:	e8 3a 39 ff ff       	call   74d0 <_ZdlPv@plt>
   13b96:	eb bd                	jmp    13b55 <_ZNSt6vectorI5ModelSaIS0_EE13_M_insert_auxEN9__gnu_cxx17__normal_iteratorIPS0_S2_EERKS0_+0xa25>
   13b98:	8b 4d 98             	mov    -0x68(%ebp),%ecx
   13b9b:	89 0c 24             	mov    %ecx,(%esp)
   13b9e:	e8 cd 3b ff ff       	call   7770 <_ZN5ModelD1Ev@plt>
   13ba3:	83 7d 94 00          	cmpl   $0x0,-0x6c(%ebp)
   13ba7:	74 0b                	je     13bb4 <_ZNSt6vectorI5ModelSaIS0_EE13_M_insert_auxEN9__gnu_cxx17__normal_iteratorIPS0_S2_EERKS0_+0xa84>
   13ba9:	8b 45 94             	mov    -0x6c(%ebp),%eax
   13bac:	89 04 24             	mov    %eax,(%esp)
   13baf:	e8 1c 39 ff ff       	call   74d0 <_ZdlPv@plt>
   13bb4:	e8 47 3d ff ff       	call   7900 <__cxa_rethrow@plt>
   13bb9:	89 c6                	mov    %eax,%esi
   13bbb:	e8 e0 3e ff ff       	call   7aa0 <__cxa_end_catch@plt>
   13bc0:	89 34 24             	mov    %esi,(%esp)
   13bc3:	e8 b8 3f ff ff       	call   7b80 <_Unwind_Resume@plt>
   13bc8:	89 04 24             	mov    %eax,(%esp)
   13bcb:	e8 00 35 ff ff       	call   70d0 <__cxa_begin_catch@plt>
   13bd0:	8b 75 90             	mov    -0x70(%ebp),%esi
   13bd3:	39 f7                	cmp    %esi,%edi
   13bd5:	74 14                	je     13beb <_ZNSt6vectorI5ModelSaIS0_EE13_M_insert_auxEN9__gnu_cxx17__normal_iteratorIPS0_S2_EERKS0_+0xabb>
   13bd7:	8b 46 04             	mov    0x4(%esi),%eax
   13bda:	85 c0                	test   %eax,%eax
   13bdc:	74 08                	je     13be6 <_ZNSt6vectorI5ModelSaIS0_EE13_M_insert_auxEN9__gnu_cxx17__normal_iteratorIPS0_S2_EERKS0_+0xab6>
   13bde:	89 04 24             	mov    %eax,(%esp)
   13be1:	e8 ea 38 ff ff       	call   74d0 <_ZdlPv@plt>
   13be6:	8d 76 1c             	lea    0x1c(%esi),%esi
   13be9:	eb e8                	jmp    13bd3 <_ZNSt6vectorI5ModelSaIS0_EE13_M_insert_auxEN9__gnu_cxx17__normal_iteratorIPS0_S2_EERKS0_+0xaa3>
   13beb:	e8 10 3d ff ff       	call   7900 <__cxa_rethrow@plt>
   13bf0:	e8 bb 34 ff ff       	call   70b0 <_ZSt17__throw_bad_allocv@plt>
   13bf5:	89 c6                	mov    %eax,%esi
   13bf7:	e8 a4 3e ff ff       	call   7aa0 <__cxa_end_catch@plt>
   13bfc:	8b 55 98             	mov    -0x68(%ebp),%edx
   13bff:	8b 42 0c             	mov    0xc(%edx),%eax
   13c02:	85 c0                	test   %eax,%eax
   13c04:	0f 84 7b ff ff ff    	je     13b85 <_ZNSt6vectorI5ModelSaIS0_EE13_M_insert_auxEN9__gnu_cxx17__normal_iteratorIPS0_S2_EERKS0_+0xa55>
   13c0a:	89 04 24             	mov    %eax,(%esp)
   13c0d:	e8 be 38 ff ff       	call   74d0 <_ZdlPv@plt>
   13c12:	e9 6e ff ff ff       	jmp    13b85 <_ZNSt6vectorI5ModelSaIS0_EE13_M_insert_auxEN9__gnu_cxx17__normal_iteratorIPS0_S2_EERKS0_+0xa55>
   13c17:	89 c6                	mov    %eax,%esi
   13c19:	e9 67 ff ff ff       	jmp    13b85 <_ZNSt6vectorI5ModelSaIS0_EE13_M_insert_auxEN9__gnu_cxx17__normal_iteratorIPS0_S2_EERKS0_+0xa55>
   13c1e:	66 90                	xchg   %ax,%ax
   13c20:	e8 8b 34 ff ff       	call   70b0 <_ZSt17__throw_bad_allocv@plt>
   13c25:	e9 29 ff ff ff       	jmp    13b53 <_ZNSt6vectorI5ModelSaIS0_EE13_M_insert_auxEN9__gnu_cxx17__normal_iteratorIPS0_S2_EERKS0_+0xa23>
   13c2a:	8d b6 00 00 00 00    	lea    0x0(%esi),%esi
   13c30:	e8 7b 34 ff ff       	call   70b0 <_ZSt17__throw_bad_allocv@plt>
   13c35:	83 bb a0 ff ff ff 00 	cmpl   $0x0,-0x60(%ebx)
   13c3c:	74 2b                	je     13c69 <_ZNSt6vectorI5ModelSaIS0_EE13_M_insert_auxEN9__gnu_cxx17__normal_iteratorIPS0_S2_EERKS0_+0xb39>
   13c3e:	83 ca ff             	or     $0xffffffff,%edx
   13c41:	f0 0f c1 50 08       	lock xadd %edx,0x8(%eax)
   13c46:	85 d2                	test   %edx,%edx
   13c48:	0f 8f 47 fe ff ff    	jg     13a95 <_ZNSt6vectorI5ModelSaIS0_EE13_M_insert_auxEN9__gnu_cxx17__normal_iteratorIPS0_S2_EERKS0_+0x965>
   13c4e:	8b 4d 98             	mov    -0x68(%ebp),%ecx
   13c51:	89 04 24             	mov    %eax,(%esp)
   13c54:	89 4c 24 04          	mov    %ecx,0x4(%esp)
   13c58:	e8 f3 36 ff ff       	call   7350 <_ZNSs4_Rep10_M_destroyERKSaIcE@plt>
   13c5d:	e9 33 fe ff ff       	jmp    13a95 <_ZNSt6vectorI5ModelSaIS0_EE13_M_insert_auxEN9__gnu_cxx17__normal_iteratorIPS0_S2_EERKS0_+0x965>
   13c62:	89 c6                	mov    %eax,%esi
   13c64:	e9 57 ff ff ff       	jmp    13bc0 <_ZNSt6vectorI5ModelSaIS0_EE13_M_insert_auxEN9__gnu_cxx17__normal_iteratorIPS0_S2_EERKS0_+0xa90>
   13c69:	8b 50 08             	mov    0x8(%eax),%edx
   13c6c:	8d 4a ff             	lea    -0x1(%edx),%ecx
   13c6f:	89 48 08             	mov    %ecx,0x8(%eax)
   13c72:	eb d2                	jmp    13c46 <_ZNSt6vectorI5ModelSaIS0_EE13_M_insert_auxEN9__gnu_cxx17__normal_iteratorIPS0_S2_EERKS0_+0xb16>
   13c74:	e8 37 34 ff ff       	call   70b0 <_ZSt17__throw_bad_allocv@plt>
   13c79:	e8 32 34 ff ff       	call   70b0 <_ZSt17__throw_bad_allocv@plt>
   13c7e:	66 90                	xchg   %ax,%ax
   13c80:	e8 2b 34 ff ff       	call   70b0 <_ZSt17__throw_bad_allocv@plt>
   13c85:	eb db                	jmp    13c62 <_ZNSt6vectorI5ModelSaIS0_EE13_M_insert_auxEN9__gnu_cxx17__normal_iteratorIPS0_S2_EERKS0_+0xb32>
   13c87:	89 c6                	mov    %eax,%esi
   13c89:	8b 45 b0             	mov    -0x50(%ebp),%eax
   13c8c:	85 c0                	test   %eax,%eax
   13c8e:	0f 84 2c ff ff ff    	je     13bc0 <_ZNSt6vectorI5ModelSaIS0_EE13_M_insert_auxEN9__gnu_cxx17__normal_iteratorIPS0_S2_EERKS0_+0xa90>
   13c94:	89 04 24             	mov    %eax,(%esp)
   13c97:	e8 34 38 ff ff       	call   74d0 <_ZdlPv@plt>
   13c9c:	e9 1f ff ff ff       	jmp    13bc0 <_ZNSt6vectorI5ModelSaIS0_EE13_M_insert_auxEN9__gnu_cxx17__normal_iteratorIPS0_S2_EERKS0_+0xa90>
   13ca1:	89 04 24             	mov    %eax,(%esp)
   13ca4:	e8 27 34 ff ff       	call   70d0 <__cxa_begin_catch@plt>
   13ca9:	8b 75 90             	mov    -0x70(%ebp),%esi
   13cac:	39 f7                	cmp    %esi,%edi
   13cae:	74 14                	je     13cc4 <_ZNSt6vectorI5ModelSaIS0_EE13_M_insert_auxEN9__gnu_cxx17__normal_iteratorIPS0_S2_EERKS0_+0xb94>
   13cb0:	8b 46 04             	mov    0x4(%esi),%eax
   13cb3:	85 c0                	test   %eax,%eax
   13cb5:	74 08                	je     13cbf <_ZNSt6vectorI5ModelSaIS0_EE13_M_insert_auxEN9__gnu_cxx17__normal_iteratorIPS0_S2_EERKS0_+0xb8f>
   13cb7:	89 04 24             	mov    %eax,(%esp)
   13cba:	e8 11 38 ff ff       	call   74d0 <_ZdlPv@plt>
   13cbf:	8d 76 1c             	lea    0x1c(%esi),%esi
   13cc2:	eb e8                	jmp    13cac <_ZNSt6vectorI5ModelSaIS0_EE13_M_insert_auxEN9__gnu_cxx17__normal_iteratorIPS0_S2_EERKS0_+0xb7c>
   13cc4:	e8 37 3c ff ff       	call   7900 <__cxa_rethrow@plt>
   13cc9:	81 f9 c4 4e ec 04    	cmp    $0x4ec4ec4,%ecx
   13ccf:	0f 87 bc fa ff ff    	ja     13791 <_ZNSt6vectorI5ModelSaIS0_EE13_M_insert_auxEN9__gnu_cxx17__normal_iteratorIPS0_S2_EERKS0_+0x661>
   13cd5:	8b 55 0c             	mov    0xc(%ebp),%edx
   13cd8:	c7 45 94 00 00 00 00 	movl   $0x0,-0x6c(%ebp)
   13cdf:	29 c2                	sub    %eax,%edx
   13ce1:	89 d0                	mov    %edx,%eax
   13ce3:	c1 f8 02             	sar    $0x2,%eax
   13ce6:	69 f0 c5 4e ec c4    	imul   $0xc4ec4ec5,%eax,%esi
   13cec:	85 c9                	test   %ecx,%ecx
   13cee:	0f 84 c4 fa ff ff    	je     137b8 <_ZNSt6vectorI5ModelSaIS0_EE13_M_insert_auxEN9__gnu_cxx17__normal_iteratorIPS0_S2_EERKS0_+0x688>
   13cf4:	e9 47 fe ff ff       	jmp    13b40 <_ZNSt6vectorI5ModelSaIS0_EE13_M_insert_auxEN9__gnu_cxx17__normal_iteratorIPS0_S2_EERKS0_+0xa10>
   13cf9:	89 c6                	mov    %eax,%esi
   13cfb:	8d 45 bc             	lea    -0x44(%ebp),%eax
   13cfe:	89 04 24             	mov    %eax,(%esp)
   13d01:	e8 6a 3d ff ff       	call   7a70 <_ZNSt6vectorI4FaceSaIS0_EED1Ev@plt>
   13d06:	eb 81                	jmp    13c89 <_ZNSt6vectorI5ModelSaIS0_EE13_M_insert_auxEN9__gnu_cxx17__normal_iteratorIPS0_S2_EERKS0_+0xb59>
   13d08:	89 04 24             	mov    %eax,(%esp)
   13d0b:	e8 c0 33 ff ff       	call   70d0 <__cxa_begin_catch@plt>
   13d10:	8b 75 98             	mov    -0x68(%ebp),%esi
   13d13:	39 f7                	cmp    %esi,%edi
   13d15:	74 14                	je     13d2b <_ZNSt6vectorI5ModelSaIS0_EE13_M_insert_auxEN9__gnu_cxx17__normal_iteratorIPS0_S2_EERKS0_+0xbfb>
   13d17:	8b 46 04             	mov    0x4(%esi),%eax
   13d1a:	85 c0                	test   %eax,%eax
   13d1c:	74 08                	je     13d26 <_ZNSt6vectorI5ModelSaIS0_EE13_M_insert_auxEN9__gnu_cxx17__normal_iteratorIPS0_S2_EERKS0_+0xbf6>
   13d1e:	89 04 24             	mov    %eax,(%esp)
   13d21:	e8 aa 37 ff ff       	call   74d0 <_ZdlPv@plt>
   13d26:	8d 76 1c             	lea    0x1c(%esi),%esi
   13d29:	eb e8                	jmp    13d13 <_ZNSt6vectorI5ModelSaIS0_EE13_M_insert_auxEN9__gnu_cxx17__normal_iteratorIPS0_S2_EERKS0_+0xbe3>
   13d2b:	e8 d0 3b ff ff       	call   7900 <__cxa_rethrow@plt>
   13d30:	e8 7b 33 ff ff       	call   70b0 <_ZSt17__throw_bad_allocv@plt>
   13d35:	89 c6                	mov    %eax,%esi
   13d37:	8b 55 98             	mov    -0x68(%ebp),%edx
   13d3a:	8b 02                	mov    (%edx),%eax
   13d3c:	85 c0                	test   %eax,%eax
   13d3e:	0f 85 50 ff ff ff    	jne    13c94 <_ZNSt6vectorI5ModelSaIS0_EE13_M_insert_auxEN9__gnu_cxx17__normal_iteratorIPS0_S2_EERKS0_+0xb64>
   13d44:	e9 77 fe ff ff       	jmp    13bc0 <_ZNSt6vectorI5ModelSaIS0_EE13_M_insert_auxEN9__gnu_cxx17__normal_iteratorIPS0_S2_EERKS0_+0xa90>
   13d49:	89 c6                	mov    %eax,%esi
   13d4b:	e8 50 3d ff ff       	call   7aa0 <__cxa_end_catch@plt>
   13d50:	8b 45 bc             	mov    -0x44(%ebp),%eax
   13d53:	85 c0                	test   %eax,%eax
   13d55:	0f 84 2e ff ff ff    	je     13c89 <_ZNSt6vectorI5ModelSaIS0_EE13_M_insert_auxEN9__gnu_cxx17__normal_iteratorIPS0_S2_EERKS0_+0xb59>
   13d5b:	89 04 24             	mov    %eax,(%esp)
   13d5e:	e8 6d 37 ff ff       	call   74d0 <_ZdlPv@plt>
   13d63:	e9 21 ff ff ff       	jmp    13c89 <_ZNSt6vectorI5ModelSaIS0_EE13_M_insert_auxEN9__gnu_cxx17__normal_iteratorIPS0_S2_EERKS0_+0xb59>
   13d68:	83 bb a0 ff ff ff 00 	cmpl   $0x0,-0x60(%ebx)
   13d6f:	74 39                	je     13daa <_ZNSt6vectorI5ModelSaIS0_EE13_M_insert_auxEN9__gnu_cxx17__normal_iteratorIPS0_S2_EERKS0_+0xc7a>
   13d71:	83 ca ff             	or     $0xffffffff,%edx
   13d74:	f0 0f c1 50 08       	lock xadd %edx,0x8(%eax)
   13d79:	85 d2                	test   %edx,%edx
   13d7b:	0f 8f 96 f9 ff ff    	jg     13717 <_ZNSt6vectorI5ModelSaIS0_EE13_M_insert_auxEN9__gnu_cxx17__normal_iteratorIPS0_S2_EERKS0_+0x5e7>
   13d81:	8d 55 e7             	lea    -0x19(%ebp),%edx
   13d84:	89 04 24             	mov    %eax,(%esp)
   13d87:	89 54 24 04          	mov    %edx,0x4(%esp)
   13d8b:	e8 c0 35 ff ff       	call   7350 <_ZNSs4_Rep10_M_destroyERKSaIcE@plt>
   13d90:	e9 82 f9 ff ff       	jmp    13717 <_ZNSt6vectorI5ModelSaIS0_EE13_M_insert_auxEN9__gnu_cxx17__normal_iteratorIPS0_S2_EERKS0_+0x5e7>
   13d95:	89 c6                	mov    %eax,%esi
   13d97:	8b 4d a4             	mov    -0x5c(%ebp),%ecx
   13d9a:	89 0c 24             	mov    %ecx,(%esp)
   13d9d:	e8 ce 39 ff ff       	call   7770 <_ZN5ModelD1Ev@plt>
   13da2:	89 34 24             	mov    %esi,(%esp)
   13da5:	e8 d6 3d ff ff       	call   7b80 <_Unwind_Resume@plt>
   13daa:	8b 50 08             	mov    0x8(%eax),%edx
   13dad:	8d 4a ff             	lea    -0x1(%edx),%ecx
   13db0:	89 48 08             	mov    %ecx,0x8(%eax)
   13db3:	eb c4                	jmp    13d79 <_ZNSt6vectorI5ModelSaIS0_EE13_M_insert_auxEN9__gnu_cxx17__normal_iteratorIPS0_S2_EERKS0_+0xc49>
   13db5:	89 c6                	mov    %eax,%esi
   13db7:	8b 45 8c             	mov    -0x74(%ebp),%eax
   13dba:	89 04 24             	mov    %eax,(%esp)
   13dbd:	e8 ae 3c ff ff       	call   7a70 <_ZNSt6vectorI4FaceSaIS0_EED1Ev@plt>
   13dc2:	e9 70 ff ff ff       	jmp    13d37 <_ZNSt6vectorI5ModelSaIS0_EE13_M_insert_auxEN9__gnu_cxx17__normal_iteratorIPS0_S2_EERKS0_+0xc07>
   13dc7:	89 c6                	mov    %eax,%esi
   13dc9:	e8 d2 3c ff ff       	call   7aa0 <__cxa_end_catch@plt>
   13dce:	8b 55 98             	mov    -0x68(%ebp),%edx
   13dd1:	8b 42 0c             	mov    0xc(%edx),%eax
   13dd4:	85 c0                	test   %eax,%eax
   13dd6:	0f 84 5b ff ff ff    	je     13d37 <_ZNSt6vectorI5ModelSaIS0_EE13_M_insert_auxEN9__gnu_cxx17__normal_iteratorIPS0_S2_EERKS0_+0xc07>
   13ddc:	89 04 24             	mov    %eax,(%esp)
   13ddf:	e8 ec 36 ff ff       	call   74d0 <_ZdlPv@plt>
   13de4:	e9 4e ff ff ff       	jmp    13d37 <_ZNSt6vectorI5ModelSaIS0_EE13_M_insert_auxEN9__gnu_cxx17__normal_iteratorIPS0_S2_EERKS0_+0xc07>
   13de9:	90                   	nop
   13dea:	90                   	nop
   13deb:	90                   	nop
   13dec:	90                   	nop
   13ded:	90                   	nop
   13dee:	90                   	nop
   13def:	90                   	nop

00013df0 <_ZN5PointC1Efff>:
   13df0:	55                   	push   %ebp
   13df1:	89 e5                	mov    %esp,%ebp
   13df3:	8b 45 08             	mov    0x8(%ebp),%eax
   13df6:	8b 55 0c             	mov    0xc(%ebp),%edx
   13df9:	89 10                	mov    %edx,(%eax)
   13dfb:	8b 55 10             	mov    0x10(%ebp),%edx
   13dfe:	89 50 04             	mov    %edx,0x4(%eax)
   13e01:	8b 55 14             	mov    0x14(%ebp),%edx
   13e04:	89 50 08             	mov    %edx,0x8(%eax)
   13e07:	5d                   	pop    %ebp
   13e08:	c3                   	ret    
   13e09:	90                   	nop
   13e0a:	8d b6 00 00 00 00    	lea    0x0(%esi),%esi

00013e10 <_ZN6VectorC1Efff>:
   13e10:	55                   	push   %ebp
   13e11:	89 e5                	mov    %esp,%ebp
   13e13:	8b 45 08             	mov    0x8(%ebp),%eax
   13e16:	8b 55 0c             	mov    0xc(%ebp),%edx
   13e19:	89 10                	mov    %edx,(%eax)
   13e1b:	8b 55 10             	mov    0x10(%ebp),%edx
   13e1e:	89 50 04             	mov    %edx,0x4(%eax)
   13e21:	8b 55 14             	mov    0x14(%ebp),%edx
   13e24:	89 50 08             	mov    %edx,0x8(%eax)
   13e27:	5d                   	pop    %ebp
   13e28:	c3                   	ret    
   13e29:	90                   	nop
   13e2a:	8d b6 00 00 00 00    	lea    0x0(%esi),%esi

00013e30 <_ZN6VectorC1ERK5Point>:
   13e30:	55                   	push   %ebp
   13e31:	89 e5                	mov    %esp,%ebp
   13e33:	8b 55 0c             	mov    0xc(%ebp),%edx
   13e36:	8b 45 08             	mov    0x8(%ebp),%eax
   13e39:	8b 0a                	mov    (%edx),%ecx
   13e3b:	89 08                	mov    %ecx,(%eax)
   13e3d:	8b 4a 04             	mov    0x4(%edx),%ecx
   13e40:	89 48 04             	mov    %ecx,0x4(%eax)
   13e43:	8b 52 08             	mov    0x8(%edx),%edx
   13e46:	89 50 08             	mov    %edx,0x8(%eax)
   13e49:	5d                   	pop    %ebp
   13e4a:	c3                   	ret    
   13e4b:	90                   	nop
   13e4c:	8d 74 26 00          	lea    0x0(%esi,%eiz,1),%esi

00013e50 <_ZN5PointC1ERK6Vector>:
   13e50:	55                   	push   %ebp
   13e51:	89 e5                	mov    %esp,%ebp
   13e53:	8b 55 0c             	mov    0xc(%ebp),%edx
   13e56:	8b 45 08             	mov    0x8(%ebp),%eax
   13e59:	8b 0a                	mov    (%edx),%ecx
   13e5b:	89 08                	mov    %ecx,(%eax)
   13e5d:	8b 4a 04             	mov    0x4(%edx),%ecx
   13e60:	89 48 04             	mov    %ecx,0x4(%eax)
   13e63:	8b 52 08             	mov    0x8(%edx),%edx
   13e66:	89 50 08             	mov    %edx,0x8(%eax)
   13e69:	5d                   	pop    %ebp
   13e6a:	c3                   	ret    
   13e6b:	90                   	nop
   13e6c:	8d 74 26 00          	lea    0x0(%esi,%eiz,1),%esi

00013e70 <_ZNK6Vector13squaredLengthEv>:
   13e70:	55                   	push   %ebp
   13e71:	89 e5                	mov    %esp,%ebp
   13e73:	8b 45 08             	mov    0x8(%ebp),%eax
   13e76:	5d                   	pop    %ebp
   13e77:	d9 00                	flds   (%eax)
   13e79:	d9 40 04             	flds   0x4(%eax)
   13e7c:	d9 40 08             	flds   0x8(%eax)
   13e7f:	d9 ca                	fxch   %st(2)
   13e81:	d8 c8                	fmul   %st(0),%st
   13e83:	d9 c9                	fxch   %st(1)
   13e85:	d8 c8                	fmul   %st(0),%st
   13e87:	de c1                	faddp  %st,%st(1)
   13e89:	d9 c9                	fxch   %st(1)
   13e8b:	d8 c8                	fmul   %st(0),%st
   13e8d:	de c1                	faddp  %st,%st(1)
   13e8f:	c3                   	ret    

00013e90 <_ZplRK5PointS1_>:
   13e90:	55                   	push   %ebp
   13e91:	89 e5                	mov    %esp,%ebp
   13e93:	8d 64 24 e8          	lea    -0x18(%esp),%esp
   13e97:	89 5d f8             	mov    %ebx,-0x8(%ebp)
   13e9a:	8b 4d 0c             	mov    0xc(%ebp),%ecx
   13e9d:	e8 97 3f ff ff       	call   7e39 <__i686.get_pc_thunk.bx>
   13ea2:	81 c3 02 56 00 00    	add    $0x5602,%ebx
   13ea8:	89 75 fc             	mov    %esi,-0x4(%ebp)
   13eab:	8b 55 10             	mov    0x10(%ebp),%edx
   13eae:	d9 41 08             	flds   0x8(%ecx)
   13eb1:	d8 42 08             	fadds  0x8(%edx)
   13eb4:	d9 5c 24 0c          	fstps  0xc(%esp)
   13eb8:	8b 75 08             	mov    0x8(%ebp),%esi
   13ebb:	d9 41 04             	flds   0x4(%ecx)
   13ebe:	d8 42 04             	fadds  0x4(%edx)
   13ec1:	d9 5c 24 08          	fstps  0x8(%esp)
   13ec5:	d9 01                	flds   (%ecx)
   13ec7:	d8 02                	fadds  (%edx)
   13ec9:	89 34 24             	mov    %esi,(%esp)
   13ecc:	d9 5c 24 04          	fstps  0x4(%esp)
   13ed0:	e8 8b 36 ff ff       	call   7560 <_ZN5PointC1Efff@plt>
   13ed5:	89 f0                	mov    %esi,%eax
   13ed7:	8b 5d f8             	mov    -0x8(%ebp),%ebx
   13eda:	8b 75 fc             	mov    -0x4(%ebp),%esi
   13edd:	89 ec                	mov    %ebp,%esp
   13edf:	5d                   	pop    %ebp
   13ee0:	c2 04 00             	ret    $0x4
   13ee3:	8d b6 00 00 00 00    	lea    0x0(%esi),%esi
   13ee9:	8d bc 27 00 00 00 00 	lea    0x0(%edi,%eiz,1),%edi

00013ef0 <_ZpLR5PointRKS_>:
   13ef0:	55                   	push   %ebp
   13ef1:	89 e5                	mov    %esp,%ebp
   13ef3:	8b 45 08             	mov    0x8(%ebp),%eax
   13ef6:	8b 55 0c             	mov    0xc(%ebp),%edx
   13ef9:	d9 00                	flds   (%eax)
   13efb:	d8 02                	fadds  (%edx)
   13efd:	d9 18                	fstps  (%eax)
   13eff:	d9 40 04             	flds   0x4(%eax)
   13f02:	d8 42 04             	fadds  0x4(%edx)
   13f05:	d9 58 04             	fstps  0x4(%eax)
   13f08:	d9 40 08             	flds   0x8(%eax)
   13f0b:	d8 42 08             	fadds  0x8(%edx)
   13f0e:	d9 58 08             	fstps  0x8(%eax)
   13f11:	5d                   	pop    %ebp
   13f12:	c3                   	ret    
   13f13:	8d b6 00 00 00 00    	lea    0x0(%esi),%esi
   13f19:	8d bc 27 00 00 00 00 	lea    0x0(%edi,%eiz,1),%edi

00013f20 <_ZmiRK5PointS1_>:
   13f20:	55                   	push   %ebp
   13f21:	89 e5                	mov    %esp,%ebp
   13f23:	8d 64 24 e8          	lea    -0x18(%esp),%esp
   13f27:	89 5d f8             	mov    %ebx,-0x8(%ebp)
   13f2a:	8b 4d 0c             	mov    0xc(%ebp),%ecx
   13f2d:	e8 07 3f ff ff       	call   7e39 <__i686.get_pc_thunk.bx>
   13f32:	81 c3 72 55 00 00    	add    $0x5572,%ebx
   13f38:	89 75 fc             	mov    %esi,-0x4(%ebp)
   13f3b:	8b 55 10             	mov    0x10(%ebp),%edx
   13f3e:	d9 41 08             	flds   0x8(%ecx)
   13f41:	d8 62 08             	fsubs  0x8(%edx)
   13f44:	d9 5c 24 0c          	fstps  0xc(%esp)
   13f48:	8b 75 08             	mov    0x8(%ebp),%esi
   13f4b:	d9 41 04             	flds   0x4(%ecx)
   13f4e:	d8 62 04             	fsubs  0x4(%edx)
   13f51:	d9 5c 24 08          	fstps  0x8(%esp)
   13f55:	d9 01                	flds   (%ecx)
   13f57:	d8 22                	fsubs  (%edx)
   13f59:	89 34 24             	mov    %esi,(%esp)
   13f5c:	d9 5c 24 04          	fstps  0x4(%esp)
   13f60:	e8 ab 37 ff ff       	call   7710 <_ZN6VectorC1Efff@plt>
   13f65:	89 f0                	mov    %esi,%eax
   13f67:	8b 5d f8             	mov    -0x8(%ebp),%ebx
   13f6a:	8b 75 fc             	mov    -0x4(%ebp),%esi
   13f6d:	89 ec                	mov    %ebp,%esp
   13f6f:	5d                   	pop    %ebp
   13f70:	c2 04 00             	ret    $0x4
   13f73:	8d b6 00 00 00 00    	lea    0x0(%esi),%esi
   13f79:	8d bc 27 00 00 00 00 	lea    0x0(%edi,%eiz,1),%edi

00013f80 <_ZplRK5PointRK6Vector>:
   13f80:	55                   	push   %ebp
   13f81:	89 e5                	mov    %esp,%ebp
   13f83:	8d 64 24 e8          	lea    -0x18(%esp),%esp
   13f87:	89 5d f8             	mov    %ebx,-0x8(%ebp)
   13f8a:	8b 4d 0c             	mov    0xc(%ebp),%ecx
   13f8d:	e8 a7 3e ff ff       	call   7e39 <__i686.get_pc_thunk.bx>
   13f92:	81 c3 12 55 00 00    	add    $0x5512,%ebx
   13f98:	89 75 fc             	mov    %esi,-0x4(%ebp)
   13f9b:	8b 55 10             	mov    0x10(%ebp),%edx
   13f9e:	d9 41 08             	flds   0x8(%ecx)
   13fa1:	d8 42 08             	fadds  0x8(%edx)
   13fa4:	d9 5c 24 0c          	fstps  0xc(%esp)
   13fa8:	8b 75 08             	mov    0x8(%ebp),%esi
   13fab:	d9 41 04             	flds   0x4(%ecx)
   13fae:	d8 42 04             	fadds  0x4(%edx)
   13fb1:	d9 5c 24 08          	fstps  0x8(%esp)
   13fb5:	d9 01                	flds   (%ecx)
   13fb7:	d8 02                	fadds  (%edx)
   13fb9:	89 34 24             	mov    %esi,(%esp)
   13fbc:	d9 5c 24 04          	fstps  0x4(%esp)
   13fc0:	e8 9b 35 ff ff       	call   7560 <_ZN5PointC1Efff@plt>
   13fc5:	89 f0                	mov    %esi,%eax
   13fc7:	8b 5d f8             	mov    -0x8(%ebp),%ebx
   13fca:	8b 75 fc             	mov    -0x4(%ebp),%esi
   13fcd:	89 ec                	mov    %ebp,%esp
   13fcf:	5d                   	pop    %ebp
   13fd0:	c2 04 00             	ret    $0x4
   13fd3:	8d b6 00 00 00 00    	lea    0x0(%esi),%esi
   13fd9:	8d bc 27 00 00 00 00 	lea    0x0(%edi,%eiz,1),%edi

00013fe0 <_ZpLR5PointRK6Vector>:
   13fe0:	55                   	push   %ebp
   13fe1:	89 e5                	mov    %esp,%ebp
   13fe3:	8b 45 08             	mov    0x8(%ebp),%eax
   13fe6:	8b 55 0c             	mov    0xc(%ebp),%edx
   13fe9:	d9 00                	flds   (%eax)
   13feb:	d8 02                	fadds  (%edx)
   13fed:	d9 18                	fstps  (%eax)
   13fef:	d9 40 04             	flds   0x4(%eax)
   13ff2:	d8 42 04             	fadds  0x4(%edx)
   13ff5:	d9 58 04             	fstps  0x4(%eax)
   13ff8:	d9 40 08             	flds   0x8(%eax)
   13ffb:	d8 42 08             	fadds  0x8(%edx)
   13ffe:	d9 58 08             	fstps  0x8(%eax)
   14001:	5d                   	pop    %ebp
   14002:	c3                   	ret    
   14003:	8d b6 00 00 00 00    	lea    0x0(%esi),%esi
   14009:	8d bc 27 00 00 00 00 	lea    0x0(%edi,%eiz,1),%edi

00014010 <_ZmiRK5PointRK6Vector>:
   14010:	55                   	push   %ebp
   14011:	89 e5                	mov    %esp,%ebp
   14013:	8d 64 24 e8          	lea    -0x18(%esp),%esp
   14017:	89 5d f8             	mov    %ebx,-0x8(%ebp)
   1401a:	8b 4d 0c             	mov    0xc(%ebp),%ecx
   1401d:	e8 17 3e ff ff       	call   7e39 <__i686.get_pc_thunk.bx>
   14022:	81 c3 82 54 00 00    	add    $0x5482,%ebx
   14028:	89 75 fc             	mov    %esi,-0x4(%ebp)
   1402b:	8b 55 10             	mov    0x10(%ebp),%edx
   1402e:	d9 41 08             	flds   0x8(%ecx)
   14031:	d8 62 08             	fsubs  0x8(%edx)
   14034:	d9 5c 24 0c          	fstps  0xc(%esp)
   14038:	8b 75 08             	mov    0x8(%ebp),%esi
   1403b:	d9 41 04             	flds   0x4(%ecx)
   1403e:	d8 62 04             	fsubs  0x4(%edx)
   14041:	d9 5c 24 08          	fstps  0x8(%esp)
   14045:	d9 01                	flds   (%ecx)
   14047:	d8 22                	fsubs  (%edx)
   14049:	89 34 24             	mov    %esi,(%esp)
   1404c:	d9 5c 24 04          	fstps  0x4(%esp)
   14050:	e8 0b 35 ff ff       	call   7560 <_ZN5PointC1Efff@plt>
   14055:	89 f0                	mov    %esi,%eax
   14057:	8b 5d f8             	mov    -0x8(%ebp),%ebx
   1405a:	8b 75 fc             	mov    -0x4(%ebp),%esi
   1405d:	89 ec                	mov    %ebp,%esp
   1405f:	5d                   	pop    %ebp
   14060:	c2 04 00             	ret    $0x4
   14063:	8d b6 00 00 00 00    	lea    0x0(%esi),%esi
   14069:	8d bc 27 00 00 00 00 	lea    0x0(%edi,%eiz,1),%edi

00014070 <_ZmIR5PointRK6Vector>:
   14070:	55                   	push   %ebp
   14071:	89 e5                	mov    %esp,%ebp
   14073:	8b 45 08             	mov    0x8(%ebp),%eax
   14076:	8b 55 0c             	mov    0xc(%ebp),%edx
   14079:	d9 00                	flds   (%eax)
   1407b:	d8 22                	fsubs  (%edx)
   1407d:	d9 18                	fstps  (%eax)
   1407f:	d9 40 04             	flds   0x4(%eax)
   14082:	d8 62 04             	fsubs  0x4(%edx)
   14085:	d9 58 04             	fstps  0x4(%eax)
   14088:	d9 40 08             	flds   0x8(%eax)
   1408b:	d8 62 08             	fsubs  0x8(%edx)
   1408e:	d9 58 08             	fstps  0x8(%eax)
   14091:	5d                   	pop    %ebp
   14092:	c3                   	ret    
   14093:	8d b6 00 00 00 00    	lea    0x0(%esi),%esi
   14099:	8d bc 27 00 00 00 00 	lea    0x0(%edi,%eiz,1),%edi

000140a0 <_ZplRK6VectorS1_>:
   140a0:	55                   	push   %ebp
   140a1:	89 e5                	mov    %esp,%ebp
   140a3:	8d 64 24 e8          	lea    -0x18(%esp),%esp
   140a7:	89 5d f8             	mov    %ebx,-0x8(%ebp)
   140aa:	8b 4d 0c             	mov    0xc(%ebp),%ecx
   140ad:	e8 87 3d ff ff       	call   7e39 <__i686.get_pc_thunk.bx>
   140b2:	81 c3 f2 53 00 00    	add    $0x53f2,%ebx
   140b8:	89 75 fc             	mov    %esi,-0x4(%ebp)
   140bb:	8b 55 10             	mov    0x10(%ebp),%edx
   140be:	d9 41 08             	flds   0x8(%ecx)
   140c1:	d8 42 08             	fadds  0x8(%edx)
   140c4:	d9 5c 24 0c          	fstps  0xc(%esp)
   140c8:	8b 75 08             	mov    0x8(%ebp),%esi
   140cb:	d9 41 04             	flds   0x4(%ecx)
   140ce:	d8 42 04             	fadds  0x4(%edx)
   140d1:	d9 5c 24 08          	fstps  0x8(%esp)
   140d5:	d9 01                	flds   (%ecx)
   140d7:	d8 02                	fadds  (%edx)
   140d9:	89 34 24             	mov    %esi,(%esp)
   140dc:	d9 5c 24 04          	fstps  0x4(%esp)
   140e0:	e8 2b 36 ff ff       	call   7710 <_ZN6VectorC1Efff@plt>
   140e5:	89 f0                	mov    %esi,%eax
   140e7:	8b 5d f8             	mov    -0x8(%ebp),%ebx
   140ea:	8b 75 fc             	mov    -0x4(%ebp),%esi
   140ed:	89 ec                	mov    %ebp,%esp
   140ef:	5d                   	pop    %ebp
   140f0:	c2 04 00             	ret    $0x4
   140f3:	8d b6 00 00 00 00    	lea    0x0(%esi),%esi
   140f9:	8d bc 27 00 00 00 00 	lea    0x0(%edi,%eiz,1),%edi

00014100 <_ZpLR6VectorRKS_>:
   14100:	55                   	push   %ebp
   14101:	89 e5                	mov    %esp,%ebp
   14103:	8d 64 24 d8          	lea    -0x28(%esp),%esp
   14107:	89 5d f8             	mov    %ebx,-0x8(%ebp)
   1410a:	89 75 fc             	mov    %esi,-0x4(%ebp)
   1410d:	e8 27 3d ff ff       	call   7e39 <__i686.get_pc_thunk.bx>
   14112:	81 c3 92 53 00 00    	add    $0x5392,%ebx
   14118:	8b 75 08             	mov    0x8(%ebp),%esi
   1411b:	8b 55 0c             	mov    0xc(%ebp),%edx
   1411e:	8d 45 e8             	lea    -0x18(%ebp),%eax
   14121:	89 74 24 04          	mov    %esi,0x4(%esp)
   14125:	89 04 24             	mov    %eax,(%esp)
   14128:	89 54 24 08          	mov    %edx,0x8(%esp)
   1412c:	e8 bf 37 ff ff       	call   78f0 <_ZplRK6VectorS1_@plt>
   14131:	8b 45 e8             	mov    -0x18(%ebp),%eax
   14134:	83 ec 04             	sub    $0x4,%esp
   14137:	89 06                	mov    %eax,(%esi)
   14139:	8b 45 ec             	mov    -0x14(%ebp),%eax
   1413c:	89 46 04             	mov    %eax,0x4(%esi)
   1413f:	8b 45 f0             	mov    -0x10(%ebp),%eax
   14142:	89 46 08             	mov    %eax,0x8(%esi)
   14145:	89 f0                	mov    %esi,%eax
   14147:	8b 5d f8             	mov    -0x8(%ebp),%ebx
   1414a:	8b 75 fc             	mov    -0x4(%ebp),%esi
   1414d:	89 ec                	mov    %ebp,%esp
   1414f:	5d                   	pop    %ebp
   14150:	c3                   	ret    
   14151:	eb 0d                	jmp    14160 <_ZmiRK6VectorS1_>
   14153:	90                   	nop
   14154:	90                   	nop
   14155:	90                   	nop
   14156:	90                   	nop
   14157:	90                   	nop
   14158:	90                   	nop
   14159:	90                   	nop
   1415a:	90                   	nop
   1415b:	90                   	nop
   1415c:	90                   	nop
   1415d:	90                   	nop
   1415e:	90                   	nop
   1415f:	90                   	nop

00014160 <_ZmiRK6VectorS1_>:
   14160:	55                   	push   %ebp
   14161:	89 e5                	mov    %esp,%ebp
   14163:	8d 64 24 e8          	lea    -0x18(%esp),%esp
   14167:	89 5d f8             	mov    %ebx,-0x8(%ebp)
   1416a:	8b 4d 0c             	mov    0xc(%ebp),%ecx
   1416d:	e8 c7 3c ff ff       	call   7e39 <__i686.get_pc_thunk.bx>
   14172:	81 c3 32 53 00 00    	add    $0x5332,%ebx
   14178:	89 75 fc             	mov    %esi,-0x4(%ebp)
   1417b:	8b 55 10             	mov    0x10(%ebp),%edx
   1417e:	d9 41 08             	flds   0x8(%ecx)
   14181:	d8 62 08             	fsubs  0x8(%edx)
   14184:	d9 5c 24 0c          	fstps  0xc(%esp)
   14188:	8b 75 08             	mov    0x8(%ebp),%esi
   1418b:	d9 41 04             	flds   0x4(%ecx)
   1418e:	d8 62 04             	fsubs  0x4(%edx)
   14191:	d9 5c 24 08          	fstps  0x8(%esp)
   14195:	d9 01                	flds   (%ecx)
   14197:	d8 22                	fsubs  (%edx)
   14199:	89 34 24             	mov    %esi,(%esp)
   1419c:	d9 5c 24 04          	fstps  0x4(%esp)
   141a0:	e8 6b 35 ff ff       	call   7710 <_ZN6VectorC1Efff@plt>
   141a5:	89 f0                	mov    %esi,%eax
   141a7:	8b 5d f8             	mov    -0x8(%ebp),%ebx
   141aa:	8b 75 fc             	mov    -0x4(%ebp),%esi
   141ad:	89 ec                	mov    %ebp,%esp
   141af:	5d                   	pop    %ebp
   141b0:	c2 04 00             	ret    $0x4
   141b3:	8d b6 00 00 00 00    	lea    0x0(%esi),%esi
   141b9:	8d bc 27 00 00 00 00 	lea    0x0(%edi,%eiz,1),%edi

000141c0 <_ZmIR6VectorRKS_>:
   141c0:	55                   	push   %ebp
   141c1:	89 e5                	mov    %esp,%ebp
   141c3:	8d 64 24 d8          	lea    -0x28(%esp),%esp
   141c7:	89 5d f8             	mov    %ebx,-0x8(%ebp)
   141ca:	89 75 fc             	mov    %esi,-0x4(%ebp)
   141cd:	e8 67 3c ff ff       	call   7e39 <__i686.get_pc_thunk.bx>
   141d2:	81 c3 d2 52 00 00    	add    $0x52d2,%ebx
   141d8:	8b 75 08             	mov    0x8(%ebp),%esi
   141db:	8b 55 0c             	mov    0xc(%ebp),%edx
   141de:	8d 45 e8             	lea    -0x18(%ebp),%eax
   141e1:	89 74 24 04          	mov    %esi,0x4(%esp)
   141e5:	89 04 24             	mov    %eax,(%esp)
   141e8:	89 54 24 08          	mov    %edx,0x8(%esp)
   141ec:	e8 4f 2d ff ff       	call   6f40 <_ZmiRK6VectorS1_@plt>
   141f1:	8b 45 e8             	mov    -0x18(%ebp),%eax
   141f4:	83 ec 04             	sub    $0x4,%esp
   141f7:	89 06                	mov    %eax,(%esi)
   141f9:	8b 45 ec             	mov    -0x14(%ebp),%eax
   141fc:	89 46 04             	mov    %eax,0x4(%esi)
   141ff:	8b 45 f0             	mov    -0x10(%ebp),%eax
   14202:	89 46 08             	mov    %eax,0x8(%esi)
   14205:	89 f0                	mov    %esi,%eax
   14207:	8b 5d f8             	mov    -0x8(%ebp),%ebx
   1420a:	8b 75 fc             	mov    -0x4(%ebp),%esi
   1420d:	89 ec                	mov    %ebp,%esp
   1420f:	5d                   	pop    %ebp
   14210:	c3                   	ret    
   14211:	eb 0d                	jmp    14220 <_ZmlRK5Pointf>
   14213:	90                   	nop
   14214:	90                   	nop
   14215:	90                   	nop
   14216:	90                   	nop
   14217:	90                   	nop
   14218:	90                   	nop
   14219:	90                   	nop
   1421a:	90                   	nop
   1421b:	90                   	nop
   1421c:	90                   	nop
   1421d:	90                   	nop
   1421e:	90                   	nop
   1421f:	90                   	nop

00014220 <_ZmlRK5Pointf>:
   14220:	55                   	push   %ebp
   14221:	89 e5                	mov    %esp,%ebp
   14223:	8d 64 24 e8          	lea    -0x18(%esp),%esp
   14227:	89 5d f8             	mov    %ebx,-0x8(%ebp)
   1422a:	8b 55 0c             	mov    0xc(%ebp),%edx
   1422d:	e8 07 3c ff ff       	call   7e39 <__i686.get_pc_thunk.bx>
   14232:	81 c3 72 52 00 00    	add    $0x5272,%ebx
   14238:	89 75 fc             	mov    %esi,-0x4(%ebp)
   1423b:	d9 45 10             	flds   0x10(%ebp)
   1423e:	d9 42 08             	flds   0x8(%edx)
   14241:	8b 75 08             	mov    0x8(%ebp),%esi
   14244:	d8 c9                	fmul   %st(1),%st
   14246:	d9 5c 24 0c          	fstps  0xc(%esp)
   1424a:	d9 42 04             	flds   0x4(%edx)
   1424d:	d8 c9                	fmul   %st(1),%st
   1424f:	d9 5c 24 08          	fstps  0x8(%esp)
   14253:	d8 0a                	fmuls  (%edx)
   14255:	89 34 24             	mov    %esi,(%esp)
   14258:	d9 5c 24 04          	fstps  0x4(%esp)
   1425c:	e8 ff 32 ff ff       	call   7560 <_ZN5PointC1Efff@plt>
   14261:	89 f0                	mov    %esi,%eax
   14263:	8b 5d f8             	mov    -0x8(%ebp),%ebx
   14266:	8b 75 fc             	mov    -0x4(%ebp),%esi
   14269:	89 ec                	mov    %ebp,%esp
   1426b:	5d                   	pop    %ebp
   1426c:	c2 04 00             	ret    $0x4
   1426f:	90                   	nop

00014270 <_ZmlfRK5Point>:
   14270:	55                   	push   %ebp
   14271:	89 e5                	mov    %esp,%ebp
   14273:	8d 64 24 e8          	lea    -0x18(%esp),%esp
   14277:	89 5d f8             	mov    %ebx,-0x8(%ebp)
   1427a:	8b 45 0c             	mov    0xc(%ebp),%eax
   1427d:	e8 b7 3b ff ff       	call   7e39 <__i686.get_pc_thunk.bx>
   14282:	81 c3 22 52 00 00    	add    $0x5222,%ebx
   14288:	89 75 fc             	mov    %esi,-0x4(%ebp)
   1428b:	89 44 24 08          	mov    %eax,0x8(%esp)
   1428f:	8b 75 08             	mov    0x8(%ebp),%esi
   14292:	8b 45 10             	mov    0x10(%ebp),%eax
   14295:	89 44 24 04          	mov    %eax,0x4(%esp)
   14299:	89 34 24             	mov    %esi,(%esp)
   1429c:	e8 9f 2d ff ff       	call   7040 <_ZmlRK5Pointf@plt>
   142a1:	83 ec 04             	sub    $0x4,%esp
   142a4:	89 f0                	mov    %esi,%eax
   142a6:	8b 5d f8             	mov    -0x8(%ebp),%ebx
   142a9:	8b 75 fc             	mov    -0x4(%ebp),%esi
   142ac:	89 ec                	mov    %ebp,%esp
   142ae:	5d                   	pop    %ebp
   142af:	c2 04 00             	ret    $0x4
   142b2:	8d b4 26 00 00 00 00 	lea    0x0(%esi,%eiz,1),%esi
   142b9:	8d bc 27 00 00 00 00 	lea    0x0(%edi,%eiz,1),%edi

000142c0 <_ZdvRK5Pointf>:
   142c0:	55                   	push   %ebp
   142c1:	d9 e8                	fld1   
   142c3:	89 e5                	mov    %esp,%ebp
   142c5:	8d 64 24 e8          	lea    -0x18(%esp),%esp
   142c9:	d8 75 10             	fdivs  0x10(%ebp)
   142cc:	89 5d f8             	mov    %ebx,-0x8(%ebp)
   142cf:	8b 55 0c             	mov    0xc(%ebp),%edx
   142d2:	e8 62 3b ff ff       	call   7e39 <__i686.get_pc_thunk.bx>
   142d7:	81 c3 cd 51 00 00    	add    $0x51cd,%ebx
   142dd:	89 75 fc             	mov    %esi,-0x4(%ebp)
   142e0:	8b 75 08             	mov    0x8(%ebp),%esi
   142e3:	d9 42 08             	flds   0x8(%edx)
   142e6:	d8 c9                	fmul   %st(1),%st
   142e8:	d9 5c 24 0c          	fstps  0xc(%esp)
   142ec:	d9 42 04             	flds   0x4(%edx)
   142ef:	d8 c9                	fmul   %st(1),%st
   142f1:	d9 5c 24 08          	fstps  0x8(%esp)
   142f5:	d8 0a                	fmuls  (%edx)
   142f7:	89 34 24             	mov    %esi,(%esp)
   142fa:	d9 5c 24 04          	fstps  0x4(%esp)
   142fe:	e8 5d 32 ff ff       	call   7560 <_ZN5PointC1Efff@plt>
   14303:	89 f0                	mov    %esi,%eax
   14305:	8b 5d f8             	mov    -0x8(%ebp),%ebx
   14308:	8b 75 fc             	mov    -0x4(%ebp),%esi
   1430b:	89 ec                	mov    %ebp,%esp
   1430d:	5d                   	pop    %ebp
   1430e:	c2 04 00             	ret    $0x4
   14311:	eb 0d                	jmp    14320 <_ZdVR5Pointf>
   14313:	90                   	nop
   14314:	90                   	nop
   14315:	90                   	nop
   14316:	90                   	nop
   14317:	90                   	nop
   14318:	90                   	nop
   14319:	90                   	nop
   1431a:	90                   	nop
   1431b:	90                   	nop
   1431c:	90                   	nop
   1431d:	90                   	nop
   1431e:	90                   	nop
   1431f:	90                   	nop

00014320 <_ZdVR5Pointf>:
   14320:	55                   	push   %ebp
   14321:	d9 e8                	fld1   
   14323:	89 e5                	mov    %esp,%ebp
   14325:	d8 75 0c             	fdivs  0xc(%ebp)
   14328:	8b 45 08             	mov    0x8(%ebp),%eax
   1432b:	d9 00                	flds   (%eax)
   1432d:	d8 c9                	fmul   %st(1),%st
   1432f:	d9 18                	fstps  (%eax)
   14331:	d9 40 04             	flds   0x4(%eax)
   14334:	d8 c9                	fmul   %st(1),%st
   14336:	d9 58 04             	fstps  0x4(%eax)
   14339:	d8 48 08             	fmuls  0x8(%eax)
   1433c:	d9 58 08             	fstps  0x8(%eax)
   1433f:	5d                   	pop    %ebp
   14340:	c3                   	ret    
   14341:	eb 0d                	jmp    14350 <_ZmlRK6Vectorf>
   14343:	90                   	nop
   14344:	90                   	nop
   14345:	90                   	nop
   14346:	90                   	nop
   14347:	90                   	nop
   14348:	90                   	nop
   14349:	90                   	nop
   1434a:	90                   	nop
   1434b:	90                   	nop
   1434c:	90                   	nop
   1434d:	90                   	nop
   1434e:	90                   	nop
   1434f:	90                   	nop

00014350 <_ZmlRK6Vectorf>:
   14350:	55                   	push   %ebp
   14351:	89 e5                	mov    %esp,%ebp
   14353:	8d 64 24 e8          	lea    -0x18(%esp),%esp
   14357:	89 5d f8             	mov    %ebx,-0x8(%ebp)
   1435a:	8b 55 0c             	mov    0xc(%ebp),%edx
   1435d:	e8 d7 3a ff ff       	call   7e39 <__i686.get_pc_thunk.bx>
   14362:	81 c3 42 51 00 00    	add    $0x5142,%ebx
   14368:	89 75 fc             	mov    %esi,-0x4(%ebp)
   1436b:	d9 45 10             	flds   0x10(%ebp)
   1436e:	d9 42 08             	flds   0x8(%edx)
   14371:	8b 75 08             	mov    0x8(%ebp),%esi
   14374:	d8 c9                	fmul   %st(1),%st
   14376:	d9 5c 24 0c          	fstps  0xc(%esp)
   1437a:	d9 42 04             	flds   0x4(%edx)
   1437d:	d8 c9                	fmul   %st(1),%st
   1437f:	d9 5c 24 08          	fstps  0x8(%esp)
   14383:	d8 0a                	fmuls  (%edx)
   14385:	89 34 24             	mov    %esi,(%esp)
   14388:	d9 5c 24 04          	fstps  0x4(%esp)
   1438c:	e8 7f 33 ff ff       	call   7710 <_ZN6VectorC1Efff@plt>
   14391:	89 f0                	mov    %esi,%eax
   14393:	8b 5d f8             	mov    -0x8(%ebp),%ebx
   14396:	8b 75 fc             	mov    -0x4(%ebp),%esi
   14399:	89 ec                	mov    %ebp,%esp
   1439b:	5d                   	pop    %ebp
   1439c:	c2 04 00             	ret    $0x4
   1439f:	90                   	nop

000143a0 <_ZmlfRK6Vector>:
   143a0:	55                   	push   %ebp
   143a1:	89 e5                	mov    %esp,%ebp
   143a3:	8d 64 24 e8          	lea    -0x18(%esp),%esp
   143a7:	89 5d f8             	mov    %ebx,-0x8(%ebp)
   143aa:	8b 45 0c             	mov    0xc(%ebp),%eax
   143ad:	e8 87 3a ff ff       	call   7e39 <__i686.get_pc_thunk.bx>
   143b2:	81 c3 f2 50 00 00    	add    $0x50f2,%ebx
   143b8:	89 75 fc             	mov    %esi,-0x4(%ebp)
   143bb:	89 44 24 08          	mov    %eax,0x8(%esp)
   143bf:	8b 75 08             	mov    0x8(%ebp),%esi
   143c2:	8b 45 10             	mov    0x10(%ebp),%eax
   143c5:	89 44 24 04          	mov    %eax,0x4(%esp)
   143c9:	89 34 24             	mov    %esi,(%esp)
   143cc:	e8 1f 33 ff ff       	call   76f0 <_ZmlRK6Vectorf@plt>
   143d1:	83 ec 04             	sub    $0x4,%esp
   143d4:	89 f0                	mov    %esi,%eax
   143d6:	8b 5d f8             	mov    -0x8(%ebp),%ebx
   143d9:	8b 75 fc             	mov    -0x4(%ebp),%esi
   143dc:	89 ec                	mov    %ebp,%esp
   143de:	5d                   	pop    %ebp
   143df:	c2 04 00             	ret    $0x4
   143e2:	8d b4 26 00 00 00 00 	lea    0x0(%esi,%eiz,1),%esi
   143e9:	8d bc 27 00 00 00 00 	lea    0x0(%edi,%eiz,1),%edi

000143f0 <_ZdvRK6Vectorf>:
   143f0:	55                   	push   %ebp
   143f1:	d9 e8                	fld1   
   143f3:	89 e5                	mov    %esp,%ebp
   143f5:	8d 64 24 e8          	lea    -0x18(%esp),%esp
   143f9:	d8 75 10             	fdivs  0x10(%ebp)
   143fc:	89 5d f8             	mov    %ebx,-0x8(%ebp)
   143ff:	8b 55 0c             	mov    0xc(%ebp),%edx
   14402:	e8 32 3a ff ff       	call   7e39 <__i686.get_pc_thunk.bx>
   14407:	81 c3 9d 50 00 00    	add    $0x509d,%ebx
   1440d:	89 75 fc             	mov    %esi,-0x4(%ebp)
   14410:	8b 75 08             	mov    0x8(%ebp),%esi
   14413:	d9 42 08             	flds   0x8(%edx)
   14416:	d8 c9                	fmul   %st(1),%st
   14418:	d9 5c 24 0c          	fstps  0xc(%esp)
   1441c:	d9 42 04             	flds   0x4(%edx)
   1441f:	d8 c9                	fmul   %st(1),%st
   14421:	d9 5c 24 08          	fstps  0x8(%esp)
   14425:	d8 0a                	fmuls  (%edx)
   14427:	89 34 24             	mov    %esi,(%esp)
   1442a:	d9 5c 24 04          	fstps  0x4(%esp)
   1442e:	e8 dd 32 ff ff       	call   7710 <_ZN6VectorC1Efff@plt>
   14433:	89 f0                	mov    %esi,%eax
   14435:	8b 5d f8             	mov    -0x8(%ebp),%ebx
   14438:	8b 75 fc             	mov    -0x4(%ebp),%esi
   1443b:	89 ec                	mov    %ebp,%esp
   1443d:	5d                   	pop    %ebp
   1443e:	c2 04 00             	ret    $0x4
   14441:	eb 0d                	jmp    14450 <_ZdVR6Vectorf>
   14443:	90                   	nop
   14444:	90                   	nop
   14445:	90                   	nop
   14446:	90                   	nop
   14447:	90                   	nop
   14448:	90                   	nop
   14449:	90                   	nop
   1444a:	90                   	nop
   1444b:	90                   	nop
   1444c:	90                   	nop
   1444d:	90                   	nop
   1444e:	90                   	nop
   1444f:	90                   	nop

00014450 <_ZdVR6Vectorf>:
   14450:	55                   	push   %ebp
   14451:	d9 e8                	fld1   
   14453:	89 e5                	mov    %esp,%ebp
   14455:	d8 75 0c             	fdivs  0xc(%ebp)
   14458:	8b 45 08             	mov    0x8(%ebp),%eax
   1445b:	d9 00                	flds   (%eax)
   1445d:	d8 c9                	fmul   %st(1),%st
   1445f:	d9 18                	fstps  (%eax)
   14461:	d9 40 04             	flds   0x4(%eax)
   14464:	d8 c9                	fmul   %st(1),%st
   14466:	d9 58 04             	fstps  0x4(%eax)
   14469:	d8 48 08             	fmuls  0x8(%eax)
   1446c:	d9 58 08             	fstps  0x8(%eax)
   1446f:	5d                   	pop    %ebp
   14470:	c3                   	ret    
   14471:	eb 0d                	jmp    14480 <_ZmlRK6VectorS1_>
   14473:	90                   	nop
   14474:	90                   	nop
   14475:	90                   	nop
   14476:	90                   	nop
   14477:	90                   	nop
   14478:	90                   	nop
   14479:	90                   	nop
   1447a:	90                   	nop
   1447b:	90                   	nop
   1447c:	90                   	nop
   1447d:	90                   	nop
   1447e:	90                   	nop
   1447f:	90                   	nop

00014480 <_ZmlRK6VectorS1_>:
   14480:	55                   	push   %ebp
   14481:	89 e5                	mov    %esp,%ebp
   14483:	8b 55 08             	mov    0x8(%ebp),%edx
   14486:	8b 45 0c             	mov    0xc(%ebp),%eax
   14489:	5d                   	pop    %ebp
   1448a:	d9 02                	flds   (%edx)
   1448c:	d8 08                	fmuls  (%eax)
   1448e:	d9 42 04             	flds   0x4(%edx)
   14491:	d8 48 04             	fmuls  0x4(%eax)
   14494:	de c1                	faddp  %st,%st(1)
   14496:	d9 42 08             	flds   0x8(%edx)
   14499:	d8 48 08             	fmuls  0x8(%eax)
   1449c:	de c1                	faddp  %st,%st(1)
   1449e:	c3                   	ret    
   1449f:	90                   	nop

000144a0 <_ZeoRK6VectorS1_>:
   144a0:	55                   	push   %ebp
   144a1:	89 e5                	mov    %esp,%ebp
   144a3:	56                   	push   %esi
   144a4:	53                   	push   %ebx
   144a5:	e8 8f 39 ff ff       	call   7e39 <__i686.get_pc_thunk.bx>
   144aa:	81 c3 fa 4f 00 00    	add    $0x4ffa,%ebx
   144b0:	8d 64 24 f0          	lea    -0x10(%esp),%esp
   144b4:	8b 4d 0c             	mov    0xc(%ebp),%ecx
   144b7:	8b 55 10             	mov    0x10(%ebp),%edx
   144ba:	8b 75 08             	mov    0x8(%ebp),%esi
   144bd:	d9 01                	flds   (%ecx)
   144bf:	d9 42 04             	flds   0x4(%edx)
   144c2:	d9 41 04             	flds   0x4(%ecx)
   144c5:	d9 02                	flds   (%edx)
   144c7:	d9 41 08             	flds   0x8(%ecx)
   144ca:	d9 42 08             	flds   0x8(%edx)
   144cd:	89 34 24             	mov    %esi,(%esp)
   144d0:	d9 c5                	fld    %st(5)
   144d2:	d8 cd                	fmul   %st(5),%st
   144d4:	d9 c4                	fld    %st(4)
   144d6:	d8 cc                	fmul   %st(4),%st
   144d8:	de e9                	fsubrp %st,%st(1)
   144da:	d9 5c 24 0c          	fstps  0xc(%esp)
   144de:	d9 ca                	fxch   %st(2)
   144e0:	d8 c9                	fmul   %st(1),%st
   144e2:	d9 cd                	fxch   %st(5)
   144e4:	d8 ca                	fmul   %st(2),%st
   144e6:	de ed                	fsubrp %st,%st(5)
   144e8:	d9 cc                	fxch   %st(4)
   144ea:	d9 5c 24 08          	fstps  0x8(%esp)
   144ee:	de c9                	fmulp  %st,%st(1)
   144f0:	d9 ca                	fxch   %st(2)
   144f2:	de c9                	fmulp  %st,%st(1)
   144f4:	de e9                	fsubrp %st,%st(1)
   144f6:	d9 5c 24 04          	fstps  0x4(%esp)
   144fa:	e8 11 32 ff ff       	call   7710 <_ZN6VectorC1Efff@plt>
   144ff:	8d 64 24 10          	lea    0x10(%esp),%esp
   14503:	89 f0                	mov    %esi,%eax
   14505:	5b                   	pop    %ebx
   14506:	5e                   	pop    %esi
   14507:	5d                   	pop    %ebp
   14508:	c2 04 00             	ret    $0x4
   1450b:	90                   	nop
   1450c:	8d 74 26 00          	lea    0x0(%esi,%eiz,1),%esi

00014510 <_GLOBAL__I_point.cpp>:
   14510:	55                   	push   %ebp
   14511:	89 e5                	mov    %esp,%ebp
   14513:	8d 64 24 e8          	lea    -0x18(%esp),%esp
   14517:	89 5d f8             	mov    %ebx,-0x8(%ebp)
   1451a:	89 75 fc             	mov    %esi,-0x4(%ebp)
   1451d:	e8 17 39 ff ff       	call   7e39 <__i686.get_pc_thunk.bx>
   14522:	81 c3 82 4f 00 00    	add    $0x4f82,%ebx
   14528:	8d b3 cc 24 00 00    	lea    0x24cc(%ebx),%esi
   1452e:	89 34 24             	mov    %esi,(%esp)
   14531:	e8 7a 34 ff ff       	call   79b0 <_ZNSt8ios_base4InitC1Ev@plt>
   14536:	8b 83 b0 ff ff ff    	mov    -0x50(%ebx),%eax
   1453c:	89 74 24 04          	mov    %esi,0x4(%esp)
   14540:	89 44 24 08          	mov    %eax,0x8(%esp)
   14544:	8b 83 fc ff ff ff    	mov    -0x4(%ebx),%eax
   1454a:	89 04 24             	mov    %eax,(%esp)
   1454d:	e8 9e 2d ff ff       	call   72f0 <__cxa_atexit@plt>
   14552:	8b 5d f8             	mov    -0x8(%ebp),%ebx
   14555:	8b 75 fc             	mov    -0x4(%ebp),%esi
   14558:	89 ec                	mov    %ebp,%esp
   1455a:	5d                   	pop    %ebp
   1455b:	c3                   	ret    
   1455c:	8d 74 26 00          	lea    0x0(%esi,%eiz,1),%esi

00014560 <_ZNK6Vector6lengthEv>:
   14560:	55                   	push   %ebp
   14561:	89 e5                	mov    %esp,%ebp
   14563:	53                   	push   %ebx
   14564:	e8 d0 38 ff ff       	call   7e39 <__i686.get_pc_thunk.bx>
   14569:	81 c3 3b 4f 00 00    	add    $0x4f3b,%ebx
   1456f:	8d 64 24 ec          	lea    -0x14(%esp),%esp
   14573:	8b 45 08             	mov    0x8(%ebp),%eax
   14576:	89 04 24             	mov    %eax,(%esp)
   14579:	e8 12 2f ff ff       	call   7490 <_ZNK6Vector13squaredLengthEv@plt>
   1457e:	d9 c0                	fld    %st(0)
   14580:	d9 fa                	fsqrt  
   14582:	db e8                	fucomi %st(0),%st
   14584:	7a 06                	jp     1458c <_ZNK6Vector6lengthEv+0x2c>
   14586:	74 18                	je     145a0 <_ZNK6Vector6lengthEv+0x40>
   14588:	dd d8                	fstp   %st(0)
   1458a:	eb 04                	jmp    14590 <_ZNK6Vector6lengthEv+0x30>
   1458c:	dd d8                	fstp   %st(0)
   1458e:	66 90                	xchg   %ax,%ax
   14590:	d9 1c 24             	fstps  (%esp)
   14593:	e8 c8 29 ff ff       	call   6f60 <sqrtf@plt>
   14598:	eb 08                	jmp    145a2 <_ZNK6Vector6lengthEv+0x42>
   1459a:	8d b6 00 00 00 00    	lea    0x0(%esi),%esi
   145a0:	dd d9                	fstp   %st(1)
   145a2:	8d 64 24 14          	lea    0x14(%esp),%esp
   145a6:	5b                   	pop    %ebx
   145a7:	5d                   	pop    %ebp
   145a8:	c3                   	ret    
   145a9:	90                   	nop
   145aa:	8d b6 00 00 00 00    	lea    0x0(%esi),%esi

000145b0 <_ZN6Vector9normalizeEv>:
   145b0:	55                   	push   %ebp
   145b1:	89 e5                	mov    %esp,%ebp
   145b3:	8d 64 24 e8          	lea    -0x18(%esp),%esp
   145b7:	89 5d f8             	mov    %ebx,-0x8(%ebp)
   145ba:	89 75 fc             	mov    %esi,-0x4(%ebp)
   145bd:	e8 77 38 ff ff       	call   7e39 <__i686.get_pc_thunk.bx>
   145c2:	81 c3 e2 4e 00 00    	add    $0x4ee2,%ebx
   145c8:	8b 75 08             	mov    0x8(%ebp),%esi
   145cb:	89 34 24             	mov    %esi,(%esp)
   145ce:	e8 dd 2e ff ff       	call   74b0 <_ZNK6Vector6lengthEv@plt>
   145d3:	d8 bb d8 c0 ff ff    	fdivrs -0x3f28(%ebx)
   145d9:	d9 06                	flds   (%esi)
   145db:	d8 c9                	fmul   %st(1),%st
   145dd:	d9 1e                	fstps  (%esi)
   145df:	d9 46 04             	flds   0x4(%esi)
   145e2:	d8 c9                	fmul   %st(1),%st
   145e4:	d9 5e 04             	fstps  0x4(%esi)
   145e7:	d8 4e 08             	fmuls  0x8(%esi)
   145ea:	d9 5e 08             	fstps  0x8(%esi)
   145ed:	8b 5d f8             	mov    -0x8(%ebp),%ebx
   145f0:	8b 75 fc             	mov    -0x4(%ebp),%esi
   145f3:	89 ec                	mov    %ebp,%esp
   145f5:	5d                   	pop    %ebp
   145f6:	c3                   	ret    
   145f7:	89 f6                	mov    %esi,%esi
   145f9:	8d bc 27 00 00 00 00 	lea    0x0(%edi,%eiz,1),%edi

00014600 <_ZlsRSoRK6Vector>:
   14600:	55                   	push   %ebp
   14601:	89 e5                	mov    %esp,%ebp
   14603:	57                   	push   %edi
   14604:	56                   	push   %esi
   14605:	53                   	push   %ebx
   14606:	e8 2e 38 ff ff       	call   7e39 <__i686.get_pc_thunk.bx>
   1460b:	81 c3 99 4e 00 00    	add    $0x4e99,%ebx
   14611:	8d 64 24 b4          	lea    -0x4c(%esp),%esp
   14615:	8b 45 0c             	mov    0xc(%ebp),%eax
   14618:	8b 7d 08             	mov    0x8(%ebp),%edi
   1461b:	d9 40 08             	flds   0x8(%eax)
   1461e:	d9 40 04             	flds   0x4(%eax)
   14621:	d9 00                	flds   (%eax)
   14623:	89 3c 24             	mov    %edi,(%esp)
   14626:	dd 5c 24 04          	fstpl  0x4(%esp)
   1462a:	d9 c9                	fxch   %st(1)
   1462c:	d9 5d d8             	fstps  -0x28(%ebp)
   1462f:	d9 5d c8             	fstps  -0x38(%ebp)
   14632:	e8 59 34 ff ff       	call   7a90 <_ZNSo9_M_insertIdEERSoT_@plt>
   14637:	89 c6                	mov    %eax,%esi
   14639:	8d 93 b0 bf ff ff    	lea    -0x4050(%ebx),%edx
   1463f:	c7 44 24 08 02 00 00 	movl   $0x2,0x8(%esp)
   14646:	00 
   14647:	89 54 24 04          	mov    %edx,0x4(%esp)
   1464b:	89 55 c4             	mov    %edx,-0x3c(%ebp)
   1464e:	89 04 24             	mov    %eax,(%esp)
   14651:	e8 ca 30 ff ff       	call   7720 <_ZSt16__ostream_insertIcSt11char_traitsIcEERSt13basic_ostreamIT_T0_ES6_PKS3_i@plt>
   14656:	d9 45 c8             	flds   -0x38(%ebp)
   14659:	89 34 24             	mov    %esi,(%esp)
   1465c:	dd 5c 24 04          	fstpl  0x4(%esp)
   14660:	e8 2b 34 ff ff       	call   7a90 <_ZNSo9_M_insertIdEERSoT_@plt>
   14665:	8b 55 c4             	mov    -0x3c(%ebp),%edx
   14668:	89 c6                	mov    %eax,%esi
   1466a:	89 54 24 04          	mov    %edx,0x4(%esp)
   1466e:	c7 44 24 08 02 00 00 	movl   $0x2,0x8(%esp)
   14675:	00 
   14676:	89 04 24             	mov    %eax,(%esp)
   14679:	e8 a2 30 ff ff       	call   7720 <_ZSt16__ostream_insertIcSt11char_traitsIcEERSt13basic_ostreamIT_T0_ES6_PKS3_i@plt>
   1467e:	d9 45 d8             	flds   -0x28(%ebp)
   14681:	89 34 24             	mov    %esi,(%esp)
   14684:	dd 5c 24 04          	fstpl  0x4(%esp)
   14688:	e8 03 34 ff ff       	call   7a90 <_ZNSo9_M_insertIdEERSoT_@plt>
   1468d:	89 c6                	mov    %eax,%esi
   1468f:	8b 00                	mov    (%eax),%eax
   14691:	8b 40 f4             	mov    -0xc(%eax),%eax
   14694:	8b 44 06 7c          	mov    0x7c(%esi,%eax,1),%eax
   14698:	85 c0                	test   %eax,%eax
   1469a:	74 4c                	je     146e8 <_ZlsRSoRK6Vector+0xe8>
   1469c:	80 78 1c 00          	cmpb   $0x0,0x1c(%eax)
   146a0:	74 26                	je     146c8 <_ZlsRSoRK6Vector+0xc8>
   146a2:	0f b6 40 27          	movzbl 0x27(%eax),%eax
   146a6:	0f be c0             	movsbl %al,%eax
   146a9:	89 34 24             	mov    %esi,(%esp)
   146ac:	89 44 24 04          	mov    %eax,0x4(%esp)
   146b0:	e8 6b 27 ff ff       	call   6e20 <_ZNSo3putEc@plt>
   146b5:	89 04 24             	mov    %eax,(%esp)
   146b8:	e8 23 2c ff ff       	call   72e0 <_ZNSo5flushEv@plt>
   146bd:	8d 64 24 4c          	lea    0x4c(%esp),%esp
   146c1:	89 f8                	mov    %edi,%eax
   146c3:	5b                   	pop    %ebx
   146c4:	5e                   	pop    %esi
   146c5:	5f                   	pop    %edi
   146c6:	5d                   	pop    %ebp
   146c7:	c3                   	ret    
   146c8:	89 04 24             	mov    %eax,(%esp)
   146cb:	89 45 d8             	mov    %eax,-0x28(%ebp)
   146ce:	e8 3d 2f ff ff       	call   7610 <_ZNKSt5ctypeIcE13_M_widen_initEv@plt>
   146d3:	8b 45 d8             	mov    -0x28(%ebp),%eax
   146d6:	8b 10                	mov    (%eax),%edx
   146d8:	c7 44 24 04 0a 00 00 	movl   $0xa,0x4(%esp)
   146df:	00 
   146e0:	89 04 24             	mov    %eax,(%esp)
   146e3:	ff 52 18             	call   *0x18(%edx)
   146e6:	eb be                	jmp    146a6 <_ZlsRSoRK6Vector+0xa6>
   146e8:	e8 d3 2f ff ff       	call   76c0 <_ZSt16__throw_bad_castv@plt>
   146ed:	8d 76 00             	lea    0x0(%esi),%esi

000146f0 <_ZlsRSoRK5Point>:
   146f0:	55                   	push   %ebp
   146f1:	89 e5                	mov    %esp,%ebp
   146f3:	57                   	push   %edi
   146f4:	56                   	push   %esi
   146f5:	53                   	push   %ebx
   146f6:	e8 3e 37 ff ff       	call   7e39 <__i686.get_pc_thunk.bx>
   146fb:	81 c3 a9 4d 00 00    	add    $0x4da9,%ebx
   14701:	8d 64 24 b4          	lea    -0x4c(%esp),%esp
   14705:	8b 45 0c             	mov    0xc(%ebp),%eax
   14708:	8b 7d 08             	mov    0x8(%ebp),%edi
   1470b:	d9 40 08             	flds   0x8(%eax)
   1470e:	d9 40 04             	flds   0x4(%eax)
   14711:	d9 00                	flds   (%eax)
   14713:	89 3c 24             	mov    %edi,(%esp)
   14716:	dd 5c 24 04          	fstpl  0x4(%esp)
   1471a:	d9 c9                	fxch   %st(1)
   1471c:	d9 5d d8             	fstps  -0x28(%ebp)
   1471f:	d9 5d c8             	fstps  -0x38(%ebp)
   14722:	e8 69 33 ff ff       	call   7a90 <_ZNSo9_M_insertIdEERSoT_@plt>
   14727:	89 c6                	mov    %eax,%esi
   14729:	8d 93 b0 bf ff ff    	lea    -0x4050(%ebx),%edx
   1472f:	c7 44 24 08 02 00 00 	movl   $0x2,0x8(%esp)
   14736:	00 
   14737:	89 54 24 04          	mov    %edx,0x4(%esp)
   1473b:	89 55 c4             	mov    %edx,-0x3c(%ebp)
   1473e:	89 04 24             	mov    %eax,(%esp)
   14741:	e8 da 2f ff ff       	call   7720 <_ZSt16__ostream_insertIcSt11char_traitsIcEERSt13basic_ostreamIT_T0_ES6_PKS3_i@plt>
   14746:	d9 45 c8             	flds   -0x38(%ebp)
   14749:	89 34 24             	mov    %esi,(%esp)
   1474c:	dd 5c 24 04          	fstpl  0x4(%esp)
   14750:	e8 3b 33 ff ff       	call   7a90 <_ZNSo9_M_insertIdEERSoT_@plt>
   14755:	8b 55 c4             	mov    -0x3c(%ebp),%edx
   14758:	89 c6                	mov    %eax,%esi
   1475a:	89 54 24 04          	mov    %edx,0x4(%esp)
   1475e:	c7 44 24 08 02 00 00 	movl   $0x2,0x8(%esp)
   14765:	00 
   14766:	89 04 24             	mov    %eax,(%esp)
   14769:	e8 b2 2f ff ff       	call   7720 <_ZSt16__ostream_insertIcSt11char_traitsIcEERSt13basic_ostreamIT_T0_ES6_PKS3_i@plt>
   1476e:	d9 45 d8             	flds   -0x28(%ebp)
   14771:	89 34 24             	mov    %esi,(%esp)
   14774:	dd 5c 24 04          	fstpl  0x4(%esp)
   14778:	e8 13 33 ff ff       	call   7a90 <_ZNSo9_M_insertIdEERSoT_@plt>
   1477d:	89 c6                	mov    %eax,%esi
   1477f:	8b 00                	mov    (%eax),%eax
   14781:	8b 40 f4             	mov    -0xc(%eax),%eax
   14784:	8b 44 06 7c          	mov    0x7c(%esi,%eax,1),%eax
   14788:	85 c0                	test   %eax,%eax
   1478a:	74 4c                	je     147d8 <_ZlsRSoRK5Point+0xe8>
   1478c:	80 78 1c 00          	cmpb   $0x0,0x1c(%eax)
   14790:	74 26                	je     147b8 <_ZlsRSoRK5Point+0xc8>
   14792:	0f b6 40 27          	movzbl 0x27(%eax),%eax
   14796:	0f be c0             	movsbl %al,%eax
   14799:	89 34 24             	mov    %esi,(%esp)
   1479c:	89 44 24 04          	mov    %eax,0x4(%esp)
   147a0:	e8 7b 26 ff ff       	call   6e20 <_ZNSo3putEc@plt>
   147a5:	89 04 24             	mov    %eax,(%esp)
   147a8:	e8 33 2b ff ff       	call   72e0 <_ZNSo5flushEv@plt>
   147ad:	8d 64 24 4c          	lea    0x4c(%esp),%esp
   147b1:	89 f8                	mov    %edi,%eax
   147b3:	5b                   	pop    %ebx
   147b4:	5e                   	pop    %esi
   147b5:	5f                   	pop    %edi
   147b6:	5d                   	pop    %ebp
   147b7:	c3                   	ret    
   147b8:	89 04 24             	mov    %eax,(%esp)
   147bb:	89 45 d8             	mov    %eax,-0x28(%ebp)
   147be:	e8 4d 2e ff ff       	call   7610 <_ZNKSt5ctypeIcE13_M_widen_initEv@plt>
   147c3:	8b 45 d8             	mov    -0x28(%ebp),%eax
   147c6:	8b 10                	mov    (%eax),%edx
   147c8:	c7 44 24 04 0a 00 00 	movl   $0xa,0x4(%esp)
   147cf:	00 
   147d0:	89 04 24             	mov    %eax,(%esp)
   147d3:	ff 52 18             	call   *0x18(%edx)
   147d6:	eb be                	jmp    14796 <_ZlsRSoRK5Point+0xa6>
   147d8:	e8 e3 2e ff ff       	call   76c0 <_ZSt16__throw_bad_castv@plt>
   147dd:	90                   	nop
   147de:	90                   	nop
   147df:	90                   	nop

000147e0 <_ZN6MatrixC1Ev>:
   147e0:	55                   	push   %ebp
   147e1:	31 d2                	xor    %edx,%edx
   147e3:	89 e5                	mov    %esp,%ebp
   147e5:	8b 45 08             	mov    0x8(%ebp),%eax
   147e8:	85 d2                	test   %edx,%edx
   147ea:	74 5c                	je     14848 <_ZN6MatrixC1Ev+0x68>
   147ec:	83 fa 01             	cmp    $0x1,%edx
   147ef:	c7 00 00 00 00 00    	movl   $0x0,(%eax)
   147f5:	74 2d                	je     14824 <_ZN6MatrixC1Ev+0x44>
   147f7:	83 fa 02             	cmp    $0x2,%edx
   147fa:	c7 40 04 00 00 00 00 	movl   $0x0,0x4(%eax)
   14801:	75 52                	jne    14855 <_ZN6MatrixC1Ev+0x75>
   14803:	ba 03 00 00 00       	mov    $0x3,%edx
   14808:	c7 40 08 00 00 80 3f 	movl   $0x3f800000,0x8(%eax)
   1480f:	c7 40 0c 00 00 00 00 	movl   $0x0,0xc(%eax)
   14816:	83 fa 01             	cmp    $0x1,%edx
   14819:	8d 40 10             	lea    0x10(%eax),%eax
   1481c:	c7 00 00 00 00 00    	movl   $0x0,(%eax)
   14822:	75 d3                	jne    147f7 <_ZN6MatrixC1Ev+0x17>
   14824:	c7 40 04 00 00 80 3f 	movl   $0x3f800000,0x4(%eax)
   1482b:	c7 40 08 00 00 00 00 	movl   $0x0,0x8(%eax)
   14832:	8d 52 01             	lea    0x1(%edx),%edx
   14835:	c7 40 0c 00 00 00 00 	movl   $0x0,0xc(%eax)
   1483c:	83 fa 04             	cmp    $0x4,%edx
   1483f:	8d 40 10             	lea    0x10(%eax),%eax
   14842:	75 a4                	jne    147e8 <_ZN6MatrixC1Ev+0x8>
   14844:	5d                   	pop    %ebp
   14845:	c3                   	ret    
   14846:	66 90                	xchg   %ax,%ax
   14848:	c7 00 00 00 80 3f    	movl   $0x3f800000,(%eax)
   1484e:	c7 40 04 00 00 00 00 	movl   $0x0,0x4(%eax)
   14855:	83 fa 03             	cmp    $0x3,%edx
   14858:	c7 40 08 00 00 00 00 	movl   $0x0,0x8(%eax)
   1485f:	75 d1                	jne    14832 <_ZN6MatrixC1Ev+0x52>
   14861:	c7 40 0c 00 00 80 3f 	movl   $0x3f800000,0xc(%eax)
   14868:	5d                   	pop    %ebp
   14869:	c3                   	ret    
   1486a:	8d b6 00 00 00 00    	lea    0x0(%esi),%esi

00014870 <_ZN6MatrixC1EPKf>:
   14870:	55                   	push   %ebp
   14871:	31 c0                	xor    %eax,%eax
   14873:	89 e5                	mov    %esp,%ebp
   14875:	56                   	push   %esi
   14876:	8b 4d 0c             	mov    0xc(%ebp),%ecx
   14879:	8b 75 08             	mov    0x8(%ebp),%esi
   1487c:	8d 74 26 00          	lea    0x0(%esi,%eiz,1),%esi
   14880:	8b 14 81             	mov    (%ecx,%eax,4),%edx
   14883:	89 14 86             	mov    %edx,(%esi,%eax,4)
   14886:	8d 40 01             	lea    0x1(%eax),%eax
   14889:	83 f8 10             	cmp    $0x10,%eax
   1488c:	75 f2                	jne    14880 <_ZN6MatrixC1EPKf+0x10>
   1488e:	5e                   	pop    %esi
   1488f:	5d                   	pop    %ebp
   14890:	c3                   	ret    
   14891:	eb 0d                	jmp    148a0 <_ZplRK6MatrixS1_>
   14893:	90                   	nop
   14894:	90                   	nop
   14895:	90                   	nop
   14896:	90                   	nop
   14897:	90                   	nop
   14898:	90                   	nop
   14899:	90                   	nop
   1489a:	90                   	nop
   1489b:	90                   	nop
   1489c:	90                   	nop
   1489d:	90                   	nop
   1489e:	90                   	nop
   1489f:	90                   	nop

000148a0 <_ZplRK6MatrixS1_>:
   148a0:	55                   	push   %ebp
   148a1:	89 e5                	mov    %esp,%ebp
   148a3:	57                   	push   %edi
   148a4:	56                   	push   %esi
   148a5:	53                   	push   %ebx
   148a6:	e8 8e 35 ff ff       	call   7e39 <__i686.get_pc_thunk.bx>
   148ab:	81 c3 f9 4b 00 00    	add    $0x4bf9,%ebx
   148b1:	8d 64 24 d4          	lea    -0x2c(%esp),%esp
   148b5:	8b 45 0c             	mov    0xc(%ebp),%eax
   148b8:	8b 75 08             	mov    0x8(%ebp),%esi
   148bb:	89 45 e4             	mov    %eax,-0x1c(%ebp)
   148be:	8b 7d 10             	mov    0x10(%ebp),%edi
   148c1:	89 34 24             	mov    %esi,(%esp)
   148c4:	e8 87 2f ff ff       	call   7850 <_ZN6MatrixC1Ev@plt>
   148c9:	31 d2                	xor    %edx,%edx
   148cb:	8b 45 e4             	mov    -0x1c(%ebp),%eax
   148ce:	66 90                	xchg   %ax,%ax
   148d0:	d9 04 90             	flds   (%eax,%edx,4)
   148d3:	d8 04 97             	fadds  (%edi,%edx,4)
   148d6:	d9 1c 96             	fstps  (%esi,%edx,4)
   148d9:	8d 52 01             	lea    0x1(%edx),%edx
   148dc:	83 fa 10             	cmp    $0x10,%edx
   148df:	75 ef                	jne    148d0 <_ZplRK6MatrixS1_+0x30>
   148e1:	8d 64 24 2c          	lea    0x2c(%esp),%esp
   148e5:	89 f0                	mov    %esi,%eax
   148e7:	5b                   	pop    %ebx
   148e8:	5e                   	pop    %esi
   148e9:	5f                   	pop    %edi
   148ea:	5d                   	pop    %ebp
   148eb:	c2 04 00             	ret    $0x4
   148ee:	66 90                	xchg   %ax,%ax

000148f0 <_ZmiRK6MatrixS1_>:
   148f0:	55                   	push   %ebp
   148f1:	89 e5                	mov    %esp,%ebp
   148f3:	57                   	push   %edi
   148f4:	56                   	push   %esi
   148f5:	53                   	push   %ebx
   148f6:	e8 3e 35 ff ff       	call   7e39 <__i686.get_pc_thunk.bx>
   148fb:	81 c3 a9 4b 00 00    	add    $0x4ba9,%ebx
   14901:	8d 64 24 d4          	lea    -0x2c(%esp),%esp
   14905:	8b 45 0c             	mov    0xc(%ebp),%eax
   14908:	8b 75 08             	mov    0x8(%ebp),%esi
   1490b:	89 45 e4             	mov    %eax,-0x1c(%ebp)
   1490e:	8b 7d 10             	mov    0x10(%ebp),%edi
   14911:	89 34 24             	mov    %esi,(%esp)
   14914:	e8 37 2f ff ff       	call   7850 <_ZN6MatrixC1Ev@plt>
   14919:	31 d2                	xor    %edx,%edx
   1491b:	8b 45 e4             	mov    -0x1c(%ebp),%eax
   1491e:	66 90                	xchg   %ax,%ax
   14920:	d9 04 90             	flds   (%eax,%edx,4)
   14923:	d8 24 97             	fsubs  (%edi,%edx,4)
   14926:	d9 1c 96             	fstps  (%esi,%edx,4)
   14929:	8d 52 01             	lea    0x1(%edx),%edx
   1492c:	83 fa 10             	cmp    $0x10,%edx
   1492f:	75 ef                	jne    14920 <_ZmiRK6MatrixS1_+0x30>
   14931:	8d 64 24 2c          	lea    0x2c(%esp),%esp
   14935:	89 f0                	mov    %esi,%eax
   14937:	5b                   	pop    %ebx
   14938:	5e                   	pop    %esi
   14939:	5f                   	pop    %edi
   1493a:	5d                   	pop    %ebp
   1493b:	c2 04 00             	ret    $0x4
   1493e:	66 90                	xchg   %ax,%ax

00014940 <_ZmlfRK6Matrix>:
   14940:	55                   	push   %ebp
   14941:	89 e5                	mov    %esp,%ebp
   14943:	57                   	push   %edi
   14944:	56                   	push   %esi
   14945:	53                   	push   %ebx
   14946:	e8 ee 34 ff ff       	call   7e39 <__i686.get_pc_thunk.bx>
   1494b:	81 c3 59 4b 00 00    	add    $0x4b59,%ebx
   14951:	8d 64 24 d4          	lea    -0x2c(%esp),%esp
   14955:	8b 7d 08             	mov    0x8(%ebp),%edi
   14958:	d9 45 0c             	flds   0xc(%ebp)
   1495b:	89 3c 24             	mov    %edi,(%esp)
   1495e:	d9 5d d8             	fstps  -0x28(%ebp)
   14961:	e8 ea 2e ff ff       	call   7850 <_ZN6MatrixC1Ev@plt>
   14966:	8d 77 40             	lea    0x40(%edi),%esi
   14969:	8b 4d 10             	mov    0x10(%ebp),%ecx
   1496c:	89 fa                	mov    %edi,%edx
   1496e:	d9 45 d8             	flds   -0x28(%ebp)
   14971:	8d b4 26 00 00 00 00 	lea    0x0(%esi,%eiz,1),%esi
   14978:	d9 01                	flds   (%ecx)
   1497a:	d8 c9                	fmul   %st(1),%st
   1497c:	d9 1a                	fstps  (%edx)
   1497e:	8d 52 04             	lea    0x4(%edx),%edx
   14981:	39 f2                	cmp    %esi,%edx
   14983:	8d 49 04             	lea    0x4(%ecx),%ecx
   14986:	75 f0                	jne    14978 <_ZmlfRK6Matrix+0x38>
   14988:	dd d8                	fstp   %st(0)
   1498a:	8d 64 24 2c          	lea    0x2c(%esp),%esp
   1498e:	89 f8                	mov    %edi,%eax
   14990:	5b                   	pop    %ebx
   14991:	5e                   	pop    %esi
   14992:	5f                   	pop    %edi
   14993:	5d                   	pop    %ebp
   14994:	c2 04 00             	ret    $0x4
   14997:	89 f6                	mov    %esi,%esi
   14999:	8d bc 27 00 00 00 00 	lea    0x0(%edi,%eiz,1),%edi

000149a0 <_ZmlRK6MatrixS1_>:
   149a0:	55                   	push   %ebp
   149a1:	89 e5                	mov    %esp,%ebp
   149a3:	57                   	push   %edi
   149a4:	31 ff                	xor    %edi,%edi
   149a6:	56                   	push   %esi
   149a7:	53                   	push   %ebx
   149a8:	e8 8c 34 ff ff       	call   7e39 <__i686.get_pc_thunk.bx>
   149ad:	81 c3 f7 4a 00 00    	add    $0x4af7,%ebx
   149b3:	8d 64 24 e4          	lea    -0x1c(%esp),%esp
   149b7:	8b 45 08             	mov    0x8(%ebp),%eax
   149ba:	89 04 24             	mov    %eax,(%esp)
   149bd:	e8 8e 2e ff ff       	call   7850 <_ZN6MatrixC1Ev@plt>
   149c2:	8b 75 08             	mov    0x8(%ebp),%esi
   149c5:	8b 55 0c             	mov    0xc(%ebp),%edx
   149c8:	83 c6 10             	add    $0x10,%esi
   149cb:	89 f9                	mov    %edi,%ecx
   149cd:	8b 45 10             	mov    0x10(%ebp),%eax
   149d0:	c1 e1 04             	shl    $0x4,%ecx
   149d3:	03 4d 08             	add    0x8(%ebp),%ecx
   149d6:	d9 02                	flds   (%edx)
   149d8:	d8 08                	fmuls  (%eax)
   149da:	d9 42 04             	flds   0x4(%edx)
   149dd:	d8 48 10             	fmuls  0x10(%eax)
   149e0:	de c1                	faddp  %st,%st(1)
   149e2:	d9 42 08             	flds   0x8(%edx)
   149e5:	d8 48 20             	fmuls  0x20(%eax)
   149e8:	de c1                	faddp  %st,%st(1)
   149ea:	d9 42 0c             	flds   0xc(%edx)
   149ed:	d8 48 30             	fmuls  0x30(%eax)
   149f0:	de c1                	faddp  %st,%st(1)
   149f2:	d9 19                	fstps  (%ecx)
   149f4:	8d 49 04             	lea    0x4(%ecx),%ecx
   149f7:	8d 40 04             	lea    0x4(%eax),%eax
   149fa:	39 ce                	cmp    %ecx,%esi
   149fc:	75 d8                	jne    149d6 <_ZmlRK6MatrixS1_+0x36>
   149fe:	8d 7f 01             	lea    0x1(%edi),%edi
   14a01:	8d 52 10             	lea    0x10(%edx),%edx
   14a04:	83 ff 04             	cmp    $0x4,%edi
   14a07:	8d 76 10             	lea    0x10(%esi),%esi
   14a0a:	75 bf                	jne    149cb <_ZmlRK6MatrixS1_+0x2b>
   14a0c:	8b 45 08             	mov    0x8(%ebp),%eax
   14a0f:	8d 64 24 1c          	lea    0x1c(%esp),%esp
   14a13:	5b                   	pop    %ebx
   14a14:	5e                   	pop    %esi
   14a15:	5f                   	pop    %edi
   14a16:	5d                   	pop    %ebp
   14a17:	c2 04 00             	ret    $0x4
   14a1a:	8d b6 00 00 00 00    	lea    0x0(%esi),%esi

00014a20 <_Z15TranslateMatrix6Vector>:
   14a20:	55                   	push   %ebp
   14a21:	89 e5                	mov    %esp,%ebp
   14a23:	8d 64 24 c8          	lea    -0x38(%esp),%esp
   14a27:	89 5d f4             	mov    %ebx,-0xc(%ebp)
   14a2a:	89 75 f8             	mov    %esi,-0x8(%ebp)
   14a2d:	e8 07 34 ff ff       	call   7e39 <__i686.get_pc_thunk.bx>
   14a32:	81 c3 72 4a 00 00    	add    $0x4a72,%ebx
   14a38:	8b 75 08             	mov    0x8(%ebp),%esi
   14a3b:	8b 55 0c             	mov    0xc(%ebp),%edx
   14a3e:	8b 45 10             	mov    0x10(%ebp),%eax
   14a41:	89 7d fc             	mov    %edi,-0x4(%ebp)
   14a44:	89 34 24             	mov    %esi,(%esp)
   14a47:	8b 7d 14             	mov    0x14(%ebp),%edi
   14a4a:	89 45 e4             	mov    %eax,-0x1c(%ebp)
   14a4d:	89 55 e0             	mov    %edx,-0x20(%ebp)
   14a50:	e8 fb 2d ff ff       	call   7850 <_ZN6MatrixC1Ev@plt>
   14a55:	8b 55 e0             	mov    -0x20(%ebp),%edx
   14a58:	89 56 30             	mov    %edx,0x30(%esi)
   14a5b:	8b 45 e4             	mov    -0x1c(%ebp),%eax
   14a5e:	89 46 34             	mov    %eax,0x34(%esi)
   14a61:	89 7e 38             	mov    %edi,0x38(%esi)
   14a64:	89 f0                	mov    %esi,%eax
   14a66:	8b 5d f4             	mov    -0xc(%ebp),%ebx
   14a69:	8b 75 f8             	mov    -0x8(%ebp),%esi
   14a6c:	8b 7d fc             	mov    -0x4(%ebp),%edi
   14a6f:	89 ec                	mov    %ebp,%esp
   14a71:	5d                   	pop    %ebp
   14a72:	c2 04 00             	ret    $0x4
   14a75:	8d 74 26 00          	lea    0x0(%esi,%eiz,1),%esi
   14a79:	8d bc 27 00 00 00 00 	lea    0x0(%edi,%eiz,1),%edi

00014a80 <_GLOBAL__I_matrix.cpp>:
   14a80:	55                   	push   %ebp
   14a81:	89 e5                	mov    %esp,%ebp
   14a83:	8d 64 24 e8          	lea    -0x18(%esp),%esp
   14a87:	89 5d f8             	mov    %ebx,-0x8(%ebp)
   14a8a:	89 75 fc             	mov    %esi,-0x4(%ebp)
   14a8d:	e8 a7 33 ff ff       	call   7e39 <__i686.get_pc_thunk.bx>
   14a92:	81 c3 12 4a 00 00    	add    $0x4a12,%ebx
   14a98:	8d b3 d0 24 00 00    	lea    0x24d0(%ebx),%esi
   14a9e:	89 34 24             	mov    %esi,(%esp)
   14aa1:	e8 0a 2f ff ff       	call   79b0 <_ZNSt8ios_base4InitC1Ev@plt>
   14aa6:	8b 83 b0 ff ff ff    	mov    -0x50(%ebx),%eax
   14aac:	89 74 24 04          	mov    %esi,0x4(%esp)
   14ab0:	89 44 24 08          	mov    %eax,0x8(%esp)
   14ab4:	8b 83 fc ff ff ff    	mov    -0x4(%ebx),%eax
   14aba:	89 04 24             	mov    %eax,(%esp)
   14abd:	e8 2e 28 ff ff       	call   72f0 <__cxa_atexit@plt>
   14ac2:	8b 5d f8             	mov    -0x8(%ebp),%ebx
   14ac5:	8b 75 fc             	mov    -0x4(%ebp),%esi
   14ac8:	89 ec                	mov    %ebp,%esp
   14aca:	5d                   	pop    %ebp
   14acb:	c3                   	ret    
   14acc:	8d 74 26 00          	lea    0x0(%esi,%eiz,1),%esi

00014ad0 <_ZmlRK6MatrixRK6Vector>:
   14ad0:	55                   	push   %ebp
   14ad1:	31 d2                	xor    %edx,%edx
   14ad3:	89 e5                	mov    %esp,%ebp
   14ad5:	57                   	push   %edi
   14ad6:	56                   	push   %esi
   14ad7:	53                   	push   %ebx
   14ad8:	e8 5c 33 ff ff       	call   7e39 <__i686.get_pc_thunk.bx>
   14add:	81 c3 c7 49 00 00    	add    $0x49c7,%ebx
   14ae3:	8d 64 24 d4          	lea    -0x2c(%esp),%esp
   14ae7:	8b 45 08             	mov    0x8(%ebp),%eax
   14aea:	8b 75 0c             	mov    0xc(%ebp),%esi
   14aed:	8b 7d 10             	mov    0x10(%ebp),%edi
   14af0:	89 04 24             	mov    %eax,(%esp)
   14af3:	89 45 e4             	mov    %eax,-0x1c(%ebp)
   14af6:	89 54 24 0c          	mov    %edx,0xc(%esp)
   14afa:	89 54 24 08          	mov    %edx,0x8(%esp)
   14afe:	89 54 24 04          	mov    %edx,0x4(%esp)
   14b02:	e8 09 2c ff ff       	call   7710 <_ZN6VectorC1Efff@plt>
   14b07:	8b 45 e4             	mov    -0x1c(%ebp),%eax
   14b0a:	d9 06                	flds   (%esi)
   14b0c:	d8 0f                	fmuls  (%edi)
   14b0e:	d9 46 10             	flds   0x10(%esi)
   14b11:	d8 4f 04             	fmuls  0x4(%edi)
   14b14:	de c1                	faddp  %st,%st(1)
   14b16:	d9 46 20             	flds   0x20(%esi)
   14b19:	d8 4f 08             	fmuls  0x8(%edi)
   14b1c:	de c1                	faddp  %st,%st(1)
   14b1e:	d8 46 30             	fadds  0x30(%esi)
   14b21:	d9 18                	fstps  (%eax)
   14b23:	d9 46 04             	flds   0x4(%esi)
   14b26:	d8 0f                	fmuls  (%edi)
   14b28:	d9 46 14             	flds   0x14(%esi)
   14b2b:	d8 4f 04             	fmuls  0x4(%edi)
   14b2e:	de c1                	faddp  %st,%st(1)
   14b30:	d9 46 24             	flds   0x24(%esi)
   14b33:	d8 4f 08             	fmuls  0x8(%edi)
   14b36:	de c1                	faddp  %st,%st(1)
   14b38:	d8 46 34             	fadds  0x34(%esi)
   14b3b:	d9 58 04             	fstps  0x4(%eax)
   14b3e:	d9 46 08             	flds   0x8(%esi)
   14b41:	d8 0f                	fmuls  (%edi)
   14b43:	d9 46 18             	flds   0x18(%esi)
   14b46:	d8 4f 04             	fmuls  0x4(%edi)
   14b49:	de c1                	faddp  %st,%st(1)
   14b4b:	d9 46 28             	flds   0x28(%esi)
   14b4e:	d8 4f 08             	fmuls  0x8(%edi)
   14b51:	de c1                	faddp  %st,%st(1)
   14b53:	d8 46 38             	fadds  0x38(%esi)
   14b56:	d9 58 08             	fstps  0x8(%eax)
   14b59:	8d 64 24 2c          	lea    0x2c(%esp),%esp
   14b5d:	5b                   	pop    %ebx
   14b5e:	5e                   	pop    %esi
   14b5f:	5f                   	pop    %edi
   14b60:	5d                   	pop    %ebp
   14b61:	c2 04 00             	ret    $0x4
   14b64:	8d b6 00 00 00 00    	lea    0x0(%esi),%esi
   14b6a:	8d bf 00 00 00 00    	lea    0x0(%edi),%edi

00014b70 <_ZL10_normalizePf>:
   14b70:	d9 00                	flds   (%eax)
   14b72:	d9 40 04             	flds   0x4(%eax)
   14b75:	d9 40 08             	flds   0x8(%eax)
   14b78:	d9 c2                	fld    %st(2)
   14b7a:	d8 cb                	fmul   %st(3),%st
   14b7c:	d9 c2                	fld    %st(2)
   14b7e:	d8 cb                	fmul   %st(3),%st
   14b80:	de c1                	faddp  %st,%st(1)
   14b82:	d9 c1                	fld    %st(1)
   14b84:	d8 ca                	fmul   %st(2),%st
   14b86:	55                   	push   %ebp
   14b87:	de c1                	faddp  %st,%st(1)
   14b89:	d9 fa                	fsqrt  
   14b8b:	89 e5                	mov    %esp,%ebp
   14b8d:	d9 ee                	fldz   
   14b8f:	d9 c9                	fxch   %st(1)
   14b91:	db e9                	fucomi %st(1),%st
   14b93:	dd d9                	fstp   %st(1)
   14b95:	7a 02                	jp     14b99 <_ZL10_normalizePf+0x29>
   14b97:	74 17                	je     14bb0 <_ZL10_normalizePf+0x40>
   14b99:	dc fb                	fdivr  %st,%st(3)
   14b9b:	d9 cb                	fxch   %st(3)
   14b9d:	d9 18                	fstps  (%eax)
   14b9f:	d9 c9                	fxch   %st(1)
   14ba1:	d8 f2                	fdiv   %st(2),%st
   14ba3:	d9 58 04             	fstps  0x4(%eax)
   14ba6:	de f1                	fdivp  %st,%st(1)
   14ba8:	d9 58 08             	fstps  0x8(%eax)
   14bab:	eb 0b                	jmp    14bb8 <_ZL10_normalizePf+0x48>
   14bad:	8d 76 00             	lea    0x0(%esi),%esi
   14bb0:	dd d8                	fstp   %st(0)
   14bb2:	dd d8                	fstp   %st(0)
   14bb4:	dd d8                	fstp   %st(0)
   14bb6:	dd d8                	fstp   %st(0)
   14bb8:	5d                   	pop    %ebp
   14bb9:	c3                   	ret    
   14bba:	8d b6 00 00 00 00    	lea    0x0(%esi),%esi

00014bc0 <_Z12LookAtMatrix6VectorS_S_>:
   14bc0:	55                   	push   %ebp
   14bc1:	89 e5                	mov    %esp,%ebp
   14bc3:	57                   	push   %edi
   14bc4:	56                   	push   %esi
   14bc5:	8d 45 dc             	lea    -0x24(%ebp),%eax
   14bc8:	8d bd 44 ff ff ff    	lea    -0xbc(%ebp),%edi
   14bce:	53                   	push   %ebx
   14bcf:	e8 65 32 ff ff       	call   7e39 <__i686.get_pc_thunk.bx>
   14bd4:	81 c3 d0 48 00 00    	add    $0x48d0,%ebx
   14bda:	8d a4 24 b4 fe ff ff 	lea    -0x14c(%esp),%esp
   14be1:	d9 45 0c             	flds   0xc(%ebp)
   14be4:	d9 9d ec fe ff ff    	fstps  -0x114(%ebp)
   14bea:	8b 75 08             	mov    0x8(%ebp),%esi
   14bed:	d9 45 10             	flds   0x10(%ebp)
   14bf0:	d9 9d f0 fe ff ff    	fstps  -0x110(%ebp)
   14bf6:	d9 45 14             	flds   0x14(%ebp)
   14bf9:	d9 9d f4 fe ff ff    	fstps  -0x10c(%ebp)
   14bff:	d9 45 1c             	flds   0x1c(%ebp)
   14c02:	d9 45 20             	flds   0x20(%ebp)
   14c05:	d9 45 24             	flds   0x24(%ebp)
   14c08:	d9 45 28             	flds   0x28(%ebp)
   14c0b:	d9 45 2c             	flds   0x2c(%ebp)
   14c0e:	d9 85 ec fe ff ff    	flds   -0x114(%ebp)
   14c14:	d8 6d 18             	fsubrs 0x18(%ebp)
   14c17:	d9 5d dc             	fstps  -0x24(%ebp)
   14c1a:	d9 cc                	fxch   %st(4)
   14c1c:	d8 a5 f0 fe ff ff    	fsubs  -0x110(%ebp)
   14c22:	d9 5d e0             	fstps  -0x20(%ebp)
   14c25:	d9 ca                	fxch   %st(2)
   14c27:	d8 a5 f4 fe ff ff    	fsubs  -0x10c(%ebp)
   14c2d:	d9 5d e4             	fstps  -0x1c(%ebp)
   14c30:	d9 9d b8 fe ff ff    	fstps  -0x148(%ebp)
   14c36:	d9 9d c8 fe ff ff    	fstps  -0x138(%ebp)
   14c3c:	d9 9d d8 fe ff ff    	fstps  -0x128(%ebp)
   14c42:	e8 29 ff ff ff       	call   14b70 <_ZL10_normalizePf>
   14c47:	d9 45 e0             	flds   -0x20(%ebp)
   14c4a:	8d 45 d0             	lea    -0x30(%ebp),%eax
   14c4d:	d9 45 e4             	flds   -0x1c(%ebp)
   14c50:	d9 85 d8 fe ff ff    	flds   -0x128(%ebp)
   14c56:	d9 c2                	fld    %st(2)
   14c58:	d8 c9                	fmul   %st(1),%st
   14c5a:	d9 85 c8 fe ff ff    	flds   -0x138(%ebp)
   14c60:	d9 c3                	fld    %st(3)
   14c62:	d8 c9                	fmul   %st(1),%st
   14c64:	de ea                	fsubrp %st,%st(2)
   14c66:	d9 c9                	fxch   %st(1)
   14c68:	d9 5d d0             	fstps  -0x30(%ebp)
   14c6b:	d9 45 dc             	flds   -0x24(%ebp)
   14c6e:	d9 85 b8 fe ff ff    	flds   -0x148(%ebp)
   14c74:	dc cc                	fmul   %st,%st(4)
   14c76:	d9 cb                	fxch   %st(3)
   14c78:	d8 c9                	fmul   %st(1),%st
   14c7a:	de ec                	fsubrp %st,%st(4)
   14c7c:	d9 cb                	fxch   %st(3)
   14c7e:	d9 5d d4             	fstps  -0x2c(%ebp)
   14c81:	de ca                	fmulp  %st,%st(2)
   14c83:	de ca                	fmulp  %st,%st(2)
   14c85:	de e1                	fsubp  %st,%st(1)
   14c87:	d9 5d d8             	fstps  -0x28(%ebp)
   14c8a:	e8 e1 fe ff ff       	call   14b70 <_ZL10_normalizePf>
   14c8f:	d9 45 d4             	flds   -0x2c(%ebp)
   14c92:	31 c0                	xor    %eax,%eax
   14c94:	d9 45 e4             	flds   -0x1c(%ebp)
   14c97:	89 45 90             	mov    %eax,-0x70(%ebp)
   14c9a:	d9 45 d8             	flds   -0x28(%ebp)
   14c9d:	89 45 a0             	mov    %eax,-0x60(%ebp)
   14ca0:	d9 45 e0             	flds   -0x20(%ebp)
   14ca3:	89 45 b0             	mov    %eax,-0x50(%ebp)
   14ca6:	d9 45 dc             	flds   -0x24(%ebp)
   14ca9:	89 45 b4             	mov    %eax,-0x4c(%ebp)
   14cac:	d9 45 d0             	flds   -0x30(%ebp)
   14caf:	89 45 b8             	mov    %eax,-0x48(%ebp)
   14cb2:	d9 55 84             	fsts   -0x7c(%ebp)
   14cb5:	d9 cd                	fxch   %st(5)
   14cb7:	89 45 bc             	mov    %eax,-0x44(%ebp)
   14cba:	d9 55 94             	fsts   -0x6c(%ebp)
   14cbd:	d9 cb                	fxch   %st(3)
   14cbf:	8d 45 84             	lea    -0x7c(%ebp),%eax
   14cc2:	d9 55 a4             	fsts   -0x5c(%ebp)
   14cc5:	89 44 24 04          	mov    %eax,0x4(%esp)
   14cc9:	d9 c3                	fld    %st(3)
   14ccb:	8d 85 04 ff ff ff    	lea    -0xfc(%ebp),%eax
   14cd1:	d8 cd                	fmul   %st(5),%st
   14cd3:	d9 c1                	fld    %st(1)
   14cd5:	d8 cc                	fmul   %st(4),%st
   14cd7:	de e9                	fsubrp %st,%st(1)
   14cd9:	d9 5d 88             	fstps  -0x78(%ebp)
   14cdc:	d8 c9                	fmul   %st(1),%st
   14cde:	d9 c4                	fld    %st(4)
   14ce0:	89 85 e8 fe ff ff    	mov    %eax,-0x118(%ebp)
   14ce6:	d8 ce                	fmul   %st(6),%st
   14ce8:	89 04 24             	mov    %eax,(%esp)
   14ceb:	de e9                	fsubrp %st,%st(1)
   14ced:	c7 45 c0 00 00 80 3f 	movl   $0x3f800000,-0x40(%ebp)
   14cf4:	d9 5d 98             	fstps  -0x68(%ebp)
   14cf7:	d9 cc                	fxch   %st(4)
   14cf9:	d8 c9                	fmul   %st(1),%st
   14cfb:	d9 ca                	fxch   %st(2)
   14cfd:	d8 cc                	fmul   %st(4),%st
   14cff:	de ea                	fsubrp %st,%st(2)
   14d01:	d9 c9                	fxch   %st(1)
   14d03:	d9 5d a8             	fstps  -0x58(%ebp)
   14d06:	d9 ca                	fxch   %st(2)
   14d08:	d9 e0                	fchs   
   14d0a:	d9 5d 8c             	fstps  -0x74(%ebp)
   14d0d:	d9 c9                	fxch   %st(1)
   14d0f:	d9 e0                	fchs   
   14d11:	d9 5d 9c             	fstps  -0x64(%ebp)
   14d14:	d9 e0                	fchs   
   14d16:	d9 5d ac             	fstps  -0x54(%ebp)
   14d19:	e8 12 25 ff ff       	call   7230 <_ZN6MatrixC1EPKf@plt>
   14d1e:	d9 85 f4 fe ff ff    	flds   -0x10c(%ebp)
   14d24:	d9 e0                	fchs   
   14d26:	d9 5c 24 0c          	fstps  0xc(%esp)
   14d2a:	8d 55 c4             	lea    -0x3c(%ebp),%edx
   14d2d:	d9 85 f0 fe ff ff    	flds   -0x110(%ebp)
   14d33:	d9 e0                	fchs   
   14d35:	d9 5c 24 08          	fstps  0x8(%esp)
   14d39:	89 14 24             	mov    %edx,(%esp)
   14d3c:	d9 85 ec fe ff ff    	flds   -0x114(%ebp)
   14d42:	d9 e0                	fchs   
   14d44:	d9 5c 24 04          	fstps  0x4(%esp)
   14d48:	e8 c3 29 ff ff       	call   7710 <_ZN6VectorC1Efff@plt>
   14d4d:	8b 55 c4             	mov    -0x3c(%ebp),%edx
   14d50:	89 3c 24             	mov    %edi,(%esp)
   14d53:	89 54 24 04          	mov    %edx,0x4(%esp)
   14d57:	8b 55 c8             	mov    -0x38(%ebp),%edx
   14d5a:	89 54 24 08          	mov    %edx,0x8(%esp)
   14d5e:	8b 55 cc             	mov    -0x34(%ebp),%edx
   14d61:	89 54 24 0c          	mov    %edx,0xc(%esp)
   14d65:	e8 46 26 ff ff       	call   73b0 <_Z15TranslateMatrix6Vector@plt>
   14d6a:	8d 64 24 fc          	lea    -0x4(%esp),%esp
   14d6e:	8b 85 e8 fe ff ff    	mov    -0x118(%ebp),%eax
   14d74:	89 44 24 08          	mov    %eax,0x8(%esp)
   14d78:	89 7c 24 04          	mov    %edi,0x4(%esp)
   14d7c:	89 34 24             	mov    %esi,(%esp)
   14d7f:	e8 3c 24 ff ff       	call   71c0 <_ZmlRK6MatrixS1_@plt>
   14d84:	83 ec 04             	sub    $0x4,%esp
   14d87:	89 f0                	mov    %esi,%eax
   14d89:	8d 65 f4             	lea    -0xc(%ebp),%esp
   14d8c:	5b                   	pop    %ebx
   14d8d:	5e                   	pop    %esi
   14d8e:	5f                   	pop    %edi
   14d8f:	5d                   	pop    %ebp
   14d90:	c2 04 00             	ret    $0x4
   14d93:	8d b6 00 00 00 00    	lea    0x0(%esi),%esi
   14d99:	8d bc 27 00 00 00 00 	lea    0x0(%edi,%eiz,1),%edi

00014da0 <_Z15MatrixRotationYf>:
   14da0:	55                   	push   %ebp
   14da1:	89 e5                	mov    %esp,%ebp
   14da3:	8d 64 24 b8          	lea    -0x48(%esp),%esp
   14da7:	89 5d f4             	mov    %ebx,-0xc(%ebp)
   14daa:	89 75 f8             	mov    %esi,-0x8(%ebp)
   14dad:	e8 87 30 ff ff       	call   7e39 <__i686.get_pc_thunk.bx>
   14db2:	81 c3 f2 46 00 00    	add    $0x46f2,%ebx
   14db8:	8b 75 08             	mov    0x8(%ebp),%esi
   14dbb:	8d 45 e4             	lea    -0x1c(%ebp),%eax
   14dbe:	89 44 24 04          	mov    %eax,0x4(%esp)
   14dc2:	8b 45 0c             	mov    0xc(%ebp),%eax
   14dc5:	8d 55 e0             	lea    -0x20(%ebp),%edx
   14dc8:	89 04 24             	mov    %eax,(%esp)
   14dcb:	89 7d fc             	mov    %edi,-0x4(%ebp)
   14dce:	89 54 24 08          	mov    %edx,0x8(%esp)
   14dd2:	e8 39 23 ff ff       	call   7110 <sincosf@plt>
   14dd7:	d9 45 e4             	flds   -0x1c(%ebp)
   14dda:	8b 7d e0             	mov    -0x20(%ebp),%edi
   14ddd:	89 34 24             	mov    %esi,(%esp)
   14de0:	d9 5d c8             	fstps  -0x38(%ebp)
   14de3:	e8 68 2a ff ff       	call   7850 <_ZN6MatrixC1Ev@plt>
   14de8:	89 3e                	mov    %edi,(%esi)
   14dea:	89 7e 28             	mov    %edi,0x28(%esi)
   14ded:	d9 45 c8             	flds   -0x38(%ebp)
   14df0:	89 f0                	mov    %esi,%eax
   14df2:	d9 56 20             	fsts   0x20(%esi)
   14df5:	d9 e0                	fchs   
   14df7:	d9 5e 08             	fstps  0x8(%esi)
   14dfa:	8b 5d f4             	mov    -0xc(%ebp),%ebx
   14dfd:	8b 75 f8             	mov    -0x8(%ebp),%esi
   14e00:	8b 7d fc             	mov    -0x4(%ebp),%edi
   14e03:	89 ec                	mov    %ebp,%esp
   14e05:	5d                   	pop    %ebp
   14e06:	c2 04 00             	ret    $0x4
   14e09:	90                   	nop
   14e0a:	90                   	nop
   14e0b:	90                   	nop
   14e0c:	90                   	nop
   14e0d:	90                   	nop
   14e0e:	90                   	nop
   14e0f:	90                   	nop

00014e10 <_ZNK14GLWidgetPlugin10metaObjectEv>:
   14e10:	55                   	push   %ebp
   14e11:	e8 10 38 ff ff       	call   8626 <__i686.get_pc_thunk.cx>
   14e16:	81 c1 8e 46 00 00    	add    $0x468e,%ecx
   14e1c:	89 e5                	mov    %esp,%ebp
   14e1e:	8b 45 08             	mov    0x8(%ebp),%eax
   14e21:	5d                   	pop    %ebp
   14e22:	8b 40 04             	mov    0x4(%eax),%eax
   14e25:	8b 40 18             	mov    0x18(%eax),%eax
   14e28:	85 c0                	test   %eax,%eax
   14e2a:	0f 44 81 9c ff ff ff 	cmove  -0x64(%ecx),%eax
   14e31:	c3                   	ret    
   14e32:	8d b4 26 00 00 00 00 	lea    0x0(%esi,%eiz,1),%esi
   14e39:	8d bc 27 00 00 00 00 	lea    0x0(%edi,%eiz,1),%edi

00014e40 <_ZN14GLWidgetPlugin11qt_metacallEN11QMetaObject4CallEiPPv>:
   14e40:	55                   	push   %ebp
   14e41:	89 e5                	mov    %esp,%ebp
   14e43:	53                   	push   %ebx
   14e44:	e8 f0 2f ff ff       	call   7e39 <__i686.get_pc_thunk.bx>
   14e49:	81 c3 5b 46 00 00    	add    $0x465b,%ebx
   14e4f:	8d 64 24 ec          	lea    -0x14(%esp),%esp
   14e53:	8b 45 14             	mov    0x14(%ebp),%eax
   14e56:	89 44 24 0c          	mov    %eax,0xc(%esp)
   14e5a:	8b 45 10             	mov    0x10(%ebp),%eax
   14e5d:	89 44 24 08          	mov    %eax,0x8(%esp)
   14e61:	8b 45 0c             	mov    0xc(%ebp),%eax
   14e64:	89 44 24 04          	mov    %eax,0x4(%esp)
   14e68:	8b 45 08             	mov    0x8(%ebp),%eax
   14e6b:	89 04 24             	mov    %eax,(%esp)
   14e6e:	e8 ed 21 ff ff       	call   7060 <_ZN7QObject11qt_metacallEN11QMetaObject4CallEiPPv@plt>
   14e73:	8d 64 24 14          	lea    0x14(%esp),%esp
   14e77:	5b                   	pop    %ebx
   14e78:	5d                   	pop    %ebp
   14e79:	c3                   	ret    
   14e7a:	8d b6 00 00 00 00    	lea    0x0(%esi),%esi

00014e80 <_ZN14GLWidgetPlugin11qt_metacastEPKc>:
   14e80:	55                   	push   %ebp
   14e81:	31 c9                	xor    %ecx,%ecx
   14e83:	89 e5                	mov    %esp,%ebp
   14e85:	8d 64 24 d8          	lea    -0x28(%esp),%esp
   14e89:	8b 45 0c             	mov    0xc(%ebp),%eax
   14e8c:	89 5d f4             	mov    %ebx,-0xc(%ebp)
   14e8f:	e8 a5 2f ff ff       	call   7e39 <__i686.get_pc_thunk.bx>
   14e94:	81 c3 10 46 00 00    	add    $0x4610,%ebx
   14e9a:	85 c0                	test   %eax,%eax
   14e9c:	89 75 f8             	mov    %esi,-0x8(%ebp)
   14e9f:	89 7d fc             	mov    %edi,-0x4(%ebp)
   14ea2:	74 50                	je     14ef4 <_ZN14GLWidgetPlugin11qt_metacastEPKc+0x74>
   14ea4:	b1 0f                	mov    $0xf,%cl
   14ea6:	8d bb 5c c1 ff ff    	lea    -0x3ea4(%ebx),%edi
   14eac:	8b 75 0c             	mov    0xc(%ebp),%esi
   14eaf:	f3 a6                	repz cmpsb %es:(%edi),%ds:(%esi)
   14eb1:	0f 97 c0             	seta   %al
   14eb4:	0f 92 c2             	setb   %dl
   14eb7:	38 d0                	cmp    %dl,%al
   14eb9:	8b 4d 08             	mov    0x8(%ebp),%ecx
   14ebc:	74 36                	je     14ef4 <_ZN14GLWidgetPlugin11qt_metacastEPKc+0x74>
   14ebe:	b9 1f 00 00 00       	mov    $0x1f,%ecx
   14ec3:	8b 75 0c             	mov    0xc(%ebp),%esi
   14ec6:	8d bb 00 c1 ff ff    	lea    -0x3f00(%ebx),%edi
   14ecc:	f3 a6                	repz cmpsb %es:(%edi),%ds:(%esi)
   14ece:	0f 97 c1             	seta   %cl
   14ed1:	89 ce                	mov    %ecx,%esi
   14ed3:	0f 92 c1             	setb   %cl
   14ed6:	89 f0                	mov    %esi,%eax
   14ed8:	38 c8                	cmp    %cl,%al
   14eda:	74 12                	je     14eee <_ZN14GLWidgetPlugin11qt_metacastEPKc+0x6e>
   14edc:	b9 27 00 00 00       	mov    $0x27,%ecx
   14ee1:	8d bb 20 c1 ff ff    	lea    -0x3ee0(%ebx),%edi
   14ee7:	8b 75 0c             	mov    0xc(%ebp),%esi
   14eea:	f3 a6                	repz cmpsb %es:(%edi),%ds:(%esi)
   14eec:	75 1a                	jne    14f08 <_ZN14GLWidgetPlugin11qt_metacastEPKc+0x88>
   14eee:	8b 4d 08             	mov    0x8(%ebp),%ecx
   14ef1:	83 c1 08             	add    $0x8,%ecx
   14ef4:	8b 5d f4             	mov    -0xc(%ebp),%ebx
   14ef7:	8b 75 f8             	mov    -0x8(%ebp),%esi
   14efa:	8b 7d fc             	mov    -0x4(%ebp),%edi
   14efd:	89 c8                	mov    %ecx,%eax
   14eff:	89 ec                	mov    %ebp,%esp
   14f01:	5d                   	pop    %ebp
   14f02:	c3                   	ret    
   14f03:	90                   	nop
   14f04:	8d 74 26 00          	lea    0x0(%esi,%eiz,1),%esi
   14f08:	8b 4d 0c             	mov    0xc(%ebp),%ecx
   14f0b:	8b 45 08             	mov    0x8(%ebp),%eax
   14f0e:	89 4c 24 04          	mov    %ecx,0x4(%esp)
   14f12:	89 04 24             	mov    %eax,(%esp)
   14f15:	e8 46 2a ff ff       	call   7960 <_ZN7QObject11qt_metacastEPKc@plt>
   14f1a:	89 c1                	mov    %eax,%ecx
   14f1c:	8b 5d f4             	mov    -0xc(%ebp),%ebx
   14f1f:	8b 75 f8             	mov    -0x8(%ebp),%esi
   14f22:	8b 7d fc             	mov    -0x4(%ebp),%edi
   14f25:	89 c8                	mov    %ecx,%eax
   14f27:	89 ec                	mov    %ebp,%esp
   14f29:	5d                   	pop    %ebp
   14f2a:	c3                   	ret    
   14f2b:	90                   	nop
   14f2c:	90                   	nop
   14f2d:	90                   	nop
   14f2e:	90                   	nop
   14f2f:	90                   	nop

00014f30 <_ZN14GLWidgetPluginD1Ev>:
   14f30:	55                   	push   %ebp
   14f31:	89 e5                	mov    %esp,%ebp
   14f33:	53                   	push   %ebx
   14f34:	e8 00 2f ff ff       	call   7e39 <__i686.get_pc_thunk.bx>
   14f39:	81 c3 6b 45 00 00    	add    $0x456b,%ebx
   14f3f:	8d 64 24 ec          	lea    -0x14(%esp),%esp
   14f43:	8b 45 08             	mov    0x8(%ebp),%eax
   14f46:	8b 93 a8 ff ff ff    	mov    -0x58(%ebx),%edx
   14f4c:	83 c2 08             	add    $0x8,%edx
   14f4f:	89 10                	mov    %edx,(%eax)
   14f51:	8b 93 d8 ff ff ff    	mov    -0x28(%ebx),%edx
   14f57:	83 c2 08             	add    $0x8,%edx
   14f5a:	89 50 08             	mov    %edx,0x8(%eax)
   14f5d:	89 04 24             	mov    %eax,(%esp)
   14f60:	e8 0b 2c ff ff       	call   7b70 <_ZN7QObjectD2Ev@plt>
   14f65:	8d 64 24 14          	lea    0x14(%esp),%esp
   14f69:	5b                   	pop    %ebx
   14f6a:	5d                   	pop    %ebp
   14f6b:	c3                   	ret    
   14f6c:	90                   	nop
   14f6d:	90                   	nop
   14f6e:	90                   	nop
   14f6f:	90                   	nop

00014f70 <_ZThn8_N14GLWidgetPluginD1Ev>:
   14f70:	83 44 24 04 f8       	addl   $0xfffffff8,0x4(%esp)
   14f75:	e9 b6 ff ff ff       	jmp    14f30 <_ZN14GLWidgetPluginD1Ev>
   14f7a:	90                   	nop
   14f7b:	90                   	nop
   14f7c:	90                   	nop
   14f7d:	90                   	nop
   14f7e:	90                   	nop
   14f7f:	90                   	nop

00014f80 <_ZThn8_N14GLWidgetPluginD0Ev>:
   14f80:	83 44 24 04 f8       	addl   $0xfffffff8,0x4(%esp)
   14f85:	eb 09                	jmp    14f90 <_ZN14GLWidgetPluginD0Ev>
   14f87:	90                   	nop
   14f88:	90                   	nop
   14f89:	8d b4 26 00 00 00 00 	lea    0x0(%esi,%eiz,1),%esi

00014f90 <_ZN14GLWidgetPluginD0Ev>:
   14f90:	55                   	push   %ebp
   14f91:	89 e5                	mov    %esp,%ebp
   14f93:	8d 64 24 e8          	lea    -0x18(%esp),%esp
   14f97:	89 5d f8             	mov    %ebx,-0x8(%ebp)
   14f9a:	89 75 fc             	mov    %esi,-0x4(%ebp)
   14f9d:	e8 97 2e ff ff       	call   7e39 <__i686.get_pc_thunk.bx>
   14fa2:	81 c3 02 45 00 00    	add    $0x4502,%ebx
   14fa8:	8b 75 08             	mov    0x8(%ebp),%esi
   14fab:	8b 83 a8 ff ff ff    	mov    -0x58(%ebx),%eax
   14fb1:	83 c0 08             	add    $0x8,%eax
   14fb4:	89 06                	mov    %eax,(%esi)
   14fb6:	8b 83 d8 ff ff ff    	mov    -0x28(%ebx),%eax
   14fbc:	83 c0 08             	add    $0x8,%eax
   14fbf:	89 46 08             	mov    %eax,0x8(%esi)
   14fc2:	89 34 24             	mov    %esi,(%esp)
   14fc5:	e8 a6 2b ff ff       	call   7b70 <_ZN7QObjectD2Ev@plt>
   14fca:	89 34 24             	mov    %esi,(%esp)
   14fcd:	e8 fe 24 ff ff       	call   74d0 <_ZdlPv@plt>
   14fd2:	8b 5d f8             	mov    -0x8(%ebp),%ebx
   14fd5:	8b 75 fc             	mov    -0x4(%ebp),%esi
   14fd8:	89 ec                	mov    %ebp,%esp
   14fda:	5d                   	pop    %ebp
   14fdb:	c3                   	ret    
   14fdc:	90                   	nop
   14fdd:	90                   	nop
   14fde:	90                   	nop
   14fdf:	90                   	nop

00014fe0 <_ZNK8GLWidget10metaObjectEv>:
   14fe0:	55                   	push   %ebp
   14fe1:	e8 40 36 ff ff       	call   8626 <__i686.get_pc_thunk.cx>
   14fe6:	81 c1 be 44 00 00    	add    $0x44be,%ecx
   14fec:	89 e5                	mov    %esp,%ebp
   14fee:	8b 45 08             	mov    0x8(%ebp),%eax
   14ff1:	5d                   	pop    %ebp
   14ff2:	8b 40 04             	mov    0x4(%eax),%eax
   14ff5:	8b 40 18             	mov    0x18(%eax),%eax
   14ff8:	85 c0                	test   %eax,%eax
   14ffa:	0f 44 81 98 ff ff ff 	cmove  -0x68(%ecx),%eax
   15001:	c3                   	ret    
   15002:	8d b4 26 00 00 00 00 	lea    0x0(%esi,%eiz,1),%esi
   15009:	8d bc 27 00 00 00 00 	lea    0x0(%edi,%eiz,1),%edi

00015010 <_GLOBAL__I_moc_glwidget.cpp>:
   15010:	55                   	push   %ebp
   15011:	89 e5                	mov    %esp,%ebp
   15013:	8d 64 24 e8          	lea    -0x18(%esp),%esp
   15017:	89 5d f8             	mov    %ebx,-0x8(%ebp)
   1501a:	89 75 fc             	mov    %esi,-0x4(%ebp)
   1501d:	e8 17 2e ff ff       	call   7e39 <__i686.get_pc_thunk.bx>
   15022:	81 c3 82 44 00 00    	add    $0x4482,%ebx
   15028:	8d b3 d4 24 00 00    	lea    0x24d4(%ebx),%esi
   1502e:	89 34 24             	mov    %esi,(%esp)
   15031:	e8 7a 29 ff ff       	call   79b0 <_ZNSt8ios_base4InitC1Ev@plt>
   15036:	8b 83 b0 ff ff ff    	mov    -0x50(%ebx),%eax
   1503c:	89 74 24 04          	mov    %esi,0x4(%esp)
   15040:	89 44 24 08          	mov    %eax,0x8(%esp)
   15044:	8b 83 fc ff ff ff    	mov    -0x4(%ebx),%eax
   1504a:	89 04 24             	mov    %eax,(%esp)
   1504d:	e8 9e 22 ff ff       	call   72f0 <__cxa_atexit@plt>
   15052:	8b 5d f8             	mov    -0x8(%ebp),%ebx
   15055:	8b 75 fc             	mov    -0x4(%ebp),%esi
   15058:	89 ec                	mov    %ebp,%esp
   1505a:	5d                   	pop    %ebp
   1505b:	c3                   	ret    
   1505c:	8d 74 26 00          	lea    0x0(%esi,%eiz,1),%esi

00015060 <_ZN8GLWidget11qt_metacallEN11QMetaObject4CallEiPPv>:
   15060:	55                   	push   %ebp
   15061:	89 e5                	mov    %esp,%ebp
   15063:	8d 64 24 c8          	lea    -0x38(%esp),%esp
   15067:	89 5d f4             	mov    %ebx,-0xc(%ebp)
   1506a:	8b 45 14             	mov    0x14(%ebp),%eax
   1506d:	e8 c7 2d ff ff       	call   7e39 <__i686.get_pc_thunk.bx>
   15072:	81 c3 32 44 00 00    	add    $0x4432,%ebx
   15078:	89 75 f8             	mov    %esi,-0x8(%ebp)
   1507b:	89 7d fc             	mov    %edi,-0x4(%ebp)
   1507e:	8b 75 0c             	mov    0xc(%ebp),%esi
   15081:	8b 7d 08             	mov    0x8(%ebp),%edi
   15084:	89 44 24 0c          	mov    %eax,0xc(%esp)
   15088:	8b 45 10             	mov    0x10(%ebp),%eax
   1508b:	89 44 24 08          	mov    %eax,0x8(%esp)
   1508f:	89 74 24 04          	mov    %esi,0x4(%esp)
   15093:	89 3c 24             	mov    %edi,(%esp)
   15096:	e8 35 26 ff ff       	call   76d0 <_ZN9QGLWidget11qt_metacallEN11QMetaObject4CallEiPPv@plt>
   1509b:	85 c0                	test   %eax,%eax
   1509d:	78 3c                	js     150db <.L15+0x23>
   1509f:	85 f6                	test   %esi,%esi
   150a1:	75 38                	jne    150db <.L15+0x23>
   150a3:	83 f8 06             	cmp    $0x6,%eax
   150a6:	77 30                	ja     150d8 <.L15+0x20>
   150a8:	8b 94 83 bc c1 ff ff 	mov    -0x3e44(%ebx,%eax,4),%edx
   150af:	01 da                	add    %ebx,%edx
   150b1:	ff e2                	jmp    *%edx
   150b3:	90                   	nop
   150b4:	8d 74 26 00          	lea    0x0(%esi,%eiz,1),%esi

000150b8 <.L15>:
   150b8:	8b 4d 14             	mov    0x14(%ebp),%ecx
   150bb:	89 45 e4             	mov    %eax,-0x1c(%ebp)
   150be:	8b 51 04             	mov    0x4(%ecx),%edx
   150c1:	0f b6 12             	movzbl (%edx),%edx
   150c4:	89 3c 24             	mov    %edi,(%esp)
   150c7:	89 54 24 04          	mov    %edx,0x4(%esp)
   150cb:	e8 30 26 ff ff       	call   7700 <_ZN8GLWidget8Toogle3DEb@plt>
   150d0:	8b 45 e4             	mov    -0x1c(%ebp),%eax
   150d3:	90                   	nop
   150d4:	8d 74 26 00          	lea    0x0(%esi,%eiz,1),%esi
   150d8:	8d 40 f9             	lea    -0x7(%eax),%eax
   150db:	8b 5d f4             	mov    -0xc(%ebp),%ebx
   150de:	8b 75 f8             	mov    -0x8(%ebp),%esi
   150e1:	8b 7d fc             	mov    -0x4(%ebp),%edi
   150e4:	89 ec                	mov    %ebp,%esp
   150e6:	5d                   	pop    %ebp
   150e7:	c3                   	ret    

000150e8 <.L14>:
   150e8:	8b 4d 14             	mov    0x14(%ebp),%ecx
   150eb:	89 45 e4             	mov    %eax,-0x1c(%ebp)
   150ee:	8b 51 04             	mov    0x4(%ecx),%edx
   150f1:	0f b6 12             	movzbl (%edx),%edx
   150f4:	89 3c 24             	mov    %edi,(%esp)
   150f7:	89 54 24 04          	mov    %edx,0x4(%esp)
   150fb:	e8 20 28 ff ff       	call   7920 <_ZN8GLWidget9OrthoViewEb@plt>
   15100:	8b 45 e4             	mov    -0x1c(%ebp),%eax
   15103:	eb d3                	jmp    150d8 <.L15+0x20>
   15105:	8d 76 00             	lea    0x0(%esi),%esi

00015108 <.L13>:
   15108:	89 45 e4             	mov    %eax,-0x1c(%ebp)
   1510b:	89 3c 24             	mov    %edi,(%esp)
   1510e:	e8 2d 25 ff ff       	call   7640 <_ZN8GLWidget8AutoZoomEv@plt>
   15113:	8b 45 e4             	mov    -0x1c(%ebp),%eax
   15116:	eb c0                	jmp    150d8 <.L15+0x20>

00015118 <.L12>:
   15118:	89 45 e4             	mov    %eax,-0x1c(%ebp)
   1511b:	89 3c 24             	mov    %edi,(%esp)
   1511e:	e8 0d 22 ff ff       	call   7330 <_ZN8GLWidget11ResetCameraEv@plt>
   15123:	8b 45 e4             	mov    -0x1c(%ebp),%eax
   15126:	eb b0                	jmp    150d8 <.L15+0x20>

00015128 <.L11>:
   15128:	8b 4d 14             	mov    0x14(%ebp),%ecx
   1512b:	89 45 e4             	mov    %eax,-0x1c(%ebp)
   1512e:	8b 51 04             	mov    0x4(%ecx),%edx
   15131:	0f b6 12             	movzbl (%edx),%edx
   15134:	89 3c 24             	mov    %edi,(%esp)
   15137:	89 54 24 04          	mov    %edx,0x4(%esp)
   1513b:	e8 c0 20 ff ff       	call   7200 <_ZN8GLWidget12setWireframeEb@plt>
   15140:	8b 45 e4             	mov    -0x1c(%ebp),%eax
   15143:	eb 93                	jmp    150d8 <.L15+0x20>
   15145:	8d 76 00             	lea    0x0(%esi),%esi

00015148 <.L10>:
   15148:	8b 4d 14             	mov    0x14(%ebp),%ecx
   1514b:	89 45 e4             	mov    %eax,-0x1c(%ebp)
   1514e:	8b 51 04             	mov    0x4(%ecx),%edx
   15151:	0f b6 12             	movzbl (%edx),%edx
   15154:	89 3c 24             	mov    %edi,(%esp)
   15157:	89 54 24 04          	mov    %edx,0x4(%esp)
   1515b:	e8 20 21 ff ff       	call   7280 <_ZN8GLWidget11setBBRenderEb@plt>
   15160:	8b 45 e4             	mov    -0x1c(%ebp),%eax
   15163:	e9 70 ff ff ff       	jmp    150d8 <.L15+0x20>

00015168 <.L9>:
   15168:	89 45 e4             	mov    %eax,-0x1c(%ebp)
   1516b:	89 3c 24             	mov    %edi,(%esp)
   1516e:	e8 8d 1e ff ff       	call   7000 <_ZN8GLWidget10LoadObjectEv@plt>
   15173:	8b 45 e4             	mov    -0x1c(%ebp),%eax
   15176:	e9 5d ff ff ff       	jmp    150d8 <.L15+0x20>
   1517b:	90                   	nop
   1517c:	8d 74 26 00          	lea    0x0(%esi,%eiz,1),%esi

00015180 <_ZN8GLWidget11qt_metacastEPKc>:
   15180:	55                   	push   %ebp
   15181:	31 c9                	xor    %ecx,%ecx
   15183:	89 e5                	mov    %esp,%ebp
   15185:	8d 64 24 d8          	lea    -0x28(%esp),%esp
   15189:	8b 45 0c             	mov    0xc(%ebp),%eax
   1518c:	89 5d f4             	mov    %ebx,-0xc(%ebp)
   1518f:	e8 a5 2c ff ff       	call   7e39 <__i686.get_pc_thunk.bx>
   15194:	81 c3 10 43 00 00    	add    $0x4310,%ebx
   1519a:	85 c0                	test   %eax,%eax
   1519c:	89 75 f8             	mov    %esi,-0x8(%ebp)
   1519f:	89 7d fc             	mov    %edi,-0x4(%ebp)
   151a2:	74 2e                	je     151d2 <_ZN8GLWidget11qt_metacastEPKc+0x52>
   151a4:	b1 09                	mov    $0x9,%cl
   151a6:	8d bb dc c1 ff ff    	lea    -0x3e24(%ebx),%edi
   151ac:	8b 75 0c             	mov    0xc(%ebp),%esi
   151af:	f3 a6                	repz cmpsb %es:(%edi),%ds:(%esi)
   151b1:	0f 97 c0             	seta   %al
   151b4:	0f 92 c2             	setb   %dl
   151b7:	38 d0                	cmp    %dl,%al
   151b9:	8b 4d 08             	mov    0x8(%ebp),%ecx
   151bc:	74 14                	je     151d2 <_ZN8GLWidget11qt_metacastEPKc+0x52>
   151be:	8b 4d 0c             	mov    0xc(%ebp),%ecx
   151c1:	8b 45 08             	mov    0x8(%ebp),%eax
   151c4:	89 4c 24 04          	mov    %ecx,0x4(%esp)
   151c8:	89 04 24             	mov    %eax,(%esp)
   151cb:	e8 20 24 ff ff       	call   75f0 <_ZN9QGLWidget11qt_metacastEPKc@plt>
   151d0:	89 c1                	mov    %eax,%ecx
   151d2:	8b 5d f4             	mov    -0xc(%ebp),%ebx
   151d5:	8b 75 f8             	mov    -0x8(%ebp),%esi
   151d8:	8b 7d fc             	mov    -0x4(%ebp),%edi
   151db:	89 c8                	mov    %ecx,%eax
   151dd:	89 ec                	mov    %ebp,%esp
   151df:	5d                   	pop    %ebp
   151e0:	c3                   	ret    
   151e1:	90                   	nop
   151e2:	90                   	nop
   151e3:	90                   	nop
   151e4:	90                   	nop
   151e5:	90                   	nop
   151e6:	90                   	nop
   151e7:	90                   	nop
   151e8:	90                   	nop
   151e9:	90                   	nop
   151ea:	90                   	nop
   151eb:	90                   	nop
   151ec:	90                   	nop
   151ed:	90                   	nop
   151ee:	90                   	nop
   151ef:	90                   	nop

000151f0 <_Z20qInitResources_iconsv>:
   151f0:	55                   	push   %ebp
   151f1:	b8 01 00 00 00       	mov    $0x1,%eax
   151f6:	89 e5                	mov    %esp,%ebp
   151f8:	5d                   	pop    %ebp
   151f9:	c3                   	ret    
   151fa:	8d b6 00 00 00 00    	lea    0x0(%esi),%esi

00015200 <_Z23qCleanupResources_iconsv>:
   15200:	55                   	push   %ebp
   15201:	b8 01 00 00 00       	mov    $0x1,%eax
   15206:	89 e5                	mov    %esp,%ebp
   15208:	5d                   	pop    %ebp
   15209:	c3                   	ret    
   1520a:	8d b6 00 00 00 00    	lea    0x0(%esi),%esi

00015210 <_GLOBAL__I_qrc_icons.cpp>:
   15210:	55                   	push   %ebp
   15211:	89 e5                	mov    %esp,%ebp
   15213:	53                   	push   %ebx
   15214:	e8 20 2c ff ff       	call   7e39 <__i686.get_pc_thunk.bx>
   15219:	81 c3 8b 42 00 00    	add    $0x428b,%ebx
   1521f:	8d 64 24 ec          	lea    -0x14(%esp),%esp
   15223:	e8 58 21 ff ff       	call   7380 <_Z20qInitResources_iconsv@plt>
   15228:	89 83 dc 24 00 00    	mov    %eax,0x24dc(%ebx)
   1522e:	8b 83 b0 ff ff ff    	mov    -0x50(%ebx),%eax
   15234:	89 44 24 08          	mov    %eax,0x8(%esp)
   15238:	8b 83 b4 ff ff ff    	mov    -0x4c(%ebx),%eax
   1523e:	89 44 24 04          	mov    %eax,0x4(%esp)
   15242:	8b 83 c4 ff ff ff    	mov    -0x3c(%ebx),%eax
   15248:	89 04 24             	mov    %eax,(%esp)
   1524b:	e8 a0 20 ff ff       	call   72f0 <__cxa_atexit@plt>
   15250:	8d 64 24 14          	lea    0x14(%esp),%esp
   15254:	5b                   	pop    %ebx
   15255:	5d                   	pop    %ebp
   15256:	c3                   	ret    
   15257:	90                   	nop
   15258:	90                   	nop
   15259:	90                   	nop
   1525a:	90                   	nop
   1525b:	90                   	nop
   1525c:	90                   	nop
   1525d:	90                   	nop
   1525e:	90                   	nop
   1525f:	90                   	nop

00015260 <_ZN37qCleanupResources_icons__dest_class__D1Ev>:
   15260:	55                   	push   %ebp
   15261:	89 e5                	mov    %esp,%ebp
   15263:	53                   	push   %ebx
   15264:	e8 d0 2b ff ff       	call   7e39 <__i686.get_pc_thunk.bx>
   15269:	81 c3 3b 42 00 00    	add    $0x423b,%ebx
   1526f:	8d 64 24 fc          	lea    -0x4(%esp),%esp
   15273:	e8 28 29 ff ff       	call   7ba0 <_Z23qCleanupResources_iconsv@plt>
   15278:	8d 64 24 04          	lea    0x4(%esp),%esp
   1527c:	5b                   	pop    %ebx
   1527d:	5d                   	pop    %ebp
   1527e:	c3                   	ret    
   1527f:	90                   	nop

00015280 <__stack_chk_fail_local>:
   15280:	55                   	push   %ebp
   15281:	89 e5                	mov    %esp,%ebp
   15283:	53                   	push   %ebx
   15284:	e8 b0 2b ff ff       	call   7e39 <__i686.get_pc_thunk.bx>
   15289:	81 c3 1b 42 00 00    	add    $0x421b,%ebx
   1528f:	e8 1c 23 ff ff       	call   75b0 <__stack_chk_fail@plt>
   15294:	90                   	nop
   15295:	90                   	nop
   15296:	90                   	nop
   15297:	90                   	nop
   15298:	90                   	nop
   15299:	90                   	nop
   1529a:	90                   	nop
   1529b:	90                   	nop
   1529c:	90                   	nop
   1529d:	90                   	nop
   1529e:	90                   	nop
   1529f:	90                   	nop

000152a0 <__do_global_ctors_aux>:
   152a0:	55                   	push   %ebp
   152a1:	89 e5                	mov    %esp,%ebp
   152a3:	56                   	push   %esi
   152a4:	53                   	push   %ebx
   152a5:	e8 8f 2b ff ff       	call   7e39 <__i686.get_pc_thunk.bx>
   152aa:	81 c3 fa 41 00 00    	add    $0x41fa,%ebx
   152b0:	8b 83 98 fb ff ff    	mov    -0x468(%ebx),%eax
   152b6:	83 f8 ff             	cmp    $0xffffffff,%eax
   152b9:	74 19                	je     152d4 <__do_global_ctors_aux+0x34>
   152bb:	8d b3 98 fb ff ff    	lea    -0x468(%ebx),%esi
   152c1:	8d b4 26 00 00 00 00 	lea    0x0(%esi,%eiz,1),%esi
   152c8:	8d 76 fc             	lea    -0x4(%esi),%esi
   152cb:	ff d0                	call   *%eax
   152cd:	8b 06                	mov    (%esi),%eax
   152cf:	83 f8 ff             	cmp    $0xffffffff,%eax
   152d2:	75 f4                	jne    152c8 <__do_global_ctors_aux+0x28>
   152d4:	5b                   	pop    %ebx
   152d5:	5e                   	pop    %esi
   152d6:	5d                   	pop    %ebp
   152d7:	c3                   	ret    

Disassembly of section .fini:

000152d8 <_fini>:
   152d8:	55                   	push   %ebp
   152d9:	89 e5                	mov    %esp,%ebp
   152db:	53                   	push   %ebx
   152dc:	83 ec 04             	sub    $0x4,%esp
   152df:	e8 00 00 00 00       	call   152e4 <_fini+0xc>
   152e4:	5b                   	pop    %ebx
   152e5:	81 c3 c0 41 00 00    	add    $0x41c0,%ebx
   152eb:	e8 80 2a ff ff       	call   7d70 <__do_global_dtors_aux>
   152f0:	59                   	pop    %ecx
   152f1:	5b                   	pop    %ebx
   152f2:	c9                   	leave  
   152f3:	c3                   	ret    
