In archive libjp2.a:

user.o:     file format elf32-i386


jocsdeprova.o:     file format elf32-i386


Disassembly of section .rodata:

00000000 <.rodata>:
   0:	0a 0a                	or     (%edx),%cl
   2:	2a 2a                	sub    (%edx),%ch
   4:	2a 2a                	sub    (%edx),%ch
   6:	20 46 41             	and    %al,0x41(%esi)
   9:	54                   	push   %esp
   a:	41                   	inc    %ecx
   b:	4c                   	dec    %esp
   c:	20 45 52             	and    %al,0x52(%ebp)
   f:	52                   	push   %edx
  10:	4f                   	dec    %edi
  11:	52                   	push   %edx
  12:	20 49 4e             	and    %cl,0x4e(%ecx)
  15:	49                   	dec    %ecx
  16:	54                   	push   %esp
  17:	49                   	dec    %ecx
  18:	41                   	inc    %ecx
  19:	4c                   	dec    %esp
  1a:	49                   	dec    %ecx
  1b:	5a                   	pop    %edx
  1c:	49                   	dec    %ecx
  1d:	4e                   	dec    %esi
  1e:	47                   	inc    %edi
  1f:	20 54 45 53          	and    %dl,0x53(%ebp,%eax,2)
  23:	54                   	push   %esp
  24:	53                   	push   %ebx
  25:	20 2a                	and    %ch,(%edx)
  27:	2a 2a                	sub    (%edx),%ch
  29:	20 0a                	and    %cl,(%edx)
  2b:	0a 00                	or     (%eax),%al
  2d:	0a 0a                	or     (%edx),%cl
  2f:	2d 2d 3e 52 75       	sub    $0x75523e2d,%eax
  34:	6e                   	outsb  %ds:(%esi),(%dx)
  35:	6e                   	outsb  %ds:(%esi),(%dx)
  36:	69 6e 67 20 00 20 54 	imul   $0x54200020,0x67(%esi),%ebp
  3d:	65                   	gs
  3e:	73 74                	jae    b4 <.rodata+0xb4>
  40:	73 3a                	jae    7c <.rodata+0x7c>
  42:	20 00                	and    %al,(%eax)
  44:	3c 2d                	cmp    $0x2d,%al
  46:	2d 0a 0a 00 20       	sub    $0x20000a0a,%eax
  4b:	3c 2d                	cmp    $0x2d,%al
  4d:	2d 0a 0a 00 2a       	sub    $0x2a000a0a,%eax
  52:	20 52 75             	and    %dl,0x75(%edx)
  55:	6e                   	outsb  %ds:(%esi),(%dx)
  56:	6e                   	outsb  %ds:(%esi),(%dx)
  57:	69 6e 67 20 54 65 73 	imul   $0x73655420,0x67(%esi),%ebp
  5e:	74 20                	je     80 <.rodata+0x80>
  60:	5b                   	pop    %ebx
  61:	00 5d 20             	add    %bl,0x20(%ebp)
  64:	3a 20                	cmp    (%eax),%ah
  66:	00 2d 2d 20 72 65    	add    %ch,0x6572202d
  6c:	73 75                	jae    e3 <.rodata+0xe3>
  6e:	6c                   	insb   (%dx),%es:(%edi)
  6f:	74 20                	je     91 <.rodata+0x91>
  71:	4f                   	dec    %edi
  72:	4b                   	dec    %ebx
  73:	0a 00                	or     (%eax),%al
  75:	2d 2d 20 72 65       	sub    $0x6572202d,%eax
  7a:	73 75                	jae    f1 <.rodata+0xf1>
  7c:	6c                   	insb   (%dx),%es:(%edi)
  7d:	74 20                	je     9f <.rodata+0x9f>
  7f:	42                   	inc    %edx
  80:	41                   	inc    %ecx
  81:	44                   	inc    %esp
  82:	0a 00                	or     (%eax),%al
  84:	2d 2d 20 72 65       	sub    $0x6572202d,%eax
  89:	73 75                	jae    100 <.rodata+0x100>
  8b:	6c                   	insb   (%dx),%es:(%edi)
  8c:	74 20                	je     ae <.rodata+0xae>
  8e:	4d                   	dec    %ebp
  8f:	45                   	inc    %ebp
  90:	44                   	inc    %esp
  91:	49                   	dec    %ecx
  92:	55                   	push   %ebp
  93:	4d                   	dec    %ebp
  94:	0a 00                	or     (%eax),%al
  96:	3a 20                	cmp    (%eax),%ah
  98:	55                   	push   %ebp
  99:	6e                   	outsb  %ds:(%esi),(%dx)
  9a:	6b 6e 6f 77          	imul   $0x77,0x6f(%esi),%ebp
  9e:	6e                   	outsb  %ds:(%esi),(%dx)
  9f:	20 6a 70             	and    %ch,0x70(%edx)
  a2:	20 72 65             	and    %dh,0x65(%edx)
  a5:	73 75                	jae    11c <.rodata+0x11c>
  a7:	6c                   	insb   (%dx),%es:(%edi)
  a8:	74 0a                	je     b4 <.rodata+0xb4>
  aa:	00 2d 2d 20 55 6e    	add    %ch,0x6e55202d
  b0:	6b 6e 6f 77          	imul   $0x77,0x6f(%esi),%ebp
  b4:	6e                   	outsb  %ds:(%esi),(%dx)
  b5:	20 6a 70             	and    %ch,0x70(%edx)
  b8:	20 72 65             	and    %dh,0x65(%edx)
  bb:	73 75                	jae    132 <.rodata+0x132>
  bd:	6c                   	insb   (%dx),%es:(%edi)
  be:	74 0a                	je     ca <.rodata+0xca>
  c0:	00 54 65 73          	add    %dl,0x73(%ebp,%eiz,2)
  c4:	74 3a                	je     100 <.rodata+0x100>
  c6:	20 00                	and    %al,(%eax)
  c8:	0a 54 65 73          	or     0x73(%ebp,%eiz,2),%dl
  cc:	74 3a                	je     108 <.rodata+0x108>
  ce:	20 00                	and    %al,(%eax)
  d0:	20 2d 2d 20 52 65    	and    %ch,0x6552202d
  d6:	73 75                	jae    14d <.rodata+0x14d>
  d8:	6c                   	insb   (%dx),%es:(%edi)
  d9:	74 3a                	je     115 <.rodata+0x115>
  db:	20 00                	and    %al,(%eax)
  dd:	4f                   	dec    %edi
  de:	4b                   	dec    %ebx
  df:	00 42 41             	add    %al,0x41(%edx)
  e2:	44                   	inc    %esp
  e3:	00 4d 45             	add    %cl,0x45(%ebp)
  e6:	44                   	inc    %esp
  e7:	49                   	dec    %ecx
  e8:	55                   	push   %ebp
  e9:	4d                   	dec    %ebp
  ea:	00 0a                	add    %cl,(%edx)
  ec:	2d 2d 3e 20 54       	sub    $0x54203e2d,%eax
  f1:	65                   	gs
  f2:	73 74                	jae    168 <jpstats_run+0x3a>
  f4:	20 66 69             	and    %ah,0x69(%esi)
  f7:	6e                   	outsb  %ds:(%esi),(%dx)
  f8:	61                   	popa   
  f9:	6c                   	insb   (%dx),%es:(%edi)
  fa:	20 73 75             	and    %dh,0x75(%ebx)
  fd:	6d                   	insl   (%dx),%es:(%edi)
  fe:	6d                   	insl   (%dx),%es:(%edi)
  ff:	61                   	popa   
 100:	72 79                	jb     17b <jpstats_run+0x4d>
 102:	3a 20                	cmp    (%eax),%ah
 104:	00 3c 2d 2d 0a 00 20 	add    %bh,0x20000a2d(,%ebp,1)
 10b:	3c 2d                	cmp    $0x2d,%al
 10d:	2d 0a 00 55 6e       	sub    $0x6e55000a,%eax
 112:	6b 6e 6f 77          	imul   $0x77,0x6f(%esi),%ebp
 116:	6e                   	outsb  %ds:(%esi),(%dx)
 117:	20 6a 70             	and    %ch,0x70(%edx)
 11a:	20 72 65             	and    %dh,0x65(%edx)
 11d:	73 75                	jae    194 <jpstats_run+0x66>
 11f:	6c                   	insb   (%dx),%es:(%edi)
 120:	74 0a                	je     12c <.rodata+0x12c>
 122:	00 0a                	add    %cl,(%edx)
 124:	54                   	push   %esp
 125:	65                   	gs
 126:	73 74                	jae    19c <jpstats_run+0x6e>
 128:	20 52 65             	and    %dl,0x65(%edx)
 12b:	73 75                	jae    1a2 <jpstats_run+0x74>
 12d:	6c                   	insb   (%dx),%es:(%edi)
 12e:	74 73                	je     1a3 <jpstats_run+0x75>
 130:	20 42 61             	and    %al,0x61(%edx)
 133:	6c                   	insb   (%dx),%es:(%edi)
 134:	61                   	popa   
 135:	6e                   	outsb  %ds:(%esi),(%dx)
 136:	63 65 3a             	arpl   %sp,0x3a(%ebp)
 139:	0a 00                	or     (%eax),%al
 13b:	47                   	inc    %edi
 13c:	6f                   	outsl  %ds:(%esi),(%dx)
 13d:	6f                   	outsl  %ds:(%esi),(%dx)
 13e:	64 20 74 65 73       	and    %dh,%fs:0x73(%ebp,%eiz,2)
 143:	74 73                	je     1b8 <jpstats_run+0x8a>
 145:	3a 20                	cmp    (%eax),%ah
 147:	00 0a                	add    %cl,(%edx)
 149:	4d                   	dec    %ebp
 14a:	65 64 69 75 6d 20 74 	imul   $0x73657420,%fs:%gs:0x6d(%ebp),%esi
 151:	65 73 
 153:	74 73                	je     1c8 <jpstats_run+0x9a>
 155:	3a 20                	cmp    (%eax),%ah
 157:	00 0a                	add    %cl,(%edx)
 159:	42                   	inc    %edx
 15a:	61                   	popa   
 15b:	64 20 74 65 73       	and    %dh,%fs:0x73(%ebp,%eiz,2)
 160:	74 73                	je     1d5 <jpstats_run+0xa7>
 162:	3a 20                	cmp    (%eax),%ah
 164:	00 0a                	add    %cl,(%edx)
	...

jp.o:     file format elf32-i386


utils_user.o:     file format elf32-i386


jpE1.2.o:     file format elf32-i386


Disassembly of section .rodata:

00000000 <.rodata>:
       0:	54                   	push   %esp
       1:	45                   	inc    %ebp
       2:	53                   	push   %ebx
       3:	54                   	push   %esp
       4:	20 47 45             	and    %al,0x45(%edi)
       7:	54                   	push   %esp
       8:	50                   	push   %eax
       9:	49                   	dec    %ecx
       a:	44                   	inc    %esp
       b:	00 54 45 53          	add    %dl,0x53(%ebp,%eax,2)
       f:	54                   	push   %esp
      10:	20 50 48             	and    %dl,0x48(%eax)
      13:	59                   	pop    %ecx
      14:	53                   	push   %ebx
      15:	49                   	dec    %ecx
      16:	43                   	inc    %ebx
      17:	41                   	inc    %ecx
      18:	4c                   	dec    %esp
      19:	20 4d 45             	and    %cl,0x45(%ebp)
      1c:	4d                   	dec    %ebp
      1d:	4f                   	dec    %edi
      1e:	52                   	push   %edx
      1f:	59                   	pop    %ecx
      20:	20 49 4e             	and    %cl,0x4e(%ecx)
      23:	49                   	dec    %ecx
      24:	54                   	push   %esp
      25:	49                   	dec    %ecx
      26:	41                   	inc    %ecx
      27:	4c                   	dec    %esp
      28:	49                   	dec    %ecx
      29:	5a                   	pop    %edx
      2a:	41                   	inc    %ecx
      2b:	54                   	push   %esp
      2c:	49                   	dec    %ecx
      2d:	4f                   	dec    %edi
      2e:	4e                   	dec    %esi
      2f:	20 50 30             	and    %dl,0x30(%eax)
      32:	00 00                	add    %al,(%eax)
      34:	4e                   	dec    %esi
      35:	49                   	dec    %ecx
      36:	43                   	inc    %ebx
      37:	45                   	inc    %ebp
      38:	28 71 75             	sub    %dh,0x75(%ecx)
      3b:	61                   	popa   
      3c:	6e                   	outsb  %ds:(%esi),(%dx)
      3d:	74 75                	je     b4 <.rodata+0xb4>
      3f:	6d                   	insl   (%dx),%es:(%edi)
      40:	20 70 61             	and    %dh,0x61(%eax)
      43:	72 61                	jb     a6 <.rodata+0xa6>
      45:	6d                   	insl   (%dx),%es:(%edi)
      46:	65                   	gs
      47:	74 65                	je     ae <.rodata+0xae>
      49:	72 20                	jb     6b <.rodata+0x6b>
      4b:	69 73 20 6e 65 67 61 	imul   $0x6167656e,0x20(%ebx),%esi
      52:	74 69                	je     bd <.rodata+0xbd>
      54:	76 65                	jbe    bb <.rodata+0xbb>
      56:	29 00                	sub    %eax,(%eax)
      58:	4e                   	dec    %esi
      59:	49                   	dec    %ecx
      5a:	43                   	inc    %ebx
      5b:	45                   	inc    %ebp
      5c:	28 71 75             	sub    %dh,0x75(%ecx)
      5f:	61                   	popa   
      60:	6e                   	outsb  %ds:(%esi),(%dx)
      61:	74 75                	je     d8 <.rodata+0xd8>
      63:	6d                   	insl   (%dx),%es:(%edi)
      64:	20 70 61             	and    %dh,0x61(%eax)
      67:	72 61                	jb     ca <.rodata+0xca>
      69:	6d                   	insl   (%dx),%es:(%edi)
      6a:	65                   	gs
      6b:	74 65                	je     d2 <.rodata+0xd2>
      6d:	72 20                	jb     8f <.rodata+0x8f>
      6f:	69 73 20 30 29 00 43 	imul   $0x43002930,0x20(%ebx),%esi
      76:	48                   	dec    %eax
      77:	45                   	inc    %ebp
      78:	43                   	inc    %ebx
      79:	4b                   	dec    %ebx
      7a:	20 4e 49             	and    %cl,0x49(%esi)
      7d:	43                   	inc    %ebx
      7e:	45                   	inc    %ebp
      7f:	20 52 45             	and    %dl,0x45(%edx)
      82:	53                   	push   %ebx
      83:	55                   	push   %ebp
      84:	4c                   	dec    %esp
      85:	54                   	push   %esp
      86:	00 00                	add    %al,(%eax)
      88:	47                   	inc    %edi
      89:	45                   	inc    %ebp
      8a:	54                   	push   %esp
      8b:	5f                   	pop    %edi
      8c:	53                   	push   %ebx
      8d:	54                   	push   %esp
      8e:	41                   	inc    %ecx
      8f:	54                   	push   %esp
      90:	53                   	push   %ebx
      91:	28 70 69             	sub    %dh,0x69(%eax)
      94:	64 20 70 61          	and    %dh,%fs:0x61(%eax)
      98:	72 61                	jb     fb <.rodata+0xfb>
      9a:	6d                   	insl   (%dx),%es:(%edi)
      9b:	65                   	gs
      9c:	74 65                	je     103 <.rodata+0x103>
      9e:	72 20                	jb     c0 <.rodata+0xc0>
      a0:	69 73 20 6e 65 67 61 	imul   $0x6167656e,0x20(%ebx),%esi
      a7:	74 69                	je     112 <.rodata+0x112>
      a9:	76 65                	jbe    110 <.rodata+0x110>
      ab:	29 00                	sub    %eax,(%eax)
      ad:	00 00                	add    %al,(%eax)
      af:	00 47 45             	add    %al,0x45(%edi)
      b2:	54                   	push   %esp
      b3:	5f                   	pop    %edi
      b4:	53                   	push   %ebx
      b5:	54                   	push   %esp
      b6:	41                   	inc    %ecx
      b7:	54                   	push   %esp
      b8:	53                   	push   %ebx
      b9:	28 70 69             	sub    %dh,0x69(%eax)
      bc:	64 20 70 61          	and    %dh,%fs:0x61(%eax)
      c0:	72 61                	jb     123 <.rodata+0x123>
      c2:	6d                   	insl   (%dx),%es:(%edi)
      c3:	65                   	gs
      c4:	74 65                	je     12b <.rodata+0x12b>
      c6:	72 20                	jb     e8 <.rodata+0xe8>
      c8:	64 6f                	outsl  %fs:(%esi),(%dx)
      ca:	65                   	gs
      cb:	73 20                	jae    ed <.rodata+0xed>
      cd:	6e                   	outsb  %ds:(%esi),(%dx)
      ce:	6f                   	outsl  %ds:(%esi),(%dx)
      cf:	74 20                	je     f1 <.rodata+0xf1>
      d1:	65                   	gs
      d2:	78 69                	js     13d <.rodata+0x13d>
      d4:	73 74                	jae    14a <.rodata+0x14a>
      d6:	29 00                	sub    %eax,(%eax)
      d8:	47                   	inc    %edi
      d9:	45                   	inc    %ebp
      da:	54                   	push   %esp
      db:	5f                   	pop    %edi
      dc:	53                   	push   %ebx
      dd:	54                   	push   %esp
      de:	41                   	inc    %ecx
      df:	54                   	push   %esp
      e0:	53                   	push   %ebx
      e1:	28 61 64             	sub    %ah,0x64(%ecx)
      e4:	64                   	fs
      e5:	72 65                	jb     14c <.rodata+0x14c>
      e7:	73 73                	jae    15c <.rodata+0x15c>
      e9:	20 70 61             	and    %dh,0x61(%eax)
      ec:	72 61                	jb     14f <.rodata+0x14f>
      ee:	6d                   	insl   (%dx),%es:(%edi)
      ef:	65                   	gs
      f0:	74 65                	je     157 <.rodata+0x157>
      f2:	72 20                	jb     114 <.rodata+0x114>
      f4:	69 73 20 4e 55 4c 4c 	imul   $0x4c4c554e,0x20(%ebx),%esi
      fb:	29 00                	sub    %eax,(%eax)
      fd:	00 00                	add    %al,(%eax)
      ff:	00 47 45             	add    %al,0x45(%edi)
     102:	54                   	push   %esp
     103:	5f                   	pop    %edi
     104:	53                   	push   %ebx
     105:	54                   	push   %esp
     106:	41                   	inc    %ecx
     107:	54                   	push   %esp
     108:	53                   	push   %ebx
     109:	28 61 64             	sub    %ah,0x64(%ecx)
     10c:	64                   	fs
     10d:	72 65                	jb     174 <.rodata+0x174>
     10f:	73 73                	jae    184 <.rodata+0x184>
     111:	20 70 61             	and    %dh,0x61(%eax)
     114:	72 61                	jb     177 <.rodata+0x177>
     116:	6d                   	insl   (%dx),%es:(%edi)
     117:	65                   	gs
     118:	74 65                	je     17f <.rodata+0x17f>
     11a:	72 20                	jb     13c <.rodata+0x13c>
     11c:	69 6e 20 6b 65 72 6e 	imul   $0x6e72656b,0x20(%esi),%ebp
     123:	65                   	gs
     124:	6c                   	insb   (%dx),%es:(%edi)
     125:	20 61 64             	and    %ah,0x64(%ecx)
     128:	64                   	fs
     129:	72 65                	jb     190 <.rodata+0x190>
     12b:	73 73                	jae    1a0 <.rodata+0x1a0>
     12d:	20 73 70             	and    %dh,0x70(%ebx)
     130:	61                   	popa   
     131:	63 65 29             	arpl   %sp,0x29(%ebp)
     134:	00 00                	add    %al,(%eax)
     136:	00 00                	add    %al,(%eax)
     138:	47                   	inc    %edi
     139:	45                   	inc    %ebp
     13a:	54                   	push   %esp
     13b:	5f                   	pop    %edi
     13c:	53                   	push   %ebx
     13d:	54                   	push   %esp
     13e:	41                   	inc    %ecx
     13f:	54                   	push   %esp
     140:	53                   	push   %ebx
     141:	28 61 64             	sub    %ah,0x64(%ecx)
     144:	64                   	fs
     145:	72 65                	jb     1ac <.rodata+0x1ac>
     147:	73 73                	jae    1bc <.rodata+0x1bc>
     149:	20 70 61             	and    %dh,0x61(%eax)
     14c:	72 61                	jb     1af <.rodata+0x1af>
     14e:	6d                   	insl   (%dx),%es:(%edi)
     14f:	65                   	gs
     150:	74 65                	je     1b7 <.rodata+0x1b7>
     152:	72 20                	jb     174 <.rodata+0x174>
     154:	6f                   	outsl  %ds:(%esi),(%dx)
     155:	75 74                	jne    1cb <.rodata+0x1cb>
     157:	73 69                	jae    1c2 <.rodata+0x1c2>
     159:	64 65 20 75 73       	and    %dh,%fs:%gs:0x73(%ebp)
     15e:	65                   	gs
     15f:	72 20                	jb     181 <.rodata+0x181>
     161:	61                   	popa   
     162:	64                   	fs
     163:	64                   	fs
     164:	72 65                	jb     1cb <.rodata+0x1cb>
     166:	73 73                	jae    1db <.rodata+0x1db>
     168:	20 73 70             	and    %dh,0x70(%ebx)
     16b:	61                   	popa   
     16c:	63 65 29             	arpl   %sp,0x29(%ebp)
     16f:	00 47 45             	add    %al,0x45(%edi)
     172:	54                   	push   %esp
     173:	5f                   	pop    %edi
     174:	53                   	push   %ebx
     175:	54                   	push   %esp
     176:	41                   	inc    %ecx
     177:	54                   	push   %esp
     178:	53                   	push   %ebx
     179:	28 70 69             	sub    %dh,0x69(%eax)
     17c:	64 20 69 73          	and    %ch,%fs:0x73(%ecx)
     180:	20 63 75             	and    %ah,0x75(%ebx)
     183:	72 72                	jb     1f7 <.rodata+0x1f7>
     185:	65 6e                	outsb  %gs:(%esi),(%dx)
     187:	74 20                	je     1a9 <.rodata+0x1a9>
     189:	70 72                	jo     1fd <.rodata+0x1fd>
     18b:	6f                   	outsl  %ds:(%esi),(%dx)
     18c:	63 65 73             	arpl   %sp,0x73(%ebp)
     18f:	73 29                	jae    1ba <.rodata+0x1ba>
     191:	00 00                	add    %al,(%eax)
     193:	00 53 45             	add    %dl,0x45(%ebx)
     196:	4d                   	dec    %ebp
     197:	5f                   	pop    %edi
     198:	49                   	dec    %ecx
     199:	4e                   	dec    %esi
     19a:	49                   	dec    %ecx
     19b:	54                   	push   %esp
     19c:	28 69 6e             	sub    %ch,0x6e(%ecx)
     19f:	76 61                	jbe    202 <.rodata+0x202>
     1a1:	6c                   	insb   (%dx),%es:(%edi)
     1a2:	69 64 20 73 65 6d 61 	imul   $0x70616d65,0x73(%eax,%eiz,1),%esp
     1a9:	70 
     1aa:	68 6f 72 65 73       	push   $0x7365726f
     1af:	20 69 64             	and    %ch,0x64(%ecx)
     1b2:	3a 20                	cmp    (%eax),%ah
     1b4:	6e                   	outsb  %ds:(%esi),(%dx)
     1b5:	65                   	gs
     1b6:	67 61                	addr16 popa 
     1b8:	74 69                	je     223 <.rodata+0x223>
     1ba:	76 65                	jbe    221 <.rodata+0x221>
     1bc:	20 26                	and    %ah,(%esi)
     1be:	20 6f 75             	and    %ch,0x75(%edi)
     1c1:	74 20                	je     1e3 <.rodata+0x1e3>
     1c3:	6f                   	outsl  %ds:(%esi),(%dx)
     1c4:	66                   	data16
     1c5:	20 72 61             	and    %dh,0x61(%edx)
     1c8:	6e                   	outsb  %ds:(%esi),(%dx)
     1c9:	67 65 20 69 64       	addr16 and %ch,%gs:0x64(%bx,%di)
     1ce:	29 00                	sub    %eax,(%eax)
     1d0:	53                   	push   %ebx
     1d1:	45                   	inc    %ebp
     1d2:	4d                   	dec    %ebp
     1d3:	5f                   	pop    %edi
     1d4:	49                   	dec    %ecx
     1d5:	4e                   	dec    %esi
     1d6:	49                   	dec    %ecx
     1d7:	54                   	push   %esp
     1d8:	28 61 6e             	sub    %ah,0x6e(%ecx)
     1db:	20 61 6c             	and    %ah,0x6c(%ecx)
     1de:	72 65                	jb     245 <.rodata+0x245>
     1e0:	61                   	popa   
     1e1:	64                   	fs
     1e2:	79 20                	jns    204 <.rodata+0x204>
     1e4:	69 6e 69 74 69 61 6c 	imul   $0x6c616974,0x69(%esi),%ebp
     1eb:	69 7a 65 64 20 73 65 	imul   $0x65732064,0x65(%edx),%edi
     1f2:	6d                   	insl   (%dx),%es:(%edi)
     1f3:	61                   	popa   
     1f4:	70 68                	jo     25e <.rodata+0x25e>
     1f6:	6f                   	outsl  %ds:(%esi),(%dx)
     1f7:	72 65                	jb     25e <.rodata+0x25e>
     1f9:	29 00                	sub    %eax,(%eax)
     1fb:	54                   	push   %esp
     1fc:	45                   	inc    %ebp
     1fd:	53                   	push   %ebx
     1fe:	54                   	push   %esp
     1ff:	20 53 54             	and    %dl,0x54(%ebx)
     202:	41                   	inc    %ecx
     203:	54                   	push   %esp
     204:	53                   	push   %ebx
     205:	20 4f 46             	and    %cl,0x46(%edi)
     208:	20 50 30             	and    %dl,0x30(%eax)
     20b:	00 53 45             	add    %dl,0x45(%ebx)
     20e:	4d                   	dec    %ebp
     20f:	5f                   	pop    %edi
     210:	44                   	inc    %esp
     211:	45                   	inc    %ebp
     212:	53                   	push   %ebx
     213:	54                   	push   %esp
     214:	52                   	push   %edx
     215:	4f                   	dec    %edi
     216:	59                   	pop    %ecx
     217:	28 69 6e             	sub    %ch,0x6e(%ecx)
     21a:	76 61                	jbe    27d <.rodata+0x27d>
     21c:	6c                   	insb   (%dx),%es:(%edi)
     21d:	69 64 20 73 65 6d 61 	imul   $0x70616d65,0x73(%eax,%eiz,1),%esp
     224:	70 
     225:	68 6f 72 65 20       	push   $0x2065726f
     22a:	69 64 3a 20 6e 65 67 	imul   $0x6167656e,0x20(%edx,%edi,1),%esp
     231:	61 
     232:	74 69                	je     29d <.rodata+0x29d>
     234:	76 65                	jbe    29b <.rodata+0x29b>
     236:	20 26                	and    %ah,(%esi)
     238:	20 6f 75             	and    %ch,0x75(%edi)
     23b:	74 20                	je     25d <.rodata+0x25d>
     23d:	6f                   	outsl  %ds:(%esi),(%dx)
     23e:	66                   	data16
     23f:	20 72 61             	and    %dh,0x61(%edx)
     242:	6e                   	outsb  %ds:(%esi),(%dx)
     243:	67 65 20 69 64       	addr16 and %ch,%gs:0x64(%bx,%di)
     248:	29 00                	sub    %eax,(%eax)
     24a:	00 00                	add    %al,(%eax)
     24c:	53                   	push   %ebx
     24d:	45                   	inc    %ebp
     24e:	4d                   	dec    %ebp
     24f:	5f                   	pop    %edi
     250:	44                   	inc    %esp
     251:	45                   	inc    %ebp
     252:	53                   	push   %ebx
     253:	54                   	push   %esp
     254:	52                   	push   %edx
     255:	4f                   	dec    %edi
     256:	59                   	pop    %ecx
     257:	28 61 6e             	sub    %ah,0x6e(%ecx)
     25a:	20 75 6e             	and    %dh,0x6e(%ebp)
     25d:	69 6e 69 74 69 61 6c 	imul   $0x6c616974,0x69(%esi),%ebp
     264:	69 7a 65 64 20 73 65 	imul   $0x65732064,0x65(%edx),%edi
     26b:	6d                   	insl   (%dx),%es:(%edi)
     26c:	61                   	popa   
     26d:	70 68                	jo     2d7 <.rodata+0x2d7>
     26f:	6f                   	outsl  %ds:(%esi),(%dx)
     270:	72 65                	jb     2d7 <.rodata+0x2d7>
     272:	29 00                	sub    %eax,(%eax)
     274:	53                   	push   %ebx
     275:	45                   	inc    %ebp
     276:	4d                   	dec    %ebp
     277:	5f                   	pop    %edi
     278:	57                   	push   %edi
     279:	41                   	inc    %ecx
     27a:	49                   	dec    %ecx
     27b:	54                   	push   %esp
     27c:	20 4f 4e             	and    %cl,0x4e(%edi)
     27f:	20 54 41 53          	and    %dl,0x53(%ecx,%eax,2)
     283:	4b                   	dec    %ebx
     284:	20 30                	and    %dh,(%eax)
     286:	00 53 45             	add    %dl,0x45(%ebx)
     289:	4d                   	dec    %ebp
     28a:	5f                   	pop    %edi
     28b:	44                   	inc    %esp
     28c:	45                   	inc    %ebp
     28d:	53                   	push   %ebx
     28e:	54                   	push   %esp
     28f:	52                   	push   %edx
     290:	4f                   	dec    %edi
     291:	59                   	pop    %ecx
     292:	28 6e 6f             	sub    %ch,0x6f(%esi)
     295:	74 20                	je     2b7 <.rodata+0x2b7>
     297:	6f                   	outsl  %ds:(%esi),(%dx)
     298:	77 6e                	ja     308 <.rodata+0x308>
     29a:	65                   	gs
     29b:	72 29                	jb     2c6 <.rodata+0x2c6>
     29d:	00 45 58             	add    %al,0x58(%ebp)
     2a0:	49                   	dec    %ecx
     2a1:	54                   	push   %esp
     2a2:	20 44 45 53          	and    %al,0x53(%ebp,%eax,2)
     2a6:	54                   	push   %esp
     2a7:	52                   	push   %edx
     2a8:	4f                   	dec    %edi
     2a9:	59                   	pop    %ecx
     2aa:	20 4f 57             	and    %cl,0x57(%edi)
     2ad:	4e                   	dec    %esi
     2ae:	45                   	inc    %ebp
     2af:	44                   	inc    %esp
     2b0:	20 53 45             	and    %dl,0x45(%ebx)
     2b3:	4d                   	dec    %ebp
     2b4:	53                   	push   %ebx
     2b5:	00 00                	add    %al,(%eax)
     2b7:	00 45 58             	add    %al,0x58(%ebp)
     2ba:	49                   	dec    %ecx
     2bb:	54                   	push   %esp
     2bc:	20 44 4f 20          	and    %al,0x20(%edi,%ecx,2)
     2c0:	4e                   	dec    %esi
     2c1:	4f                   	dec    %edi
     2c2:	54                   	push   %esp
     2c3:	20 44 45 53          	and    %al,0x53(%ebp,%eax,2)
     2c7:	54                   	push   %esp
     2c8:	52                   	push   %edx
     2c9:	4f                   	dec    %edi
     2ca:	59                   	pop    %ecx
     2cb:	20 4e 4f             	and    %cl,0x4f(%esi)
     2ce:	54                   	push   %esp
     2cf:	20 4f 57             	and    %cl,0x57(%edi)
     2d2:	4e                   	dec    %esi
     2d3:	45                   	inc    %ebp
     2d4:	44                   	inc    %esp
     2d5:	20 53 45             	and    %dl,0x45(%ebx)
     2d8:	4d                   	dec    %ebp
     2d9:	53                   	push   %ebx
     2da:	00 00                	add    %al,(%eax)
     2dc:	53                   	push   %ebx
     2dd:	45                   	inc    %ebp
     2de:	4d                   	dec    %ebp
     2df:	5f                   	pop    %edi
     2e0:	53                   	push   %ebx
     2e1:	49                   	dec    %ecx
     2e2:	47                   	inc    %edi
     2e3:	4e                   	dec    %esi
     2e4:	41                   	inc    %ecx
     2e5:	4c                   	dec    %esp
     2e6:	28 69 6e             	sub    %ch,0x6e(%ecx)
     2e9:	76 61                	jbe    34c <.rodata+0x34c>
     2eb:	6c                   	insb   (%dx),%es:(%edi)
     2ec:	69 64 20 73 65 6d 61 	imul   $0x70616d65,0x73(%eax,%eiz,1),%esp
     2f3:	70 
     2f4:	68 6f 72 65 20       	push   $0x2065726f
     2f9:	69 64 3a 20 6e 65 67 	imul   $0x6167656e,0x20(%edx,%edi,1),%esp
     300:	61 
     301:	74 69                	je     36c <.rodata+0x36c>
     303:	76 65                	jbe    36a <.rodata+0x36a>
     305:	20 26                	and    %ah,(%esi)
     307:	20 6f 75             	and    %ch,0x75(%edi)
     30a:	74 20                	je     32c <.rodata+0x32c>
     30c:	6f                   	outsl  %ds:(%esi),(%dx)
     30d:	66                   	data16
     30e:	20 72 61             	and    %dh,0x61(%edx)
     311:	6e                   	outsb  %ds:(%esi),(%dx)
     312:	67 65 20 69 64       	addr16 and %ch,%gs:0x64(%bx,%di)
     317:	29 00                	sub    %eax,(%eax)
     319:	00 00                	add    %al,(%eax)
     31b:	00 53 45             	add    %dl,0x45(%ebx)
     31e:	4d                   	dec    %ebp
     31f:	5f                   	pop    %edi
     320:	53                   	push   %ebx
     321:	49                   	dec    %ecx
     322:	47                   	inc    %edi
     323:	4e                   	dec    %esi
     324:	41                   	inc    %ecx
     325:	4c                   	dec    %esp
     326:	28 6e 6f             	sub    %ch,0x6f(%esi)
     329:	74 20                	je     34b <.rodata+0x34b>
     32b:	69 6e 69 74 69 61 6c 	imul   $0x6c616974,0x69(%esi),%ebp
     332:	69 7a 65 64 20 73 65 	imul   $0x65732064,0x65(%edx),%edi
     339:	6d                   	insl   (%dx),%es:(%edi)
     33a:	61                   	popa   
     33b:	70 68                	jo     3a5 <.rodata+0x3a5>
     33d:	6f                   	outsl  %ds:(%esi),(%dx)
     33e:	72 65                	jb     3a5 <.rodata+0x3a5>
     340:	29 00                	sub    %eax,(%eax)
     342:	54                   	push   %esp
     343:	45                   	inc    %ebp
     344:	53                   	push   %ebx
     345:	54                   	push   %esp
     346:	20 53 45             	and    %dl,0x45(%ebx)
     349:	4d                   	dec    %ebp
     34a:	41                   	inc    %ecx
     34b:	50                   	push   %eax
     34c:	48                   	dec    %eax
     34d:	4f                   	dec    %edi
     34e:	52                   	push   %edx
     34f:	45                   	inc    %ebp
     350:	20 52 45             	and    %dl,0x45(%edx)
     353:	55                   	push   %ebp
     354:	53                   	push   %ebx
     355:	45                   	inc    %ebp
     356:	00 46 4f             	add    %al,0x4f(%esi)
     359:	52                   	push   %edx
     35a:	4b                   	dec    %ebx
     35b:	20 46 41             	and    %al,0x41(%esi)
     35e:	54                   	push   %esp
     35f:	48                   	dec    %eax
     360:	45                   	inc    %ebp
     361:	52                   	push   %edx
     362:	20 52 45             	and    %dl,0x45(%edx)
     365:	53                   	push   %ebx
     366:	55                   	push   %ebp
     367:	4c                   	dec    %esp
     368:	54                   	push   %esp
     369:	00 46 4f             	add    %al,0x4f(%esi)
     36c:	52                   	push   %edx
     36d:	4b                   	dec    %ebx
     36e:	20 43 48             	and    %al,0x48(%ebx)
     371:	49                   	dec    %ecx
     372:	4c                   	dec    %esp
     373:	44                   	inc    %esp
     374:	20 52 45             	and    %dl,0x45(%edx)
     377:	53                   	push   %ebx
     378:	55                   	push   %ebp
     379:	4c                   	dec    %esp
     37a:	54                   	push   %esp
     37b:	00 46 4f             	add    %al,0x4f(%esi)
     37e:	52                   	push   %edx
     37f:	4b                   	dec    %ebx
     380:	20 49 4e             	and    %cl,0x4e(%ecx)
     383:	48                   	dec    %eax
     384:	45                   	inc    %ebp
     385:	52                   	push   %edx
     386:	49                   	dec    %ecx
     387:	54                   	push   %esp
     388:	20 51 55             	and    %dl,0x55(%ecx)
     38b:	41                   	inc    %ecx
     38c:	4e                   	dec    %esi
     38d:	54                   	push   %esp
     38e:	55                   	push   %ebp
     38f:	4d                   	dec    %ebp
     390:	00 46 4f             	add    %al,0x4f(%esi)
     393:	52                   	push   %edx
     394:	4b                   	dec    %ebx
     395:	20 52 45             	and    %dl,0x45(%edx)
     398:	53                   	push   %ebx
     399:	45                   	inc    %ebp
     39a:	54                   	push   %esp
     39b:	20 53 54             	and    %dl,0x54(%ebx)
     39e:	41                   	inc    %ecx
     39f:	54                   	push   %esp
     3a0:	53                   	push   %ebx
     3a1:	00 00                	add    %al,(%eax)
     3a3:	00 53 45             	add    %dl,0x45(%ebx)
     3a6:	4d                   	dec    %ebp
     3a7:	5f                   	pop    %edi
     3a8:	57                   	push   %edi
     3a9:	41                   	inc    %ecx
     3aa:	49                   	dec    %ecx
     3ab:	54                   	push   %esp
     3ac:	28 69 6e             	sub    %ch,0x6e(%ecx)
     3af:	76 61                	jbe    412 <.rodata+0x412>
     3b1:	6c                   	insb   (%dx),%es:(%edi)
     3b2:	69 64 20 73 65 6d 61 	imul   $0x70616d65,0x73(%eax,%eiz,1),%esp
     3b9:	70 
     3ba:	68 6f 72 65 20       	push   $0x2065726f
     3bf:	69 64 3a 20 6e 65 67 	imul   $0x6167656e,0x20(%edx,%edi,1),%esp
     3c6:	61 
     3c7:	74 69                	je     432 <.rodata+0x432>
     3c9:	76 65                	jbe    430 <.rodata+0x430>
     3cb:	20 26                	and    %ah,(%esi)
     3cd:	20 6f 75             	and    %ch,0x75(%edi)
     3d0:	74 20                	je     3f2 <.rodata+0x3f2>
     3d2:	6f                   	outsl  %ds:(%esi),(%dx)
     3d3:	66                   	data16
     3d4:	20 72 61             	and    %dh,0x61(%edx)
     3d7:	6e                   	outsb  %ds:(%esi),(%dx)
     3d8:	67 65 20 69 64       	addr16 and %ch,%gs:0x64(%bx,%di)
     3dd:	29 00                	sub    %eax,(%eax)
     3df:	00 53 45             	add    %dl,0x45(%ebx)
     3e2:	4d                   	dec    %ebp
     3e3:	5f                   	pop    %edi
     3e4:	57                   	push   %edi
     3e5:	41                   	inc    %ecx
     3e6:	49                   	dec    %ecx
     3e7:	54                   	push   %esp
     3e8:	28 6e 6f             	sub    %ch,0x6f(%esi)
     3eb:	74 20                	je     40d <.rodata+0x40d>
     3ed:	69 6e 69 74 69 61 6c 	imul   $0x6c616974,0x69(%esi),%ebp
     3f4:	69 7a 65 64 20 73 65 	imul   $0x65732064,0x65(%edx),%edi
     3fb:	6d                   	insl   (%dx),%es:(%edi)
     3fc:	61                   	popa   
     3fd:	70 68                	jo     467 <.rodata+0x467>
     3ff:	6f                   	outsl  %ds:(%esi),(%dx)
     400:	72 65                	jb     467 <.rodata+0x467>
     402:	29 00                	sub    %eax,(%eax)
     404:	53                   	push   %ebx
     405:	45                   	inc    %ebp
     406:	4d                   	dec    %ebp
     407:	5f                   	pop    %edi
     408:	53                   	push   %ebx
     409:	49                   	dec    %ecx
     40a:	47                   	inc    %edi
     40b:	4e                   	dec    %esi
     40c:	41                   	inc    %ecx
     40d:	4c                   	dec    %esp
     40e:	28 64 65 73          	sub    %ah,0x73(%ebp,%eiz,2)
     412:	74 72                	je     486 <.rodata+0x486>
     414:	6f                   	outsl  %ds:(%esi),(%dx)
     415:	79 65                	jns    47c <.rodata+0x47c>
     417:	64 20 73 65          	and    %dh,%fs:0x65(%ebx)
     41b:	6d                   	insl   (%dx),%es:(%edi)
     41c:	61                   	popa   
     41d:	70 68                	jo     487 <.rodata+0x487>
     41f:	6f                   	outsl  %ds:(%esi),(%dx)
     420:	72 65                	jb     487 <.rodata+0x487>
     422:	29 00                	sub    %eax,(%eax)
     424:	53                   	push   %ebx
     425:	45                   	inc    %ebp
     426:	4d                   	dec    %ebp
     427:	5f                   	pop    %edi
     428:	57                   	push   %edi
     429:	41                   	inc    %ecx
     42a:	49                   	dec    %ecx
     42b:	54                   	push   %esp
     42c:	20 52 45             	and    %dl,0x45(%edx)
     42f:	54                   	push   %esp
     430:	55                   	push   %ebp
     431:	52                   	push   %edx
     432:	4e                   	dec    %esi
     433:	20 56 41             	and    %dl,0x41(%esi)
     436:	4c                   	dec    %esp
     437:	55                   	push   %ebp
     438:	45                   	inc    %ebp
     439:	20 4f 4e             	and    %cl,0x4e(%edi)
     43c:	20 53 55             	and    %dl,0x55(%ebx)
     43f:	43                   	inc    %ebx
     440:	43                   	inc    %ebx
     441:	45                   	inc    %ebp
     442:	53                   	push   %ebx
     443:	53                   	push   %ebx
     444:	00 47 45             	add    %al,0x45(%edi)
     447:	54                   	push   %esp
     448:	5f                   	pop    %edi
     449:	53                   	push   %ebx
     44a:	54                   	push   %esp
     44b:	41                   	inc    %ecx
     44c:	54                   	push   %esp
     44d:	53                   	push   %ebx
     44e:	28 70 72             	sub    %dh,0x72(%eax)
     451:	6f                   	outsl  %ds:(%esi),(%dx)
     452:	63 65 73             	arpl   %sp,0x73(%ebp)
     455:	73 20                	jae    477 <.rodata+0x477>
     457:	69 73 20 72 65 61 64 	imul   $0x64616572,0x20(%ebx),%esi
     45e:	79 29                	jns    489 <.rodata+0x489>
     460:	00 47 45             	add    %al,0x45(%edi)
     463:	54                   	push   %esp
     464:	5f                   	pop    %edi
     465:	53                   	push   %ebx
     466:	54                   	push   %esp
     467:	41                   	inc    %ecx
     468:	54                   	push   %esp
     469:	53                   	push   %ebx
     46a:	28 70 72             	sub    %dh,0x72(%eax)
     46d:	6f                   	outsl  %ds:(%esi),(%dx)
     46e:	63 65 73             	arpl   %sp,0x73(%ebp)
     471:	73 20                	jae    493 <.rodata+0x493>
     473:	69 73 20 64 65 61 64 	imul   $0x64616564,0x20(%ebx),%esi
     47a:	29 00                	sub    %eax,(%eax)
     47c:	53                   	push   %ebx
     47d:	45                   	inc    %ebp
     47e:	4d                   	dec    %ebp
     47f:	5f                   	pop    %edi
     480:	44                   	inc    %esp
     481:	45                   	inc    %ebp
     482:	53                   	push   %ebx
     483:	54                   	push   %esp
     484:	52                   	push   %edx
     485:	4f                   	dec    %edi
     486:	59                   	pop    %ecx
     487:	28 62 75             	sub    %ah,0x75(%edx)
     48a:	73 79                	jae    505 <.rodata+0x505>
     48c:	20 73 65             	and    %dh,0x65(%ebx)
     48f:	6d                   	insl   (%dx),%es:(%edi)
     490:	61                   	popa   
     491:	70 68                	jo     4fb <.rodata+0x4fb>
     493:	6f                   	outsl  %ds:(%esi),(%dx)
     494:	72 65                	jb     4fb <.rodata+0x4fb>
     496:	29 00                	sub    %eax,(%eax)
     498:	53                   	push   %ebx
     499:	45                   	inc    %ebp
     49a:	4d                   	dec    %ebp
     49b:	5f                   	pop    %edi
     49c:	44                   	inc    %esp
     49d:	45                   	inc    %ebp
     49e:	53                   	push   %ebx
     49f:	54                   	push   %esp
     4a0:	52                   	push   %edx
     4a1:	4f                   	dec    %edi
     4a2:	59                   	pop    %ecx
     4a3:	28 62 75             	sub    %ah,0x75(%edx)
     4a6:	73 79                	jae    521 <.rodata+0x521>
     4a8:	20 73 65             	and    %dh,0x65(%ebx)
     4ab:	6d                   	insl   (%dx),%es:(%edi)
     4ac:	61                   	popa   
     4ad:	70 68                	jo     517 <.rodata+0x517>
     4af:	6f                   	outsl  %ds:(%esi),(%dx)
     4b0:	72 65                	jb     517 <.rodata+0x517>
     4b2:	29 3a                	sub    %edi,(%edx)
     4b4:	75 6e                	jne    524 <.rodata+0x524>
     4b6:	62 6c 6f 63          	bound  %ebp,0x63(%edi,%ebp,2)
     4ba:	6b 20 73             	imul   $0x73,(%eax),%esp
     4bd:	65                   	gs
     4be:	6d                   	insl   (%dx),%es:(%edi)
     4bf:	5f                   	pop    %edi
     4c0:	77 61                	ja     523 <.rodata+0x523>
     4c2:	69 74 00 47 45 54 5f 	imul   $0x535f5445,0x47(%eax,%eax,1),%esi
     4c9:	53 
     4ca:	54                   	push   %esp
     4cb:	41                   	inc    %ecx
     4cc:	54                   	push   %esp
     4cd:	53                   	push   %ebx
     4ce:	28 70 72             	sub    %dh,0x72(%eax)
     4d1:	6f                   	outsl  %ds:(%esi),(%dx)
     4d2:	63 65 73             	arpl   %sp,0x73(%ebp)
     4d5:	73 20                	jae    4f7 <.rodata+0x4f7>
     4d7:	69 73 20 62 6c 6f 63 	imul   $0x636f6c62,0x20(%ebx),%esi
     4de:	6b 65 64 29          	imul   $0x29,0x64(%ebp),%esp
     4e2:	00 00                	add    %al,(%eax)
     4e4:	47                   	inc    %edi
     4e5:	45                   	inc    %ebp
     4e6:	54                   	push   %esp
     4e7:	5f                   	pop    %edi
     4e8:	53                   	push   %ebx
     4e9:	54                   	push   %esp
     4ea:	41                   	inc    %ecx
     4eb:	54                   	push   %esp
     4ec:	53                   	push   %ebx
     4ed:	20 49 4e             	and    %cl,0x4e(%ecx)
     4f0:	43                   	inc    %ebx
     4f1:	52                   	push   %edx
     4f2:	45                   	inc    %ebp
     4f3:	41                   	inc    %ecx
     4f4:	53                   	push   %ebx
     4f5:	49                   	dec    %ecx
     4f6:	4e                   	dec    %esi
     4f7:	47                   	inc    %edi
     4f8:	20 54 49 43          	and    %dl,0x43(%ecx,%ecx,2)
     4fc:	4b                   	dec    %ebx
     4fd:	53                   	push   %ebx
     4fe:	20 46 4f             	and    %al,0x4f(%esi)
     501:	52                   	push   %edx
     502:	20 42 4c             	and    %al,0x4c(%edx)
     505:	4f                   	dec    %edi
     506:	43                   	inc    %ebx
     507:	4b                   	dec    %ebx
     508:	45                   	inc    %ebp
     509:	44                   	inc    %esp
     50a:	20 50 52             	and    %dl,0x52(%eax)
     50d:	4f                   	dec    %edi
     50e:	43                   	inc    %ebx
     50f:	45                   	inc    %ebp
     510:	53                   	push   %ebx
     511:	53                   	push   %ebx
     512:	45                   	inc    %ebp
     513:	53                   	push   %ebx
     514:	00 00                	add    %al,(%eax)
     516:	00 00                	add    %al,(%eax)
     518:	47                   	inc    %edi
     519:	45                   	inc    %ebp
     51a:	54                   	push   %esp
     51b:	5f                   	pop    %edi
     51c:	53                   	push   %ebx
     51d:	54                   	push   %esp
     51e:	41                   	inc    %ecx
     51f:	54                   	push   %esp
     520:	53                   	push   %ebx
     521:	20 49 4e             	and    %cl,0x4e(%ecx)
     524:	43                   	inc    %ebx
     525:	52                   	push   %edx
     526:	45                   	inc    %ebp
     527:	41                   	inc    %ecx
     528:	53                   	push   %ebx
     529:	49                   	dec    %ecx
     52a:	4e                   	dec    %esi
     52b:	47                   	inc    %edi
     52c:	20 54 49 43          	and    %dl,0x43(%ecx,%ecx,2)
     530:	4b                   	dec    %ebx
     531:	53                   	push   %ebx
     532:	20 46 4f             	and    %al,0x4f(%esi)
     535:	52                   	push   %edx
     536:	20 52 55             	and    %dl,0x55(%edx)
     539:	4e                   	dec    %esi
     53a:	4e                   	dec    %esi
     53b:	49                   	dec    %ecx
     53c:	4e                   	dec    %esi
     53d:	47                   	inc    %edi
     53e:	20 50 52             	and    %dl,0x52(%eax)
     541:	4f                   	dec    %edi
     542:	43                   	inc    %ebx
     543:	45                   	inc    %ebp
     544:	53                   	push   %ebx
     545:	53                   	push   %ebx
     546:	45                   	inc    %ebp
     547:	53                   	push   %ebx
     548:	00 00                	add    %al,(%eax)
     54a:	00 00                	add    %al,(%eax)
     54c:	46                   	inc    %esi
     54d:	4f                   	dec    %edi
     54e:	52                   	push   %edx
     54f:	4b                   	dec    %ebx
     550:	20 46 41             	and    %al,0x41(%esi)
     553:	54                   	push   %esp
     554:	48                   	dec    %eax
     555:	45                   	inc    %ebp
     556:	52                   	push   %edx
     557:	20 41 4e             	and    %al,0x4e(%ecx)
     55a:	44                   	inc    %esp
     55b:	20 43 48             	and    %al,0x48(%ebx)
     55e:	49                   	dec    %ecx
     55f:	4c                   	dec    %esp
     560:	44                   	inc    %esp
     561:	52                   	push   %edx
     562:	45                   	inc    %ebp
     563:	4e                   	dec    %esi
     564:	20 44 4f 20          	and    %al,0x20(%edi,%ecx,2)
     568:	4e                   	dec    %esi
     569:	4f                   	dec    %edi
     56a:	54                   	push   %esp
     56b:	20 53 48             	and    %dl,0x48(%ebx)
     56e:	41                   	inc    %ecx
     56f:	52                   	push   %edx
     570:	45                   	inc    %ebp
     571:	20 51 55             	and    %dl,0x55(%ecx)
     574:	41                   	inc    %ecx
     575:	4e                   	dec    %esi
     576:	54                   	push   %esp
     577:	55                   	push   %ebp
     578:	4d                   	dec    %ebp
     579:	00 46 55             	add    %al,0x55(%esi)
     57c:	4c                   	dec    %esp
     57d:	4c                   	dec    %esp
     57e:	20 51 55             	and    %dl,0x55(%ecx)
     581:	41                   	inc    %ecx
     582:	4e                   	dec    %esi
     583:	54                   	push   %esp
     584:	55                   	push   %ebp
     585:	4d                   	dec    %ebp
     586:	20 41 46             	and    %al,0x46(%ecx)
     589:	54                   	push   %esp
     58a:	45                   	inc    %ebp
     58b:	52                   	push   %edx
     58c:	20 43 54             	and    %al,0x54(%ebx)
     58f:	58                   	pop    %eax
     590:	20 53 57             	and    %dl,0x57(%ebx)
     593:	49                   	dec    %ecx
     594:	54                   	push   %esp
     595:	43                   	inc    %ebx
     596:	48                   	dec    %eax
     597:	00 52 4f             	add    %dl,0x4f(%edx)
     59a:	55                   	push   %ebp
     59b:	4e                   	dec    %esi
     59c:	44                   	inc    %esp
     59d:	20 52 4f             	and    %dl,0x4f(%edx)
     5a0:	42                   	inc    %edx
     5a1:	49                   	dec    %ecx
     5a2:	4e                   	dec    %esi
     5a3:	00 4e 49             	add    %cl,0x49(%esi)
     5a6:	43                   	inc    %ebx
     5a7:	45                   	inc    %ebp
     5a8:	20 45 46             	and    %al,0x46(%ebp)
     5ab:	46                   	inc    %esi
     5ac:	45                   	inc    %ebp
     5ad:	43                   	inc    %ebx
     5ae:	54                   	push   %esp
     5af:	53                   	push   %ebx
     5b0:	20 4f 4e             	and    %cl,0x4e(%edi)
     5b3:	20 53 43             	and    %dl,0x43(%ebx)
     5b6:	48                   	dec    %eax
     5b7:	45                   	inc    %ebp
     5b8:	44                   	inc    %esp
     5b9:	55                   	push   %ebp
     5ba:	4c                   	dec    %esp
     5bb:	49                   	dec    %ecx
     5bc:	4e                   	dec    %esi
     5bd:	47                   	inc    %edi
     5be:	00 45 58             	add    %al,0x58(%ebp)
     5c1:	49                   	dec    %ecx
     5c2:	54                   	push   %esp
     5c3:	20 52 45             	and    %dl,0x45(%edx)
     5c6:	47                   	inc    %edi
     5c7:	55                   	push   %ebp
     5c8:	4c                   	dec    %esp
     5c9:	41                   	inc    %ecx
     5ca:	52                   	push   %edx
     5cb:	20 50 52             	and    %dl,0x52(%eax)
     5ce:	4f                   	dec    %edi
     5cf:	43                   	inc    %ebx
     5d0:	45                   	inc    %ebp
     5d1:	53                   	push   %ebx
     5d2:	20 00                	and    %al,(%eax)
     5d4:	46                   	inc    %esi
     5d5:	4f                   	dec    %edi
     5d6:	52                   	push   %edx
     5d7:	4b                   	dec    %ebx
     5d8:	20 4f 55             	and    %cl,0x55(%edi)
     5db:	54                   	push   %esp
     5dc:	20 4f 46             	and    %cl,0x46(%edi)
     5df:	20 52 41             	and    %dl,0x41(%edx)
     5e2:	4e                   	dec    %esi
     5e3:	47                   	inc    %edi
     5e4:	45                   	inc    %ebp
     5e5:	20 44 45 54          	and    %al,0x54(%ebp,%eax,2)
     5e9:	45                   	inc    %ebp
     5ea:	43                   	inc    %ebx
     5eb:	54                   	push   %esp
     5ec:	49                   	dec    %ecx
     5ed:	4f                   	dec    %edi
     5ee:	4e                   	dec    %esi
     5ef:	00 46 4f             	add    %al,0x4f(%esi)
     5f2:	52                   	push   %edx
     5f3:	4b                   	dec    %ebx
     5f4:	20 44 41 54          	and    %al,0x54(%ecx,%eax,2)
     5f8:	41                   	inc    %ecx
     5f9:	20 53 54             	and    %dl,0x54(%ebx)
     5fc:	52                   	push   %edx
     5fd:	55                   	push   %ebp
     5fe:	43                   	inc    %ebx
     5ff:	54                   	push   %esp
     600:	55                   	push   %ebp
     601:	52                   	push   %edx
     602:	45                   	inc    %ebp
     603:	53                   	push   %ebx
     604:	20 52 45             	and    %dl,0x45(%edx)
     607:	43                   	inc    %ebx
     608:	59                   	pop    %ecx
     609:	43                   	inc    %ebx
     60a:	4c                   	dec    %esp
     60b:	49                   	dec    %ecx
     60c:	4e                   	dec    %esi
     60d:	47                   	inc    %edi
     60e:	20 41 46             	and    %al,0x46(%ecx)
     611:	54                   	push   %esp
     612:	45                   	inc    %ebp
     613:	52                   	push   %edx
     614:	20 45 58             	and    %al,0x58(%ebp)
     617:	49                   	dec    %ecx
     618:	54                   	push   %esp
     619:	00 00                	add    %al,(%eax)
     61b:	00 46 4f             	add    %al,0x4f(%esi)
     61e:	52                   	push   %edx
     61f:	4b                   	dec    %ebx
     620:	20 44 41 54          	and    %al,0x54(%ecx,%eax,2)
     624:	41                   	inc    %ecx
     625:	20 43 4f             	and    %al,0x4f(%ebx)
     628:	50                   	push   %eax
     629:	59                   	pop    %ecx
     62a:	3a 20                	cmp    (%eax),%ah
     62c:	49                   	dec    %ecx
     62d:	4e                   	dec    %esi
     62e:	48                   	dec    %eax
     62f:	45                   	inc    %ebp
     630:	52                   	push   %edx
     631:	49                   	dec    %ecx
     632:	54                   	push   %esp
     633:	20 41 4e             	and    %al,0x4e(%ecx)
     636:	44                   	inc    %esp
     637:	20 44 4f 20          	and    %al,0x20(%edi,%ecx,2)
     63b:	4e                   	dec    %esi
     63c:	4f                   	dec    %edi
     63d:	54                   	push   %esp
     63e:	20 53 48             	and    %dl,0x48(%ebx)
     641:	41                   	inc    %ecx
     642:	52                   	push   %edx
     643:	45                   	inc    %ebp
     644:	20 57 49             	and    %dl,0x49(%edi)
     647:	54                   	push   %esp
     648:	48                   	dec    %eax
     649:	20 46 41             	and    %al,0x41(%esi)
     64c:	54                   	push   %esp
     64d:	48                   	dec    %eax
     64e:	45                   	inc    %ebp
     64f:	52                   	push   %edx
     650:	29 00                	sub    %eax,(%eax)
     652:	00 00                	add    %al,(%eax)
     654:	46                   	inc    %esi
     655:	4f                   	dec    %edi
     656:	52                   	push   %edx
     657:	4b                   	dec    %ebx
     658:	20 44 41 54          	and    %al,0x54(%ecx,%eax,2)
     65c:	41                   	inc    %ecx
     65d:	20 43 4f             	and    %al,0x4f(%ebx)
     660:	50                   	push   %eax
     661:	59                   	pop    %ecx
     662:	3a 20                	cmp    (%eax),%ah
     664:	49                   	dec    %ecx
     665:	4e                   	dec    %esi
     666:	48                   	dec    %eax
     667:	45                   	inc    %ebp
     668:	52                   	push   %edx
     669:	49                   	dec    %ecx
     66a:	54                   	push   %esp
     66b:	20 41 4e             	and    %al,0x4e(%ecx)
     66e:	44                   	inc    %esp
     66f:	20 44 4f 20          	and    %al,0x20(%edi,%ecx,2)
     673:	4e                   	dec    %esi
     674:	4f                   	dec    %edi
     675:	54                   	push   %esp
     676:	20 53 48             	and    %dl,0x48(%ebx)
     679:	41                   	inc    %ecx
     67a:	52                   	push   %edx
     67b:	45                   	inc    %ebp
     67c:	20 57 49             	and    %dl,0x49(%edi)
     67f:	54                   	push   %esp
     680:	48                   	dec    %eax
     681:	20 42 52             	and    %al,0x52(%edx)
     684:	4f                   	dec    %edi
     685:	54                   	push   %esp
     686:	48                   	dec    %eax
     687:	45                   	inc    %ebp
     688:	52                   	push   %edx
     689:	53                   	push   %ebx
     68a:	00 00                	add    %al,(%eax)
     68c:	46                   	inc    %esi
     68d:	4f                   	dec    %edi
     68e:	52                   	push   %edx
     68f:	4b                   	dec    %ebx
     690:	20 50 52             	and    %dl,0x52(%eax)
     693:	4f                   	dec    %edi
     694:	43                   	inc    %ebx
     695:	45                   	inc    %ebp
     696:	53                   	push   %ebx
     697:	53                   	push   %ebx
     698:	20 48 49             	and    %cl,0x49(%eax)
     69b:	45                   	inc    %ebp
     69c:	52                   	push   %edx
     69d:	41                   	inc    %ecx
     69e:	52                   	push   %edx
     69f:	43                   	inc    %ebx
     6a0:	48                   	dec    %eax
     6a1:	59                   	pop    %ecx
     6a2:	20 43 52             	and    %al,0x52(%ebx)
     6a5:	45                   	inc    %ebp
     6a6:	41                   	inc    %ecx
     6a7:	54                   	push   %esp
     6a8:	49                   	dec    %ecx
     6a9:	4f                   	dec    %edi
     6aa:	4e                   	dec    %esi
     6ab:	00 50 41             	add    %dl,0x41(%eax)
     6ae:	47                   	inc    %edi
     6af:	45                   	inc    %ebp
     6b0:	20 46 41             	and    %al,0x41(%esi)
     6b3:	55                   	push   %ebp
     6b4:	4c                   	dec    %esp
     6b5:	54                   	push   %esp
     6b6:	28 72 65             	sub    %dh,0x65(%edx)
     6b9:	67 75 6c             	addr16 jne 728 <.rodata+0x728>
     6bc:	61                   	popa   
     6bd:	72 20                	jb     6df <.rodata+0x6df>
     6bf:	70 72                	jo     733 <.rodata+0x733>
     6c1:	6f                   	outsl  %ds:(%esi),(%dx)
     6c2:	63 65 73             	arpl   %sp,0x73(%ebp)
     6c5:	73 29                	jae    6f0 <.rodata+0x6f0>
     6c7:	00 53 59             	add    %dl,0x59(%ebx)
     6ca:	4e                   	dec    %esi
     6cb:	43                   	inc    %ebx
     6cc:	48                   	dec    %eax
     6cd:	52                   	push   %edx
     6ce:	4f                   	dec    %edi
     6cf:	4e                   	dec    %esi
     6d0:	49                   	dec    %ecx
     6d1:	5a                   	pop    %edx
     6d2:	49                   	dec    %ecx
     6d3:	4e                   	dec    %esi
     6d4:	47                   	inc    %edi
     6d5:	20 53 45             	and    %dl,0x45(%ebx)
     6d8:	56                   	push   %esi
     6d9:	45                   	inc    %ebp
     6da:	52                   	push   %edx
     6db:	41                   	inc    %ecx
     6dc:	4c                   	dec    %esp
     6dd:	20 50 52             	and    %dl,0x52(%eax)
     6e0:	4f                   	dec    %edi
     6e1:	43                   	inc    %ebx
     6e2:	45                   	inc    %ebp
     6e3:	53                   	push   %ebx
     6e4:	53                   	push   %ebx
     6e5:	45                   	inc    %ebp
     6e6:	53                   	push   %ebx
     6e7:	00 54 45 53          	add    %dl,0x53(%ebp,%eax,2)
     6eb:	54                   	push   %esp
     6ec:	20 45 58             	and    %al,0x58(%ebp)
     6ef:	49                   	dec    %ecx
     6f0:	54                   	push   %esp
     6f1:	20 46 52             	and    %al,0x52(%esi)
     6f4:	45                   	inc    %ebp
     6f5:	45                   	inc    %ebp
     6f6:	53                   	push   %ebx
     6f7:	20 44 41 54          	and    %al,0x54(%ecx,%eax,2)
     6fb:	41                   	inc    %ecx
     6fc:	20 46 52             	and    %al,0x52(%esi)
     6ff:	41                   	inc    %ecx
     700:	4d                   	dec    %ebp
     701:	45                   	inc    %ebp
     702:	53                   	push   %ebx
     703:	00 64 65 6c          	add    %ah,0x6c(%ebp,%eiz,2)
     707:	69 76 65 72 20 32 00 	imul   $0x322072,0x65(%esi),%esi
     70e:	00 00                	add    %al,(%eax)
     710:	20 54 45 53          	and    %dl,0x53(%ebp,%eax,2)
     714:	54                   	push   %esp
     715:	3a 20                	cmp    (%eax),%ah
     717:	67                   	addr16
     718:	65                   	gs
     719:	74 5f                	je     77a <.rodata+0x77a>
     71b:	73 74                	jae    791 <.rodata+0x791>
     71d:	61                   	popa   
     71e:	74 73                	je     793 <.rodata+0x793>
     720:	20 72 65             	and    %dh,0x65(%edx)
     723:	74 75                	je     79a <.rodata+0x79a>
     725:	72 6e                	jb     795 <.rodata+0x795>
     727:	73 20                	jae    749 <.rodata+0x749>
     729:	61                   	popa   
     72a:	20 77 72             	and    %dh,0x72(%edi)
     72d:	6f                   	outsl  %ds:(%esi),(%dx)
     72e:	6e                   	outsb  %ds:(%esi),(%dx)
     72f:	67 20 76 61          	addr16 and %dh,0x61(%bp)
     733:	6c                   	insb   (%dx),%es:(%edi)
     734:	75 65                	jne    79b <.rodata+0x79b>
     736:	20 00                	and    %al,(%eax)
     738:	20 54 45 53          	and    %dl,0x53(%ebp,%eax,2)
     73c:	54                   	push   %esp
     73d:	3a 20                	cmp    (%eax),%ah
     73f:	67                   	addr16
     740:	65                   	gs
     741:	74 5f                	je     7a2 <.rodata+0x7a2>
     743:	73 74                	jae    7b9 <.rodata+0x7b9>
     745:	61                   	popa   
     746:	74 73                	je     7bb <.rodata+0x7bb>
     748:	20 64 6f 65          	and    %ah,0x65(%edi,%ebp,2)
     74c:	73 20                	jae    76e <.rodata+0x76e>
     74e:	6e                   	outsb  %ds:(%esi),(%dx)
     74f:	6f                   	outsl  %ds:(%esi),(%dx)
     750:	74 20                	je     772 <.rodata+0x772>
     752:	75 70                	jne    7c4 <.rodata+0x7c4>
     754:	64                   	fs
     755:	61                   	popa   
     756:	74 65                	je     7bd <.rodata+0x7bd>
     758:	20 73 74             	and    %dh,0x74(%ebx)
     75b:	61                   	popa   
     75c:	74 73                	je     7d1 <.rodata+0x7d1>
     75e:	20 00                	and    %al,(%eax)
     760:	50                   	push   %eax
     761:	41                   	inc    %ecx
     762:	4e                   	dec    %esi
     763:	49                   	dec    %ecx
     764:	43                   	inc    %ebx
     765:	3a 20                	cmp    (%eax),%ah
     767:	6e                   	outsb  %ds:(%esi),(%dx)
     768:	69 63 65 28 6e 69 63 	imul   $0x63696e28,0x65(%ebx),%esp
     76f:	65 28 31             	sub    %dh,%gs:(%ecx)
     772:	30 29                	xor    %ch,(%ecx)
     774:	29 20                	sub    %esp,(%eax)
     776:	72 65                	jb     7dd <.rodata+0x7dd>
     778:	74 75                	je     7ef <.rodata+0x7ef>
     77a:	72 6e                	jb     7ea <.rodata+0x7ea>
     77c:	73 20                	jae    79e <.rodata+0x79e>
     77e:	61                   	popa   
     77f:	20 6e 65             	and    %ch,0x65(%esi)
     782:	67 61                	addr16 popa 
     784:	74 69                	je     7ef <.rodata+0x7ef>
     786:	76 65                	jbe    7ed <.rodata+0x7ed>
     788:	20 76 61             	and    %dh,0x61(%esi)
     78b:	6c                   	insb   (%dx),%es:(%edi)
     78c:	75 65                	jne    7f3 <.rodata+0x7f3>
     78e:	21 0a                	and    %ecx,(%edx)
     790:	00 00                	add    %al,(%eax)
     792:	00 00                	add    %al,(%eax)
     794:	49                   	dec    %ecx
     795:	4e                   	dec    %esi
     796:	49                   	dec    %ecx
     797:	54                   	push   %esp
     798:	54                   	push   %esp
     799:	45                   	inc    %ebp
     79a:	53                   	push   %ebx
     79b:	54                   	push   %esp
     79c:	3a 20                	cmp    (%eax),%ah
     79e:	75 6e                	jne    80e <.rodata+0x80e>
     7a0:	61                   	popa   
     7a1:	62 6c 65 20          	bound  %ebp,0x20(%ebp,%eiz,2)
     7a5:	74 6f                	je     816 <.rodata+0x816>
     7a7:	20 63 72             	and    %ah,0x72(%ebx)
     7aa:	65                   	gs
     7ab:	61                   	popa   
     7ac:	74 65                	je     813 <.rodata+0x813>
     7ae:	20 61 20             	and    %ah,0x20(%ecx)
     7b1:	63 68 69             	arpl   %bp,0x69(%eax)
     7b4:	6c                   	insb   (%dx),%es:(%edi)
     7b5:	64 20 70 72          	and    %dh,%fs:0x72(%eax)
     7b9:	6f                   	outsl  %ds:(%esi),(%dx)
     7ba:	63 65 73             	arpl   %sp,0x73(%ebp)
     7bd:	73 00                	jae    7bf <.rodata+0x7bf>
     7bf:	00 20                	add    %ah,(%eax)
     7c1:	54                   	push   %esp
     7c2:	45                   	inc    %ebp
     7c3:	53                   	push   %ebx
     7c4:	54                   	push   %esp
     7c5:	3a 20                	cmp    (%eax),%ah
     7c7:	50                   	push   %eax
     7c8:	68 79 73 69 63       	push   $0x63697379
     7cd:	61                   	popa   
     7ce:	6c                   	insb   (%dx),%es:(%edi)
     7cf:	20 6d 65             	and    %ch,0x65(%ebp)
     7d2:	6d                   	insl   (%dx),%es:(%edi)
     7d3:	6f                   	outsl  %ds:(%esi),(%dx)
     7d4:	72 79                	jb     84f <.rodata+0x84f>
     7d6:	20 6f 66             	and    %ch,0x66(%edi)
     7d9:	20 70 72             	and    %dh,0x72(%eax)
     7dc:	6f                   	outsl  %ds:(%esi),(%dx)
     7dd:	63 65 73             	arpl   %sp,0x73(%ebp)
     7e0:	73 20                	jae    802 <.rodata+0x802>
     7e2:	30 20                	xor    %ah,(%eax)
     7e4:	69 73 20 6e 6f 74 20 	imul   $0x20746f6e,0x20(%ebx),%esi
     7eb:	63 6f 72             	arpl   %bp,0x72(%edi)
     7ee:	72 65                	jb     855 <.rodata+0x855>
     7f0:	63 74 6c 79          	arpl   %si,0x79(%esp,%ebp,2)
     7f4:	20 69 6e             	and    %ch,0x6e(%ecx)
     7f7:	69 74 69 61 6c 69 7a 	imul   $0x657a696c,0x61(%ecx,%ebp,2),%esi
     7fe:	65 
     7ff:	64 20 00             	and    %al,%fs:(%eax)
     802:	00 00                	add    %al,(%eax)
     804:	20 54 45 53          	and    %dl,0x53(%ebp,%eax,2)
     808:	54                   	push   %esp
     809:	3a 20                	cmp    (%eax),%ah
     80b:	6e                   	outsb  %ds:(%esi),(%dx)
     80c:	69 63 65 20 72 65 74 	imul   $0x74657220,0x65(%ebx),%esp
     813:	75 72                	jne    887 <.rodata+0x887>
     815:	6e                   	outsb  %ds:(%esi),(%dx)
     816:	73 20                	jae    838 <.rodata+0x838>
     818:	61                   	popa   
     819:	20 6e 65             	and    %ch,0x65(%esi)
     81c:	67 61                	addr16 popa 
     81e:	74 69                	je     889 <.rodata+0x889>
     820:	76 65                	jbe    887 <.rodata+0x887>
     822:	20 76 61             	and    %dh,0x61(%esi)
     825:	6c                   	insb   (%dx),%es:(%edi)
     826:	75 65                	jne    88d <.rodata+0x88d>
     828:	2c 20                	sub    $0x20,%al
     82a:	62 75 74             	bound  %esi,0x74(%ebp)
     82d:	20 65 72             	and    %ah,0x72(%ebp)
     830:	72 6e                	jb     8a0 <.rodata+0x8a0>
     832:	6f                   	outsl  %ds:(%esi),(%dx)
     833:	20 69 73             	and    %ch,0x73(%ecx)
     836:	20 64 69 66          	and    %ah,0x66(%ecx,%ebp,2)
     83a:	66                   	data16
     83b:	65                   	gs
     83c:	72 65                	jb     8a3 <.rodata+0x8a3>
     83e:	6e                   	outsb  %ds:(%esi),(%dx)
     83f:	74 20                	je     861 <.rodata+0x861>
     841:	66                   	data16
     842:	72 6f                	jb     8b3 <.rodata+0x8b3>
     844:	6d                   	insl   (%dx),%es:(%edi)
     845:	20 45 49             	and    %al,0x49(%ebp)
     848:	4e                   	dec    %esi
     849:	56                   	push   %esi
     84a:	41                   	inc    %ecx
     84b:	4c                   	dec    %esp
     84c:	00 00                	add    %al,(%eax)
     84e:	00 00                	add    %al,(%eax)
     850:	20 54 45 53          	and    %dl,0x53(%ebp,%eax,2)
     854:	54                   	push   %esp
     855:	3a 20                	cmp    (%eax),%ah
     857:	6e                   	outsb  %ds:(%esi),(%dx)
     858:	69 63 65 20 72 65 74 	imul   $0x74657220,0x65(%ebx),%esp
     85f:	75 72                	jne    8d3 <.rodata+0x8d3>
     861:	6e                   	outsb  %ds:(%esi),(%dx)
     862:	73 20                	jae    884 <.rodata+0x884>
     864:	61                   	popa   
     865:	20 6e 65             	and    %ch,0x65(%esi)
     868:	67 61                	addr16 popa 
     86a:	74 69                	je     8d5 <.rodata+0x8d5>
     86c:	76 65                	jbe    8d3 <.rodata+0x8d3>
     86e:	20 76 61             	and    %dh,0x61(%esi)
     871:	6c                   	insb   (%dx),%es:(%edi)
     872:	75 65                	jne    8d9 <.rodata+0x8d9>
     874:	2c 20                	sub    $0x20,%al
     876:	62 75 74             	bound  %esi,0x74(%ebp)
     879:	20 64 69 66          	and    %ah,0x66(%ecx,%ebp,2)
     87d:	66                   	data16
     87e:	65                   	gs
     87f:	72 65                	jb     8e6 <.rodata+0x8e6>
     881:	6e                   	outsb  %ds:(%esi),(%dx)
     882:	74 20                	je     8a4 <.rodata+0x8a4>
     884:	66                   	data16
     885:	72 6f                	jb     8f6 <.rodata+0x8f6>
     887:	6d                   	insl   (%dx),%es:(%edi)
     888:	20 2d 31 20 00 00    	and    %ch,0x2031
     88e:	00 00                	add    %al,(%eax)
     890:	20 54 45 53          	and    %dl,0x53(%ebp,%eax,2)
     894:	54                   	push   %esp
     895:	3a 20                	cmp    (%eax),%ah
     897:	6e                   	outsb  %ds:(%esi),(%dx)
     898:	69 63 65 20 72 65 74 	imul   $0x74657220,0x65(%ebx),%esp
     89f:	75 72                	jne    913 <.rodata+0x913>
     8a1:	6e                   	outsb  %ds:(%esi),(%dx)
     8a2:	73 20                	jae    8c4 <.rodata+0x8c4>
     8a4:	61                   	popa   
     8a5:	20 70 6f             	and    %dh,0x6f(%eax)
     8a8:	73 69                	jae    913 <.rodata+0x913>
     8aa:	74 69                	je     915 <.rodata+0x915>
     8ac:	76 65                	jbe    913 <.rodata+0x913>
     8ae:	20 76 61             	and    %dh,0x61(%esi)
     8b1:	6c                   	insb   (%dx),%es:(%edi)
     8b2:	75 65                	jne    919 <.rodata+0x919>
     8b4:	00 20                	add    %ah,(%eax)
     8b6:	54                   	push   %esp
     8b7:	45                   	inc    %ebp
     8b8:	53                   	push   %ebx
     8b9:	54                   	push   %esp
     8ba:	3a 20                	cmp    (%eax),%ah
     8bc:	77 72                	ja     930 <.rodata+0x930>
     8be:	6f                   	outsl  %ds:(%esi),(%dx)
     8bf:	6e                   	outsb  %ds:(%esi),(%dx)
     8c0:	67 20 72 65          	addr16 and %dh,0x65(%bp,%si)
     8c4:	73 75                	jae    93b <.rodata+0x93b>
     8c6:	6c                   	insb   (%dx),%es:(%edi)
     8c7:	74 20                	je     8e9 <.rodata+0x8e9>
     8c9:	69 6e 20 6e 69 63 65 	imul   $0x6563696e,0x20(%esi),%ebp
     8d0:	00 00                	add    %al,(%eax)
     8d2:	00 00                	add    %al,(%eax)
     8d4:	20 54 45 53          	and    %dl,0x53(%ebp,%eax,2)
     8d8:	54                   	push   %esp
     8d9:	3a 20                	cmp    (%eax),%ah
     8db:	6e                   	outsb  %ds:(%esi),(%dx)
     8dc:	69 63 65 20 72 65 74 	imul   $0x74657220,0x65(%ebx),%esp
     8e3:	75 72                	jne    957 <.rodata+0x957>
     8e5:	6e                   	outsb  %ds:(%esi),(%dx)
     8e6:	73 20                	jae    908 <.rodata+0x908>
     8e8:	61                   	popa   
     8e9:	20 6e 65             	and    %ch,0x65(%esi)
     8ec:	67 61                	addr16 popa 
     8ee:	74 69                	je     959 <.rodata+0x959>
     8f0:	76 65                	jbe    957 <.rodata+0x957>
     8f2:	20 76 61             	and    %dh,0x61(%esi)
     8f5:	6c                   	insb   (%dx),%es:(%edi)
     8f6:	75 65                	jne    95d <.rodata+0x95d>
     8f8:	00 00                	add    %al,(%eax)
     8fa:	00 00                	add    %al,(%eax)
     8fc:	20 54 45 53          	and    %dl,0x53(%ebp,%eax,2)
     900:	54                   	push   %esp
     901:	3a 20                	cmp    (%eax),%ah
     903:	67                   	addr16
     904:	65                   	gs
     905:	74 5f                	je     966 <.rodata+0x966>
     907:	73 74                	jae    97d <.rodata+0x97d>
     909:	61                   	popa   
     90a:	74 73                	je     97f <.rodata+0x97f>
     90c:	20 72 65             	and    %dh,0x65(%edx)
     90f:	74 75                	je     986 <.rodata+0x986>
     911:	72 6e                	jb     981 <.rodata+0x981>
     913:	73 20                	jae    935 <.rodata+0x935>
     915:	61                   	popa   
     916:	20 70 6f             	and    %dh,0x6f(%eax)
     919:	73 69                	jae    984 <.rodata+0x984>
     91b:	74 69                	je     986 <.rodata+0x986>
     91d:	76 65                	jbe    984 <.rodata+0x984>
     91f:	20 76 61             	and    %dh,0x61(%esi)
     922:	6c                   	insb   (%dx),%es:(%edi)
     923:	75 65                	jne    98a <.rodata+0x98a>
     925:	00 00                	add    %al,(%eax)
     927:	00 20                	add    %ah,(%eax)
     929:	54                   	push   %esp
     92a:	45                   	inc    %ebp
     92b:	53                   	push   %ebx
     92c:	54                   	push   %esp
     92d:	3a 20                	cmp    (%eax),%ah
     92f:	67                   	addr16
     930:	65                   	gs
     931:	74 5f                	je     992 <.rodata+0x992>
     933:	73 74                	jae    9a9 <.rodata+0x9a9>
     935:	61                   	popa   
     936:	74 73                	je     9ab <.rodata+0x9ab>
     938:	20 72 65             	and    %dh,0x65(%edx)
     93b:	74 75                	je     9b2 <.rodata+0x9b2>
     93d:	72 6e                	jb     9ad <.rodata+0x9ad>
     93f:	73 20                	jae    961 <.rodata+0x961>
     941:	61                   	popa   
     942:	20 6e 65             	and    %ch,0x65(%esi)
     945:	67 61                	addr16 popa 
     947:	74 69                	je     9b2 <.rodata+0x9b2>
     949:	76 65                	jbe    9b0 <.rodata+0x9b0>
     94b:	20 76 61             	and    %dh,0x61(%esi)
     94e:	6c                   	insb   (%dx),%es:(%edi)
     94f:	75 65                	jne    9b6 <.rodata+0x9b6>
     951:	2c 20                	sub    $0x20,%al
     953:	62 75 74             	bound  %esi,0x74(%ebp)
     956:	20 65 72             	and    %ah,0x72(%ebp)
     959:	72 6e                	jb     9c9 <.rodata+0x9c9>
     95b:	6f                   	outsl  %ds:(%esi),(%dx)
     95c:	20 69 73             	and    %ch,0x73(%ecx)
     95f:	20 64 69 66          	and    %ah,0x66(%ecx,%ebp,2)
     963:	66                   	data16
     964:	65                   	gs
     965:	72 65                	jb     9cc <.rodata+0x9cc>
     967:	6e                   	outsb  %ds:(%esi),(%dx)
     968:	74 20                	je     98a <.rodata+0x98a>
     96a:	66                   	data16
     96b:	72 6f                	jb     9dc <.rodata+0x9dc>
     96d:	6d                   	insl   (%dx),%es:(%edi)
     96e:	20 45 49             	and    %al,0x49(%ebp)
     971:	4e                   	dec    %esi
     972:	56                   	push   %esi
     973:	41                   	inc    %ecx
     974:	4c                   	dec    %esp
     975:	00 00                	add    %al,(%eax)
     977:	00 20                	add    %ah,(%eax)
     979:	54                   	push   %esp
     97a:	45                   	inc    %ebp
     97b:	53                   	push   %ebx
     97c:	54                   	push   %esp
     97d:	3a 20                	cmp    (%eax),%ah
     97f:	67                   	addr16
     980:	65                   	gs
     981:	74 5f                	je     9e2 <.rodata+0x9e2>
     983:	73 74                	jae    9f9 <.rodata+0x9f9>
     985:	61                   	popa   
     986:	74 73                	je     9fb <.rodata+0x9fb>
     988:	20 72 65             	and    %dh,0x65(%edx)
     98b:	74 75                	je     a02 <.rodata+0xa02>
     98d:	72 6e                	jb     9fd <.rodata+0x9fd>
     98f:	73 20                	jae    9b1 <.rodata+0x9b1>
     991:	61                   	popa   
     992:	20 6e 65             	and    %ch,0x65(%esi)
     995:	67 61                	addr16 popa 
     997:	74 69                	je     a02 <.rodata+0xa02>
     999:	76 65                	jbe    a00 <.rodata+0xa00>
     99b:	20 76 61             	and    %dh,0x61(%esi)
     99e:	6c                   	insb   (%dx),%es:(%edi)
     99f:	75 65                	jne    a06 <.rodata+0xa06>
     9a1:	2c 20                	sub    $0x20,%al
     9a3:	62 75 74             	bound  %esi,0x74(%ebp)
     9a6:	20 64 69 66          	and    %ah,0x66(%ecx,%ebp,2)
     9aa:	66                   	data16
     9ab:	65                   	gs
     9ac:	72 65                	jb     a13 <.rodata+0xa13>
     9ae:	6e                   	outsb  %ds:(%esi),(%dx)
     9af:	74 20                	je     9d1 <.rodata+0x9d1>
     9b1:	66                   	data16
     9b2:	72 6f                	jb     a23 <.rodata+0xa23>
     9b4:	6d                   	insl   (%dx),%es:(%edi)
     9b5:	20 2d 31 20 00 00    	and    %ch,0x2031
     9bb:	00 20                	add    %ah,(%eax)
     9bd:	54                   	push   %esp
     9be:	45                   	inc    %ebp
     9bf:	53                   	push   %ebx
     9c0:	54                   	push   %esp
     9c1:	3a 20                	cmp    (%eax),%ah
     9c3:	67                   	addr16
     9c4:	65                   	gs
     9c5:	74 5f                	je     a26 <.rodata+0xa26>
     9c7:	73 74                	jae    a3d <.rodata+0xa3d>
     9c9:	61                   	popa   
     9ca:	74 73                	je     a3f <.rodata+0xa3f>
     9cc:	20 72 65             	and    %dh,0x65(%edx)
     9cf:	74 75                	je     a46 <.rodata+0xa46>
     9d1:	72 6e                	jb     a41 <.rodata+0xa41>
     9d3:	73 20                	jae    9f5 <.rodata+0x9f5>
     9d5:	61                   	popa   
     9d6:	20 6e 65             	and    %ch,0x65(%esi)
     9d9:	67 61                	addr16 popa 
     9db:	74 69                	je     a46 <.rodata+0xa46>
     9dd:	76 65                	jbe    a44 <.rodata+0xa44>
     9df:	20 76 61             	and    %dh,0x61(%esi)
     9e2:	6c                   	insb   (%dx),%es:(%edi)
     9e3:	75 65                	jne    a4a <.rodata+0xa4a>
     9e5:	2c 20                	sub    $0x20,%al
     9e7:	62 75 74             	bound  %esi,0x74(%ebp)
     9ea:	20 65 72             	and    %ah,0x72(%ebp)
     9ed:	72 6e                	jb     a5d <.rodata+0xa5d>
     9ef:	6f                   	outsl  %ds:(%esi),(%dx)
     9f0:	20 69 73             	and    %ch,0x73(%ecx)
     9f3:	20 64 69 66          	and    %ah,0x66(%ecx,%ebp,2)
     9f7:	66                   	data16
     9f8:	65                   	gs
     9f9:	72 65                	jb     a60 <.rodata+0xa60>
     9fb:	6e                   	outsb  %ds:(%esi),(%dx)
     9fc:	74 20                	je     a1e <.rodata+0xa1e>
     9fe:	66                   	data16
     9ff:	72 6f                	jb     a70 <.rodata+0xa70>
     a01:	6d                   	insl   (%dx),%es:(%edi)
     a02:	20 45 53             	and    %al,0x53(%ebp)
     a05:	52                   	push   %edx
     a06:	43                   	inc    %ebx
     a07:	48                   	dec    %eax
     a08:	00 00                	add    %al,(%eax)
     a0a:	00 00                	add    %al,(%eax)
     a0c:	20 54 45 53          	and    %dl,0x53(%ebp,%eax,2)
     a10:	54                   	push   %esp
     a11:	3a 20                	cmp    (%eax),%ah
     a13:	67                   	addr16
     a14:	65                   	gs
     a15:	74 5f                	je     a76 <.rodata+0xa76>
     a17:	73 74                	jae    a8d <.rodata+0xa8d>
     a19:	61                   	popa   
     a1a:	74 73                	je     a8f <.rodata+0xa8f>
     a1c:	20 72 65             	and    %dh,0x65(%edx)
     a1f:	74 75                	je     a96 <.rodata+0xa96>
     a21:	72 6e                	jb     a91 <.rodata+0xa91>
     a23:	73 20                	jae    a45 <.rodata+0xa45>
     a25:	61                   	popa   
     a26:	20 6e 65             	and    %ch,0x65(%esi)
     a29:	67 61                	addr16 popa 
     a2b:	74 69                	je     a96 <.rodata+0xa96>
     a2d:	76 65                	jbe    a94 <.rodata+0xa94>
     a2f:	20 76 61             	and    %dh,0x61(%esi)
     a32:	6c                   	insb   (%dx),%es:(%edi)
     a33:	75 65                	jne    a9a <.rodata+0xa9a>
     a35:	2c 20                	sub    $0x20,%al
     a37:	62 75 74             	bound  %esi,0x74(%ebp)
     a3a:	20 65 72             	and    %ah,0x72(%ebp)
     a3d:	72 6e                	jb     aad <.rodata+0xaad>
     a3f:	6f                   	outsl  %ds:(%esi),(%dx)
     a40:	20 69 73             	and    %ch,0x73(%ecx)
     a43:	20 64 69 66          	and    %ah,0x66(%ecx,%ebp,2)
     a47:	66                   	data16
     a48:	65                   	gs
     a49:	72 65                	jb     ab0 <.rodata+0xab0>
     a4b:	6e                   	outsb  %ds:(%esi),(%dx)
     a4c:	74 20                	je     a6e <.rodata+0xa6e>
     a4e:	66                   	data16
     a4f:	72 6f                	jb     ac0 <.rodata+0xac0>
     a51:	6d                   	insl   (%dx),%es:(%edi)
     a52:	20 45 46             	and    %al,0x46(%ebp)
     a55:	41                   	inc    %ecx
     a56:	55                   	push   %ebp
     a57:	4c                   	dec    %esp
     a58:	54                   	push   %esp
     a59:	00 00                	add    %al,(%eax)
     a5b:	00 20                	add    %ah,(%eax)
     a5d:	49                   	dec    %ecx
     a5e:	4e                   	dec    %esi
     a5f:	49                   	dec    %ecx
     a60:	54                   	push   %esp
     a61:	54                   	push   %esp
     a62:	45                   	inc    %ebp
     a63:	53                   	push   %ebx
     a64:	54                   	push   %esp
     a65:	3a 20                	cmp    (%eax),%ah
     a67:	67                   	addr16
     a68:	65                   	gs
     a69:	74 5f                	je     aca <.rodata+0xaca>
     a6b:	73 74                	jae    ae1 <.rodata+0xae1>
     a6d:	61                   	popa   
     a6e:	74 73                	je     ae3 <.rodata+0xae3>
     a70:	20 72 65             	and    %dh,0x65(%edx)
     a73:	74 75                	je     aea <.rodata+0xaea>
     a75:	72 6e                	jb     ae5 <.rodata+0xae5>
     a77:	73 20                	jae    a99 <.rodata+0xa99>
     a79:	61                   	popa   
     a7a:	20 6e 65             	and    %ch,0x65(%esi)
     a7d:	67 61                	addr16 popa 
     a7f:	74 69                	je     aea <.rodata+0xaea>
     a81:	76 65                	jbe    ae8 <.rodata+0xae8>
     a83:	20 76 61             	and    %dh,0x61(%esi)
     a86:	6c                   	insb   (%dx),%es:(%edi)
     a87:	75 65                	jne    aee <.rodata+0xaee>
     a89:	00 00                	add    %al,(%eax)
     a8b:	00 20                	add    %ah,(%eax)
     a8d:	54                   	push   %esp
     a8e:	45                   	inc    %ebp
     a8f:	53                   	push   %ebx
     a90:	54                   	push   %esp
     a91:	3a 20                	cmp    (%eax),%ah
     a93:	73 65                	jae    afa <.rodata+0xafa>
     a95:	6d                   	insl   (%dx),%es:(%edi)
     a96:	5f                   	pop    %edi
     a97:	69 6e 69 74 20 77 69 	imul   $0x69772074,0x69(%esi),%ebp
     a9e:	74 68                	je     b08 <.rodata+0xb08>
     aa0:	20 6e 65             	and    %ch,0x65(%esi)
     aa3:	67 61                	addr16 popa 
     aa5:	74 69                	je     b10 <.rodata+0xb10>
     aa7:	76 65                	jbe    b0e <.rodata+0xb0e>
     aa9:	20 76 61             	and    %dh,0x61(%esi)
     aac:	6c                   	insb   (%dx),%es:(%edi)
     aad:	75 65                	jne    b14 <.rodata+0xb14>
     aaf:	20 64 6f 65          	and    %ah,0x65(%edi,%ebp,2)
     ab3:	73 6e                	jae    b23 <.rodata+0xb23>
     ab5:	27                   	daa    
     ab6:	74 20                	je     ad8 <.rodata+0xad8>
     ab8:	72 65                	jb     b1f <.rodata+0xb1f>
     aba:	74 75                	je     b31 <.rodata+0xb31>
     abc:	72 6e                	jb     b2c <.rodata+0xb2c>
     abe:	20 61 20             	and    %ah,0x20(%ecx)
     ac1:	2d 31 2e 20 00       	sub    $0x202e31,%eax
     ac6:	00 00                	add    %al,(%eax)
     ac8:	20 54 45 53          	and    %dl,0x53(%ebp,%eax,2)
     acc:	54                   	push   %esp
     acd:	3a 20                	cmp    (%eax),%ah
     acf:	73 65                	jae    b36 <.rodata+0xb36>
     ad1:	6d                   	insl   (%dx),%es:(%edi)
     ad2:	5f                   	pop    %edi
     ad3:	69 6e 69 74 20 72 65 	imul   $0x65722074,0x69(%esi),%ebp
     ada:	74 75                	je     b51 <.rodata+0xb51>
     adc:	72 6e                	jb     b4c <.rodata+0xb4c>
     ade:	73 20                	jae    b00 <.rodata+0xb00>
     ae0:	61                   	popa   
     ae1:	20 2d 31 2c 20 62    	and    %ch,0x62202c31
     ae7:	75 74                	jne    b5d <.rodata+0xb5d>
     ae9:	20 65 72             	and    %ah,0x72(%ebp)
     aec:	72 6e                	jb     b5c <.rodata+0xb5c>
     aee:	6f                   	outsl  %ds:(%esi),(%dx)
     aef:	20 69 73             	and    %ch,0x73(%ecx)
     af2:	20 64 69 66          	and    %ah,0x66(%ecx,%ebp,2)
     af6:	66                   	data16
     af7:	65                   	gs
     af8:	72 65                	jb     b5f <.rodata+0xb5f>
     afa:	6e                   	outsb  %ds:(%esi),(%dx)
     afb:	74 20                	je     b1d <.rodata+0xb1d>
     afd:	66                   	data16
     afe:	72 6f                	jb     b6f <.rodata+0xb6f>
     b00:	6d                   	insl   (%dx),%es:(%edi)
     b01:	20 45 49             	and    %al,0x49(%ebp)
     b04:	4e                   	dec    %esi
     b05:	56                   	push   %esi
     b06:	41                   	inc    %ecx
     b07:	4c                   	dec    %esp
     b08:	20 00                	and    %al,(%eax)
     b0a:	00 00                	add    %al,(%eax)
     b0c:	20 54 45 53          	and    %dl,0x53(%ebp,%eax,2)
     b10:	54                   	push   %esp
     b11:	3a 20                	cmp    (%eax),%ah
     b13:	73 65                	jae    b7a <.rodata+0xb7a>
     b15:	6d                   	insl   (%dx),%es:(%edi)
     b16:	5f                   	pop    %edi
     b17:	69 6e 69 74 20 77 69 	imul   $0x69772074,0x69(%esi),%ebp
     b1e:	74 68                	je     b88 <.rodata+0xb88>
     b20:	20 61 20             	and    %ah,0x20(%ecx)
     b23:	69 64 65 6e 74 69 66 	imul   $0x69666974,0x6e(%ebp,%eiz,2),%esp
     b2a:	69 
     b2b:	65                   	gs
     b2c:	72 20                	jb     b4e <.rodata+0xb4e>
     b2e:	74 6f                	je     b9f <.rodata+0xb9f>
     b30:	6f                   	outsl  %ds:(%esi),(%dx)
     b31:	20 62 69             	and    %ah,0x69(%edx)
     b34:	67 20 64 6f          	addr16 and %ah,0x6f(%si)
     b38:	65                   	gs
     b39:	73 6e                	jae    ba9 <.rodata+0xba9>
     b3b:	27                   	daa    
     b3c:	74 20                	je     b5e <.rodata+0xb5e>
     b3e:	72 65                	jb     ba5 <.rodata+0xba5>
     b40:	74 75                	je     bb7 <.rodata+0xbb7>
     b42:	72 6e                	jb     bb2 <.rodata+0xbb2>
     b44:	20 61 20             	and    %ah,0x20(%ecx)
     b47:	2d 31 2e 20 00       	sub    $0x202e31,%eax
     b4c:	20 49 4e             	and    %cl,0x4e(%ecx)
     b4f:	49                   	dec    %ecx
     b50:	54                   	push   %esp
     b51:	54                   	push   %esp
     b52:	45                   	inc    %ebp
     b53:	53                   	push   %ebx
     b54:	54                   	push   %esp
     b55:	3a 20                	cmp    (%eax),%ah
     b57:	55                   	push   %ebp
     b58:	6e                   	outsb  %ds:(%esi),(%dx)
     b59:	61                   	popa   
     b5a:	62 6c 65 20          	bound  %ebp,0x20(%ebp,%eiz,2)
     b5e:	74 6f                	je     bcf <.rodata+0xbcf>
     b60:	20 69 6e             	and    %ch,0x6e(%ecx)
     b63:	69 74 69 61 6c 69 7a 	imul   $0x657a696c,0x61(%ecx,%ebp,2),%esi
     b6a:	65 
     b6b:	20 61 20             	and    %ah,0x20(%ecx)
     b6e:	73 65                	jae    bd5 <.rodata+0xbd5>
     b70:	6d                   	insl   (%dx),%es:(%edi)
     b71:	61                   	popa   
     b72:	70 68                	jo     bdc <.rodata+0xbdc>
     b74:	6f                   	outsl  %ds:(%esi),(%dx)
     b75:	72 65                	jb     bdc <.rodata+0xbdc>
     b77:	00 20                	add    %ah,(%eax)
     b79:	54                   	push   %esp
     b7a:	45                   	inc    %ebp
     b7b:	53                   	push   %ebx
     b7c:	54                   	push   %esp
     b7d:	3a 20                	cmp    (%eax),%ah
     b7f:	49                   	dec    %ecx
     b80:	74 20                	je     ba2 <.rodata+0xba2>
     b82:	69 73 20 70 6f 73 73 	imul   $0x73736f70,0x20(%ebx),%esi
     b89:	69 62 6c 65 20 74 6f 	imul   $0x6f742065,0x6c(%edx),%esp
     b90:	20 69 6e             	and    %ch,0x6e(%ecx)
     b93:	69 74 69 61 6c 69 7a 	imul   $0x657a696c,0x61(%ecx,%ebp,2),%esi
     b9a:	65 
     b9b:	20 61 6e             	and    %ah,0x6e(%ecx)
     b9e:	20 61 6c             	and    %ah,0x6c(%ecx)
     ba1:	72 65                	jb     c08 <.rodata+0xc08>
     ba3:	61                   	popa   
     ba4:	64                   	fs
     ba5:	79 20                	jns    bc7 <.rodata+0xbc7>
     ba7:	69 6e 69 74 69 61 6c 	imul   $0x6c616974,0x69(%esi),%ebp
     bae:	69 7a 65 64 20 73 65 	imul   $0x65732064,0x65(%edx),%edi
     bb5:	6d                   	insl   (%dx),%es:(%edi)
     bb6:	61                   	popa   
     bb7:	70 68                	jo     c21 <.rodata+0xc21>
     bb9:	6f                   	outsl  %ds:(%esi),(%dx)
     bba:	72 65                	jb     c21 <.rodata+0xc21>
     bbc:	00 00                	add    %al,(%eax)
     bbe:	00 00                	add    %al,(%eax)
     bc0:	20 54 45 53          	and    %dl,0x53(%ebp,%eax,2)
     bc4:	54                   	push   %esp
     bc5:	3a 20                	cmp    (%eax),%ah
     bc7:	52                   	push   %edx
     bc8:	65                   	gs
     bc9:	74 75                	je     c40 <.rodata+0xc40>
     bcb:	72 6e                	jb     c3b <.rodata+0xc3b>
     bcd:	73 20                	jae    bef <.rodata+0xbef>
     bcf:	61                   	popa   
     bd0:	6e                   	outsb  %ds:(%esi),(%dx)
     bd1:	20 65 72             	and    %ah,0x72(%ebp)
     bd4:	72 6f                	jb     c45 <.rodata+0xc45>
     bd6:	72 2c                	jb     c04 <.rodata+0xc04>
     bd8:	20 62 75             	and    %ah,0x75(%edx)
     bdb:	74 20                	je     bfd <.rodata+0xbfd>
     bdd:	64 69 66 66 65 72 65 	imul   $0x6e657265,%fs:0x66(%esi),%esp
     be4:	6e 
     be5:	74 20                	je     c07 <.rodata+0xc07>
     be7:	66                   	data16
     be8:	72 6f                	jb     c59 <.rodata+0xc59>
     bea:	6d                   	insl   (%dx),%es:(%edi)
     beb:	20 45 42             	and    %al,0x42(%ebp)
     bee:	55                   	push   %ebp
     bef:	53                   	push   %ebx
     bf0:	59                   	pop    %ecx
     bf1:	00 00                	add    %al,(%eax)
     bf3:	00 20                	add    %ah,(%eax)
     bf5:	54                   	push   %esp
     bf6:	45                   	inc    %ebp
     bf7:	53                   	push   %ebx
     bf8:	54                   	push   %esp
     bf9:	3a 20                	cmp    (%eax),%ah
     bfb:	54                   	push   %esp
     bfc:	68 65 72 65 20       	push   $0x20657265
     c01:	69 73 6e 27 74 20 61 	imul   $0x61207427,0x6e(%ebx),%esi
     c08:	6e                   	outsb  %ds:(%esi),(%dx)
     c09:	79 20                	jns    c2b <.rodata+0xc2b>
     c0b:	74 65                	je     c72 <.rodata+0xc72>
     c0d:	73 74                	jae    c83 <.rodata+0xc83>
     c0f:	20 74 6f 20          	and    %dh,0x20(%edi,%ebp,2)
     c13:	63 68 65             	arpl   %bp,0x65(%eax)
     c16:	63 6b 20             	arpl   %bp,0x20(%ebx)
     c19:	74 68                	je     c83 <.rodata+0xc83>
     c1b:	65 20 6d 61          	and    %ch,%gs:0x61(%ebp)
     c1f:	78 69                	js     c8a <.rodata+0xc8a>
     c21:	6d                   	insl   (%dx),%es:(%edi)
     c22:	75 6d                	jne    c91 <.rodata+0xc91>
     c24:	20 6e 75             	and    %ch,0x75(%esi)
     c27:	6d                   	insl   (%dx),%es:(%edi)
     c28:	62 65 72             	bound  %esp,0x72(%ebp)
     c2b:	20 6f 66             	and    %ch,0x66(%edi)
     c2e:	20 73 65             	and    %dh,0x65(%ebx)
     c31:	6d                   	insl   (%dx),%es:(%edi)
     c32:	61                   	popa   
     c33:	70 68                	jo     c9d <.rodata+0xc9d>
     c35:	6f                   	outsl  %ds:(%esi),(%dx)
     c36:	72 65                	jb     c9d <.rodata+0xc9d>
     c38:	73 20                	jae    c5a <.rodata+0xc5a>
     c3a:	61                   	popa   
     c3b:	76 61                	jbe    c9e <.rodata+0xc9e>
     c3d:	69 6c 61 62 6c 65 00 	imul   $0x2000656c,0x62(%ecx,%eiz,2),%ebp
     c44:	20 
     c45:	54                   	push   %esp
     c46:	45                   	inc    %ebp
     c47:	53                   	push   %ebx
     c48:	54                   	push   %esp
     c49:	3a 20                	cmp    (%eax),%ah
     c4b:	73 65                	jae    cb2 <.rodata+0xcb2>
     c4d:	6d                   	insl   (%dx),%es:(%edi)
     c4e:	5f                   	pop    %edi
     c4f:	69 6e 69 74 20 72 65 	imul   $0x65722074,0x69(%esi),%ebp
     c56:	74 75                	je     ccd <.rodata+0xccd>
     c58:	72 6e                	jb     cc8 <.rodata+0xcc8>
     c5a:	73 20                	jae    c7c <.rodata+0xc7c>
     c5c:	65                   	gs
     c5d:	72 72                	jb     cd1 <.rodata+0xcd1>
     c5f:	6f                   	outsl  %ds:(%esi),(%dx)
     c60:	72 2c                	jb     c8e <.rodata+0xc8e>
     c62:	20 62 75             	and    %ah,0x75(%edx)
     c65:	74 20                	je     c87 <.rodata+0xc87>
     c67:	64 69 66 66 65 72 65 	imul   $0x6e657265,%fs:0x66(%esi),%esp
     c6e:	6e 
     c6f:	74 20                	je     c91 <.rodata+0xc91>
     c71:	66                   	data16
     c72:	72 6f                	jb     ce3 <.rodata+0xce3>
     c74:	6d                   	insl   (%dx),%es:(%edi)
     c75:	20 45 49             	and    %al,0x49(%ebp)
     c78:	4e                   	dec    %esi
     c79:	56                   	push   %esi
     c7a:	41                   	inc    %ecx
     c7b:	4c                   	dec    %esp
     c7c:	20 6f 72             	and    %ch,0x72(%edi)
     c7f:	20 45 41             	and    %al,0x41(%ebp)
     c82:	47                   	inc    %edi
     c83:	41                   	inc    %ecx
     c84:	49                   	dec    %ecx
     c85:	4e                   	dec    %esi
     c86:	00 00                	add    %al,(%eax)
     c88:	20 49 4e             	and    %cl,0x4e(%ecx)
     c8b:	49                   	dec    %ecx
     c8c:	54                   	push   %esp
     c8d:	54                   	push   %esp
     c8e:	45                   	inc    %ebp
     c8f:	53                   	push   %ebx
     c90:	54                   	push   %esp
     c91:	3a 20                	cmp    (%eax),%ah
     c93:	53                   	push   %ebx
     c94:	65                   	gs
     c95:	6d                   	insl   (%dx),%es:(%edi)
     c96:	61                   	popa   
     c97:	70 68                	jo     d01 <.rodata+0xd01>
     c99:	6f                   	outsl  %ds:(%esi),(%dx)
     c9a:	72 65                	jb     d01 <.rodata+0xd01>
     c9c:	20 30                	and    %dh,(%eax)
     c9e:	20 63 6f             	and    %ah,0x6f(%ebx)
     ca1:	75 6c                	jne    d0f <.rodata+0xd0f>
     ca3:	64 20 6e 6f          	and    %ch,%fs:0x6f(%esi)
     ca7:	74 20                	je     cc9 <.rodata+0xcc9>
     ca9:	62 65 20             	bound  %esp,0x20(%ebp)
     cac:	69 6e 69 74 69 61 6c 	imul   $0x6c616974,0x69(%esi),%ebp
     cb3:	69 7a 65 64 00 20 49 	imul   $0x49200064,0x65(%edx),%edi
     cba:	4e                   	dec    %esi
     cbb:	49                   	dec    %ecx
     cbc:	54                   	push   %esp
     cbd:	54                   	push   %esp
     cbe:	45                   	inc    %ebp
     cbf:	53                   	push   %ebx
     cc0:	54                   	push   %esp
     cc1:	3a 20                	cmp    (%eax),%ah
     cc3:	53                   	push   %ebx
     cc4:	65                   	gs
     cc5:	6d                   	insl   (%dx),%es:(%edi)
     cc6:	61                   	popa   
     cc7:	70 68                	jo     d31 <.rodata+0xd31>
     cc9:	6f                   	outsl  %ds:(%esi),(%dx)
     cca:	72 65                	jb     d31 <.rodata+0xd31>
     ccc:	20 30                	and    %dh,(%eax)
     cce:	20 63 6f             	and    %ah,0x6f(%ebx)
     cd1:	75 6c                	jne    d3f <.rodata+0xd3f>
     cd3:	64 20 6e 6f          	and    %ch,%fs:0x6f(%esi)
     cd7:	74 20                	je     cf9 <.rodata+0xcf9>
     cd9:	62 65 20             	bound  %esp,0x20(%ebp)
     cdc:	64                   	fs
     cdd:	65                   	gs
     cde:	73 74                	jae    d54 <.rodata+0xd54>
     ce0:	72 6f                	jb     d51 <.rodata+0xd51>
     ce2:	79 65                	jns    d49 <.rodata+0xd49>
     ce4:	64 00 00             	add    %al,%fs:(%eax)
     ce7:	00 20                	add    %ah,(%eax)
     ce9:	54                   	push   %esp
     cea:	45                   	inc    %ebp
     ceb:	53                   	push   %ebx
     cec:	54                   	push   %esp
     ced:	3a 20                	cmp    (%eax),%ah
     cef:	53                   	push   %ebx
     cf0:	65                   	gs
     cf1:	6d                   	insl   (%dx),%es:(%edi)
     cf2:	61                   	popa   
     cf3:	70 68                	jo     d5d <.rodata+0xd5d>
     cf5:	6f                   	outsl  %ds:(%esi),(%dx)
     cf6:	72 65                	jb     d5d <.rodata+0xd5d>
     cf8:	20 63 6f             	and    %ah,0x6f(%ebx)
     cfb:	75 6c                	jne    d69 <.rodata+0xd69>
     cfd:	64 20 6e 6f          	and    %ch,%fs:0x6f(%esi)
     d01:	74 20                	je     d23 <.rodata+0xd23>
     d03:	62 65 20             	bound  %esp,0x20(%ebp)
     d06:	72 65                	jb     d6d <.rodata+0xd6d>
     d08:	75 73                	jne    d7d <.rodata+0xd7d>
     d0a:	65 64 00 00          	add    %al,%fs:%gs:(%eax)
     d0e:	00 00                	add    %al,(%eax)
     d10:	20 54 45 53          	and    %dl,0x53(%ebp,%eax,2)
     d14:	54                   	push   %esp
     d15:	3a 20                	cmp    (%eax),%ah
     d17:	49                   	dec    %ecx
     d18:	74 20                	je     d3a <.rodata+0xd3a>
     d1a:	69 73 20 70 6f 73 73 	imul   $0x73736f70,0x20(%ebx),%esi
     d21:	69 62 6c 65 20 74 6f 	imul   $0x6f742065,0x6c(%edx),%esp
     d28:	20 64 65 73          	and    %ah,0x73(%ebp,%eiz,2)
     d2c:	74 72                	je     da0 <.rodata+0xda0>
     d2e:	6f                   	outsl  %ds:(%esi),(%dx)
     d2f:	79 20                	jns    d51 <.rodata+0xd51>
     d31:	61                   	popa   
     d32:	6e                   	outsb  %ds:(%esi),(%dx)
     d33:	20 69 6e             	and    %ch,0x6e(%ecx)
     d36:	76 61                	jbe    d99 <.rodata+0xd99>
     d38:	6c                   	insb   (%dx),%es:(%edi)
     d39:	69 64 20 73 65 6d 61 	imul   $0x70616d65,0x73(%eax,%eiz,1),%esp
     d40:	70 
     d41:	68 6f 72 65 21       	push   $0x2165726f
     d46:	00 00                	add    %al,(%eax)
     d48:	20 54 45 53          	and    %dl,0x53(%ebp,%eax,2)
     d4c:	54                   	push   %esp
     d4d:	3a 20                	cmp    (%eax),%ah
     d4f:	41                   	inc    %ecx
     d50:	6e                   	outsb  %ds:(%esi),(%dx)
     d51:	20 65 72             	and    %ah,0x72(%ebp)
     d54:	72 6f                	jb     dc5 <.rodata+0xdc5>
     d56:	72 20                	jb     d78 <.rodata+0xd78>
     d58:	69 73 20 72 65 74 75 	imul   $0x75746572,0x20(%ebx),%esi
     d5f:	72 6e                	jb     dcf <.rodata+0xdcf>
     d61:	65                   	gs
     d62:	64                   	fs
     d63:	2c 20                	sub    $0x20,%al
     d65:	62 75 74             	bound  %esi,0x74(%ebp)
     d68:	20 65 72             	and    %ah,0x72(%ebp)
     d6b:	72 6e                	jb     ddb <.rodata+0xddb>
     d6d:	6f                   	outsl  %ds:(%esi),(%dx)
     d6e:	20 69 73             	and    %ch,0x73(%ecx)
     d71:	20 64 69 66          	and    %ah,0x66(%ecx,%ebp,2)
     d75:	66                   	data16
     d76:	65                   	gs
     d77:	72 65                	jb     dde <.rodata+0xdde>
     d79:	6e                   	outsb  %ds:(%esi),(%dx)
     d7a:	74 20                	je     d9c <.rodata+0xd9c>
     d7c:	66                   	data16
     d7d:	72 6f                	jb     dee <.rodata+0xdee>
     d7f:	6d                   	insl   (%dx),%es:(%edi)
     d80:	20 45 49             	and    %al,0x49(%ebp)
     d83:	4e                   	dec    %esi
     d84:	56                   	push   %esi
     d85:	41                   	inc    %ecx
     d86:	4c                   	dec    %esp
     d87:	00 20                	add    %ah,(%eax)
     d89:	54                   	push   %esp
     d8a:	45                   	inc    %ebp
     d8b:	53                   	push   %ebx
     d8c:	54                   	push   %esp
     d8d:	3a 20                	cmp    (%eax),%ah
     d8f:	49                   	dec    %ecx
     d90:	74 20                	je     db2 <.rodata+0xdb2>
     d92:	69 73 20 70 6f 73 73 	imul   $0x73736f70,0x20(%ebx),%esi
     d99:	69 62 6c 65 20 74 6f 	imul   $0x6f742065,0x6c(%edx),%esp
     da0:	20 64 65 73          	and    %ah,0x73(%ebp,%eiz,2)
     da4:	74 72                	je     e18 <.rodata+0xe18>
     da6:	6f                   	outsl  %ds:(%esi),(%dx)
     da7:	79 20                	jns    dc9 <.rodata+0xdc9>
     da9:	61                   	popa   
     daa:	6e                   	outsb  %ds:(%esi),(%dx)
     dab:	20 75 6e             	and    %dh,0x6e(%ebp)
     dae:	69 6e 69 74 69 61 6c 	imul   $0x6c616974,0x69(%esi),%ebp
     db5:	69 7a 65 64 20 73 65 	imul   $0x65732064,0x65(%edx),%edi
     dbc:	6d                   	insl   (%dx),%es:(%edi)
     dbd:	61                   	popa   
     dbe:	70 68                	jo     e28 <.rodata+0xe28>
     dc0:	6f                   	outsl  %ds:(%esi),(%dx)
     dc1:	72 65                	jb     e28 <.rodata+0xe28>
     dc3:	21 00                	and    %eax,(%eax)
     dc5:	00 00                	add    %al,(%eax)
     dc7:	00 20                	add    %ah,(%eax)
     dc9:	54                   	push   %esp
     dca:	45                   	inc    %ebp
     dcb:	53                   	push   %ebx
     dcc:	54                   	push   %esp
     dcd:	3a 20                	cmp    (%eax),%ah
     dcf:	41                   	inc    %ecx
     dd0:	6e                   	outsb  %ds:(%esi),(%dx)
     dd1:	20 65 72             	and    %ah,0x72(%ebp)
     dd4:	72 6f                	jb     e45 <.rodata+0xe45>
     dd6:	72 20                	jb     df8 <.rodata+0xdf8>
     dd8:	69 73 20 72 65 74 75 	imul   $0x75746572,0x20(%ebx),%esi
     ddf:	72 6e                	jb     e4f <.rodata+0xe4f>
     de1:	65                   	gs
     de2:	64                   	fs
     de3:	2c 20                	sub    $0x20,%al
     de5:	62 75 74             	bound  %esi,0x74(%ebp)
     de8:	20 64 69 66          	and    %ah,0x66(%ecx,%ebp,2)
     dec:	66                   	data16
     ded:	65                   	gs
     dee:	72 65                	jb     e55 <.rodata+0xe55>
     df0:	6e                   	outsb  %ds:(%esi),(%dx)
     df1:	74 20                	je     e13 <.rodata+0xe13>
     df3:	66                   	data16
     df4:	72 6f                	jb     e65 <.rodata+0xe65>
     df6:	6d                   	insl   (%dx),%es:(%edi)
     df7:	20 45 49             	and    %al,0x49(%ebp)
     dfa:	4e                   	dec    %esi
     dfb:	56                   	push   %esi
     dfc:	41                   	inc    %ecx
     dfd:	4c                   	dec    %esp
     dfe:	00 00                	add    %al,(%eax)
     e00:	20 49 4e             	and    %cl,0x4e(%ecx)
     e03:	49                   	dec    %ecx
     e04:	54                   	push   %esp
     e05:	54                   	push   %esp
     e06:	45                   	inc    %ebp
     e07:	53                   	push   %ebx
     e08:	54                   	push   %esp
     e09:	3a 20                	cmp    (%eax),%ah
     e0b:	55                   	push   %ebp
     e0c:	6e                   	outsb  %ds:(%esi),(%dx)
     e0d:	61                   	popa   
     e0e:	62 6c 65 20          	bound  %ebp,0x20(%ebp,%eiz,2)
     e12:	74 6f                	je     e83 <.rodata+0xe83>
     e14:	20 63 72             	and    %ah,0x72(%ebx)
     e17:	65                   	gs
     e18:	61                   	popa   
     e19:	74 65                	je     e80 <.rodata+0xe80>
     e1b:	20 61 20             	and    %ah,0x20(%ecx)
     e1e:	63 68 69             	arpl   %bp,0x69(%eax)
     e21:	6c                   	insb   (%dx),%es:(%edi)
     e22:	64 00 45 72          	add    %al,%fs:0x72(%ebp)
     e26:	72 6f                	jb     e97 <.rodata+0xe97>
     e28:	72 3a                	jb     e64 <.rodata+0xe64>
     e2a:	20 70 72             	and    %dh,0x72(%eax)
     e2d:	6f                   	outsl  %ds:(%esi),(%dx)
     e2e:	63 65 73             	arpl   %sp,0x73(%ebp)
     e31:	73 20                	jae    e53 <.rodata+0xe53>
     e33:	73 75                	jae    eaa <.rodata+0xeaa>
     e35:	72 76                	jb     ead <.rodata+0xead>
     e37:	69 76 65 73 20 61 66 	imul   $0x66612073,0x65(%esi),%esi
     e3e:	74 65                	je     ea5 <.rodata+0xea5>
     e40:	72 20                	jb     e62 <.rodata+0xe62>
     e42:	65                   	gs
     e43:	78 69                	js     eae <.rodata+0xeae>
     e45:	74 21                	je     e68 <.rodata+0xe68>
     e47:	00 54 45 53          	add    %dl,0x53(%ebp,%eax,2)
     e4b:	54                   	push   %esp
     e4c:	3a 20                	cmp    (%eax),%ah
     e4e:	43                   	inc    %ebx
     e4f:	61                   	popa   
     e50:	6e                   	outsb  %ds:(%esi),(%dx)
     e51:	20 64 65 73          	and    %ah,0x73(%ebp,%eiz,2)
     e55:	74 72                	je     ec9 <.rodata+0xec9>
     e57:	6f                   	outsl  %ds:(%esi),(%dx)
     e58:	79 20                	jns    e7a <.rodata+0xe7a>
     e5a:	61                   	popa   
     e5b:	20 73 65             	and    %dh,0x65(%ebx)
     e5e:	6d                   	insl   (%dx),%es:(%edi)
     e5f:	61                   	popa   
     e60:	70 68                	jo     eca <.rodata+0xeca>
     e62:	6f                   	outsl  %ds:(%esi),(%dx)
     e63:	72 65                	jb     eca <.rodata+0xeca>
     e65:	20 6f 77             	and    %ch,0x77(%edi)
     e68:	6e                   	outsb  %ds:(%esi),(%dx)
     e69:	65 64 20 62 79       	and    %ah,%fs:%gs:0x79(%edx)
     e6e:	20 61 6e             	and    %ah,0x6e(%ecx)
     e71:	6f                   	outsl  %ds:(%esi),(%dx)
     e72:	74 68                	je     edc <.rodata+0xedc>
     e74:	65                   	gs
     e75:	72 20                	jb     e97 <.rodata+0xe97>
     e77:	70 72                	jo     eeb <.rodata+0xeeb>
     e79:	6f                   	outsl  %ds:(%esi),(%dx)
     e7a:	63 65 73             	arpl   %sp,0x73(%ebp)
     e7d:	73 00                	jae    e7f <.rodata+0xe7f>
     e7f:	00 20                	add    %ah,(%eax)
     e81:	54                   	push   %esp
     e82:	45                   	inc    %ebp
     e83:	53                   	push   %ebx
     e84:	54                   	push   %esp
     e85:	3a 20                	cmp    (%eax),%ah
     e87:	41                   	inc    %ecx
     e88:	6e                   	outsb  %ds:(%esi),(%dx)
     e89:	20 65 72             	and    %ah,0x72(%ebp)
     e8c:	72 6f                	jb     efd <.rodata+0xefd>
     e8e:	72 20                	jb     eb0 <.rodata+0xeb0>
     e90:	69 73 20 72 65 74 75 	imul   $0x75746572,0x20(%ebx),%esi
     e97:	72 6e                	jb     f07 <.rodata+0xf07>
     e99:	65                   	gs
     e9a:	64                   	fs
     e9b:	2c 20                	sub    $0x20,%al
     e9d:	62 75 74             	bound  %esi,0x74(%ebp)
     ea0:	20 64 69 66          	and    %ah,0x66(%ecx,%ebp,2)
     ea4:	66                   	data16
     ea5:	65                   	gs
     ea6:	72 65                	jb     f0d <.rodata+0xf0d>
     ea8:	6e                   	outsb  %ds:(%esi),(%dx)
     ea9:	74 20                	je     ecb <.rodata+0xecb>
     eab:	66                   	data16
     eac:	72 6f                	jb     f1d <.rodata+0xf1d>
     eae:	6d                   	insl   (%dx),%es:(%edi)
     eaf:	20 45 50             	and    %al,0x50(%ebp)
     eb2:	45                   	inc    %ebp
     eb3:	52                   	push   %edx
     eb4:	4d                   	dec    %ebp
     eb5:	00 00                	add    %al,(%eax)
     eb7:	00 49 4e             	add    %cl,0x4e(%ecx)
     eba:	49                   	dec    %ecx
     ebb:	54                   	push   %esp
     ebc:	54                   	push   %esp
     ebd:	45                   	inc    %ebp
     ebe:	53                   	push   %ebx
     ebf:	54                   	push   %esp
     ec0:	3a 20                	cmp    (%eax),%ah
     ec2:	55                   	push   %ebp
     ec3:	6e                   	outsb  %ds:(%esi),(%dx)
     ec4:	61                   	popa   
     ec5:	62 6c 65 20          	bound  %ebp,0x20(%ebp,%eiz,2)
     ec9:	74 6f                	je     f3a <.rodata+0xf3a>
     ecb:	20 63 72             	and    %ah,0x72(%ebx)
     ece:	65                   	gs
     ecf:	61                   	popa   
     ed0:	74 65                	je     f37 <.rodata+0xf37>
     ed2:	20 61 20             	and    %ah,0x20(%ecx)
     ed5:	63 68 69             	arpl   %bp,0x69(%eax)
     ed8:	6c                   	insb   (%dx),%es:(%edi)
     ed9:	64 20 70 72          	and    %dh,%fs:0x72(%eax)
     edd:	6f                   	outsl  %ds:(%esi),(%dx)
     ede:	63 65 73             	arpl   %sp,0x73(%ebp)
     ee1:	73 00                	jae    ee3 <.rodata+0xee3>
     ee3:	00 49 4e             	add    %cl,0x4e(%ecx)
     ee6:	49                   	dec    %ecx
     ee7:	54                   	push   %esp
     ee8:	54                   	push   %esp
     ee9:	45                   	inc    %ebp
     eea:	53                   	push   %ebx
     eeb:	54                   	push   %esp
     eec:	3a 20                	cmp    (%eax),%ah
     eee:	55                   	push   %ebp
     eef:	6e                   	outsb  %ds:(%esi),(%dx)
     ef0:	61                   	popa   
     ef1:	62 6c 65 20          	bound  %ebp,0x20(%ebp,%eiz,2)
     ef5:	74 6f                	je     f66 <.rodata+0xf66>
     ef7:	20 69 6e             	and    %ch,0x6e(%ecx)
     efa:	69 74 69 61 6c 69 7a 	imul   $0x657a696c,0x61(%ecx,%ebp,2),%esi
     f01:	65 
     f02:	20 73 65             	and    %dh,0x65(%ebx)
     f05:	6d                   	insl   (%dx),%es:(%edi)
     f06:	61                   	popa   
     f07:	70 68                	jo     f71 <.rodata+0xf71>
     f09:	6f                   	outsl  %ds:(%esi),(%dx)
     f0a:	72 65                	jb     f71 <.rodata+0xf71>
     f0c:	00 00                	add    %al,(%eax)
     f0e:	00 00                	add    %al,(%eax)
     f10:	54                   	push   %esp
     f11:	45                   	inc    %ebp
     f12:	53                   	push   %ebx
     f13:	54                   	push   %esp
     f14:	3a 20                	cmp    (%eax),%ah
     f16:	61                   	popa   
     f17:	6c                   	insb   (%dx),%es:(%edi)
     f18:	6c                   	insb   (%dx),%es:(%edi)
     f19:	20 74 68 65          	and    %dh,0x65(%eax,%ebp,2)
     f1d:	20 6f 77             	and    %ch,0x77(%edi)
     f20:	6e                   	outsb  %ds:(%esi),(%dx)
     f21:	65 64 20 73 65       	and    %dh,%fs:%gs:0x65(%ebx)
     f26:	6d                   	insl   (%dx),%es:(%edi)
     f27:	61                   	popa   
     f28:	70 68                	jo     f92 <.rodata+0xf92>
     f2a:	6f                   	outsl  %ds:(%esi),(%dx)
     f2b:	72 65                	jb     f92 <.rodata+0xf92>
     f2d:	73 20                	jae    f4f <.rodata+0xf4f>
     f2f:	73 75                	jae    fa6 <.rodata+0xfa6>
     f31:	72 76                	jb     fa9 <.rodata+0xfa9>
     f33:	69 76 65 64 20 61 66 	imul   $0x66612064,0x65(%esi),%esi
     f3a:	74 65                	je     fa1 <.rodata+0xfa1>
     f3c:	72 20                	jb     f5e <.rodata+0xf5e>
     f3e:	74 68                	je     fa8 <.rodata+0xfa8>
     f40:	65 20 6f 77          	and    %ch,%gs:0x77(%edi)
     f44:	6e                   	outsb  %ds:(%esi),(%dx)
     f45:	65                   	gs
     f46:	72 20                	jb     f68 <.rodata+0xf68>
     f48:	70 72                	jo     fbc <.rodata+0xfbc>
     f4a:	6f                   	outsl  %ds:(%esi),(%dx)
     f4b:	63 65 73             	arpl   %sp,0x73(%ebp)
     f4e:	73 20                	jae    f70 <.rodata+0xf70>
     f50:	65                   	gs
     f51:	78 69                	js     fbc <.rodata+0xfbc>
     f53:	74 00                	je     f55 <.rodata+0xf55>
     f55:	00 00                	add    %al,(%eax)
     f57:	00 54 45 53          	add    %dl,0x53(%ebp,%eax,2)
     f5b:	54                   	push   %esp
     f5c:	3a 20                	cmp    (%eax),%ah
     f5e:	73 6f                	jae    fcf <.rodata+0xfcf>
     f60:	6d                   	insl   (%dx),%es:(%edi)
     f61:	65 20 6f 66          	and    %ch,%gs:0x66(%edi)
     f65:	20 74 68 65          	and    %dh,0x65(%eax,%ebp,2)
     f69:	20 6f 77             	and    %ch,0x77(%edi)
     f6c:	6e                   	outsb  %ds:(%esi),(%dx)
     f6d:	65 64 20 73 65       	and    %dh,%fs:%gs:0x65(%ebx)
     f72:	6d                   	insl   (%dx),%es:(%edi)
     f73:	61                   	popa   
     f74:	70 68                	jo     fde <.rodata+0xfde>
     f76:	6f                   	outsl  %ds:(%esi),(%dx)
     f77:	72 65                	jb     fde <.rodata+0xfde>
     f79:	73 20                	jae    f9b <.rodata+0xf9b>
     f7b:	73 75                	jae    ff2 <.rodata+0xff2>
     f7d:	72 76                	jb     ff5 <.rodata+0xff5>
     f7f:	69 76 65 64 20 61 66 	imul   $0x66612064,0x65(%esi),%esi
     f86:	74 65                	je     fed <.rodata+0xfed>
     f88:	72 20                	jb     faa <.rodata+0xfaa>
     f8a:	74 68                	je     ff4 <.rodata+0xff4>
     f8c:	65 20 6f 77          	and    %ch,%gs:0x77(%edi)
     f90:	6e                   	outsb  %ds:(%esi),(%dx)
     f91:	65                   	gs
     f92:	72 20                	jb     fb4 <.rodata+0xfb4>
     f94:	70 72                	jo     1008 <.rodata+0x1008>
     f96:	6f                   	outsl  %ds:(%esi),(%dx)
     f97:	63 65 73             	arpl   %sp,0x73(%ebp)
     f9a:	73 20                	jae    fbc <.rodata+0xfbc>
     f9c:	65                   	gs
     f9d:	78 69                	js     1008 <.rodata+0x1008>
     f9f:	74 00                	je     fa1 <.rodata+0xfa1>
     fa1:	00 00                	add    %al,(%eax)
     fa3:	00 54 45 53          	add    %dl,0x53(%ebp,%eax,2)
     fa7:	54                   	push   %esp
     fa8:	3a 20                	cmp    (%eax),%ah
     faa:	6f                   	outsl  %ds:(%esi),(%dx)
     fab:	77 6e                	ja     101b <.rodata+0x101b>
     fad:	65 64 20 73 65       	and    %dh,%fs:%gs:0x65(%ebx)
     fb2:	6d                   	insl   (%dx),%es:(%edi)
     fb3:	61                   	popa   
     fb4:	70 68                	jo     101e <.rodata+0x101e>
     fb6:	6f                   	outsl  %ds:(%esi),(%dx)
     fb7:	72 65                	jb     101e <.rodata+0x101e>
     fb9:	73 20                	jae    fdb <.rodata+0xfdb>
     fbb:	64                   	fs
     fbc:	65                   	gs
     fbd:	73 74                	jae    1033 <.rodata+0x1033>
     fbf:	72 6f                	jb     1030 <.rodata+0x1030>
     fc1:	79 65                	jns    1028 <.rodata+0x1028>
     fc3:	64 20 61 66          	and    %ah,%fs:0x66(%ecx)
     fc7:	74 65                	je     102e <.rodata+0x102e>
     fc9:	72 20                	jb     feb <.rodata+0xfeb>
     fcb:	65                   	gs
     fcc:	78 69                	js     1037 <.rodata+0x1037>
     fce:	74 20                	je     ff0 <.rodata+0xff0>
     fd0:	6f                   	outsl  %ds:(%esi),(%dx)
     fd1:	66                   	data16
     fd2:	20 6f 74             	and    %ch,0x74(%edi)
     fd5:	68 65 72 20 70       	push   $0x70207265
     fda:	72 6f                	jb     104b <.rodata+0x104b>
     fdc:	63 65 73             	arpl   %sp,0x73(%ebp)
     fdf:	73 00                	jae    fe1 <.rodata+0xfe1>
     fe1:	00 00                	add    %al,(%eax)
     fe3:	00 20                	add    %ah,(%eax)
     fe5:	49                   	dec    %ecx
     fe6:	4e                   	dec    %esi
     fe7:	49                   	dec    %ecx
     fe8:	54                   	push   %esp
     fe9:	54                   	push   %esp
     fea:	45                   	inc    %ebp
     feb:	53                   	push   %ebx
     fec:	54                   	push   %esp
     fed:	3a 20                	cmp    (%eax),%ah
     fef:	54                   	push   %esp
     ff0:	68 69 73 20 74       	push   $0x74207369
     ff5:	65                   	gs
     ff6:	73 74                	jae    106c <.rodata+0x106c>
     ff8:	20 73 68             	and    %dh,0x68(%ebx)
     ffb:	6f                   	outsl  %ds:(%esi),(%dx)
     ffc:	75 6c                	jne    106a <.rodata+0x106a>
     ffe:	64 20 62 65          	and    %ah,%fs:0x65(%edx)
    1002:	20 65 78             	and    %ah,0x78(%ebp)
    1005:	65 63 75 74          	arpl   %si,%gs:0x74(%ebp)
    1009:	65 64 20 62 79       	and    %ah,%fs:%gs:0x79(%edx)
    100e:	20 70 72             	and    %dh,0x72(%eax)
    1011:	6f                   	outsl  %ds:(%esi),(%dx)
    1012:	63 65 73             	arpl   %sp,0x73(%ebp)
    1015:	73 20                	jae    1037 <.rodata+0x1037>
    1017:	30 00                	xor    %al,(%eax)
    1019:	00 00                	add    %al,(%eax)
    101b:	00 20                	add    %ah,(%eax)
    101d:	54                   	push   %esp
    101e:	45                   	inc    %ebp
    101f:	53                   	push   %ebx
    1020:	54                   	push   %esp
    1021:	3a 20                	cmp    (%eax),%ah
    1023:	53                   	push   %ebx
    1024:	65                   	gs
    1025:	6d                   	insl   (%dx),%es:(%edi)
    1026:	61                   	popa   
    1027:	70 68                	jo     1091 <.rodata+0x1091>
    1029:	6f                   	outsl  %ds:(%esi),(%dx)
    102a:	72 65                	jb     1091 <.rodata+0x1091>
    102c:	20 61 6c             	and    %ah,0x6c(%ecx)
    102f:	6c                   	insb   (%dx),%es:(%edi)
    1030:	6f                   	outsl  %ds:(%esi),(%dx)
    1031:	77 73                	ja     10a6 <.rodata+0x10a6>
    1033:	20 62 6c             	and    %ah,0x6c(%edx)
    1036:	6f                   	outsl  %ds:(%esi),(%dx)
    1037:	63 6b 69             	arpl   %bp,0x69(%ebx)
    103a:	6e                   	outsb  %ds:(%esi),(%dx)
    103b:	67 20 74 68          	addr16 and %dh,0x68(%si)
    103f:	65 20 70 72          	and    %dh,%gs:0x72(%eax)
    1043:	6f                   	outsl  %ds:(%esi),(%dx)
    1044:	63 65 73             	arpl   %sp,0x73(%ebp)
    1047:	73 20                	jae    1069 <.rodata+0x1069>
    1049:	30 00                	xor    %al,(%eax)
    104b:	00 20                	add    %ah,(%eax)
    104d:	54                   	push   %esp
    104e:	45                   	inc    %ebp
    104f:	53                   	push   %ebx
    1050:	54                   	push   %esp
    1051:	3a 20                	cmp    (%eax),%ah
    1053:	41                   	inc    %ecx
    1054:	6e                   	outsb  %ds:(%esi),(%dx)
    1055:	20 65 72             	and    %ah,0x72(%ebp)
    1058:	72 6f                	jb     10c9 <.rodata+0x10c9>
    105a:	72 20                	jb     107c <.rodata+0x107c>
    105c:	69 73 20 72 65 74 75 	imul   $0x75746572,0x20(%ebx),%esi
    1063:	72 6e                	jb     10d3 <.rodata+0x10d3>
    1065:	65                   	gs
    1066:	64                   	fs
    1067:	2c 20                	sub    $0x20,%al
    1069:	62 75 74             	bound  %esi,0x74(%ebp)
    106c:	20 65 72             	and    %ah,0x72(%ebp)
    106f:	72 6e                	jb     10df <.rodata+0x10df>
    1071:	6f                   	outsl  %ds:(%esi),(%dx)
    1072:	20 69 73             	and    %ch,0x73(%ecx)
    1075:	20 64 69 66          	and    %ah,0x66(%ecx,%ebp,2)
    1079:	66                   	data16
    107a:	65                   	gs
    107b:	72 65                	jb     10e2 <.rodata+0x10e2>
    107d:	6e                   	outsb  %ds:(%esi),(%dx)
    107e:	74 20                	je     10a0 <.rodata+0x10a0>
    1080:	66                   	data16
    1081:	72 6f                	jb     10f2 <.rodata+0x10f2>
    1083:	6d                   	insl   (%dx),%es:(%edi)
    1084:	20 45 50             	and    %al,0x50(%ebp)
    1087:	45                   	inc    %ebp
    1088:	52                   	push   %edx
    1089:	4d                   	dec    %ebp
    108a:	00 00                	add    %al,(%eax)
    108c:	20 54 45 53          	and    %dl,0x53(%ebp,%eax,2)
    1090:	54                   	push   %esp
    1091:	3a 20                	cmp    (%eax),%ah
    1093:	73 65                	jae    10fa <.rodata+0x10fa>
    1095:	6d                   	insl   (%dx),%es:(%edi)
    1096:	5f                   	pop    %edi
    1097:	73 69                	jae    1102 <.rodata+0x1102>
    1099:	67 6e                	addr16 outsb %ds:(%si),(%dx)
    109b:	61                   	popa   
    109c:	6c                   	insb   (%dx),%es:(%edi)
    109d:	20 77 69             	and    %dh,0x69(%edi)
    10a0:	74 68                	je     110a <.rodata+0x110a>
    10a2:	20 61 6e             	and    %ah,0x6e(%ecx)
    10a5:	20 69 6e             	and    %ch,0x6e(%ecx)
    10a8:	76 61                	jbe    110b <.rodata+0x110b>
    10aa:	6c                   	insb   (%dx),%es:(%edi)
    10ab:	69 64 20 69 64 20 64 	imul   $0x6f642064,0x69(%eax,%eiz,1),%esp
    10b2:	6f 
    10b3:	65                   	gs
    10b4:	73 6e                	jae    1124 <.rodata+0x1124>
    10b6:	27                   	daa    
    10b7:	74 20                	je     10d9 <.rodata+0x10d9>
    10b9:	72 65                	jb     1120 <.rodata+0x1120>
    10bb:	74 75                	je     1132 <.rodata+0x1132>
    10bd:	72 6e                	jb     112d <.rodata+0x112d>
    10bf:	20 61 20             	and    %ah,0x20(%ecx)
    10c2:	2d 31 2e 20 00       	sub    $0x202e31,%eax
    10c7:	00 20                	add    %ah,(%eax)
    10c9:	54                   	push   %esp
    10ca:	45                   	inc    %ebp
    10cb:	53                   	push   %ebx
    10cc:	54                   	push   %esp
    10cd:	3a 20                	cmp    (%eax),%ah
    10cf:	73 65                	jae    1136 <.rodata+0x1136>
    10d1:	6d                   	insl   (%dx),%es:(%edi)
    10d2:	5f                   	pop    %edi
    10d3:	73 69                	jae    113e <.rodata+0x113e>
    10d5:	67 6e                	addr16 outsb %ds:(%si),(%dx)
    10d7:	61                   	popa   
    10d8:	6c                   	insb   (%dx),%es:(%edi)
    10d9:	20 77 69             	and    %dh,0x69(%edi)
    10dc:	74 68                	je     1146 <.rodata+0x1146>
    10de:	20 61 6e             	and    %ah,0x6e(%ecx)
    10e1:	20 69 6e             	and    %ch,0x6e(%ecx)
    10e4:	76 61                	jbe    1147 <.rodata+0x1147>
    10e6:	6c                   	insb   (%dx),%es:(%edi)
    10e7:	69 64 20 69 64 20 72 	imul   $0x65722064,0x69(%eax,%eiz,1),%esp
    10ee:	65 
    10ef:	74 75                	je     1166 <.rodata+0x1166>
    10f1:	72 6e                	jb     1161 <.rodata+0x1161>
    10f3:	73 20                	jae    1115 <.rodata+0x1115>
    10f5:	61                   	popa   
    10f6:	20 2d 31 2c 20 62    	and    %ch,0x62202c31
    10fc:	75 74                	jne    1172 <.rodata+0x1172>
    10fe:	20 65 72             	and    %ah,0x72(%ebp)
    1101:	72 6e                	jb     1171 <.rodata+0x1171>
    1103:	6f                   	outsl  %ds:(%esi),(%dx)
    1104:	20 69 73             	and    %ch,0x73(%ecx)
    1107:	20 64 69 66          	and    %ah,0x66(%ecx,%ebp,2)
    110b:	66                   	data16
    110c:	65                   	gs
    110d:	72 65                	jb     1174 <.rodata+0x1174>
    110f:	6e                   	outsb  %ds:(%esi),(%dx)
    1110:	74 20                	je     1132 <.rodata+0x1132>
    1112:	66                   	data16
    1113:	72 6f                	jb     1184 <.rodata+0x1184>
    1115:	6d                   	insl   (%dx),%es:(%edi)
    1116:	20 45 49             	and    %al,0x49(%ebp)
    1119:	4e                   	dec    %esi
    111a:	56                   	push   %esi
    111b:	41                   	inc    %ecx
    111c:	4c                   	dec    %esp
    111d:	20 00                	and    %al,(%eax)
    111f:	00 20                	add    %ah,(%eax)
    1121:	54                   	push   %esp
    1122:	45                   	inc    %ebp
    1123:	53                   	push   %ebx
    1124:	54                   	push   %esp
    1125:	3a 20                	cmp    (%eax),%ah
    1127:	73 65                	jae    118e <.rodata+0x118e>
    1129:	6d                   	insl   (%dx),%es:(%edi)
    112a:	5f                   	pop    %edi
    112b:	73 69                	jae    1196 <.rodata+0x1196>
    112d:	67 6e                	addr16 outsb %ds:(%si),(%dx)
    112f:	61                   	popa   
    1130:	6c                   	insb   (%dx),%es:(%edi)
    1131:	20 77 69             	and    %dh,0x69(%edi)
    1134:	74 68                	je     119e <.rodata+0x119e>
    1136:	20 61 20             	and    %ah,0x20(%ecx)
    1139:	74 6f                	je     11aa <.rodata+0x11aa>
    113b:	6f                   	outsl  %ds:(%esi),(%dx)
    113c:	20 68 69             	and    %ch,0x69(%eax)
    113f:	67 68 20 69 64 20    	addr16 push $0x20646920
    1145:	64 6f                	outsl  %fs:(%esi),(%dx)
    1147:	65                   	gs
    1148:	73 6e                	jae    11b8 <.rodata+0x11b8>
    114a:	27                   	daa    
    114b:	74 20                	je     116d <.rodata+0x116d>
    114d:	72 65                	jb     11b4 <.rodata+0x11b4>
    114f:	74 75                	je     11c6 <.rodata+0x11c6>
    1151:	72 6e                	jb     11c1 <.rodata+0x11c1>
    1153:	20 61 20             	and    %ah,0x20(%ecx)
    1156:	2d 31 2e 20 00       	sub    $0x202e31,%eax
    115b:	00 20                	add    %ah,(%eax)
    115d:	54                   	push   %esp
    115e:	45                   	inc    %ebp
    115f:	53                   	push   %ebx
    1160:	54                   	push   %esp
    1161:	3a 20                	cmp    (%eax),%ah
    1163:	73 65                	jae    11ca <.rodata+0x11ca>
    1165:	6d                   	insl   (%dx),%es:(%edi)
    1166:	5f                   	pop    %edi
    1167:	73 69                	jae    11d2 <.rodata+0x11d2>
    1169:	67 6e                	addr16 outsb %ds:(%si),(%dx)
    116b:	61                   	popa   
    116c:	6c                   	insb   (%dx),%es:(%edi)
    116d:	20 77 69             	and    %dh,0x69(%edi)
    1170:	74 68                	je     11da <.rodata+0x11da>
    1172:	20 61 20             	and    %ah,0x20(%ecx)
    1175:	74 6f                	je     11e6 <.rodata+0x11e6>
    1177:	6f                   	outsl  %ds:(%esi),(%dx)
    1178:	20 68 69             	and    %ch,0x69(%eax)
    117b:	67 68 20 69 64 20    	addr16 push $0x20646920
    1181:	72 65                	jb     11e8 <.rodata+0x11e8>
    1183:	74 75                	je     11fa <.rodata+0x11fa>
    1185:	72 6e                	jb     11f5 <.rodata+0x11f5>
    1187:	73 20                	jae    11a9 <.rodata+0x11a9>
    1189:	61                   	popa   
    118a:	20 2d 31 2c 20 62    	and    %ch,0x62202c31
    1190:	75 74                	jne    1206 <.rodata+0x1206>
    1192:	20 65 72             	and    %ah,0x72(%ebp)
    1195:	72 6e                	jb     1205 <.rodata+0x1205>
    1197:	6f                   	outsl  %ds:(%esi),(%dx)
    1198:	20 69 73             	and    %ch,0x73(%ecx)
    119b:	20 64 69 66          	and    %ah,0x66(%ecx,%ebp,2)
    119f:	66                   	data16
    11a0:	65                   	gs
    11a1:	72 65                	jb     1208 <.rodata+0x1208>
    11a3:	6e                   	outsb  %ds:(%esi),(%dx)
    11a4:	74 20                	je     11c6 <.rodata+0x11c6>
    11a6:	66                   	data16
    11a7:	72 6f                	jb     1218 <.rodata+0x1218>
    11a9:	6d                   	insl   (%dx),%es:(%edi)
    11aa:	20 45 49             	and    %al,0x49(%ebp)
    11ad:	4e                   	dec    %esi
    11ae:	56                   	push   %esi
    11af:	41                   	inc    %ecx
    11b0:	4c                   	dec    %esp
    11b1:	20 00                	and    %al,(%eax)
    11b3:	00 20                	add    %ah,(%eax)
    11b5:	54                   	push   %esp
    11b6:	45                   	inc    %ebp
    11b7:	53                   	push   %ebx
    11b8:	54                   	push   %esp
    11b9:	3a 20                	cmp    (%eax),%ah
    11bb:	73 65                	jae    1222 <.rodata+0x1222>
    11bd:	6d                   	insl   (%dx),%es:(%edi)
    11be:	5f                   	pop    %edi
    11bf:	73 69                	jae    122a <.rodata+0x122a>
    11c1:	67 6e                	addr16 outsb %ds:(%si),(%dx)
    11c3:	61                   	popa   
    11c4:	6c                   	insb   (%dx),%es:(%edi)
    11c5:	20 61 6c             	and    %ah,0x6c(%ecx)
    11c8:	6c                   	insb   (%dx),%es:(%edi)
    11c9:	6f                   	outsl  %ds:(%esi),(%dx)
    11ca:	77 73                	ja     123f <.rodata+0x123f>
    11cc:	20 73 69             	and    %dh,0x69(%ebx)
    11cf:	67 6e                	addr16 outsb %ds:(%si),(%dx)
    11d1:	61                   	popa   
    11d2:	6c                   	insb   (%dx),%es:(%edi)
    11d3:	69 6e 67 20 61 6e 20 	imul   $0x206e6120,0x67(%esi),%ebp
    11da:	75 6e                	jne    124a <.rodata+0x124a>
    11dc:	69 74 69 61 6c 69 7a 	imul   $0x657a696c,0x61(%ecx,%ebp,2),%esi
    11e3:	65 
    11e4:	64 20 73 65          	and    %dh,%fs:0x65(%ebx)
    11e8:	6d                   	insl   (%dx),%es:(%edi)
    11e9:	61                   	popa   
    11ea:	70 68                	jo     1254 <.rodata+0x1254>
    11ec:	6f                   	outsl  %ds:(%esi),(%dx)
    11ed:	72 65                	jb     1254 <.rodata+0x1254>
    11ef:	00 20                	add    %ah,(%eax)
    11f1:	54                   	push   %esp
    11f2:	45                   	inc    %ebp
    11f3:	53                   	push   %ebx
    11f4:	54                   	push   %esp
    11f5:	3a 20                	cmp    (%eax),%ah
    11f7:	73 65                	jae    125e <.rodata+0x125e>
    11f9:	6d                   	insl   (%dx),%es:(%edi)
    11fa:	5f                   	pop    %edi
    11fb:	73 69                	jae    1266 <.rodata+0x1266>
    11fd:	67 6e                	addr16 outsb %ds:(%si),(%dx)
    11ff:	61                   	popa   
    1200:	6c                   	insb   (%dx),%es:(%edi)
    1201:	20 72 65             	and    %dh,0x65(%edx)
    1204:	74 75                	je     127b <.rodata+0x127b>
    1206:	72 6e                	jb     1276 <.rodata+0x1276>
    1208:	73 20                	jae    122a <.rodata+0x122a>
    120a:	61                   	popa   
    120b:	20 2d 31 2c 20 62    	and    %ch,0x62202c31
    1211:	75 74                	jne    1287 <.rodata+0x1287>
    1213:	20 65 72             	and    %ah,0x72(%ebp)
    1216:	72 6e                	jb     1286 <.rodata+0x1286>
    1218:	6f                   	outsl  %ds:(%esi),(%dx)
    1219:	20 69 73             	and    %ch,0x73(%ecx)
    121c:	20 64 69 66          	and    %ah,0x66(%ecx,%ebp,2)
    1220:	66                   	data16
    1221:	65                   	gs
    1222:	72 65                	jb     1289 <.rodata+0x1289>
    1224:	6e                   	outsb  %ds:(%esi),(%dx)
    1225:	74 20                	je     1247 <.rodata+0x1247>
    1227:	66                   	data16
    1228:	72 6f                	jb     1299 <.rodata+0x1299>
    122a:	6d                   	insl   (%dx),%es:(%edi)
    122b:	20 45 49             	and    %al,0x49(%ebp)
    122e:	4e                   	dec    %esi
    122f:	56                   	push   %esi
    1230:	41                   	inc    %ecx
    1231:	4c                   	dec    %esp
    1232:	20 00                	and    %al,(%eax)
    1234:	20 49 4e             	and    %cl,0x4e(%ecx)
    1237:	49                   	dec    %ecx
    1238:	54                   	push   %esp
    1239:	54                   	push   %esp
    123a:	45                   	inc    %ebp
    123b:	53                   	push   %ebx
    123c:	54                   	push   %esp
    123d:	3a 20                	cmp    (%eax),%ah
    123f:	55                   	push   %ebp
    1240:	6e                   	outsb  %ds:(%esi),(%dx)
    1241:	61                   	popa   
    1242:	62 6c 65 20          	bound  %ebp,0x20(%ebp,%eiz,2)
    1246:	74 6f                	je     12b7 <.rodata+0x12b7>
    1248:	20 64 65 73          	and    %ah,0x73(%ebp,%eiz,2)
    124c:	74 72                	je     12c0 <.rodata+0x12c0>
    124e:	6f                   	outsl  %ds:(%esi),(%dx)
    124f:	79 20                	jns    1271 <.rodata+0x1271>
    1251:	61                   	popa   
    1252:	20 73 65             	and    %dh,0x65(%ebx)
    1255:	6d                   	insl   (%dx),%es:(%edi)
    1256:	61                   	popa   
    1257:	70 68                	jo     12c1 <.rodata+0x12c1>
    1259:	6f                   	outsl  %ds:(%esi),(%dx)
    125a:	72 65                	jb     12c1 <.rodata+0x12c1>
    125c:	00 00                	add    %al,(%eax)
    125e:	00 00                	add    %al,(%eax)
    1260:	20 54 45 53          	and    %dl,0x53(%ebp,%eax,2)
    1264:	54                   	push   %esp
    1265:	3a 20                	cmp    (%eax),%ah
    1267:	53                   	push   %ebx
    1268:	69 67 6e 61 6c 20 61 	imul   $0x61206c61,0x6e(%edi),%esp
    126f:	20 6e 6f             	and    %ch,0x6f(%esi)
    1272:	6e                   	outsb  %ds:(%esi),(%dx)
    1273:	20 65 78             	and    %ah,0x78(%ebp)
    1276:	69 73 74 61 6e 74 20 	imul   $0x20746e61,0x74(%ebx),%esi
    127d:	73 65                	jae    12e4 <.rodata+0x12e4>
    127f:	6d                   	insl   (%dx),%es:(%edi)
    1280:	61                   	popa   
    1281:	70 68                	jo     12eb <.rodata+0x12eb>
    1283:	6f                   	outsl  %ds:(%esi),(%dx)
    1284:	72 65                	jb     12eb <.rodata+0x12eb>
    1286:	20 73 68             	and    %dh,0x68(%ebx)
    1289:	6f                   	outsl  %ds:(%esi),(%dx)
    128a:	75 6c                	jne    12f8 <.rodata+0x12f8>
    128c:	64 20 72 65          	and    %dh,%fs:0x65(%edx)
    1290:	74 75                	je     1307 <.rodata+0x1307>
    1292:	72 6e                	jb     1302 <.rodata+0x1302>
    1294:	20 61 6e             	and    %ah,0x6e(%ecx)
    1297:	20 65 72             	and    %ah,0x72(%ebp)
    129a:	72 6f                	jb     130b <.rodata+0x130b>
    129c:	72 00                	jb     129e <.rodata+0x129e>
    129e:	00 00                	add    %al,(%eax)
    12a0:	20 54 45 53          	and    %dl,0x53(%ebp,%eax,2)
    12a4:	54                   	push   %esp
    12a5:	3a 20                	cmp    (%eax),%ah
    12a7:	57                   	push   %edi
    12a8:	61                   	popa   
    12a9:	69 74 20 61 20 73 65 	imul   $0x6d657320,0x61(%eax,%eiz,1),%esi
    12b0:	6d 
    12b1:	61                   	popa   
    12b2:	70 68                	jo     131c <.rodata+0x131c>
    12b4:	6f                   	outsl  %ds:(%esi),(%dx)
    12b5:	72 65                	jb     131c <.rodata+0x131c>
    12b7:	20 73 68             	and    %dh,0x68(%ebx)
    12ba:	6f                   	outsl  %ds:(%esi),(%dx)
    12bb:	75 6c                	jne    1329 <.rodata+0x1329>
    12bd:	64 20 72 65          	and    %dh,%fs:0x65(%edx)
    12c1:	74 75                	je     1338 <.rodata+0x1338>
    12c3:	72 6e                	jb     1333 <.rodata+0x1333>
    12c5:	20 7a 65             	and    %bh,0x65(%edx)
    12c8:	72 6f                	jb     1339 <.rodata+0x1339>
    12ca:	20 69 66             	and    %ch,0x66(%ecx)
    12cd:	20 73 75             	and    %dh,0x75(%ebx)
    12d0:	63 63 65             	arpl   %sp,0x65(%ebx)
    12d3:	73 73                	jae    1348 <.rodata+0x1348>
    12d5:	00 00                	add    %al,(%eax)
    12d7:	00 20                	add    %ah,(%eax)
    12d9:	54                   	push   %esp
    12da:	45                   	inc    %ebp
    12db:	53                   	push   %ebx
    12dc:	54                   	push   %esp
    12dd:	3a 20                	cmp    (%eax),%ah
    12df:	46                   	inc    %esi
    12e0:	6f                   	outsl  %ds:(%esi),(%dx)
    12e1:	72 6b                	jb     134e <.rodata+0x134e>
    12e3:	20 73 68             	and    %dh,0x68(%ebx)
    12e6:	6f                   	outsl  %ds:(%esi),(%dx)
    12e7:	75 6c                	jne    1355 <.rodata+0x1355>
    12e9:	64 20 72 65          	and    %dh,%fs:0x65(%edx)
    12ed:	74 75                	je     1364 <.rodata+0x1364>
    12ef:	72 6e                	jb     135f <.rodata+0x135f>
    12f1:	20 74 6f 20          	and    %dh,0x20(%edi,%ebp,2)
    12f5:	74 68                	je     135f <.rodata+0x135f>
    12f7:	65 20 66 61          	and    %ah,%gs:0x61(%esi)
    12fb:	74 68                	je     1365 <.rodata+0x1365>
    12fd:	65                   	gs
    12fe:	72 20                	jb     1320 <.rodata+0x1320>
    1300:	70 72                	jo     1374 <.rodata+0x1374>
    1302:	6f                   	outsl  %ds:(%esi),(%dx)
    1303:	63 65 73             	arpl   %sp,0x73(%ebp)
    1306:	73 20                	jae    1328 <.rodata+0x1328>
    1308:	74 68                	je     1372 <.rodata+0x1372>
    130a:	65 20 63 68          	and    %ah,%gs:0x68(%ebx)
    130e:	69 6c 64 20 70 69 64 	imul   $0x20646970,0x20(%esp,%eiz,2),%ebp
    1315:	20 
    1316:	69 66 20 73 75 63 63 	imul   $0x63637573,0x20(%esi),%esp
    131d:	65                   	gs
    131e:	73 73                	jae    1393 <.rodata+0x1393>
    1320:	00 00                	add    %al,(%eax)
    1322:	00 00                	add    %al,(%eax)
    1324:	20 54 45 53          	and    %dl,0x53(%ebp,%eax,2)
    1328:	54                   	push   %esp
    1329:	3a 20                	cmp    (%eax),%ah
    132b:	46                   	inc    %esi
    132c:	6f                   	outsl  %ds:(%esi),(%dx)
    132d:	72 6b                	jb     139a <.rodata+0x139a>
    132f:	20 73 68             	and    %dh,0x68(%ebx)
    1332:	6f                   	outsl  %ds:(%esi),(%dx)
    1333:	75 6c                	jne    13a1 <.rodata+0x13a1>
    1335:	64 20 72 65          	and    %dh,%fs:0x65(%edx)
    1339:	74 75                	je     13b0 <.rodata+0x13b0>
    133b:	72 6e                	jb     13ab <.rodata+0x13ab>
    133d:	20 30                	and    %dh,(%eax)
    133f:	20 74 6f 20          	and    %dh,0x20(%edi,%ebp,2)
    1343:	74 68                	je     13ad <.rodata+0x13ad>
    1345:	65 20 63 68          	and    %ah,%gs:0x68(%ebx)
    1349:	69 6c 64 20 70 72 6f 	imul   $0x636f7270,0x20(%esp,%eiz,2),%ebp
    1350:	63 
    1351:	65                   	gs
    1352:	73 73                	jae    13c7 <.rodata+0x13c7>
    1354:	20 69 66             	and    %ch,0x66(%ecx)
    1357:	20 73 75             	and    %dh,0x75(%ebx)
    135a:	63 63 65             	arpl   %sp,0x65(%ebx)
    135d:	73 73                	jae    13d2 <.rodata+0x13d2>
    135f:	00 20                	add    %ah,(%eax)
    1361:	54                   	push   %esp
    1362:	45                   	inc    %ebp
    1363:	53                   	push   %ebx
    1364:	54                   	push   %esp
    1365:	3a 20                	cmp    (%eax),%ah
    1367:	46                   	inc    %esi
    1368:	6f                   	outsl  %ds:(%esi),(%dx)
    1369:	72 6b                	jb     13d6 <.rodata+0x13d6>
    136b:	20 73 68             	and    %dh,0x68(%ebx)
    136e:	6f                   	outsl  %ds:(%esi),(%dx)
    136f:	75 6c                	jne    13dd <.rodata+0x13dd>
    1371:	64 20 72 65          	and    %dh,%fs:0x65(%edx)
    1375:	74 75                	je     13ec <.rodata+0x13ec>
    1377:	72 6e                	jb     13e7 <.rodata+0x13e7>
    1379:	20 61 20             	and    %ah,0x20(%ecx)
    137c:	70 6f                	jo     13ed <.rodata+0x13ed>
    137e:	73 69                	jae    13e9 <.rodata+0x13e9>
    1380:	74 69                	je     13eb <.rodata+0x13eb>
    1382:	76 65                	jbe    13e9 <.rodata+0x13e9>
    1384:	20 6e 75             	and    %ch,0x75(%esi)
    1387:	6d                   	insl   (%dx),%es:(%edi)
    1388:	62 65 72             	bound  %esp,0x72(%ebp)
    138b:	20 69 66             	and    %ch,0x66(%ecx)
    138e:	20 73 75             	and    %dh,0x75(%ebx)
    1391:	63 63 65             	arpl   %sp,0x65(%ebx)
    1394:	73 73                	jae    1409 <.rodata+0x1409>
    1396:	00 00                	add    %al,(%eax)
    1398:	20 49 4e             	and    %cl,0x4e(%ecx)
    139b:	49                   	dec    %ecx
    139c:	54                   	push   %esp
    139d:	45                   	inc    %ebp
    139e:	53                   	push   %ebx
    139f:	54                   	push   %esp
    13a0:	3a 20                	cmp    (%eax),%ah
    13a2:	63 61 6e             	arpl   %sp,0x6e(%ecx)
    13a5:	20 6e 6f             	and    %ch,0x6f(%esi)
    13a8:	74 20                	je     13ca <.rodata+0x13ca>
    13aa:	73 65                	jae    1411 <.rodata+0x1411>
    13ac:	74 20                	je     13ce <.rodata+0x13ce>
    13ae:	61                   	popa   
    13af:	20 6e 65             	and    %ch,0x65(%esi)
    13b2:	77 20                	ja     13d4 <.rodata+0x13d4>
    13b4:	71 75                	jno    142b <.rodata+0x142b>
    13b6:	61                   	popa   
    13b7:	6e                   	outsb  %ds:(%esi),(%dx)
    13b8:	74 75                	je     142f <.rodata+0x142f>
    13ba:	6d                   	insl   (%dx),%es:(%edi)
    13bb:	2e 20 49 73          	and    %cl,%cs:0x73(%ecx)
    13bf:	20 74 68 65          	and    %dh,0x65(%eax,%ebp,2)
    13c3:	20 71 75             	and    %dh,0x75(%ecx)
    13c6:	61                   	popa   
    13c7:	6e                   	outsb  %ds:(%esi),(%dx)
    13c8:	74 75                	je     143f <.rodata+0x143f>
    13ca:	6d                   	insl   (%dx),%es:(%edi)
    13cb:	20 6c 69 6d          	and    %ch,0x6d(%ecx,%ebp,2)
    13cf:	69 74 65 64 20 69 6e 	imul   $0x206e6920,0x64(%ebp,%eiz,2),%esi
    13d6:	20 
    13d7:	73 6f                	jae    1448 <.rodata+0x1448>
    13d9:	6d                   	insl   (%dx),%es:(%edi)
    13da:	65 20 77 61          	and    %dh,%gs:0x61(%edi)
    13de:	79 3f                	jns    141f <.rodata+0x141f>
    13e0:	0a 00                	or     (%eax),%al
    13e2:	00 00                	add    %al,(%eax)
    13e4:	20 49 4e             	and    %cl,0x4e(%ecx)
    13e7:	49                   	dec    %ecx
    13e8:	54                   	push   %esp
    13e9:	45                   	inc    %ebp
    13ea:	53                   	push   %ebx
    13eb:	54                   	push   %esp
    13ec:	3a 20                	cmp    (%eax),%ah
    13ee:	63 61 6e             	arpl   %sp,0x6e(%ecx)
    13f1:	20 6e 6f             	and    %ch,0x6f(%esi)
    13f4:	74 20                	je     1416 <.rodata+0x1416>
    13f6:	63 72 65             	arpl   %si,0x65(%edx)
    13f9:	61                   	popa   
    13fa:	74 65                	je     1461 <.rodata+0x1461>
    13fc:	20 61 20             	and    %ah,0x20(%ecx)
    13ff:	6e                   	outsb  %ds:(%esi),(%dx)
    1400:	65                   	gs
    1401:	77 20                	ja     1423 <.rodata+0x1423>
    1403:	70 72                	jo     1477 <.rodata+0x1477>
    1405:	6f                   	outsl  %ds:(%esi),(%dx)
    1406:	63 65 73             	arpl   %sp,0x73(%ebp)
    1409:	73 2e                	jae    1439 <.rodata+0x1439>
    140b:	0a 00                	or     (%eax),%al
    140d:	00 00                	add    %al,(%eax)
    140f:	00 20                	add    %ah,(%eax)
    1411:	54                   	push   %esp
    1412:	45                   	inc    %ebp
    1413:	53                   	push   %ebx
    1414:	54                   	push   %esp
    1415:	3a 20                	cmp    (%eax),%ah
    1417:	71 75                	jno    148e <.rodata+0x148e>
    1419:	61                   	popa   
    141a:	6e                   	outsb  %ds:(%esi),(%dx)
    141b:	74 75                	je     1492 <.rodata+0x1492>
    141d:	6d                   	insl   (%dx),%es:(%edi)
    141e:	20 69 73             	and    %ch,0x73(%ecx)
    1421:	20 6e 6f             	and    %ch,0x6f(%esi)
    1424:	74 20                	je     1446 <.rodata+0x1446>
    1426:	69 6e 68 65 72 69 74 	imul   $0x74697265,0x68(%esi),%ebp
    142d:	65 64 20 62 79       	and    %ah,%fs:%gs:0x79(%edx)
    1432:	20 74 68 65          	and    %dh,0x65(%eax,%ebp,2)
    1436:	20 63 68             	and    %ah,0x68(%ebx)
    1439:	69 6c 64 20 70 72 6f 	imul   $0x636f7270,0x20(%esp,%eiz,2),%ebp
    1440:	63 
    1441:	65                   	gs
    1442:	73 73                	jae    14b7 <.rodata+0x14b7>
    1444:	20 61 74             	and    %ah,0x74(%ecx)
    1447:	20 66 6f             	and    %ah,0x6f(%esi)
    144a:	72 6b                	jb     14b7 <.rodata+0x14b7>
    144c:	20 00                	and    %al,(%eax)
    144e:	00 00                	add    %al,(%eax)
    1450:	20 54 45 53          	and    %dl,0x53(%ebp,%eax,2)
    1454:	54                   	push   %esp
    1455:	3a 20                	cmp    (%eax),%ah
    1457:	73 74                	jae    14cd <.rodata+0x14cd>
    1459:	61                   	popa   
    145a:	74 73                	je     14cf <.rodata+0x14cf>
    145c:	20 6f 66             	and    %ch,0x66(%edi)
    145f:	20 74 68 65          	and    %dh,0x65(%eax,%ebp,2)
    1463:	20 63 68             	and    %ah,0x68(%ebx)
    1466:	69 6c 64 20 70 72 6f 	imul   $0x636f7270,0x20(%esp,%eiz,2),%ebp
    146d:	63 
    146e:	65                   	gs
    146f:	73 73                	jae    14e4 <.rodata+0x14e4>
    1471:	20 61 72             	and    %ah,0x72(%ecx)
    1474:	65 20 6e 6f          	and    %ch,%gs:0x6f(%esi)
    1478:	74 20                	je     149a <.rodata+0x149a>
    147a:	72 65                	jb     14e1 <.rodata+0x14e1>
    147c:	73 65                	jae    14e3 <.rodata+0x14e3>
    147e:	74 20                	je     14a0 <.rodata+0x14a0>
    1480:	61                   	popa   
    1481:	74 20                	je     14a3 <.rodata+0x14a3>
    1483:	66 6f                	outsw  %ds:(%esi),(%dx)
    1485:	72 6b                	jb     14f2 <.rodata+0x14f2>
    1487:	20 00                	and    %al,(%eax)
    1489:	00 00                	add    %al,(%eax)
    148b:	00 20                	add    %ah,(%eax)
    148d:	49                   	dec    %ecx
    148e:	4e                   	dec    %esi
    148f:	49                   	dec    %ecx
    1490:	54                   	push   %esp
    1491:	54                   	push   %esp
    1492:	45                   	inc    %ebp
    1493:	53                   	push   %ebx
    1494:	54                   	push   %esp
    1495:	3a 20                	cmp    (%eax),%ah
    1497:	67                   	addr16
    1498:	65                   	gs
    1499:	74 5f                	je     14fa <.rodata+0x14fa>
    149b:	73 74                	jae    1511 <.rodata+0x1511>
    149d:	61                   	popa   
    149e:	74 73                	je     1513 <.rodata+0x1513>
    14a0:	20 72 65             	and    %dh,0x65(%edx)
    14a3:	74 75                	je     151a <.rodata+0x151a>
    14a5:	72 6e                	jb     1515 <.rodata+0x1515>
    14a7:	73 20                	jae    14c9 <.rodata+0x14c9>
    14a9:	61                   	popa   
    14aa:	20 6e 65             	and    %ch,0x65(%esi)
    14ad:	67 61                	addr16 popa 
    14af:	74 69                	je     151a <.rodata+0x151a>
    14b1:	76 65                	jbe    1518 <.rodata+0x1518>
    14b3:	20 76 61             	and    %dh,0x61(%esi)
    14b6:	6c                   	insb   (%dx),%es:(%edi)
    14b7:	75 65                	jne    151e <.rodata+0x151e>
    14b9:	20 00                	and    %al,(%eax)
    14bb:	00 20                	add    %ah,(%eax)
    14bd:	49                   	dec    %ecx
    14be:	4e                   	dec    %esi
    14bf:	49                   	dec    %ecx
    14c0:	54                   	push   %esp
    14c1:	54                   	push   %esp
    14c2:	45                   	inc    %ebp
    14c3:	53                   	push   %ebx
    14c4:	54                   	push   %esp
    14c5:	3a 20                	cmp    (%eax),%ah
    14c7:	66 6f                	outsw  %ds:(%esi),(%dx)
    14c9:	72 6b                	jb     1536 <.rodata+0x1536>
    14cb:	20 72 65             	and    %dh,0x65(%edx)
    14ce:	74 75                	je     1545 <.rodata+0x1545>
    14d0:	72 6e                	jb     1540 <.rodata+0x1540>
    14d2:	73 20                	jae    14f4 <.rodata+0x14f4>
    14d4:	61                   	popa   
    14d5:	20 6e 65             	and    %ch,0x65(%esi)
    14d8:	67 61                	addr16 popa 
    14da:	74 69                	je     1545 <.rodata+0x1545>
    14dc:	76 65                	jbe    1543 <.rodata+0x1543>
    14de:	20 76 61             	and    %dh,0x61(%esi)
    14e1:	6c                   	insb   (%dx),%es:(%edi)
    14e2:	75 65                	jne    1549 <.rodata+0x1549>
    14e4:	20 00                	and    %al,(%eax)
    14e6:	00 00                	add    %al,(%eax)
    14e8:	20 54 45 53          	and    %dl,0x53(%ebp,%eax,2)
    14ec:	54                   	push   %esp
    14ed:	3a 20                	cmp    (%eax),%ah
    14ef:	73 65                	jae    1556 <.rodata+0x1556>
    14f1:	6d                   	insl   (%dx),%es:(%edi)
    14f2:	5f                   	pop    %edi
    14f3:	77 61                	ja     1556 <.rodata+0x1556>
    14f5:	69 74 20 77 69 74 68 	imul   $0x20687469,0x77(%eax,%eiz,1),%esi
    14fc:	20 
    14fd:	6e                   	outsb  %ds:(%esi),(%dx)
    14fe:	65                   	gs
    14ff:	67 61                	addr16 popa 
    1501:	74 69                	je     156c <.rodata+0x156c>
    1503:	76 65                	jbe    156a <.rodata+0x156a>
    1505:	20 76 61             	and    %dh,0x61(%esi)
    1508:	6c                   	insb   (%dx),%es:(%edi)
    1509:	75 65                	jne    1570 <.rodata+0x1570>
    150b:	20 64 6f 65          	and    %ah,0x65(%edi,%ebp,2)
    150f:	73 6e                	jae    157f <.rodata+0x157f>
    1511:	27                   	daa    
    1512:	74 20                	je     1534 <.rodata+0x1534>
    1514:	72 65                	jb     157b <.rodata+0x157b>
    1516:	74 75                	je     158d <.rodata+0x158d>
    1518:	72 6e                	jb     1588 <.rodata+0x1588>
    151a:	20 2d 31 20 00 00    	and    %ch,0x2031
    1520:	20 54 45 53          	and    %dl,0x53(%ebp,%eax,2)
    1524:	54                   	push   %esp
    1525:	3a 20                	cmp    (%eax),%ah
    1527:	61                   	popa   
    1528:	20 2d 31 20 76 61    	and    %ch,0x61762031
    152e:	6c                   	insb   (%dx),%es:(%edi)
    152f:	75 65                	jne    1596 <.rodata+0x1596>
    1531:	20 69 73             	and    %ch,0x73(%ecx)
    1534:	20 72 65             	and    %dh,0x65(%edx)
    1537:	74 75                	je     15ae <.rodata+0x15ae>
    1539:	72 6e                	jb     15a9 <.rodata+0x15a9>
    153b:	65 64 20 62 75       	and    %ah,%fs:%gs:0x75(%edx)
    1540:	74 20                	je     1562 <.rodata+0x1562>
    1542:	65                   	gs
    1543:	72 72                	jb     15b7 <.rodata+0x15b7>
    1545:	6e                   	outsb  %ds:(%esi),(%dx)
    1546:	6f                   	outsl  %ds:(%esi),(%dx)
    1547:	20 69 73             	and    %ch,0x73(%ecx)
    154a:	20 64 69 66          	and    %ah,0x66(%ecx,%ebp,2)
    154e:	66                   	data16
    154f:	65                   	gs
    1550:	72 65                	jb     15b7 <.rodata+0x15b7>
    1552:	6e                   	outsb  %ds:(%esi),(%dx)
    1553:	74 20                	je     1575 <.rodata+0x1575>
    1555:	66                   	data16
    1556:	72 6f                	jb     15c7 <.rodata+0x15c7>
    1558:	6d                   	insl   (%dx),%es:(%edi)
    1559:	20 45 49             	and    %al,0x49(%ebp)
    155c:	4e                   	dec    %esi
    155d:	56                   	push   %esi
    155e:	41                   	inc    %ecx
    155f:	4c                   	dec    %esp
    1560:	20 00                	and    %al,(%eax)
    1562:	00 00                	add    %al,(%eax)
    1564:	20 54 45 53          	and    %dl,0x53(%ebp,%eax,2)
    1568:	54                   	push   %esp
    1569:	3a 20                	cmp    (%eax),%ah
    156b:	73 65                	jae    15d2 <.rodata+0x15d2>
    156d:	6d                   	insl   (%dx),%es:(%edi)
    156e:	5f                   	pop    %edi
    156f:	77 61                	ja     15d2 <.rodata+0x15d2>
    1571:	69 74 20 77 69 74 68 	imul   $0x20687469,0x77(%eax,%eiz,1),%esi
    1578:	20 
    1579:	61                   	popa   
    157a:	20 74 6f 6f          	and    %dh,0x6f(%edi,%ebp,2)
    157e:	20 68 69             	and    %ch,0x69(%eax)
    1581:	67 68 20 76 61 6c    	addr16 push $0x6c617620
    1587:	75 65                	jne    15ee <.rodata+0x15ee>
    1589:	20 64 6f 65          	and    %ah,0x65(%edi,%ebp,2)
    158d:	73 6e                	jae    15fd <.rodata+0x15fd>
    158f:	27                   	daa    
    1590:	74 20                	je     15b2 <.rodata+0x15b2>
    1592:	72 65                	jb     15f9 <.rodata+0x15f9>
    1594:	74 75                	je     160b <.rodata+0x160b>
    1596:	72 6e                	jb     1606 <.rodata+0x1606>
    1598:	20 2d 31 20 00 00    	and    %ch,0x2031
    159e:	00 00                	add    %al,(%eax)
    15a0:	20 54 45 53          	and    %dl,0x53(%ebp,%eax,2)
    15a4:	54                   	push   %esp
    15a5:	3a 20                	cmp    (%eax),%ah
    15a7:	73 65                	jae    160e <.rodata+0x160e>
    15a9:	6d                   	insl   (%dx),%es:(%edi)
    15aa:	5f                   	pop    %edi
    15ab:	77 61                	ja     160e <.rodata+0x160e>
    15ad:	69 74 20 61 6c 6c 6f 	imul   $0x776f6c6c,0x61(%eax,%eiz,1),%esi
    15b4:	77 
    15b5:	73 20                	jae    15d7 <.rodata+0x15d7>
    15b7:	77 61                	ja     161a <.rodata+0x161a>
    15b9:	69 74 69 6e 67 20 6f 	imul   $0x6e6f2067,0x6e(%ecx,%ebp,2),%esi
    15c0:	6e 
    15c1:	20 61 6e             	and    %ah,0x6e(%ecx)
    15c4:	20 75 6e             	and    %dh,0x6e(%ebp)
    15c7:	69 74 69 61 6c 69 7a 	imul   $0x657a696c,0x61(%ecx,%ebp,2),%esi
    15ce:	65 
    15cf:	64 20 73 65          	and    %dh,%fs:0x65(%ebx)
    15d3:	6d                   	insl   (%dx),%es:(%edi)
    15d4:	61                   	popa   
    15d5:	70 68                	jo     163f <.rodata+0x163f>
    15d7:	6f                   	outsl  %ds:(%esi),(%dx)
    15d8:	72 65                	jb     163f <.rodata+0x163f>
    15da:	00 00                	add    %al,(%eax)
    15dc:	20 54 45 53          	and    %dl,0x53(%ebp,%eax,2)
    15e0:	54                   	push   %esp
    15e1:	3a 20                	cmp    (%eax),%ah
    15e3:	73 65                	jae    164a <.rodata+0x164a>
    15e5:	6d                   	insl   (%dx),%es:(%edi)
    15e6:	5f                   	pop    %edi
    15e7:	77 61                	ja     164a <.rodata+0x164a>
    15e9:	69 74 20 72 65 74 75 	imul   $0x72757465,0x72(%eax,%eiz,1),%esi
    15f0:	72 
    15f1:	6e                   	outsb  %ds:(%esi),(%dx)
    15f2:	73 20                	jae    1614 <.rodata+0x1614>
    15f4:	61                   	popa   
    15f5:	20 2d 31 2c 20 62    	and    %ch,0x62202c31
    15fb:	75 74                	jne    1671 <.rodata+0x1671>
    15fd:	20 65 72             	and    %ah,0x72(%ebp)
    1600:	72 6e                	jb     1670 <.rodata+0x1670>
    1602:	6f                   	outsl  %ds:(%esi),(%dx)
    1603:	20 69 73             	and    %ch,0x73(%ecx)
    1606:	20 64 69 66          	and    %ah,0x66(%ecx,%ebp,2)
    160a:	66                   	data16
    160b:	65                   	gs
    160c:	72 65                	jb     1673 <.rodata+0x1673>
    160e:	6e                   	outsb  %ds:(%esi),(%dx)
    160f:	74 20                	je     1631 <.rodata+0x1631>
    1611:	66                   	data16
    1612:	72 6f                	jb     1683 <.rodata+0x1683>
    1614:	6d                   	insl   (%dx),%es:(%edi)
    1615:	20 45 49             	and    %al,0x49(%ebp)
    1618:	4e                   	dec    %esi
    1619:	56                   	push   %esi
    161a:	41                   	inc    %ecx
    161b:	4c                   	dec    %esp
    161c:	20 00                	and    %al,(%eax)
    161e:	00 00                	add    %al,(%eax)
    1620:	20 49 4e             	and    %cl,0x4e(%ecx)
    1623:	49                   	dec    %ecx
    1624:	54                   	push   %esp
    1625:	54                   	push   %esp
    1626:	45                   	inc    %ebp
    1627:	53                   	push   %ebx
    1628:	54                   	push   %esp
    1629:	3a 20                	cmp    (%eax),%ah
    162b:	55                   	push   %ebp
    162c:	6e                   	outsb  %ds:(%esi),(%dx)
    162d:	61                   	popa   
    162e:	62 6c 65 20          	bound  %ebp,0x20(%ebp,%eiz,2)
    1632:	74 6f                	je     16a3 <.rodata+0x16a3>
    1634:	20 69 6e             	and    %ch,0x6e(%ecx)
    1637:	69 74 69 61 6c 69 7a 	imul   $0x657a696c,0x61(%ecx,%ebp,2),%esi
    163e:	65 
    163f:	20 61 20             	and    %ah,0x20(%ecx)
    1642:	73 65                	jae    16a9 <.rodata+0x16a9>
    1644:	6d                   	insl   (%dx),%es:(%edi)
    1645:	61                   	popa   
    1646:	70 68                	jo     16b0 <.rodata+0x16b0>
    1648:	6f                   	outsl  %ds:(%esi),(%dx)
    1649:	72 65                	jb     16b0 <.rodata+0x16b0>
    164b:	20 00                	and    %al,(%eax)
    164d:	00 00                	add    %al,(%eax)
    164f:	00 20                	add    %ah,(%eax)
    1651:	49                   	dec    %ecx
    1652:	4e                   	dec    %esi
    1653:	49                   	dec    %ecx
    1654:	54                   	push   %esp
    1655:	54                   	push   %esp
    1656:	45                   	inc    %ebp
    1657:	53                   	push   %ebx
    1658:	54                   	push   %esp
    1659:	3a 20                	cmp    (%eax),%ah
    165b:	41                   	inc    %ecx
    165c:	20 63 68             	and    %ah,0x68(%ebx)
    165f:	69 6c 64 20 63 6f 75 	imul   $0x6c756f63,0x20(%esp,%eiz,2),%ebp
    1666:	6c 
    1667:	64 20 6e 6f          	and    %ch,%fs:0x6f(%esi)
    166b:	74 20                	je     168d <.rodata+0x168d>
    166d:	62 65 20             	bound  %esp,0x20(%ebp)
    1670:	63 72 65             	arpl   %si,0x65(%edx)
    1673:	61                   	popa   
    1674:	74 65                	je     16db <.rodata+0x16db>
    1676:	64 00 20             	add    %ah,%fs:(%eax)
    1679:	54                   	push   %esp
    167a:	45                   	inc    %ebp
    167b:	53                   	push   %ebx
    167c:	54                   	push   %esp
    167d:	3a 20                	cmp    (%eax),%ah
    167f:	75 6e                	jne    16ef <.rodata+0x16ef>
    1681:	61                   	popa   
    1682:	62 6c 65 20          	bound  %ebp,0x20(%ebp,%eiz,2)
    1686:	74 6f                	je     16f7 <.rodata+0x16f7>
    1688:	20 64 65 73          	and    %ah,0x73(%ebp,%eiz,2)
    168c:	74 72                	je     1700 <.rodata+0x1700>
    168e:	6f                   	outsl  %ds:(%esi),(%dx)
    168f:	79 20                	jns    16b1 <.rodata+0x16b1>
    1691:	61                   	popa   
    1692:	20 62 75             	and    %ah,0x75(%edx)
    1695:	73 79                	jae    1710 <.rodata+0x1710>
    1697:	20 73 65             	and    %dh,0x65(%ebx)
    169a:	6d                   	insl   (%dx),%es:(%edi)
    169b:	61                   	popa   
    169c:	70 68                	jo     1706 <.rodata+0x1706>
    169e:	6f                   	outsl  %ds:(%esi),(%dx)
    169f:	72 65                	jb     1706 <.rodata+0x1706>
    16a1:	00 00                	add    %al,(%eax)
    16a3:	00 20                	add    %ah,(%eax)
    16a5:	49                   	dec    %ecx
    16a6:	4e                   	dec    %esi
    16a7:	49                   	dec    %ecx
    16a8:	54                   	push   %esp
    16a9:	54                   	push   %esp
    16aa:	45                   	inc    %ebp
    16ab:	53                   	push   %ebx
    16ac:	54                   	push   %esp
    16ad:	3a 20                	cmp    (%eax),%ah
    16af:	55                   	push   %ebp
    16b0:	6e                   	outsb  %ds:(%esi),(%dx)
    16b1:	61                   	popa   
    16b2:	62 6c 65 20          	bound  %ebp,0x20(%ebp,%eiz,2)
    16b6:	74 6f                	je     1727 <.rodata+0x1727>
    16b8:	20 63 72             	and    %ah,0x72(%ebx)
    16bb:	65                   	gs
    16bc:	61                   	popa   
    16bd:	74 65                	je     1724 <.rodata+0x1724>
    16bf:	20 61 20             	and    %ah,0x20(%ecx)
    16c2:	63 68 69             	arpl   %bp,0x69(%eax)
    16c5:	6c                   	insb   (%dx),%es:(%edi)
    16c6:	64 20 70 72          	and    %dh,%fs:0x72(%eax)
    16ca:	6f                   	outsl  %ds:(%esi),(%dx)
    16cb:	63 65 73             	arpl   %sp,0x73(%ebp)
    16ce:	73 20                	jae    16f0 <.rodata+0x16f0>
    16d0:	00 00                	add    %al,(%eax)
    16d2:	00 00                	add    %al,(%eax)
    16d4:	20 54 45 53          	and    %dl,0x53(%ebp,%eax,2)
    16d8:	54                   	push   %esp
    16d9:	3a 20                	cmp    (%eax),%ah
    16db:	73 65                	jae    1742 <.rodata+0x1742>
    16dd:	6d                   	insl   (%dx),%es:(%edi)
    16de:	5f                   	pop    %edi
    16df:	64                   	fs
    16e0:	65                   	gs
    16e1:	73 74                	jae    1757 <.rodata+0x1757>
    16e3:	72 6f                	jb     1754 <.rodata+0x1754>
    16e5:	79 20                	jns    1707 <.rodata+0x1707>
    16e7:	6f                   	outsl  %ds:(%esi),(%dx)
    16e8:	6e                   	outsb  %ds:(%esi),(%dx)
    16e9:	20 61 20             	and    %ah,0x20(%ecx)
    16ec:	62 75 73             	bound  %esi,0x73(%ebp)
    16ef:	79 20                	jns    1711 <.rodata+0x1711>
    16f1:	73 65                	jae    1758 <.rodata+0x1758>
    16f3:	6d                   	insl   (%dx),%es:(%edi)
    16f4:	61                   	popa   
    16f5:	70 68                	jo     175f <.rodata+0x175f>
    16f7:	6f                   	outsl  %ds:(%esi),(%dx)
    16f8:	72 65                	jb     175f <.rodata+0x175f>
    16fa:	20 73 68             	and    %dh,0x68(%ebx)
    16fd:	6f                   	outsl  %ds:(%esi),(%dx)
    16fe:	75 6c                	jne    176c <.rodata+0x176c>
    1700:	64 20 75 6e          	and    %dh,%fs:0x6e(%ebp)
    1704:	62 6c 6f 63          	bound  %ebp,0x63(%edi,%ebp,2)
    1708:	6b 20 74             	imul   $0x74,(%eax),%esp
    170b:	68 65 20 70 72       	push   $0x72702065
    1710:	6f                   	outsl  %ds:(%esi),(%dx)
    1711:	63 65 73             	arpl   %sp,0x73(%ebp)
    1714:	73 65                	jae    177b <.rodata+0x177b>
    1716:	73 20                	jae    1738 <.rodata+0x1738>
    1718:	61                   	popa   
    1719:	6e                   	outsb  %ds:(%esi),(%dx)
    171a:	64 20 74 68 65       	and    %dh,%fs:0x65(%eax,%ebp,2)
    171f:	20 73 65             	and    %dh,0x65(%ebx)
    1722:	6d                   	insl   (%dx),%es:(%edi)
    1723:	5f                   	pop    %edi
    1724:	77 61                	ja     1787 <.rodata+0x1787>
    1726:	69 74 20 73 68 6f 75 	imul   $0x6c756f68,0x73(%eax,%eiz,1),%esi
    172d:	6c 
    172e:	64 20 72 65          	and    %dh,%fs:0x65(%edx)
    1732:	74 75                	je     17a9 <.rodata+0x17a9>
    1734:	72 6e                	jb     17a4 <.rodata+0x17a4>
    1736:	20 65 72             	and    %ah,0x72(%ebp)
    1739:	72 6f                	jb     17aa <.rodata+0x17aa>
    173b:	72 00                	jb     173d <.rodata+0x173d>
    173d:	00 00                	add    %al,(%eax)
    173f:	00 20                	add    %ah,(%eax)
    1741:	54                   	push   %esp
    1742:	45                   	inc    %ebp
    1743:	53                   	push   %ebx
    1744:	54                   	push   %esp
    1745:	3a 20                	cmp    (%eax),%ah
    1747:	43                   	inc    %ebx
    1748:	61                   	popa   
    1749:	6e                   	outsb  %ds:(%esi),(%dx)
    174a:	6e                   	outsb  %ds:(%esi),(%dx)
    174b:	6f                   	outsl  %ds:(%esi),(%dx)
    174c:	74 20                	je     176e <.rodata+0x176e>
    174e:	75 6e                	jne    17be <.rodata+0x17be>
    1750:	6c                   	insb   (%dx),%es:(%edi)
    1751:	6f                   	outsl  %ds:(%esi),(%dx)
    1752:	63 6b 20             	arpl   %bp,0x20(%ebx)
    1755:	6d                   	insl   (%dx),%es:(%edi)
    1756:	61                   	popa   
    1757:	6e                   	outsb  %ds:(%esi),(%dx)
    1758:	79 20                	jns    177a <.rodata+0x177a>
    175a:	70 72                	jo     17ce <.rodata+0x17ce>
    175c:	6f                   	outsl  %ds:(%esi),(%dx)
    175d:	63 65 73             	arpl   %sp,0x73(%ebp)
    1760:	73 65                	jae    17c7 <.rodata+0x17c7>
    1762:	73 20                	jae    1784 <.rodata+0x1784>
    1764:	62 6c 6f 63          	bound  %ebp,0x63(%edi,%ebp,2)
    1768:	6b 65 64 20          	imul   $0x20,0x64(%ebp),%esp
    176c:	62 79 20             	bound  %edi,0x20(%ecx)
    176f:	74 68                	je     17d9 <.rodata+0x17d9>
    1771:	65 20 73 61          	and    %dh,%gs:0x61(%ebx)
    1775:	6d                   	insl   (%dx),%es:(%edi)
    1776:	65 20 73 65          	and    %dh,%gs:0x65(%ebx)
    177a:	6d                   	insl   (%dx),%es:(%edi)
    177b:	61                   	popa   
    177c:	70 68                	jo     17e6 <.rodata+0x17e6>
    177e:	6f                   	outsl  %ds:(%esi),(%dx)
    177f:	72 65                	jb     17e6 <.rodata+0x17e6>
    1781:	00 00                	add    %al,(%eax)
    1783:	00 20                	add    %ah,(%eax)
    1785:	54                   	push   %esp
    1786:	45                   	inc    %ebp
    1787:	53                   	push   %ebx
    1788:	54                   	push   %esp
    1789:	3a 20                	cmp    (%eax),%ah
    178b:	67                   	addr16
    178c:	65                   	gs
    178d:	74 5f                	je     17ee <.rodata+0x17ee>
    178f:	73 74                	jae    1805 <.rodata+0x1805>
    1791:	61                   	popa   
    1792:	74 73                	je     1807 <.rodata+0x1807>
    1794:	20 64 69 64          	and    %ah,0x64(%ecx,%ebp,2)
    1798:	6e                   	outsb  %ds:(%esi),(%dx)
    1799:	27                   	daa    
    179a:	74 20                	je     17bc <.rodata+0x17bc>
    179c:	66 69 6e 64 20 61    	imul   $0x6120,0x64(%esi),%bp
    17a2:	20 72 65             	and    %dh,0x65(%edx)
    17a5:	61                   	popa   
    17a6:	64                   	fs
    17a7:	79 20                	jns    17c9 <.rodata+0x17c9>
    17a9:	70 72                	jo     181d <.rodata+0x181d>
    17ab:	6f                   	outsl  %ds:(%esi),(%dx)
    17ac:	63 65 73             	arpl   %sp,0x73(%ebp)
    17af:	73 20                	jae    17d1 <.rodata+0x17d1>
    17b1:	00 00                	add    %al,(%eax)
    17b3:	00 20                	add    %ah,(%eax)
    17b5:	54                   	push   %esp
    17b6:	45                   	inc    %ebp
    17b7:	53                   	push   %ebx
    17b8:	54                   	push   %esp
    17b9:	3a 20                	cmp    (%eax),%ah
    17bb:	73 74                	jae    1831 <.rodata+0x1831>
    17bd:	61                   	popa   
    17be:	74 73                	je     1833 <.rodata+0x1833>
    17c0:	20 61 72             	and    %ah,0x72(%ecx)
    17c3:	65 20 6e 6f          	and    %ch,%gs:0x6f(%esi)
    17c7:	74 20                	je     17e9 <.rodata+0x17e9>
    17c9:	72 65                	jb     1830 <.rodata+0x1830>
    17cb:	73 65                	jae    1832 <.rodata+0x1832>
    17cd:	74 20                	je     17ef <.rodata+0x17ef>
    17cf:	61                   	popa   
    17d0:	74 20                	je     17f2 <.rodata+0x17f2>
    17d2:	66 6f                	outsw  %ds:(%esi),(%dx)
    17d4:	72 6b                	jb     1841 <.rodata+0x1841>
    17d6:	20 00                	and    %al,(%eax)
    17d8:	20 54 45 53          	and    %dl,0x53(%ebp,%eax,2)
    17dc:	54                   	push   %esp
    17dd:	3a 20                	cmp    (%eax),%ah
    17df:	67                   	addr16
    17e0:	65                   	gs
    17e1:	74 5f                	je     1842 <.rodata+0x1842>
    17e3:	73 74                	jae    1859 <.rodata+0x1859>
    17e5:	61                   	popa   
    17e6:	74 73                	je     185b <.rodata+0x185b>
    17e8:	20 72 65             	and    %dh,0x65(%edx)
    17eb:	74 75                	je     1862 <.rodata+0x1862>
    17ed:	72 6e                	jb     185d <.rodata+0x185d>
    17ef:	73 20                	jae    1811 <.rodata+0x1811>
    17f1:	74 68                	je     185b <.rodata+0x185b>
    17f3:	65 20 73 74          	and    %dh,%gs:0x74(%ebx)
    17f7:	61                   	popa   
    17f8:	74 73                	je     186d <.rodata+0x186d>
    17fa:	20 66 6f             	and    %ah,0x6f(%esi)
    17fd:	72 20                	jb     181f <.rodata+0x181f>
    17ff:	61                   	popa   
    1800:	20 64 65 61          	and    %ah,0x61(%ebp,%eiz,2)
    1804:	64 20 70 72          	and    %dh,%fs:0x72(%eax)
    1808:	6f                   	outsl  %ds:(%esi),(%dx)
    1809:	63 65 73             	arpl   %sp,0x73(%ebp)
    180c:	73 20                	jae    182e <.rodata+0x182e>
    180e:	00 00                	add    %al,(%eax)
    1810:	20 54 45 53          	and    %dl,0x53(%ebp,%eax,2)
    1814:	54                   	push   %esp
    1815:	3a 20                	cmp    (%eax),%ah
    1817:	67                   	addr16
    1818:	65                   	gs
    1819:	74 5f                	je     187a <.rodata+0x187a>
    181b:	73 74                	jae    1891 <.rodata+0x1891>
    181d:	61                   	popa   
    181e:	74 73                	je     1893 <.rodata+0x1893>
    1820:	20 72 65             	and    %dh,0x65(%edx)
    1823:	74 75                	je     189a <.rodata+0x189a>
    1825:	72 6e                	jb     1895 <.rodata+0x1895>
    1827:	73 20                	jae    1849 <.rodata+0x1849>
    1829:	61                   	popa   
    182a:	20 6e 65             	and    %ch,0x65(%esi)
    182d:	67 61                	addr16 popa 
    182f:	74 69                	je     189a <.rodata+0x189a>
    1831:	76 65                	jbe    1898 <.rodata+0x1898>
    1833:	20 76 61             	and    %dh,0x61(%esi)
    1836:	6c                   	insb   (%dx),%es:(%edi)
    1837:	75 65                	jne    189e <.rodata+0x189e>
    1839:	2c 20                	sub    $0x20,%al
    183b:	62 75 74             	bound  %esi,0x74(%ebp)
    183e:	20 65 72             	and    %ah,0x72(%ebp)
    1841:	72 6e                	jb     18b1 <.rodata+0x18b1>
    1843:	6f                   	outsl  %ds:(%esi),(%dx)
    1844:	20 69 73             	and    %ch,0x73(%ecx)
    1847:	20 64 69 66          	and    %ah,0x66(%ecx,%ebp,2)
    184b:	66                   	data16
    184c:	65                   	gs
    184d:	72 65                	jb     18b4 <.rodata+0x18b4>
    184f:	6e                   	outsb  %ds:(%esi),(%dx)
    1850:	74 20                	je     1872 <.rodata+0x1872>
    1852:	66                   	data16
    1853:	72 6f                	jb     18c4 <.rodata+0x18c4>
    1855:	6d                   	insl   (%dx),%es:(%edi)
    1856:	20 45 53             	and    %al,0x53(%ebp)
    1859:	52                   	push   %edx
    185a:	43                   	inc    %ebx
    185b:	48                   	dec    %eax
    185c:	20 00                	and    %al,(%eax)
    185e:	00 00                	add    %al,(%eax)
    1860:	20 54 45 53          	and    %dl,0x53(%ebp,%eax,2)
    1864:	54                   	push   %esp
    1865:	3a 20                	cmp    (%eax),%ah
    1867:	67                   	addr16
    1868:	65                   	gs
    1869:	74 5f                	je     18ca <.rodata+0x18ca>
    186b:	73 74                	jae    18e1 <.rodata+0x18e1>
    186d:	61                   	popa   
    186e:	74 73                	je     18e3 <.rodata+0x18e3>
    1870:	20 6f 66             	and    %ch,0x66(%edi)
    1873:	20 61 20             	and    %ah,0x20(%ecx)
    1876:	62 6c 6f 63          	bound  %ebp,0x63(%edi,%ebp,2)
    187a:	6b 65 64 20          	imul   $0x20,0x64(%ebp),%esp
    187e:	70 72                	jo     18f2 <.rodata+0x18f2>
    1880:	6f                   	outsl  %ds:(%esi),(%dx)
    1881:	63 65 73             	arpl   %sp,0x73(%ebp)
    1884:	73 20                	jae    18a6 <.rodata+0x18a6>
    1886:	72 65                	jb     18ed <.rodata+0x18ed>
    1888:	74 75                	je     18ff <.rodata+0x18ff>
    188a:	72 6e                	jb     18fa <.rodata+0x18fa>
    188c:	73 20                	jae    18ae <.rodata+0x18ae>
    188e:	61                   	popa   
    188f:	20 6e 65             	and    %ch,0x65(%esi)
    1892:	67 61                	addr16 popa 
    1894:	74 69                	je     18ff <.rodata+0x18ff>
    1896:	76 65                	jbe    18fd <.rodata+0x18fd>
    1898:	20 76 61             	and    %dh,0x61(%esi)
    189b:	6c                   	insb   (%dx),%es:(%edi)
    189c:	75 65                	jne    1903 <.rodata+0x1903>
    189e:	20 00                	and    %al,(%eax)
    18a0:	20 49 4e             	and    %cl,0x4e(%ecx)
    18a3:	49                   	dec    %ecx
    18a4:	54                   	push   %esp
    18a5:	54                   	push   %esp
    18a6:	45                   	inc    %ebp
    18a7:	53                   	push   %ebx
    18a8:	54                   	push   %esp
    18a9:	3a 20                	cmp    (%eax),%ah
    18ab:	75 6e                	jne    191b <.rodata+0x191b>
    18ad:	61                   	popa   
    18ae:	62 6c 65 20          	bound  %ebp,0x20(%ebp,%eiz,2)
    18b2:	74 6f                	je     1923 <.rodata+0x1923>
    18b4:	20 69 6e             	and    %ch,0x6e(%ecx)
    18b7:	69 74 69 61 6c 69 7a 	imul   $0x657a696c,0x61(%ecx,%ebp,2),%esi
    18be:	65 
    18bf:	20 73 65             	and    %dh,0x65(%ebx)
    18c2:	6d                   	insl   (%dx),%es:(%edi)
    18c3:	61                   	popa   
    18c4:	70 68                	jo     192e <.rodata+0x192e>
    18c6:	6f                   	outsl  %ds:(%esi),(%dx)
    18c7:	72 65                	jb     192e <.rodata+0x192e>
    18c9:	20 30                	and    %dh,(%eax)
    18cb:	0a 00                	or     (%eax),%al
    18cd:	00 00                	add    %al,(%eax)
    18cf:	00 20                	add    %ah,(%eax)
    18d1:	49                   	dec    %ecx
    18d2:	4e                   	dec    %esi
    18d3:	49                   	dec    %ecx
    18d4:	54                   	push   %esp
    18d5:	54                   	push   %esp
    18d6:	45                   	inc    %ebp
    18d7:	53                   	push   %ebx
    18d8:	54                   	push   %esp
    18d9:	3a 20                	cmp    (%eax),%ah
    18db:	75 6e                	jne    194b <.rodata+0x194b>
    18dd:	61                   	popa   
    18de:	62 6c 65 20          	bound  %ebp,0x20(%ebp,%eiz,2)
    18e2:	74 6f                	je     1953 <.rodata+0x1953>
    18e4:	20 77 61             	and    %dh,0x61(%edi)
    18e7:	69 74 20 6f 6e 20 73 	imul   $0x6573206e,0x6f(%eax,%eiz,1),%esi
    18ee:	65 
    18ef:	6d                   	insl   (%dx),%es:(%edi)
    18f0:	61                   	popa   
    18f1:	70 68                	jo     195b <.rodata+0x195b>
    18f3:	6f                   	outsl  %ds:(%esi),(%dx)
    18f4:	72 65                	jb     195b <.rodata+0x195b>
    18f6:	20 30                	and    %dh,(%eax)
    18f8:	20 69 6e             	and    %ch,0x6e(%ecx)
    18fb:	20 63 68             	and    %ah,0x68(%ebx)
    18fe:	69 6c 64 20 70 72 6f 	imul   $0x636f7270,0x20(%esp,%eiz,2),%ebp
    1905:	63 
    1906:	65                   	gs
    1907:	73 73                	jae    197c <.rodata+0x197c>
    1909:	0a 00                	or     (%eax),%al
    190b:	00 20                	add    %ah,(%eax)
    190d:	54                   	push   %esp
    190e:	45                   	inc    %ebp
    190f:	53                   	push   %ebx
    1910:	54                   	push   %esp
    1911:	3a 20                	cmp    (%eax),%ah
    1913:	73 74                	jae    1989 <.rodata+0x1989>
    1915:	61                   	popa   
    1916:	74 73                	je     198b <.rodata+0x198b>
    1918:	20 69 6e             	and    %ch,0x6e(%ecx)
    191b:	63 72 65             	arpl   %si,0x65(%edx)
    191e:	61                   	popa   
    191f:	73 65                	jae    1986 <.rodata+0x1986>
    1921:	20 65 76             	and    %ah,0x76(%ebp)
    1924:	65 6e                	outsb  %gs:(%esi),(%dx)
    1926:	20 77 68             	and    %dh,0x68(%edi)
    1929:	65 6e                	outsb  %gs:(%esi),(%dx)
    192b:	20 61 20             	and    %ah,0x20(%ecx)
    192e:	70 72                	jo     19a2 <.rodata+0x19a2>
    1930:	6f                   	outsl  %ds:(%esi),(%dx)
    1931:	63 65 73             	arpl   %sp,0x73(%ebp)
    1934:	73 20                	jae    1956 <.rodata+0x1956>
    1936:	69 73 20 62 6c 6f 63 	imul   $0x636f6c62,0x20(%ebx),%esi
    193d:	6b 65 64 20          	imul   $0x20,0x64(%ebp),%esp
    1941:	00 00                	add    %al,(%eax)
    1943:	00 20                	add    %ah,(%eax)
    1945:	49                   	dec    %ecx
    1946:	4e                   	dec    %esi
    1947:	49                   	dec    %ecx
    1948:	54                   	push   %esp
    1949:	54                   	push   %esp
    194a:	45                   	inc    %ebp
    194b:	53                   	push   %ebx
    194c:	54                   	push   %esp
    194d:	3a 20                	cmp    (%eax),%ah
    194f:	75 6e                	jne    19bf <.rodata+0x19bf>
    1951:	61                   	popa   
    1952:	62 6c 65 20          	bound  %ebp,0x20(%ebp,%eiz,2)
    1956:	74 6f                	je     19c7 <.rodata+0x19c7>
    1958:	20 67 65             	and    %ah,0x65(%edi)
    195b:	74 20                	je     197d <.rodata+0x197d>
    195d:	73 74                	jae    19d3 <.rodata+0x19d3>
    195f:	61                   	popa   
    1960:	74 73                	je     19d5 <.rodata+0x19d5>
    1962:	20 6f 66             	and    %ch,0x66(%edi)
    1965:	20 61 20             	and    %ah,0x20(%ecx)
    1968:	63 68 69             	arpl   %bp,0x69(%eax)
    196b:	6c                   	insb   (%dx),%es:(%edi)
    196c:	64 20 70 72          	and    %dh,%fs:0x72(%eax)
    1970:	6f                   	outsl  %ds:(%esi),(%dx)
    1971:	63 65 73             	arpl   %sp,0x73(%ebp)
    1974:	73 20                	jae    1996 <.rodata+0x1996>
    1976:	77 61                	ja     19d9 <.rodata+0x19d9>
    1978:	69 74 69 6e 67 20 6f 	imul   $0x6e6f2067,0x6e(%ecx,%ebp,2),%esi
    197f:	6e 
    1980:	20 61 20             	and    %ah,0x20(%ecx)
    1983:	73 65                	jae    19ea <.rodata+0x19ea>
    1985:	6d                   	insl   (%dx),%es:(%edi)
    1986:	61                   	popa   
    1987:	70 68                	jo     19f1 <.rodata+0x19f1>
    1989:	6f                   	outsl  %ds:(%esi),(%dx)
    198a:	72 65                	jb     19f1 <.rodata+0x19f1>
    198c:	20 30                	and    %dh,(%eax)
    198e:	0a 00                	or     (%eax),%al
    1990:	20 54 45 53          	and    %dl,0x53(%ebp,%eax,2)
    1994:	54                   	push   %esp
    1995:	3a 20                	cmp    (%eax),%ah
    1997:	71 75                	jno    1a0e <.rodata+0x1a0e>
    1999:	61                   	popa   
    199a:	6e                   	outsb  %ds:(%esi),(%dx)
    199b:	74 75                	je     1a12 <.rodata+0x1a12>
    199d:	6d                   	insl   (%dx),%es:(%edi)
    199e:	20 6f 66             	and    %ch,0x66(%edi)
    19a1:	20 64 69 66          	and    %ah,0x66(%ecx,%ebp,2)
    19a5:	66                   	data16
    19a6:	65                   	gs
    19a7:	72 65                	jb     1a0e <.rodata+0x1a0e>
    19a9:	6e                   	outsb  %ds:(%esi),(%dx)
    19aa:	74 20                	je     19cc <.rodata+0x19cc>
    19ac:	70 72                	jo     1a20 <.rodata+0x1a20>
    19ae:	6f                   	outsl  %ds:(%esi),(%dx)
    19af:	63 65 73             	arpl   %sp,0x73(%ebp)
    19b2:	73 65                	jae    1a19 <.rodata+0x1a19>
    19b4:	73 20                	jae    19d6 <.rodata+0x19d6>
    19b6:	69 73 20 6e 6f 74 20 	imul   $0x20746f6e,0x20(%ebx),%esi
    19bd:	69 6e 64 65 70 65 6e 	imul   $0x6e657065,0x64(%esi),%ebp
    19c4:	64 65 6e             	outsb  %fs:%gs:(%esi),(%dx)
    19c7:	74 20                	je     19e9 <.rodata+0x19e9>
    19c9:	00 00                	add    %al,(%eax)
    19cb:	00 20                	add    %ah,(%eax)
    19cd:	49                   	dec    %ecx
    19ce:	4e                   	dec    %esi
    19cf:	49                   	dec    %ecx
    19d0:	54                   	push   %esp
    19d1:	54                   	push   %esp
    19d2:	45                   	inc    %ebp
    19d3:	53                   	push   %ebx
    19d4:	54                   	push   %esp
    19d5:	3a 20                	cmp    (%eax),%ah
    19d7:	75 6e                	jne    1a47 <.rodata+0x1a47>
    19d9:	61                   	popa   
    19da:	62 6c 65 20          	bound  %ebp,0x20(%ebp,%eiz,2)
    19de:	74 6f                	je     1a4f <.rodata+0x1a4f>
    19e0:	20 69 6e             	and    %ch,0x6e(%ecx)
    19e3:	69 74 69 61 6c 69 7a 	imul   $0x657a696c,0x61(%ecx,%ebp,2),%esi
    19ea:	65 
    19eb:	20 73 65             	and    %dh,0x65(%ebx)
    19ee:	6d                   	insl   (%dx),%es:(%edi)
    19ef:	61                   	popa   
    19f0:	70 68                	jo     1a5a <.rodata+0x1a5a>
    19f2:	6f                   	outsl  %ds:(%esi),(%dx)
    19f3:	72 65                	jb     1a5a <.rodata+0x1a5a>
    19f5:	20 31                	and    %dh,(%ecx)
    19f7:	0a 00                	or     (%eax),%al
    19f9:	00 00                	add    %al,(%eax)
    19fb:	00 20                	add    %ah,(%eax)
    19fd:	49                   	dec    %ecx
    19fe:	4e                   	dec    %esi
    19ff:	49                   	dec    %ecx
    1a00:	54                   	push   %esp
    1a01:	54                   	push   %esp
    1a02:	45                   	inc    %ebp
    1a03:	53                   	push   %ebx
    1a04:	54                   	push   %esp
    1a05:	3a 20                	cmp    (%eax),%ah
    1a07:	75 6e                	jne    1a77 <.rodata+0x1a77>
    1a09:	61                   	popa   
    1a0a:	62 6c 65 20          	bound  %ebp,0x20(%ebp,%eiz,2)
    1a0e:	74 6f                	je     1a7f <.rodata+0x1a7f>
    1a10:	20 67 65             	and    %ah,0x65(%edi)
    1a13:	74 20                	je     1a35 <.rodata+0x1a35>
    1a15:	63 75 72             	arpl   %si,0x72(%ebp)
    1a18:	72 65                	jb     1a7f <.rodata+0x1a7f>
    1a1a:	6e                   	outsb  %ds:(%esi),(%dx)
    1a1b:	74 20                	je     1a3d <.rodata+0x1a3d>
    1a1d:	70 72                	jo     1a91 <.rodata+0x1a91>
    1a1f:	6f                   	outsl  %ds:(%esi),(%dx)
    1a20:	63 65 73             	arpl   %sp,0x73(%ebp)
    1a23:	73 20                	jae    1a45 <.rodata+0x1a45>
    1a25:	73 74                	jae    1a9b <.rodata+0x1a9b>
    1a27:	61                   	popa   
    1a28:	74 73                	je     1a9d <.rodata+0x1a9d>
    1a2a:	20 00                	and    %al,(%eax)
    1a2c:	20 54 45 53          	and    %dl,0x53(%ebp,%eax,2)
    1a30:	54                   	push   %esp
    1a31:	3a 20                	cmp    (%eax),%ah
    1a33:	50                   	push   %eax
    1a34:	72 6f                	jb     1aa5 <.rodata+0x1aa5>
    1a36:	63 65 73             	arpl   %sp,0x73(%ebp)
    1a39:	73 20                	jae    1a5b <.rodata+0x1a5b>
    1a3b:	64 6f                	outsl  %fs:(%esi),(%dx)
    1a3d:	65                   	gs
    1a3e:	73 20                	jae    1a60 <.rodata+0x1a60>
    1a40:	6e                   	outsb  %ds:(%esi),(%dx)
    1a41:	6f                   	outsl  %ds:(%esi),(%dx)
    1a42:	74 20                	je     1a64 <.rodata+0x1a64>
    1a44:	72 65                	jb     1aab <.rodata+0x1aab>
    1a46:	63 65 69             	arpl   %sp,0x69(%ebp)
    1a49:	76 65                	jbe    1ab0 <.rodata+0x1ab0>
    1a4b:	20 61 20             	and    %ah,0x20(%ecx)
    1a4e:	66                   	data16
    1a4f:	75 6c                	jne    1abd <.rodata+0x1abd>
    1a51:	6c                   	insb   (%dx),%es:(%edi)
    1a52:	20 71 75             	and    %dh,0x75(%ecx)
    1a55:	61                   	popa   
    1a56:	6e                   	outsb  %ds:(%esi),(%dx)
    1a57:	74 75                	je     1ace <.rodata+0x1ace>
    1a59:	6d                   	insl   (%dx),%es:(%edi)
    1a5a:	20 61 66             	and    %ah,0x66(%ecx)
    1a5d:	74 65                	je     1ac4 <.rodata+0x1ac4>
    1a5f:	72 20                	jb     1a81 <.rodata+0x1a81>
    1a61:	63 6f 6e             	arpl   %bp,0x6e(%edi)
    1a64:	74 65                	je     1acb <.rodata+0x1acb>
    1a66:	78 74                	js     1adc <.rodata+0x1adc>
    1a68:	20 73 77             	and    %dh,0x77(%ebx)
    1a6b:	69 74 63 68 20 00 00 	imul   $0x20,0x68(%ebx,%eiz,2),%esi
    1a72:	00 
    1a73:	00 20                	add    %ah,(%eax)
    1a75:	54                   	push   %esp
    1a76:	45                   	inc    %ebp
    1a77:	53                   	push   %ebx
    1a78:	54                   	push   %esp
    1a79:	3a 20                	cmp    (%eax),%ah
    1a7b:	75 6e                	jne    1aeb <.rodata+0x1aeb>
    1a7d:	61                   	popa   
    1a7e:	62 6c 65 20          	bound  %ebp,0x20(%ebp,%eiz,2)
    1a82:	74 6f                	je     1af3 <.rodata+0x1af3>
    1a84:	20 67 65             	and    %ah,0x65(%edi)
    1a87:	74 20                	je     1aa9 <.rodata+0x1aa9>
    1a89:	63 68 69             	arpl   %bp,0x69(%eax)
    1a8c:	6c                   	insb   (%dx),%es:(%edi)
    1a8d:	64 20 73 74          	and    %dh,%fs:0x74(%ebx)
    1a91:	61                   	popa   
    1a92:	74 73                	je     1b07 <.rodata+0x1b07>
    1a94:	20 00                	and    %al,(%eax)
    1a96:	00 00                	add    %al,(%eax)
    1a98:	20 54 45 53          	and    %dl,0x53(%ebp,%eax,2)
    1a9c:	54                   	push   %esp
    1a9d:	3a 20                	cmp    (%eax),%ah
    1a9f:	75 6e                	jne    1b0f <.rodata+0x1b0f>
    1aa1:	61                   	popa   
    1aa2:	62 6c 65 20          	bound  %ebp,0x20(%ebp,%eiz,2)
    1aa6:	74 6f                	je     1b17 <.rodata+0x1b17>
    1aa8:	20 67 65             	and    %ah,0x65(%edi)
    1aab:	74 20                	je     1acd <.rodata+0x1acd>
    1aad:	63 75 72             	arpl   %si,0x72(%ebp)
    1ab0:	72 65                	jb     1b17 <.rodata+0x1b17>
    1ab2:	6e                   	outsb  %ds:(%esi),(%dx)
    1ab3:	74 20                	je     1ad5 <.rodata+0x1ad5>
    1ab5:	70 72                	jo     1b29 <.rodata+0x1b29>
    1ab7:	6f                   	outsl  %ds:(%esi),(%dx)
    1ab8:	63 65 73             	arpl   %sp,0x73(%ebp)
    1abb:	73 20                	jae    1add <.rodata+0x1add>
    1abd:	73 74                	jae    1b33 <.rodata+0x1b33>
    1abf:	61                   	popa   
    1ac0:	74 73                	je     1b35 <.rodata+0x1b35>
    1ac2:	20 00                	and    %al,(%eax)
    1ac4:	20 54 45 53          	and    %dl,0x53(%ebp,%eax,2)
    1ac8:	54                   	push   %esp
    1ac9:	3a 20                	cmp    (%eax),%ah
    1acb:	6e                   	outsb  %ds:(%esi),(%dx)
    1acc:	75 6d                	jne    1b3b <.rodata+0x1b3b>
    1ace:	62 65 72             	bound  %esp,0x72(%ebp)
    1ad1:	20 6f 66             	and    %ch,0x66(%edi)
    1ad4:	20 63 6f             	and    %ah,0x6f(%ebx)
    1ad7:	6e                   	outsb  %ds:(%esi),(%dx)
    1ad8:	74 65                	je     1b3f <.rodata+0x1b3f>
    1ada:	78 74                	js     1b50 <.rodata+0x1b50>
    1adc:	20 73 77             	and    %dh,0x77(%ebx)
    1adf:	69 74 63 68 20 66 6f 	imul   $0x726f6620,0x68(%ebx,%eiz,2),%esi
    1ae6:	72 
    1ae7:	20 65 71             	and    %ah,0x71(%ebp)
    1aea:	75 69                	jne    1b55 <.rodata+0x1b55>
    1aec:	76 61                	jbe    1b4f <.rodata+0x1b4f>
    1aee:	6c                   	insb   (%dx),%es:(%edi)
    1aef:	65 6e                	outsb  %gs:(%esi),(%dx)
    1af1:	74 20                	je     1b13 <.rodata+0x1b13>
    1af3:	70 72                	jo     1b67 <.rodata+0x1b67>
    1af5:	6f                   	outsl  %ds:(%esi),(%dx)
    1af6:	63 65 73             	arpl   %sp,0x73(%ebp)
    1af9:	73 65                	jae    1b60 <.rodata+0x1b60>
    1afb:	73 20                	jae    1b1d <.rodata+0x1b1d>
    1afd:	64 69 66 66 65 72 73 	imul   $0x20737265,%fs:0x66(%esi),%esp
    1b04:	20 
    1b05:	00 00                	add    %al,(%eax)
    1b07:	00 20                	add    %ah,(%eax)
    1b09:	54                   	push   %esp
    1b0a:	45                   	inc    %ebp
    1b0b:	53                   	push   %ebx
    1b0c:	54                   	push   %esp
    1b0d:	3a 20                	cmp    (%eax),%ah
    1b0f:	75 6e                	jne    1b7f <.rodata+0x1b7f>
    1b11:	61                   	popa   
    1b12:	62 6c 65 20          	bound  %ebp,0x20(%ebp,%eiz,2)
    1b16:	74 6f                	je     1b87 <.rodata+0x1b87>
    1b18:	20 67 65             	and    %ah,0x65(%edi)
    1b1b:	74 20                	je     1b3d <.rodata+0x1b3d>
    1b1d:	63 68 69             	arpl   %bp,0x69(%eax)
    1b20:	6c                   	insb   (%dx),%es:(%edi)
    1b21:	65 20 73 74          	and    %dh,%gs:0x74(%ebx)
    1b25:	61                   	popa   
    1b26:	74 73                	je     1b9b <.rodata+0x1b9b>
    1b28:	20 00                	and    %al,(%eax)
    1b2a:	00 00                	add    %al,(%eax)
    1b2c:	20 54 45 53          	and    %dl,0x53(%ebp,%eax,2)
    1b30:	54                   	push   %esp
    1b31:	3a 20                	cmp    (%eax),%ah
    1b33:	6e                   	outsb  %ds:(%esi),(%dx)
    1b34:	75 6d                	jne    1ba3 <.rodata+0x1ba3>
    1b36:	62 65 72             	bound  %esp,0x72(%ebp)
    1b39:	20 6f 66             	and    %ch,0x66(%edi)
    1b3c:	20 63 6f             	and    %ah,0x6f(%ebx)
    1b3f:	6e                   	outsb  %ds:(%esi),(%dx)
    1b40:	74 65                	je     1ba7 <.rodata+0x1ba7>
    1b42:	78 74                	js     1bb8 <.rodata+0x1bb8>
    1b44:	20 73 77             	and    %dh,0x77(%ebx)
    1b47:	69 74 63 68 20 73 68 	imul   $0x6f687320,0x68(%ebx,%eiz,2),%esi
    1b4e:	6f 
    1b4f:	75 6c                	jne    1bbd <.rodata+0x1bbd>
    1b51:	64 20 64 65 63       	and    %ah,%fs:0x63(%ebp,%eiz,2)
    1b56:	72 65                	jb     1bbd <.rodata+0x1bbd>
    1b58:	61                   	popa   
    1b59:	73 65                	jae    1bc0 <.rodata+0x1bc0>
    1b5b:	20 77 69             	and    %dh,0x69(%edi)
    1b5e:	74 68                	je     1bc8 <.rodata+0x1bc8>
    1b60:	20 71 75             	and    %dh,0x75(%ecx)
    1b63:	61                   	popa   
    1b64:	6e                   	outsb  %ds:(%esi),(%dx)
    1b65:	74 75                	je     1bdc <.rodata+0x1bdc>
    1b67:	6d                   	insl   (%dx),%es:(%edi)
    1b68:	20 00                	and    %al,(%eax)
    1b6a:	00 00                	add    %al,(%eax)
    1b6c:	20 49 4e             	and    %cl,0x4e(%ecx)
    1b6f:	49                   	dec    %ecx
    1b70:	54                   	push   %esp
    1b71:	54                   	push   %esp
    1b72:	45                   	inc    %ebp
    1b73:	53                   	push   %ebx
    1b74:	54                   	push   %esp
    1b75:	3a 20                	cmp    (%eax),%ah
    1b77:	75 6e                	jne    1be7 <.rodata+0x1be7>
    1b79:	61                   	popa   
    1b7a:	62 6c 65 20          	bound  %ebp,0x20(%ebp,%eiz,2)
    1b7e:	74 6f                	je     1bef <.rodata+0x1bef>
    1b80:	20 63 72             	and    %ah,0x72(%ebx)
    1b83:	65                   	gs
    1b84:	61                   	popa   
    1b85:	74 65                	je     1bec <.rodata+0x1bec>
    1b87:	20 61 20             	and    %ah,0x20(%ecx)
    1b8a:	63 68 69             	arpl   %bp,0x69(%eax)
    1b8d:	6c                   	insb   (%dx),%es:(%edi)
    1b8e:	64 20 70 72          	and    %dh,%fs:0x72(%eax)
    1b92:	6f                   	outsl  %ds:(%esi),(%dx)
    1b93:	63 65 73             	arpl   %sp,0x73(%ebp)
    1b96:	73 00                	jae    1b98 <.rodata+0x1b98>
    1b98:	20 54 45 53          	and    %dl,0x53(%ebp,%eax,2)
    1b9c:	54                   	push   %esp
    1b9d:	3a 20                	cmp    (%eax),%ah
    1b9f:	72 65                	jb     1c06 <.rodata+0x1c06>
    1ba1:	67 75 6c             	addr16 jne 1c10 <.rodata+0x1c10>
    1ba4:	61                   	popa   
    1ba5:	72 20                	jb     1bc7 <.rodata+0x1bc7>
    1ba7:	70 72                	jo     1c1b <.rodata+0x1c1b>
    1ba9:	6f                   	outsl  %ds:(%esi),(%dx)
    1baa:	63 65 73             	arpl   %sp,0x73(%ebp)
    1bad:	73 20                	jae    1bcf <.rodata+0x1bcf>
    1baf:	73 75                	jae    1c26 <.rodata+0x1c26>
    1bb1:	72 76                	jb     1c29 <.rodata+0x1c29>
    1bb3:	69 76 65 73 20 61 66 	imul   $0x66612073,0x65(%esi),%esi
    1bba:	74 65                	je     1c21 <.rodata+0x1c21>
    1bbc:	72 20                	jb     1bde <.rodata+0x1bde>
    1bbe:	65                   	gs
    1bbf:	78 69                	js     1c2a <.rodata+0x1c2a>
    1bc1:	74 00                	je     1bc3 <.rodata+0x1bc3>
    1bc3:	00 54 45 53          	add    %dl,0x53(%ebp,%eax,2)
    1bc7:	54                   	push   %esp
    1bc8:	3a 20                	cmp    (%eax),%ah
    1bca:	46                   	inc    %esi
    1bcb:	6f                   	outsl  %ds:(%esi),(%dx)
    1bcc:	72 6b                	jb     1c39 <.rodata+0x1c39>
    1bce:	20 73 68             	and    %dh,0x68(%ebx)
    1bd1:	6f                   	outsl  %ds:(%esi),(%dx)
    1bd2:	75 6c                	jne    1c40 <.rodata+0x1c40>
    1bd4:	64 20 72 65          	and    %dh,%fs:0x65(%edx)
    1bd8:	74 75                	je     1c4f <.rodata+0x1c4f>
    1bda:	72 6e                	jb     1c4a <.rodata+0x1c4a>
    1bdc:	20 65 72             	and    %ah,0x72(%ebp)
    1bdf:	72 6f                	jb     1c50 <.rodata+0x1c50>
    1be1:	72 20                	jb     1c03 <.rodata+0x1c03>
    1be3:	69 66 20 6d 61 78 69 	imul   $0x6978616d,0x20(%esi),%esp
    1bea:	6d                   	insl   (%dx),%es:(%edi)
    1beb:	75 6d                	jne    1c5a <.rodata+0x1c5a>
    1bed:	20 6e 75             	and    %ch,0x75(%esi)
    1bf0:	6d                   	insl   (%dx),%es:(%edi)
    1bf1:	62 65 72             	bound  %esp,0x72(%ebp)
    1bf4:	20 6f 66             	and    %ch,0x66(%edi)
    1bf7:	20 70 72             	and    %dh,0x72(%eax)
    1bfa:	6f                   	outsl  %ds:(%esi),(%dx)
    1bfb:	63 65 73             	arpl   %sp,0x73(%ebp)
    1bfe:	73 65                	jae    1c65 <.rodata+0x1c65>
    1c00:	73 20                	jae    1c22 <.rodata+0x1c22>
    1c02:	69 73 20 65 78 63 65 	imul   $0x65637865,0x20(%ebx),%esi
    1c09:	65 64 65 64 00 00    	add    %al,%fs:%gs:(%eax)
    1c0f:	00 54 45 53          	add    %dl,0x53(%ebp,%eax,2)
    1c13:	54                   	push   %esp
    1c14:	3a 20                	cmp    (%eax),%ah
    1c16:	46                   	inc    %esi
    1c17:	6f                   	outsl  %ds:(%esi),(%dx)
    1c18:	72 6b                	jb     1c85 <.rodata+0x1c85>
    1c1a:	20 72 65             	and    %dh,0x65(%edx)
    1c1d:	74 75                	je     1c94 <.rodata+0x1c94>
    1c1f:	72 6e                	jb     1c8f <.rodata+0x1c8f>
    1c21:	73 20                	jae    1c43 <.rodata+0x1c43>
    1c23:	61                   	popa   
    1c24:	20 6e 65             	and    %ch,0x65(%esi)
    1c27:	67 61                	addr16 popa 
    1c29:	74 69                	je     1c94 <.rodata+0x1c94>
    1c2b:	76 65                	jbe    1c92 <.rodata+0x1c92>
    1c2d:	20 6e 75             	and    %ch,0x75(%esi)
    1c30:	6d                   	insl   (%dx),%es:(%edi)
    1c31:	62 65 72             	bound  %esp,0x72(%ebp)
    1c34:	2c 20                	sub    $0x20,%al
    1c36:	62 75 74             	bound  %esi,0x74(%ebp)
    1c39:	20 65 72             	and    %ah,0x72(%ebp)
    1c3c:	72 6e                	jb     1cac <.rodata+0x1cac>
    1c3e:	6f                   	outsl  %ds:(%esi),(%dx)
    1c3f:	20 69 73             	and    %ch,0x73(%ecx)
    1c42:	20 64 69 66          	and    %ah,0x66(%ecx,%ebp,2)
    1c46:	66                   	data16
    1c47:	65                   	gs
    1c48:	72 65                	jb     1caf <.rodata+0x1caf>
    1c4a:	6e                   	outsb  %ds:(%esi),(%dx)
    1c4b:	74 20                	je     1c6d <.rodata+0x1c6d>
    1c4d:	66                   	data16
    1c4e:	72 6f                	jb     1cbf <.rodata+0x1cbf>
    1c50:	6d                   	insl   (%dx),%es:(%edi)
    1c51:	20 45 41             	and    %al,0x41(%ebp)
    1c54:	47                   	inc    %edi
    1c55:	41                   	inc    %ecx
    1c56:	49                   	dec    %ecx
    1c57:	4e                   	dec    %esi
    1c58:	20 6f 72             	and    %ch,0x72(%edi)
    1c5b:	20 45 4e             	and    %al,0x4e(%ebp)
    1c5e:	4f                   	dec    %edi
    1c5f:	4d                   	dec    %ebp
    1c60:	45                   	inc    %ebp
    1c61:	4d                   	dec    %ebp
    1c62:	00 00                	add    %al,(%eax)
    1c64:	54                   	push   %esp
    1c65:	45                   	inc    %ebp
    1c66:	53                   	push   %ebx
    1c67:	54                   	push   %esp
    1c68:	3a 20                	cmp    (%eax),%ah
    1c6a:	43                   	inc    %ebx
    1c6b:	6f                   	outsl  %ds:(%esi),(%dx)
    1c6c:	75 6c                	jne    1cda <.rodata+0x1cda>
    1c6e:	64 20 6e 6f          	and    %ch,%fs:0x6f(%esi)
    1c72:	74 20                	je     1c94 <.rodata+0x1c94>
    1c74:	63 72 65             	arpl   %si,0x65(%edx)
    1c77:	61                   	popa   
    1c78:	74 65                	je     1cdf <.rodata+0x1cdf>
    1c7a:	20 74 68 65          	and    %dh,0x65(%eax,%ebp,2)
    1c7e:	20 6d 61             	and    %ch,0x61(%ebp)
    1c81:	78 69                	js     1cec <.rodata+0x1cec>
    1c83:	6d                   	insl   (%dx),%es:(%edi)
    1c84:	75 6d                	jne    1cf3 <.rodata+0x1cf3>
    1c86:	20 6e 75             	and    %ch,0x75(%esi)
    1c89:	6d                   	insl   (%dx),%es:(%edi)
    1c8a:	62 65 72             	bound  %esp,0x72(%ebp)
    1c8d:	20 6f 66             	and    %ch,0x66(%edi)
    1c90:	20 70 72             	and    %dh,0x72(%eax)
    1c93:	6f                   	outsl  %ds:(%esi),(%dx)
    1c94:	63 65 73             	arpl   %sp,0x73(%ebp)
    1c97:	73 65                	jae    1cfe <.rodata+0x1cfe>
    1c99:	73 20                	jae    1cbb <.rodata+0x1cbb>
    1c9b:	61                   	popa   
    1c9c:	6c                   	insb   (%dx),%es:(%edi)
    1c9d:	6c                   	insb   (%dx),%es:(%edi)
    1c9e:	6f                   	outsl  %ds:(%esi),(%dx)
    1c9f:	77 65                	ja     1d06 <.rodata+0x1d06>
    1ca1:	64 20 72 65          	and    %dh,%fs:0x65(%edx)
    1ca5:	75 73                	jne    1d1a <.rodata+0x1d1a>
    1ca7:	69 6e 67 20 64 61 74 	imul   $0x74616420,0x67(%esi),%ebp
    1cae:	61                   	popa   
    1caf:	20 73 74             	and    %dh,0x74(%ebx)
    1cb2:	72 75                	jb     1d29 <.rodata+0x1d29>
    1cb4:	63 74 75 72          	arpl   %si,0x72(%ebp,%esi,2)
    1cb8:	65                   	gs
    1cb9:	73 00                	jae    1cbb <.rodata+0x1cbb>
    1cbb:	00 54 45 53          	add    %dl,0x53(%ebp,%eax,2)
    1cbf:	54                   	push   %esp
    1cc0:	3a 20                	cmp    (%eax),%ah
    1cc2:	45                   	inc    %ebp
    1cc3:	72 72                	jb     1d37 <.rodata+0x1d37>
    1cc5:	6f                   	outsl  %ds:(%esi),(%dx)
    1cc6:	72 20                	jb     1ce8 <.rodata+0x1ce8>
    1cc8:	63 72 65             	arpl   %si,0x65(%edx)
    1ccb:	61                   	popa   
    1ccc:	74 69                	je     1d37 <.rodata+0x1d37>
    1cce:	6e                   	outsb  %ds:(%esi),(%dx)
    1ccf:	67 20 70 72          	addr16 and %dh,0x72(%bx,%si)
    1cd3:	6f                   	outsl  %ds:(%esi),(%dx)
    1cd4:	63 65 73             	arpl   %sp,0x73(%ebp)
    1cd7:	73 65                	jae    1d3e <.rodata+0x1d3e>
    1cd9:	73 20                	jae    1cfb <.rodata+0x1cfb>
    1cdb:	72 65                	jb     1d42 <.rodata+0x1d42>
    1cdd:	75 73                	jne    1d52 <.rodata+0x1d52>
    1cdf:	69 6e 67 20 64 61 74 	imul   $0x74616420,0x67(%esi),%ebp
    1ce6:	61                   	popa   
    1ce7:	20 73 74             	and    %dh,0x74(%ebx)
    1cea:	72 75                	jb     1d61 <.rodata+0x1d61>
    1cec:	63 74 75 72          	arpl   %si,0x72(%ebp,%esi,2)
    1cf0:	65                   	gs
    1cf1:	73 20                	jae    1d13 <.rodata+0x1d13>
    1cf3:	00 49 4e             	add    %cl,0x4e(%ecx)
    1cf6:	49                   	dec    %ecx
    1cf7:	54                   	push   %esp
    1cf8:	54                   	push   %esp
    1cf9:	45                   	inc    %ebp
    1cfa:	53                   	push   %ebx
    1cfb:	54                   	push   %esp
    1cfc:	3a 20                	cmp    (%eax),%ah
    1cfe:	46                   	inc    %esi
    1cff:	6f                   	outsl  %ds:(%esi),(%dx)
    1d00:	72 6b                	jb     1d6d <.rodata+0x1d6d>
    1d02:	20 73 68             	and    %dh,0x68(%ebx)
    1d05:	6f                   	outsl  %ds:(%esi),(%dx)
    1d06:	75 6c                	jne    1d74 <.rodata+0x1d74>
    1d08:	64 20 72 65          	and    %dh,%fs:0x65(%edx)
    1d0c:	74 75                	je     1d83 <.rodata+0x1d83>
    1d0e:	72 6e                	jb     1d7e <.rodata+0x1d7e>
    1d10:	20 65 72             	and    %ah,0x72(%ebp)
    1d13:	72 6f                	jb     1d84 <.rodata+0x1d84>
    1d15:	72 20                	jb     1d37 <.rodata+0x1d37>
    1d17:	69 66 20 6d 61 78 69 	imul   $0x6978616d,0x20(%esi),%esp
    1d1e:	6d                   	insl   (%dx),%es:(%edi)
    1d1f:	75 6d                	jne    1d8e <.rodata+0x1d8e>
    1d21:	20 6e 75             	and    %ch,0x75(%esi)
    1d24:	6d                   	insl   (%dx),%es:(%edi)
    1d25:	62 65 72             	bound  %esp,0x72(%ebp)
    1d28:	20 6f 66             	and    %ch,0x66(%edi)
    1d2b:	20 70 72             	and    %dh,0x72(%eax)
    1d2e:	6f                   	outsl  %ds:(%esi),(%dx)
    1d2f:	63 65 73             	arpl   %sp,0x73(%ebp)
    1d32:	73 65                	jae    1d99 <.rodata+0x1d99>
    1d34:	73 20                	jae    1d56 <.rodata+0x1d56>
    1d36:	69 73 20 65 78 63 65 	imul   $0x65637865,0x20(%ebx),%esi
    1d3d:	65 64 65 64 00 00    	add    %al,%fs:%gs:(%eax)
    1d43:	00 20                	add    %ah,(%eax)
    1d45:	49                   	dec    %ecx
    1d46:	4e                   	dec    %esi
    1d47:	49                   	dec    %ecx
    1d48:	54                   	push   %esp
    1d49:	54                   	push   %esp
    1d4a:	45                   	inc    %ebp
    1d4b:	53                   	push   %ebx
    1d4c:	54                   	push   %esp
    1d4d:	3a 20                	cmp    (%eax),%ah
    1d4f:	45                   	inc    %ebp
    1d50:	72 72                	jb     1dc4 <.rodata+0x1dc4>
    1d52:	6f                   	outsl  %ds:(%esi),(%dx)
    1d53:	72 20                	jb     1d75 <.rodata+0x1d75>
    1d55:	63 72 65             	arpl   %si,0x65(%edx)
    1d58:	61                   	popa   
    1d59:	74 69                	je     1dc4 <.rodata+0x1dc4>
    1d5b:	6e                   	outsb  %ds:(%esi),(%dx)
    1d5c:	67 20 63 68          	addr16 and %ah,0x68(%bp,%di)
    1d60:	69 6c 64 20 70 72 6f 	imul   $0x636f7270,0x20(%esp,%eiz,2),%ebp
    1d67:	63 
    1d68:	65                   	gs
    1d69:	73 73                	jae    1dde <.rodata+0x1dde>
    1d6b:	00 20                	add    %ah,(%eax)
    1d6d:	54                   	push   %esp
    1d6e:	45                   	inc    %ebp
    1d6f:	53                   	push   %ebx
    1d70:	54                   	push   %esp
    1d71:	3a 20                	cmp    (%eax),%ah
    1d73:	43                   	inc    %ebx
    1d74:	68 69 6c 64 20       	push   $0x20646c69
    1d79:	73 68                	jae    1de3 <.rodata+0x1de3>
    1d7b:	6f                   	outsl  %ds:(%esi),(%dx)
    1d7c:	75 6c                	jne    1dea <.rodata+0x1dea>
    1d7e:	64 20 69 6e          	and    %ch,%fs:0x6e(%ecx)
    1d82:	68 65 72 69 74       	push   $0x74697265
    1d87:	20 64 61 74          	and    %ah,0x74(%ecx,%eiz,2)
    1d8b:	61                   	popa   
    1d8c:	20 66 72             	and    %ah,0x72(%esi)
    1d8f:	6f                   	outsl  %ds:(%esi),(%dx)
    1d90:	6d                   	insl   (%dx),%es:(%edi)
    1d91:	20 66 61             	and    %ah,0x61(%esi)
    1d94:	74 68                	je     1dfe <.rodata+0x1dfe>
    1d96:	65                   	gs
    1d97:	72 00                	jb     1d99 <.rodata+0x1d99>
    1d99:	00 00                	add    %al,(%eax)
    1d9b:	00 20                	add    %ah,(%eax)
    1d9d:	54                   	push   %esp
    1d9e:	45                   	inc    %ebp
    1d9f:	53                   	push   %ebx
    1da0:	54                   	push   %esp
    1da1:	3a 20                	cmp    (%eax),%ah
    1da3:	42                   	inc    %edx
    1da4:	72 6f                	jb     1e15 <.rodata+0x1e15>
    1da6:	74 68                	je     1e10 <.rodata+0x1e10>
    1da8:	65                   	gs
    1da9:	72 73                	jb     1e1e <.rodata+0x1e1e>
    1dab:	20 73 68             	and    %dh,0x68(%ebx)
    1dae:	6f                   	outsl  %ds:(%esi),(%dx)
    1daf:	75 6c                	jne    1e1d <.rodata+0x1e1d>
    1db1:	64 20 6e 6f          	and    %ch,%fs:0x6f(%esi)
    1db5:	74 20                	je     1dd7 <.rodata+0x1dd7>
    1db7:	73 68                	jae    1e21 <.rodata+0x1e21>
    1db9:	61                   	popa   
    1dba:	72 65                	jb     1e21 <.rodata+0x1e21>
    1dbc:	20 64 61 74          	and    %ah,0x74(%ecx,%eiz,2)
    1dc0:	61                   	popa   
    1dc1:	00 00                	add    %al,(%eax)
    1dc3:	00 20                	add    %ah,(%eax)
    1dc5:	49                   	dec    %ecx
    1dc6:	4e                   	dec    %esi
    1dc7:	49                   	dec    %ecx
    1dc8:	54                   	push   %esp
    1dc9:	54                   	push   %esp
    1dca:	45                   	inc    %ebp
    1dcb:	53                   	push   %ebx
    1dcc:	54                   	push   %esp
    1dcd:	3a 20                	cmp    (%eax),%ah
    1dcf:	45                   	inc    %ebp
    1dd0:	72 72                	jb     1e44 <.rodata+0x1e44>
    1dd2:	6f                   	outsl  %ds:(%esi),(%dx)
    1dd3:	72 20                	jb     1df5 <.rodata+0x1df5>
    1dd5:	69 6e 69 74 69 61 6c 	imul   $0x6c616974,0x69(%esi),%ebp
    1ddc:	69 7a 69 6e 67 20 73 	imul   $0x7320676e,0x69(%edx),%edi
    1de3:	65                   	gs
    1de4:	6d                   	insl   (%dx),%es:(%edi)
    1de5:	61                   	popa   
    1de6:	70 68                	jo     1e50 <.rodata+0x1e50>
    1de8:	6f                   	outsl  %ds:(%esi),(%dx)
    1de9:	72 65                	jb     1e50 <.rodata+0x1e50>
    1deb:	00 20                	add    %ah,(%eax)
    1ded:	54                   	push   %esp
    1dee:	45                   	inc    %ebp
    1def:	53                   	push   %ebx
    1df0:	54                   	push   %esp
    1df1:	3a 20                	cmp    (%eax),%ah
    1df3:	45                   	inc    %ebp
    1df4:	72 72                	jb     1e68 <.rodata+0x1e68>
    1df6:	6f                   	outsl  %ds:(%esi),(%dx)
    1df7:	72 20                	jb     1e19 <.rodata+0x1e19>
    1df9:	63 72 65             	arpl   %si,0x65(%edx)
    1dfc:	61                   	popa   
    1dfd:	74 69                	je     1e68 <.rodata+0x1e68>
    1dff:	6e                   	outsb  %ds:(%esi),(%dx)
    1e00:	67 20 70 72          	addr16 and %dh,0x72(%bx,%si)
    1e04:	6f                   	outsl  %ds:(%esi),(%dx)
    1e05:	63 65 73             	arpl   %sp,0x73(%ebp)
    1e08:	73 20                	jae    1e2a <.rodata+0x1e2a>
    1e0a:	68 69 65 72 61       	push   $0x61726569
    1e0f:	72 63                	jb     1e74 <.rodata+0x1e74>
    1e11:	68 79 00 20 54       	push   $0x54200079
    1e16:	45                   	inc    %ebp
    1e17:	53                   	push   %ebx
    1e18:	54                   	push   %esp
    1e19:	3a 20                	cmp    (%eax),%ah
    1e1b:	45                   	inc    %ebp
    1e1c:	72 72                	jb     1e90 <.rodata+0x1e90>
    1e1e:	6f                   	outsl  %ds:(%esi),(%dx)
    1e1f:	72 20                	jb     1e41 <.rodata+0x1e41>
    1e21:	77 61                	ja     1e84 <.rodata+0x1e84>
    1e23:	69 74 69 6e 67 20 6f 	imul   $0x6e6f2067,0x6e(%ecx,%ebp,2),%esi
    1e2a:	6e 
    1e2b:	20 73 65             	and    %dh,0x65(%ebx)
    1e2e:	6d                   	insl   (%dx),%es:(%edi)
    1e2f:	61                   	popa   
    1e30:	70 68                	jo     1e9a <.rodata+0x1e9a>
    1e32:	6f                   	outsl  %ds:(%esi),(%dx)
    1e33:	72 65                	jb     1e9a <.rodata+0x1e9a>
    1e35:	00 00                	add    %al,(%eax)
    1e37:	00 20                	add    %ah,(%eax)
    1e39:	45                   	inc    %ebp
    1e3a:	4e                   	dec    %esi
    1e3b:	44                   	inc    %esp
    1e3c:	54                   	push   %esp
    1e3d:	45                   	inc    %ebp
    1e3e:	53                   	push   %ebx
    1e3f:	54                   	push   %esp
    1e40:	3a 20                	cmp    (%eax),%ah
    1e42:	45                   	inc    %ebp
    1e43:	72 72                	jb     1eb7 <.rodata+0x1eb7>
    1e45:	6f                   	outsl  %ds:(%esi),(%dx)
    1e46:	72 20                	jb     1e68 <.rodata+0x1e68>
    1e48:	64                   	fs
    1e49:	65                   	gs
    1e4a:	73 74                	jae    1ec0 <.rodata+0x1ec0>
    1e4c:	72 6f                	jb     1ebd <.rodata+0x1ebd>
    1e4e:	79 69                	jns    1eb9 <.rodata+0x1eb9>
    1e50:	6e                   	outsb  %ds:(%esi),(%dx)
    1e51:	67 20 73 65          	addr16 and %dh,0x65(%bp,%di)
    1e55:	6d                   	insl   (%dx),%es:(%edi)
    1e56:	61                   	popa   
    1e57:	70 68                	jo     1ec1 <.rodata+0x1ec1>
    1e59:	6f                   	outsl  %ds:(%esi),(%dx)
    1e5a:	72 65                	jb     1ec1 <.rodata+0x1ec1>
    1e5c:	00 00                	add    %al,(%eax)
    1e5e:	00 00                	add    %al,(%eax)
    1e60:	20 54 45 53          	and    %dl,0x53(%ebp,%eax,2)
    1e64:	54                   	push   %esp
    1e65:	3a 20                	cmp    (%eax),%ah
    1e67:	63 68 69             	arpl   %bp,0x69(%eax)
    1e6a:	6c                   	insb   (%dx),%es:(%edi)
    1e6b:	64 20 70 72          	and    %dh,%fs:0x72(%eax)
    1e6f:	6f                   	outsl  %ds:(%esi),(%dx)
    1e70:	63 65 73             	arpl   %sp,0x73(%ebp)
    1e73:	73 20                	jae    1e95 <.rodata+0x1e95>
    1e75:	64 6f                	outsl  %fs:(%esi),(%dx)
    1e77:	65                   	gs
    1e78:	73 6e                	jae    1ee8 <.rodata+0x1ee8>
    1e7a:	d5 74                	aad    $0x74
    1e7c:	20 64 69 65          	and    %ah,0x65(%ecx,%ebp,2)
    1e80:	20 61 66             	and    %ah,0x66(%ecx)
    1e83:	74 65                	je     1eea <.rodata+0x1eea>
    1e85:	72 20                	jb     1ea7 <.rodata+0x1ea7>
    1e87:	63 61 75             	arpl   %sp,0x75(%ecx)
    1e8a:	73 69                	jae    1ef5 <.rodata+0x1ef5>
    1e8c:	6e                   	outsb  %ds:(%esi),(%dx)
    1e8d:	67 20 61 20          	addr16 and %ah,0x20(%bx,%di)
    1e91:	70 61                	jo     1ef4 <.rodata+0x1ef4>
    1e93:	67 65 20 66 61       	addr16 and %ah,%gs:0x61(%bp)
    1e98:	75 6c                	jne    1f06 <.rodata+0x1f06>
    1e9a:	74 00                	je     1e9c <.rodata+0x1e9c>
    1e9c:	20 54 45 53          	and    %dl,0x53(%ebp,%eax,2)
    1ea0:	54                   	push   %esp
    1ea1:	3a 20                	cmp    (%eax),%ah
    1ea3:	74 61                	je     1f06 <.rodata+0x1f06>
    1ea5:	73 6b                	jae    1f12 <.rodata+0x1f12>
    1ea7:	20 30                	and    %dh,(%eax)
    1ea9:	20 73 68             	and    %dh,0x68(%ebx)
    1eac:	6f                   	outsl  %ds:(%esi),(%dx)
    1ead:	75 6c                	jne    1f1b <testDestroyInvSem+0x34>
    1eaf:	64 20 6e 6f          	and    %ch,%fs:0x6f(%esi)
    1eb3:	74 20                	je     1ed5 <.rodata+0x1ed5>
    1eb5:	72 65                	jb     1f1c <testDestroyInvSem+0x35>
    1eb7:	74 75                	je     1f2e <testDestroyInvSem+0x47>
    1eb9:	72 6e                	jb     1f29 <testDestroyInvSem+0x42>
    1ebb:	20 66 72             	and    %ah,0x72(%esi)
    1ebe:	6f                   	outsl  %ds:(%esi),(%dx)
    1ebf:	6d                   	insl   (%dx),%es:(%edi)
    1ec0:	20 74 68 65          	and    %dh,0x65(%eax,%ebp,2)
    1ec4:	20 70 61             	and    %dh,0x61(%eax)
    1ec7:	67 65 20 66 61       	addr16 and %ah,%gs:0x61(%bp)
    1ecc:	75 6c                	jne    1f3a <testDestroyInvSem+0x53>
    1ece:	74 20                	je     1ef0 <.rodata+0x1ef0>
    1ed0:	72 6f                	jb     1f41 <testDestroyInvSem+0x5a>
    1ed2:	75 74                	jne    1f48 <testDestroyInvSem+0x61>
    1ed4:	69 6e 65 00 20 54 45 	imul   $0x45542000,0x65(%esi),%ebp
    1edb:	53                   	push   %ebx
    1edc:	54                   	push   %esp
    1edd:	3a 20                	cmp    (%eax),%ah
    1edf:	45                   	inc    %ebp
    1ee0:	72 72                	jb     1f54 <testDestroyInvSem+0x6d>
    1ee2:	6f                   	outsl  %ds:(%esi),(%dx)
    1ee3:	72 20                	jb     1f05 <.rodata+0x1f05>
    1ee5:	63 72 65             	arpl   %si,0x65(%edx)
    1ee8:	61                   	popa   
    1ee9:	74 69                	je     1f54 <testDestroyInvSem+0x6d>
    1eeb:	6e                   	outsb  %ds:(%esi),(%dx)
    1eec:	67 20 70 72          	addr16 and %dh,0x72(%bx,%si)
    1ef0:	6f                   	outsl  %ds:(%esi),(%dx)
    1ef1:	63 65 73             	arpl   %sp,0x73(%ebp)
    1ef4:	73 2e                	jae    1f24 <testDestroyInvSem+0x3d>
    1ef6:	20 49 73             	and    %cl,0x73(%ecx)
    1ef9:	20 6d 65             	and    %ch,0x65(%ebp)
    1efc:	6d                   	insl   (%dx),%es:(%edi)
    1efd:	6f                   	outsl  %ds:(%esi),(%dx)
    1efe:	72 79                	jb     1f79 <testDestroyInvSem+0x92>
    1f00:	20 66 72             	and    %ah,0x72(%esi)
    1f03:	65 65 64 20 61 66    	and    %ah,%fs:%gs:0x66(%ecx)
    1f09:	74 65                	je     1f70 <testDestroyInvSem+0x89>
    1f0b:	72 20                	jb     1f2d <testDestroyInvSem+0x46>
    1f0d:	65                   	gs
    1f0e:	78 69                	js     1f79 <testDestroyInvSem+0x92>
    1f10:	74 3f                	je     1f51 <testDestroyInvSem+0x6a>
	...
