In archive libjp2.a:

user.o:     file format elf32-i386


jocsdeprova.o:     file format elf32-i386


Disassembly of section .text:

00000000 <wrong_version>:
   0:	55                   	push   %ebp
   1:	89 e5                	mov    %esp,%ebp
   3:	83 ec 28             	sub    $0x28,%esp
   6:	c7 45 f8 00 00 00 00 	movl   $0x0,-0x8(%ebp)
   d:	c7 45 fc fc bf 11 00 	movl   $0x11bffc,-0x4(%ebp)
  14:	8b 45 fc             	mov    -0x4(%ebp),%eax
  17:	8b 00                	mov    (%eax),%eax
  19:	3d ba 7d 00 00       	cmp    $0x7dba,%eax
  1e:	74 2b                	je     4b <wrong_version+0x4b>
  20:	c7 04 24 00 00 00 00 	movl   $0x0,(%esp)
  27:	e8 fc ff ff ff       	call   28 <wrong_version+0x28>
  2c:	89 44 24 08          	mov    %eax,0x8(%esp)
  30:	c7 44 24 04 00 00 00 	movl   $0x0,0x4(%esp)
  37:	00 
  38:	c7 04 24 01 00 00 00 	movl   $0x1,(%esp)
  3f:	e8 fc ff ff ff       	call   40 <wrong_version+0x40>
  44:	c7 45 f8 01 00 00 00 	movl   $0x1,-0x8(%ebp)
  4b:	8b 45 f8             	mov    -0x8(%ebp),%eax
  4e:	c9                   	leave  
  4f:	c3                   	ret    

00000050 <jpstats_init>:
  50:	55                   	push   %ebp
  51:	89 e5                	mov    %esp,%ebp
  53:	83 ec 18             	sub    $0x18,%esp
  56:	e8 fc ff ff ff       	call   57 <jpstats_init+0x7>
  5b:	85 c0                	test   %eax,%eax
  5d:	74 09                	je     68 <jpstats_init+0x18>
  5f:	c7 45 fc ff ff ff ff 	movl   $0xffffffff,-0x4(%ebp)
  66:	eb 53                	jmp    bb <jpstats_init+0x6b>
  68:	8b 45 08             	mov    0x8(%ebp),%eax
  6b:	c7 80 6c 1d 00 00 01 	movl   $0x1,0x1d6c(%eax)
  72:	00 00 00 
  75:	8b 45 08             	mov    0x8(%ebp),%eax
  78:	c7 80 68 1d 00 00 00 	movl   $0x0,0x1d68(%eax)
  7f:	00 00 00 
  82:	8b 45 08             	mov    0x8(%ebp),%eax
  85:	c7 80 70 1d 00 00 01 	movl   $0x1,0x1d70(%eax)
  8c:	00 00 00 
  8f:	8b 45 08             	mov    0x8(%ebp),%eax
  92:	c7 80 74 1d 00 00 32 	movl   $0x32,0x1d74(%eax)
  99:	00 00 00 
  9c:	8b 55 08             	mov    0x8(%ebp),%edx
  9f:	81 c2 e8 1c 00 00    	add    $0x1ce8,%edx
  a5:	8b 45 0c             	mov    0xc(%ebp),%eax
  a8:	89 44 24 04          	mov    %eax,0x4(%esp)
  ac:	89 14 24             	mov    %edx,(%esp)
  af:	e8 fc ff ff ff       	call   b0 <jpstats_init+0x60>
  b4:	c7 45 fc 00 00 00 00 	movl   $0x0,-0x4(%ebp)
  bb:	8b 45 fc             	mov    -0x4(%ebp),%eax
  be:	c9                   	leave  
  bf:	c3                   	ret    

000000c0 <jpstats_init_rank>:
  c0:	55                   	push   %ebp
  c1:	89 e5                	mov    %esp,%ebp
  c3:	83 ec 18             	sub    $0x18,%esp
  c6:	e8 fc ff ff ff       	call   c7 <jpstats_init_rank+0x7>
  cb:	85 c0                	test   %eax,%eax
  cd:	74 09                	je     d8 <jpstats_init_rank+0x18>
  cf:	c7 45 fc ff ff ff ff 	movl   $0xffffffff,-0x4(%ebp)
  d6:	eb 51                	jmp    129 <jpstats_init_rank+0x69>
  d8:	8b 45 08             	mov    0x8(%ebp),%eax
  db:	c7 80 6c 1d 00 00 01 	movl   $0x1,0x1d6c(%eax)
  e2:	00 00 00 
  e5:	8b 45 08             	mov    0x8(%ebp),%eax
  e8:	c7 80 68 1d 00 00 00 	movl   $0x0,0x1d68(%eax)
  ef:	00 00 00 
  f2:	8b 55 08             	mov    0x8(%ebp),%edx
  f5:	8b 45 10             	mov    0x10(%ebp),%eax
  f8:	89 82 70 1d 00 00    	mov    %eax,0x1d70(%edx)
  fe:	8b 55 08             	mov    0x8(%ebp),%edx
 101:	8b 45 14             	mov    0x14(%ebp),%eax
 104:	89 82 74 1d 00 00    	mov    %eax,0x1d74(%edx)
 10a:	8b 55 08             	mov    0x8(%ebp),%edx
 10d:	81 c2 e8 1c 00 00    	add    $0x1ce8,%edx
 113:	8b 45 0c             	mov    0xc(%ebp),%eax
 116:	89 44 24 04          	mov    %eax,0x4(%esp)
 11a:	89 14 24             	mov    %edx,(%esp)
 11d:	e8 fc ff ff ff       	call   11e <jpstats_init_rank+0x5e>
 122:	c7 45 fc 00 00 00 00 	movl   $0x0,-0x4(%ebp)
 129:	8b 45 fc             	mov    -0x4(%ebp),%eax
 12c:	c9                   	leave  
 12d:	c3                   	ret    

0000012e <jpstats_run>:
 12e:	55                   	push   %ebp
 12f:	89 e5                	mov    %esp,%ebp
 131:	83 ec 28             	sub    $0x28,%esp
 134:	c7 04 24 2d 00 00 00 	movl   $0x2d,(%esp)
 13b:	e8 fc ff ff ff       	call   13c <jpstats_run+0xe>
 140:	89 44 24 08          	mov    %eax,0x8(%esp)
 144:	c7 44 24 04 2d 00 00 	movl   $0x2d,0x4(%esp)
 14b:	00 
 14c:	c7 04 24 01 00 00 00 	movl   $0x1,(%esp)
 153:	e8 fc ff ff ff       	call   154 <jpstats_run+0x26>
 158:	8b 45 08             	mov    0x8(%ebp),%eax
 15b:	8b 90 68 1d 00 00    	mov    0x1d68(%eax),%edx
 161:	8d 45 f2             	lea    -0xe(%ebp),%eax
 164:	89 44 24 04          	mov    %eax,0x4(%esp)
 168:	89 14 24             	mov    %edx,(%esp)
 16b:	e8 fc ff ff ff       	call   16c <jpstats_run+0x3e>
 170:	8d 45 f2             	lea    -0xe(%ebp),%eax
 173:	89 04 24             	mov    %eax,(%esp)
 176:	e8 fc ff ff ff       	call   177 <jpstats_run+0x49>
 17b:	89 44 24 08          	mov    %eax,0x8(%esp)
 17f:	8d 45 f2             	lea    -0xe(%ebp),%eax
 182:	89 44 24 04          	mov    %eax,0x4(%esp)
 186:	c7 04 24 01 00 00 00 	movl   $0x1,(%esp)
 18d:	e8 fc ff ff ff       	call   18e <jpstats_run+0x60>
 192:	c7 04 24 3b 00 00 00 	movl   $0x3b,(%esp)
 199:	e8 fc ff ff ff       	call   19a <jpstats_run+0x6c>
 19e:	89 44 24 08          	mov    %eax,0x8(%esp)
 1a2:	c7 44 24 04 3b 00 00 	movl   $0x3b,0x4(%esp)
 1a9:	00 
 1aa:	c7 04 24 01 00 00 00 	movl   $0x1,(%esp)
 1b1:	e8 fc ff ff ff       	call   1b2 <jpstats_run+0x84>
 1b6:	8b 45 08             	mov    0x8(%ebp),%eax
 1b9:	05 e8 1c 00 00       	add    $0x1ce8,%eax
 1be:	89 04 24             	mov    %eax,(%esp)
 1c1:	e8 fc ff ff ff       	call   1c2 <jpstats_run+0x94>
 1c6:	8b 55 08             	mov    0x8(%ebp),%edx
 1c9:	81 c2 e8 1c 00 00    	add    $0x1ce8,%edx
 1cf:	89 44 24 08          	mov    %eax,0x8(%esp)
 1d3:	89 54 24 04          	mov    %edx,0x4(%esp)
 1d7:	c7 04 24 01 00 00 00 	movl   $0x1,(%esp)
 1de:	e8 fc ff ff ff       	call   1df <jpstats_run+0xb1>
 1e3:	c7 04 24 44 00 00 00 	movl   $0x44,(%esp)
 1ea:	e8 fc ff ff ff       	call   1eb <jpstats_run+0xbd>
 1ef:	89 44 24 08          	mov    %eax,0x8(%esp)
 1f3:	c7 44 24 04 4a 00 00 	movl   $0x4a,0x4(%esp)
 1fa:	00 
 1fb:	c7 04 24 01 00 00 00 	movl   $0x1,(%esp)
 202:	e8 fc ff ff ff       	call   203 <jpstats_run+0xd5>
 207:	c7 45 fc 00 00 00 00 	movl   $0x0,-0x4(%ebp)
 20e:	eb 4c                	jmp    25c <jpstats_run+0x12e>
 210:	8b 45 fc             	mov    -0x4(%ebp),%eax
 213:	89 44 24 04          	mov    %eax,0x4(%esp)
 217:	8b 45 08             	mov    0x8(%ebp),%eax
 21a:	89 04 24             	mov    %eax,(%esp)
 21d:	e8 fc ff ff ff       	call   21e <jpstats_run+0xf0>
 222:	8b 4d 08             	mov    0x8(%ebp),%ecx
 225:	8b 55 fc             	mov    -0x4(%ebp),%edx
 228:	89 d0                	mov    %edx,%eax
 22a:	c1 e0 03             	shl    $0x3,%eax
 22d:	01 d0                	add    %edx,%eax
 22f:	01 c0                	add    %eax,%eax
 231:	01 c0                	add    %eax,%eax
 233:	01 d0                	add    %edx,%eax
 235:	01 c0                	add    %eax,%eax
 237:	01 c0                	add    %eax,%eax
 239:	8d 04 01             	lea    (%ecx,%eax,1),%eax
 23c:	89 04 24             	mov    %eax,(%esp)
 23f:	e8 fc ff ff ff       	call   240 <jpstats_run+0x112>
 244:	8b 45 fc             	mov    -0x4(%ebp),%eax
 247:	89 44 24 04          	mov    %eax,0x4(%esp)
 24b:	8b 45 08             	mov    0x8(%ebp),%eax
 24e:	89 04 24             	mov    %eax,(%esp)
 251:	e8 fc ff ff ff       	call   252 <jpstats_run+0x124>
 256:	8d 45 fc             	lea    -0x4(%ebp),%eax
 259:	83 00 01             	addl   $0x1,(%eax)
 25c:	8b 45 08             	mov    0x8(%ebp),%eax
 25f:	8b 80 68 1d 00 00    	mov    0x1d68(%eax),%eax
 265:	3b 45 fc             	cmp    -0x4(%ebp),%eax
 268:	7f a6                	jg     210 <jpstats_run+0xe2>
 26a:	c9                   	leave  
 26b:	c3                   	ret    

0000026c <jpstats_full>:
 26c:	55                   	push   %ebp
 26d:	89 e5                	mov    %esp,%ebp
 26f:	8b 45 08             	mov    0x8(%ebp),%eax
 272:	8b 80 68 1d 00 00    	mov    0x1d68(%eax),%eax
 278:	83 f8 31             	cmp    $0x31,%eax
 27b:	0f 9f c0             	setg   %al
 27e:	0f b6 c0             	movzbl %al,%eax
 281:	5d                   	pop    %ebp
 282:	c3                   	ret    

00000283 <jpstats_avail>:
 283:	55                   	push   %ebp
 284:	89 e5                	mov    %esp,%ebp
 286:	83 ec 04             	sub    $0x4,%esp
 289:	8b 45 08             	mov    0x8(%ebp),%eax
 28c:	8b 80 68 1d 00 00    	mov    0x1d68(%eax),%eax
 292:	83 f8 31             	cmp    $0x31,%eax
 295:	7e 09                	jle    2a0 <jpstats_avail+0x1d>
 297:	c7 45 fc ff ff ff ff 	movl   $0xffffffff,-0x4(%ebp)
 29e:	eb 0c                	jmp    2ac <jpstats_avail+0x29>
 2a0:	8b 45 08             	mov    0x8(%ebp),%eax
 2a3:	8b 80 68 1d 00 00    	mov    0x1d68(%eax),%eax
 2a9:	89 45 fc             	mov    %eax,-0x4(%ebp)
 2ac:	8b 45 fc             	mov    -0x4(%ebp),%eax
 2af:	c9                   	leave  
 2b0:	c3                   	ret    

000002b1 <jpstats_add>:
 2b1:	55                   	push   %ebp
 2b2:	89 e5                	mov    %esp,%ebp
 2b4:	83 ec 18             	sub    $0x18,%esp
 2b7:	8b 45 08             	mov    0x8(%ebp),%eax
 2ba:	8b 80 6c 1d 00 00    	mov    0x1d6c(%eax),%eax
 2c0:	85 c0                	test   %eax,%eax
 2c2:	75 0d                	jne    2d1 <jpstats_add+0x20>
 2c4:	b8 ff ff ff ff       	mov    $0xffffffff,%eax
 2c9:	89 45 fc             	mov    %eax,-0x4(%ebp)
 2cc:	e9 50 01 00 00       	jmp    421 <jpstats_add+0x170>
 2d1:	8b 45 08             	mov    0x8(%ebp),%eax
 2d4:	8b 80 68 1d 00 00    	mov    0x1d68(%eax),%eax
 2da:	8d 50 01             	lea    0x1(%eax),%edx
 2dd:	8b 45 08             	mov    0x8(%ebp),%eax
 2e0:	8b 80 70 1d 00 00    	mov    0x1d70(%eax),%eax
 2e6:	39 c2                	cmp    %eax,%edx
 2e8:	0f 8c 07 01 00 00    	jl     3f5 <jpstats_add+0x144>
 2ee:	8b 45 08             	mov    0x8(%ebp),%eax
 2f1:	8b 90 68 1d 00 00    	mov    0x1d68(%eax),%edx
 2f7:	8b 45 08             	mov    0x8(%ebp),%eax
 2fa:	8b 80 74 1d 00 00    	mov    0x1d74(%eax),%eax
 300:	39 c2                	cmp    %eax,%edx
 302:	0f 8d ed 00 00 00    	jge    3f5 <jpstats_add+0x144>
 308:	8b 45 08             	mov    0x8(%ebp),%eax
 30b:	8b 90 68 1d 00 00    	mov    0x1d68(%eax),%edx
 311:	89 d0                	mov    %edx,%eax
 313:	c1 e0 03             	shl    $0x3,%eax
 316:	01 d0                	add    %edx,%eax
 318:	01 c0                	add    %eax,%eax
 31a:	01 c0                	add    %eax,%eax
 31c:	01 d0                	add    %edx,%eax
 31e:	01 c0                	add    %eax,%eax
 320:	01 c0                	add    %eax,%eax
 322:	89 c2                	mov    %eax,%edx
 324:	03 55 08             	add    0x8(%ebp),%edx
 327:	8b 45 0c             	mov    0xc(%ebp),%eax
 32a:	89 44 24 04          	mov    %eax,0x4(%esp)
 32e:	89 14 24             	mov    %edx,(%esp)
 331:	e8 fc ff ff ff       	call   332 <jpstats_add+0x81>
 336:	8b 45 08             	mov    0x8(%ebp),%eax
 339:	8b 90 68 1d 00 00    	mov    0x1d68(%eax),%edx
 33f:	8b 4d 08             	mov    0x8(%ebp),%ecx
 342:	89 d0                	mov    %edx,%eax
 344:	c1 e0 03             	shl    $0x3,%eax
 347:	01 d0                	add    %edx,%eax
 349:	01 c0                	add    %eax,%eax
 34b:	01 c0                	add    %eax,%eax
 34d:	01 d0                	add    %edx,%eax
 34f:	01 c0                	add    %eax,%eax
 351:	01 c0                	add    %eax,%eax
 353:	01 c8                	add    %ecx,%eax
 355:	8d 90 80 00 00 00    	lea    0x80(%eax),%edx
 35b:	8b 45 10             	mov    0x10(%ebp),%eax
 35e:	89 02                	mov    %eax,(%edx)
 360:	8b 45 08             	mov    0x8(%ebp),%eax
 363:	8b 90 68 1d 00 00    	mov    0x1d68(%eax),%edx
 369:	8b 4d 08             	mov    0x8(%ebp),%ecx
 36c:	89 d0                	mov    %edx,%eax
 36e:	c1 e0 03             	shl    $0x3,%eax
 371:	01 d0                	add    %edx,%eax
 373:	01 c0                	add    %eax,%eax
 375:	01 c0                	add    %eax,%eax
 377:	01 d0                	add    %edx,%eax
 379:	01 c0                	add    %eax,%eax
 37b:	01 c0                	add    %eax,%eax
 37d:	01 c8                	add    %ecx,%eax
 37f:	8d 90 84 00 00 00    	lea    0x84(%eax),%edx
 385:	8b 45 14             	mov    0x14(%ebp),%eax
 388:	89 02                	mov    %eax,(%edx)
 38a:	8b 45 08             	mov    0x8(%ebp),%eax
 38d:	8b 90 68 1d 00 00    	mov    0x1d68(%eax),%edx
 393:	8b 4d 08             	mov    0x8(%ebp),%ecx
 396:	89 d0                	mov    %edx,%eax
 398:	c1 e0 03             	shl    $0x3,%eax
 39b:	01 d0                	add    %edx,%eax
 39d:	01 c0                	add    %eax,%eax
 39f:	01 c0                	add    %eax,%eax
 3a1:	01 d0                	add    %edx,%eax
 3a3:	01 c0                	add    %eax,%eax
 3a5:	01 c0                	add    %eax,%eax
 3a7:	01 c8                	add    %ecx,%eax
 3a9:	8d 90 88 00 00 00    	lea    0x88(%eax),%edx
 3af:	8b 45 18             	mov    0x18(%ebp),%eax
 3b2:	89 02                	mov    %eax,(%edx)
 3b4:	8b 45 08             	mov    0x8(%ebp),%eax
 3b7:	8b 90 68 1d 00 00    	mov    0x1d68(%eax),%edx
 3bd:	8b 4d 08             	mov    0x8(%ebp),%ecx
 3c0:	89 d0                	mov    %edx,%eax
 3c2:	c1 e0 03             	shl    $0x3,%eax
 3c5:	01 d0                	add    %edx,%eax
 3c7:	01 c0                	add    %eax,%eax
 3c9:	01 c0                	add    %eax,%eax
 3cb:	01 d0                	add    %edx,%eax
 3cd:	01 c0                	add    %eax,%eax
 3cf:	01 c0                	add    %eax,%eax
 3d1:	01 c8                	add    %ecx,%eax
 3d3:	8d 90 90 00 00 00    	lea    0x90(%eax),%edx
 3d9:	8b 45 1c             	mov    0x1c(%ebp),%eax
 3dc:	89 02                	mov    %eax,(%edx)
 3de:	8b 45 08             	mov    0x8(%ebp),%eax
 3e1:	8b 80 68 1d 00 00    	mov    0x1d68(%eax),%eax
 3e7:	8d 50 01             	lea    0x1(%eax),%edx
 3ea:	8b 45 08             	mov    0x8(%ebp),%eax
 3ed:	89 90 68 1d 00 00    	mov    %edx,0x1d68(%eax)
 3f3:	eb 2a                	jmp    41f <jpstats_add+0x16e>
 3f5:	8b 45 08             	mov    0x8(%ebp),%eax
 3f8:	8b 80 70 1d 00 00    	mov    0x1d70(%eax),%eax
 3fe:	8d 50 ff             	lea    -0x1(%eax),%edx
 401:	8b 45 08             	mov    0x8(%ebp),%eax
 404:	89 90 70 1d 00 00    	mov    %edx,0x1d70(%eax)
 40a:	8b 45 08             	mov    0x8(%ebp),%eax
 40d:	8b 80 74 1d 00 00    	mov    0x1d74(%eax),%eax
 413:	8d 50 ff             	lea    -0x1(%eax),%edx
 416:	8b 45 08             	mov    0x8(%ebp),%eax
 419:	89 90 74 1d 00 00    	mov    %edx,0x1d74(%eax)
 41f:	eb 03                	jmp    424 <jpstats_add+0x173>
 421:	8b 45 fc             	mov    -0x4(%ebp),%eax
 424:	c9                   	leave  
 425:	c3                   	ret    

00000426 <jpstat_show_test_header>:
 426:	55                   	push   %ebp
 427:	89 e5                	mov    %esp,%ebp
 429:	53                   	push   %ebx
 42a:	83 ec 34             	sub    $0x34,%esp
 42d:	c7 04 24 51 00 00 00 	movl   $0x51,(%esp)
 434:	e8 fc ff ff ff       	call   435 <jpstat_show_test_header+0xf>
 439:	89 44 24 08          	mov    %eax,0x8(%esp)
 43d:	c7 44 24 04 51 00 00 	movl   $0x51,0x4(%esp)
 444:	00 
 445:	c7 04 24 01 00 00 00 	movl   $0x1,(%esp)
 44c:	e8 fc ff ff ff       	call   44d <jpstat_show_test_header+0x27>
 451:	8d 45 e8             	lea    -0x18(%ebp),%eax
 454:	89 44 24 04          	mov    %eax,0x4(%esp)
 458:	8b 45 0c             	mov    0xc(%ebp),%eax
 45b:	89 04 24             	mov    %eax,(%esp)
 45e:	e8 fc ff ff ff       	call   45f <jpstat_show_test_header+0x39>
 463:	8d 45 e8             	lea    -0x18(%ebp),%eax
 466:	89 04 24             	mov    %eax,(%esp)
 469:	e8 fc ff ff ff       	call   46a <jpstat_show_test_header+0x44>
 46e:	89 44 24 08          	mov    %eax,0x8(%esp)
 472:	8d 45 e8             	lea    -0x18(%ebp),%eax
 475:	89 44 24 04          	mov    %eax,0x4(%esp)
 479:	c7 04 24 01 00 00 00 	movl   $0x1,(%esp)
 480:	e8 fc ff ff ff       	call   481 <jpstat_show_test_header+0x5b>
 485:	c7 04 24 62 00 00 00 	movl   $0x62,(%esp)
 48c:	e8 fc ff ff ff       	call   48d <jpstat_show_test_header+0x67>
 491:	89 44 24 08          	mov    %eax,0x8(%esp)
 495:	c7 44 24 04 62 00 00 	movl   $0x62,0x4(%esp)
 49c:	00 
 49d:	c7 04 24 01 00 00 00 	movl   $0x1,(%esp)
 4a4:	e8 fc ff ff ff       	call   4a5 <jpstat_show_test_header+0x7f>
 4a9:	8b 4d 08             	mov    0x8(%ebp),%ecx
 4ac:	8b 55 0c             	mov    0xc(%ebp),%edx
 4af:	89 d0                	mov    %edx,%eax
 4b1:	c1 e0 03             	shl    $0x3,%eax
 4b4:	01 d0                	add    %edx,%eax
 4b6:	01 c0                	add    %eax,%eax
 4b8:	01 c0                	add    %eax,%eax
 4ba:	01 d0                	add    %edx,%eax
 4bc:	01 c0                	add    %eax,%eax
 4be:	01 c0                	add    %eax,%eax
 4c0:	8d 04 01             	lea    (%ecx,%eax,1),%eax
 4c3:	89 04 24             	mov    %eax,(%esp)
 4c6:	e8 fc ff ff ff       	call   4c7 <jpstat_show_test_header+0xa1>
 4cb:	89 04 24             	mov    %eax,(%esp)
 4ce:	e8 fc ff ff ff       	call   4cf <jpstat_show_test_header+0xa9>
 4d3:	89 c3                	mov    %eax,%ebx
 4d5:	8b 4d 08             	mov    0x8(%ebp),%ecx
 4d8:	8b 55 0c             	mov    0xc(%ebp),%edx
 4db:	89 d0                	mov    %edx,%eax
 4dd:	c1 e0 03             	shl    $0x3,%eax
 4e0:	01 d0                	add    %edx,%eax
 4e2:	01 c0                	add    %eax,%eax
 4e4:	01 c0                	add    %eax,%eax
 4e6:	01 d0                	add    %edx,%eax
 4e8:	01 c0                	add    %eax,%eax
 4ea:	01 c0                	add    %eax,%eax
 4ec:	8d 04 01             	lea    (%ecx,%eax,1),%eax
 4ef:	89 04 24             	mov    %eax,(%esp)
 4f2:	e8 fc ff ff ff       	call   4f3 <jpstat_show_test_header+0xcd>
 4f7:	89 5c 24 08          	mov    %ebx,0x8(%esp)
 4fb:	89 44 24 04          	mov    %eax,0x4(%esp)
 4ff:	c7 04 24 01 00 00 00 	movl   $0x1,(%esp)
 506:	e8 fc ff ff ff       	call   507 <jpstat_show_test_header+0xe1>
 50b:	83 c4 34             	add    $0x34,%esp
 50e:	5b                   	pop    %ebx
 50f:	5d                   	pop    %ebp
 510:	c3                   	ret    

00000511 <jpstat_show_test_result>:
 511:	55                   	push   %ebp
 512:	89 e5                	mov    %esp,%ebp
 514:	83 ec 18             	sub    $0x18,%esp
 517:	8b 4d 08             	mov    0x8(%ebp),%ecx
 51a:	8b 55 0c             	mov    0xc(%ebp),%edx
 51d:	89 d0                	mov    %edx,%eax
 51f:	c1 e0 03             	shl    $0x3,%eax
 522:	01 d0                	add    %edx,%eax
 524:	01 c0                	add    %eax,%eax
 526:	01 c0                	add    %eax,%eax
 528:	01 d0                	add    %edx,%eax
 52a:	01 c0                	add    %eax,%eax
 52c:	01 c0                	add    %eax,%eax
 52e:	8d 04 01             	lea    (%ecx,%eax,1),%eax
 531:	89 04 24             	mov    %eax,(%esp)
 534:	e8 fc ff ff ff       	call   535 <jpstat_show_test_result+0x24>
 539:	89 45 fc             	mov    %eax,-0x4(%ebp)
 53c:	83 7d fc 01          	cmpl   $0x1,-0x4(%ebp)
 540:	74 5a                	je     59c <jpstat_show_test_result+0x8b>
 542:	83 7d fc 01          	cmpl   $0x1,-0x4(%ebp)
 546:	72 08                	jb     550 <jpstat_show_test_result+0x3f>
 548:	83 7d fc 02          	cmpl   $0x2,-0x4(%ebp)
 54c:	74 28                	je     576 <jpstat_show_test_result+0x65>
 54e:	eb 72                	jmp    5c2 <jpstat_show_test_result+0xb1>
 550:	c7 04 24 67 00 00 00 	movl   $0x67,(%esp)
 557:	e8 fc ff ff ff       	call   558 <jpstat_show_test_result+0x47>
 55c:	89 44 24 08          	mov    %eax,0x8(%esp)
 560:	c7 44 24 04 67 00 00 	movl   $0x67,0x4(%esp)
 567:	00 
 568:	c7 04 24 01 00 00 00 	movl   $0x1,(%esp)
 56f:	e8 fc ff ff ff       	call   570 <jpstat_show_test_result+0x5f>
 574:	eb 70                	jmp    5e6 <jpstat_show_test_result+0xd5>
 576:	c7 04 24 75 00 00 00 	movl   $0x75,(%esp)
 57d:	e8 fc ff ff ff       	call   57e <jpstat_show_test_result+0x6d>
 582:	89 44 24 08          	mov    %eax,0x8(%esp)
 586:	c7 44 24 04 75 00 00 	movl   $0x75,0x4(%esp)
 58d:	00 
 58e:	c7 04 24 01 00 00 00 	movl   $0x1,(%esp)
 595:	e8 fc ff ff ff       	call   596 <jpstat_show_test_result+0x85>
 59a:	eb 4a                	jmp    5e6 <jpstat_show_test_result+0xd5>
 59c:	c7 04 24 84 00 00 00 	movl   $0x84,(%esp)
 5a3:	e8 fc ff ff ff       	call   5a4 <jpstat_show_test_result+0x93>
 5a8:	89 44 24 08          	mov    %eax,0x8(%esp)
 5ac:	c7 44 24 04 84 00 00 	movl   $0x84,0x4(%esp)
 5b3:	00 
 5b4:	c7 04 24 01 00 00 00 	movl   $0x1,(%esp)
 5bb:	e8 fc ff ff ff       	call   5bc <jpstat_show_test_result+0xab>
 5c0:	eb 24                	jmp    5e6 <jpstat_show_test_result+0xd5>
 5c2:	c7 04 24 96 00 00 00 	movl   $0x96,(%esp)
 5c9:	e8 fc ff ff ff       	call   5ca <jpstat_show_test_result+0xb9>
 5ce:	89 44 24 08          	mov    %eax,0x8(%esp)
 5d2:	c7 44 24 04 ab 00 00 	movl   $0xab,0x4(%esp)
 5d9:	00 
 5da:	c7 04 24 01 00 00 00 	movl   $0x1,(%esp)
 5e1:	e8 fc ff ff ff       	call   5e2 <jpstat_show_test_result+0xd1>
 5e6:	c9                   	leave  
 5e7:	c3                   	ret    

000005e8 <jpstat_detailed_results>:
 5e8:	55                   	push   %ebp
 5e9:	89 e5                	mov    %esp,%ebp
 5eb:	53                   	push   %ebx
 5ec:	83 ec 24             	sub    $0x24,%esp
 5ef:	c7 45 f8 00 00 00 00 	movl   $0x0,-0x8(%ebp)
 5f6:	e9 22 02 00 00       	jmp    81d <jpstat_detailed_results+0x235>
 5fb:	c7 04 24 c1 00 00 00 	movl   $0xc1,(%esp)
 602:	e8 fc ff ff ff       	call   603 <jpstat_detailed_results+0x1b>
 607:	89 44 24 08          	mov    %eax,0x8(%esp)
 60b:	c7 44 24 04 c8 00 00 	movl   $0xc8,0x4(%esp)
 612:	00 
 613:	c7 04 24 01 00 00 00 	movl   $0x1,(%esp)
 61a:	e8 fc ff ff ff       	call   61b <jpstat_detailed_results+0x33>
 61f:	8b 4d 08             	mov    0x8(%ebp),%ecx
 622:	8b 55 f8             	mov    -0x8(%ebp),%edx
 625:	89 d0                	mov    %edx,%eax
 627:	c1 e0 03             	shl    $0x3,%eax
 62a:	01 d0                	add    %edx,%eax
 62c:	01 c0                	add    %eax,%eax
 62e:	01 c0                	add    %eax,%eax
 630:	01 d0                	add    %edx,%eax
 632:	01 c0                	add    %eax,%eax
 634:	01 c0                	add    %eax,%eax
 636:	8d 04 01             	lea    (%ecx,%eax,1),%eax
 639:	89 04 24             	mov    %eax,(%esp)
 63c:	e8 fc ff ff ff       	call   63d <jpstat_detailed_results+0x55>
 641:	89 04 24             	mov    %eax,(%esp)
 644:	e8 fc ff ff ff       	call   645 <jpstat_detailed_results+0x5d>
 649:	89 c3                	mov    %eax,%ebx
 64b:	8b 4d 08             	mov    0x8(%ebp),%ecx
 64e:	8b 55 f8             	mov    -0x8(%ebp),%edx
 651:	89 d0                	mov    %edx,%eax
 653:	c1 e0 03             	shl    $0x3,%eax
 656:	01 d0                	add    %edx,%eax
 658:	01 c0                	add    %eax,%eax
 65a:	01 c0                	add    %eax,%eax
 65c:	01 d0                	add    %edx,%eax
 65e:	01 c0                	add    %eax,%eax
 660:	01 c0                	add    %eax,%eax
 662:	8d 04 01             	lea    (%ecx,%eax,1),%eax
 665:	89 04 24             	mov    %eax,(%esp)
 668:	e8 fc ff ff ff       	call   669 <jpstat_detailed_results+0x81>
 66d:	89 5c 24 08          	mov    %ebx,0x8(%esp)
 671:	89 44 24 04          	mov    %eax,0x4(%esp)
 675:	c7 04 24 01 00 00 00 	movl   $0x1,(%esp)
 67c:	e8 fc ff ff ff       	call   67d <jpstat_detailed_results+0x95>
 681:	c7 04 24 d0 00 00 00 	movl   $0xd0,(%esp)
 688:	e8 fc ff ff ff       	call   689 <jpstat_detailed_results+0xa1>
 68d:	89 44 24 08          	mov    %eax,0x8(%esp)
 691:	c7 44 24 04 d0 00 00 	movl   $0xd0,0x4(%esp)
 698:	00 
 699:	c7 04 24 01 00 00 00 	movl   $0x1,(%esp)
 6a0:	e8 fc ff ff ff       	call   6a1 <jpstat_detailed_results+0xb9>
 6a5:	8b 4d 08             	mov    0x8(%ebp),%ecx
 6a8:	8b 55 f8             	mov    -0x8(%ebp),%edx
 6ab:	89 d0                	mov    %edx,%eax
 6ad:	c1 e0 03             	shl    $0x3,%eax
 6b0:	01 d0                	add    %edx,%eax
 6b2:	01 c0                	add    %eax,%eax
 6b4:	01 c0                	add    %eax,%eax
 6b6:	01 d0                	add    %edx,%eax
 6b8:	01 c0                	add    %eax,%eax
 6ba:	01 c0                	add    %eax,%eax
 6bc:	8d 04 01             	lea    (%ecx,%eax,1),%eax
 6bf:	89 04 24             	mov    %eax,(%esp)
 6c2:	e8 fc ff ff ff       	call   6c3 <jpstat_detailed_results+0xdb>
 6c7:	89 45 e8             	mov    %eax,-0x18(%ebp)
 6ca:	83 7d e8 01          	cmpl   $0x1,-0x18(%ebp)
 6ce:	0f 84 c1 00 00 00    	je     795 <jpstat_detailed_results+0x1ad>
 6d4:	83 7d e8 01          	cmpl   $0x1,-0x18(%ebp)
 6d8:	72 0b                	jb     6e5 <jpstat_detailed_results+0xfd>
 6da:	83 7d e8 02          	cmpl   $0x2,-0x18(%ebp)
 6de:	74 2e                	je     70e <jpstat_detailed_results+0x126>
 6e0:	e9 32 01 00 00       	jmp    817 <jpstat_detailed_results+0x22f>
 6e5:	c7 04 24 dd 00 00 00 	movl   $0xdd,(%esp)
 6ec:	e8 fc ff ff ff       	call   6ed <jpstat_detailed_results+0x105>
 6f1:	89 44 24 08          	mov    %eax,0x8(%esp)
 6f5:	c7 44 24 04 dd 00 00 	movl   $0xdd,0x4(%esp)
 6fc:	00 
 6fd:	c7 04 24 01 00 00 00 	movl   $0x1,(%esp)
 704:	e8 fc ff ff ff       	call   705 <jpstat_detailed_results+0x11d>
 709:	e9 09 01 00 00       	jmp    817 <jpstat_detailed_results+0x22f>
 70e:	c7 04 24 e0 00 00 00 	movl   $0xe0,(%esp)
 715:	e8 fc ff ff ff       	call   716 <jpstat_detailed_results+0x12e>
 71a:	89 44 24 08          	mov    %eax,0x8(%esp)
 71e:	c7 44 24 04 e0 00 00 	movl   $0xe0,0x4(%esp)
 725:	00 
 726:	c7 04 24 01 00 00 00 	movl   $0x1,(%esp)
 72d:	e8 fc ff ff ff       	call   72e <jpstat_detailed_results+0x146>
 732:	8b 55 f8             	mov    -0x8(%ebp),%edx
 735:	8b 4d 08             	mov    0x8(%ebp),%ecx
 738:	89 d0                	mov    %edx,%eax
 73a:	c1 e0 03             	shl    $0x3,%eax
 73d:	01 d0                	add    %edx,%eax
 73f:	01 c0                	add    %eax,%eax
 741:	01 c0                	add    %eax,%eax
 743:	01 d0                	add    %edx,%eax
 745:	01 c0                	add    %eax,%eax
 747:	01 c0                	add    %eax,%eax
 749:	01 c8                	add    %ecx,%eax
 74b:	05 8c 00 00 00       	add    $0x8c,%eax
 750:	8b 00                	mov    (%eax),%eax
 752:	89 04 24             	mov    %eax,(%esp)
 755:	e8 fc ff ff ff       	call   756 <jpstat_detailed_results+0x16e>
 75a:	89 c3                	mov    %eax,%ebx
 75c:	8b 55 f8             	mov    -0x8(%ebp),%edx
 75f:	8b 4d 08             	mov    0x8(%ebp),%ecx
 762:	89 d0                	mov    %edx,%eax
 764:	c1 e0 03             	shl    $0x3,%eax
 767:	01 d0                	add    %edx,%eax
 769:	01 c0                	add    %eax,%eax
 76b:	01 c0                	add    %eax,%eax
 76d:	01 d0                	add    %edx,%eax
 76f:	01 c0                	add    %eax,%eax
 771:	01 c0                	add    %eax,%eax
 773:	01 c8                	add    %ecx,%eax
 775:	05 8c 00 00 00       	add    $0x8c,%eax
 77a:	8b 00                	mov    (%eax),%eax
 77c:	89 5c 24 08          	mov    %ebx,0x8(%esp)
 780:	89 44 24 04          	mov    %eax,0x4(%esp)
 784:	c7 04 24 01 00 00 00 	movl   $0x1,(%esp)
 78b:	e8 fc ff ff ff       	call   78c <jpstat_detailed_results+0x1a4>
 790:	e9 82 00 00 00       	jmp    817 <jpstat_detailed_results+0x22f>
 795:	c7 04 24 e4 00 00 00 	movl   $0xe4,(%esp)
 79c:	e8 fc ff ff ff       	call   79d <jpstat_detailed_results+0x1b5>
 7a1:	89 44 24 08          	mov    %eax,0x8(%esp)
 7a5:	c7 44 24 04 e4 00 00 	movl   $0xe4,0x4(%esp)
 7ac:	00 
 7ad:	c7 04 24 01 00 00 00 	movl   $0x1,(%esp)
 7b4:	e8 fc ff ff ff       	call   7b5 <jpstat_detailed_results+0x1cd>
 7b9:	8b 55 f8             	mov    -0x8(%ebp),%edx
 7bc:	8b 4d 08             	mov    0x8(%ebp),%ecx
 7bf:	89 d0                	mov    %edx,%eax
 7c1:	c1 e0 03             	shl    $0x3,%eax
 7c4:	01 d0                	add    %edx,%eax
 7c6:	01 c0                	add    %eax,%eax
 7c8:	01 c0                	add    %eax,%eax
 7ca:	01 d0                	add    %edx,%eax
 7cc:	01 c0                	add    %eax,%eax
 7ce:	01 c0                	add    %eax,%eax
 7d0:	01 c8                	add    %ecx,%eax
 7d2:	05 8c 00 00 00       	add    $0x8c,%eax
 7d7:	8b 00                	mov    (%eax),%eax
 7d9:	89 04 24             	mov    %eax,(%esp)
 7dc:	e8 fc ff ff ff       	call   7dd <jpstat_detailed_results+0x1f5>
 7e1:	89 c3                	mov    %eax,%ebx
 7e3:	8b 55 f8             	mov    -0x8(%ebp),%edx
 7e6:	8b 4d 08             	mov    0x8(%ebp),%ecx
 7e9:	89 d0                	mov    %edx,%eax
 7eb:	c1 e0 03             	shl    $0x3,%eax
 7ee:	01 d0                	add    %edx,%eax
 7f0:	01 c0                	add    %eax,%eax
 7f2:	01 c0                	add    %eax,%eax
 7f4:	01 d0                	add    %edx,%eax
 7f6:	01 c0                	add    %eax,%eax
 7f8:	01 c0                	add    %eax,%eax
 7fa:	01 c8                	add    %ecx,%eax
 7fc:	05 8c 00 00 00       	add    $0x8c,%eax
 801:	8b 00                	mov    (%eax),%eax
 803:	89 5c 24 08          	mov    %ebx,0x8(%esp)
 807:	89 44 24 04          	mov    %eax,0x4(%esp)
 80b:	c7 04 24 01 00 00 00 	movl   $0x1,(%esp)
 812:	e8 fc ff ff ff       	call   813 <jpstat_detailed_results+0x22b>
 817:	8d 45 f8             	lea    -0x8(%ebp),%eax
 81a:	83 00 01             	addl   $0x1,(%eax)
 81d:	8b 45 08             	mov    0x8(%ebp),%eax
 820:	8b 80 68 1d 00 00    	mov    0x1d68(%eax),%eax
 826:	3b 45 f8             	cmp    -0x8(%ebp),%eax
 829:	0f 8f cc fd ff ff    	jg     5fb <jpstat_detailed_results+0x13>
 82f:	83 c4 24             	add    $0x24,%esp
 832:	5b                   	pop    %ebx
 833:	5d                   	pop    %ebp
 834:	c3                   	ret    

00000835 <jpstats_results>:
 835:	55                   	push   %ebp
 836:	89 e5                	mov    %esp,%ebp
 838:	81 ec b8 00 00 00    	sub    $0xb8,%esp
 83e:	c7 45 ec 00 00 00 00 	movl   $0x0,-0x14(%ebp)
 845:	c7 45 f0 00 00 00 00 	movl   $0x0,-0x10(%ebp)
 84c:	c7 45 f4 00 00 00 00 	movl   $0x0,-0xc(%ebp)
 853:	c7 45 f8 00 00 00 00 	movl   $0x0,-0x8(%ebp)
 85a:	c7 04 24 eb 00 00 00 	movl   $0xeb,(%esp)
 861:	e8 fc ff ff ff       	call   862 <jpstats_results+0x2d>
 866:	89 44 24 08          	mov    %eax,0x8(%esp)
 86a:	c7 44 24 04 eb 00 00 	movl   $0xeb,0x4(%esp)
 871:	00 
 872:	c7 04 24 01 00 00 00 	movl   $0x1,(%esp)
 879:	e8 fc ff ff ff       	call   87a <jpstats_results+0x45>
 87e:	8b 45 08             	mov    0x8(%ebp),%eax
 881:	05 e8 1c 00 00       	add    $0x1ce8,%eax
 886:	89 04 24             	mov    %eax,(%esp)
 889:	e8 fc ff ff ff       	call   88a <jpstats_results+0x55>
 88e:	8b 55 08             	mov    0x8(%ebp),%edx
 891:	81 c2 e8 1c 00 00    	add    $0x1ce8,%edx
 897:	89 44 24 08          	mov    %eax,0x8(%esp)
 89b:	89 54 24 04          	mov    %edx,0x4(%esp)
 89f:	c7 04 24 01 00 00 00 	movl   $0x1,(%esp)
 8a6:	e8 fc ff ff ff       	call   8a7 <jpstats_results+0x72>
 8ab:	c7 04 24 05 01 00 00 	movl   $0x105,(%esp)
 8b2:	e8 fc ff ff ff       	call   8b3 <jpstats_results+0x7e>
 8b7:	89 44 24 08          	mov    %eax,0x8(%esp)
 8bb:	c7 44 24 04 0a 01 00 	movl   $0x10a,0x4(%esp)
 8c2:	00 
 8c3:	c7 04 24 01 00 00 00 	movl   $0x1,(%esp)
 8ca:	e8 fc ff ff ff       	call   8cb <jpstats_results+0x96>
 8cf:	8b 45 08             	mov    0x8(%ebp),%eax
 8d2:	89 04 24             	mov    %eax,(%esp)
 8d5:	e8 fc ff ff ff       	call   8d6 <jpstats_results+0xa1>
 8da:	c7 45 fc 00 00 00 00 	movl   $0x0,-0x4(%ebp)
 8e1:	e9 87 00 00 00       	jmp    96d <jpstats_results+0x138>
 8e6:	8b 4d 08             	mov    0x8(%ebp),%ecx
 8e9:	8b 55 fc             	mov    -0x4(%ebp),%edx
 8ec:	89 d0                	mov    %edx,%eax
 8ee:	c1 e0 03             	shl    $0x3,%eax
 8f1:	01 d0                	add    %edx,%eax
 8f3:	01 c0                	add    %eax,%eax
 8f5:	01 c0                	add    %eax,%eax
 8f7:	01 d0                	add    %edx,%eax
 8f9:	01 c0                	add    %eax,%eax
 8fb:	01 c0                	add    %eax,%eax
 8fd:	8d 04 01             	lea    (%ecx,%eax,1),%eax
 900:	89 04 24             	mov    %eax,(%esp)
 903:	e8 fc ff ff ff       	call   904 <jpstats_results+0xcf>
 908:	89 85 5c ff ff ff    	mov    %eax,-0xa4(%ebp)
 90e:	83 bd 5c ff ff ff 01 	cmpl   $0x1,-0xa4(%ebp)
 915:	74 24                	je     93b <jpstats_results+0x106>
 917:	83 bd 5c ff ff ff 01 	cmpl   $0x1,-0xa4(%ebp)
 91e:	72 0b                	jb     92b <jpstats_results+0xf6>
 920:	83 bd 5c ff ff ff 02 	cmpl   $0x2,-0xa4(%ebp)
 927:	74 0a                	je     933 <jpstats_results+0xfe>
 929:	eb 18                	jmp    943 <jpstats_results+0x10e>
 92b:	8d 45 ec             	lea    -0x14(%ebp),%eax
 92e:	83 00 01             	addl   $0x1,(%eax)
 931:	eb 34                	jmp    967 <jpstats_results+0x132>
 933:	8d 45 f0             	lea    -0x10(%ebp),%eax
 936:	83 00 01             	addl   $0x1,(%eax)
 939:	eb 2c                	jmp    967 <jpstats_results+0x132>
 93b:	8d 45 f4             	lea    -0xc(%ebp),%eax
 93e:	83 00 01             	addl   $0x1,(%eax)
 941:	eb 24                	jmp    967 <jpstats_results+0x132>
 943:	c7 04 24 10 01 00 00 	movl   $0x110,(%esp)
 94a:	e8 fc ff ff ff       	call   94b <jpstats_results+0x116>
 94f:	89 44 24 08          	mov    %eax,0x8(%esp)
 953:	c7 44 24 04 10 01 00 	movl   $0x110,0x4(%esp)
 95a:	00 
 95b:	c7 04 24 01 00 00 00 	movl   $0x1,(%esp)
 962:	e8 fc ff ff ff       	call   963 <jpstats_results+0x12e>
 967:	8d 45 fc             	lea    -0x4(%ebp),%eax
 96a:	83 00 01             	addl   $0x1,(%eax)
 96d:	8b 45 08             	mov    0x8(%ebp),%eax
 970:	8b 80 68 1d 00 00    	mov    0x1d68(%eax),%eax
 976:	3b 45 fc             	cmp    -0x4(%ebp),%eax
 979:	0f 8f 67 ff ff ff    	jg     8e6 <jpstats_results+0xb1>
 97f:	c7 04 24 23 01 00 00 	movl   $0x123,(%esp)
 986:	e8 fc ff ff ff       	call   987 <jpstats_results+0x152>
 98b:	89 44 24 08          	mov    %eax,0x8(%esp)
 98f:	c7 44 24 04 23 01 00 	movl   $0x123,0x4(%esp)
 996:	00 
 997:	c7 04 24 01 00 00 00 	movl   $0x1,(%esp)
 99e:	e8 fc ff ff ff       	call   99f <jpstats_results+0x16a>
 9a3:	c7 04 24 3b 01 00 00 	movl   $0x13b,(%esp)
 9aa:	e8 fc ff ff ff       	call   9ab <jpstats_results+0x176>
 9af:	89 44 24 08          	mov    %eax,0x8(%esp)
 9b3:	c7 44 24 04 3b 01 00 	movl   $0x13b,0x4(%esp)
 9ba:	00 
 9bb:	c7 04 24 01 00 00 00 	movl   $0x1,(%esp)
 9c2:	e8 fc ff ff ff       	call   9c3 <jpstats_results+0x18e>
 9c7:	8d 85 6c ff ff ff    	lea    -0x94(%ebp),%eax
 9cd:	89 44 24 04          	mov    %eax,0x4(%esp)
 9d1:	8b 45 ec             	mov    -0x14(%ebp),%eax
 9d4:	89 04 24             	mov    %eax,(%esp)
 9d7:	e8 fc ff ff ff       	call   9d8 <jpstats_results+0x1a3>
 9dc:	8d 85 6c ff ff ff    	lea    -0x94(%ebp),%eax
 9e2:	89 04 24             	mov    %eax,(%esp)
 9e5:	e8 fc ff ff ff       	call   9e6 <jpstats_results+0x1b1>
 9ea:	89 44 24 08          	mov    %eax,0x8(%esp)
 9ee:	8d 85 6c ff ff ff    	lea    -0x94(%ebp),%eax
 9f4:	89 44 24 04          	mov    %eax,0x4(%esp)
 9f8:	c7 04 24 01 00 00 00 	movl   $0x1,(%esp)
 9ff:	e8 fc ff ff ff       	call   a00 <jpstats_results+0x1cb>
 a04:	c7 04 24 48 01 00 00 	movl   $0x148,(%esp)
 a0b:	e8 fc ff ff ff       	call   a0c <jpstats_results+0x1d7>
 a10:	89 44 24 08          	mov    %eax,0x8(%esp)
 a14:	c7 44 24 04 48 01 00 	movl   $0x148,0x4(%esp)
 a1b:	00 
 a1c:	c7 04 24 01 00 00 00 	movl   $0x1,(%esp)
 a23:	e8 fc ff ff ff       	call   a24 <jpstats_results+0x1ef>
 a28:	8d 85 6c ff ff ff    	lea    -0x94(%ebp),%eax
 a2e:	89 44 24 04          	mov    %eax,0x4(%esp)
 a32:	8b 45 f4             	mov    -0xc(%ebp),%eax
 a35:	89 04 24             	mov    %eax,(%esp)
 a38:	e8 fc ff ff ff       	call   a39 <jpstats_results+0x204>
 a3d:	8d 85 6c ff ff ff    	lea    -0x94(%ebp),%eax
 a43:	89 04 24             	mov    %eax,(%esp)
 a46:	e8 fc ff ff ff       	call   a47 <jpstats_results+0x212>
 a4b:	89 44 24 08          	mov    %eax,0x8(%esp)
 a4f:	8d 85 6c ff ff ff    	lea    -0x94(%ebp),%eax
 a55:	89 44 24 04          	mov    %eax,0x4(%esp)
 a59:	c7 04 24 01 00 00 00 	movl   $0x1,(%esp)
 a60:	e8 fc ff ff ff       	call   a61 <jpstats_results+0x22c>
 a65:	c7 04 24 58 01 00 00 	movl   $0x158,(%esp)
 a6c:	e8 fc ff ff ff       	call   a6d <jpstats_results+0x238>
 a71:	89 44 24 08          	mov    %eax,0x8(%esp)
 a75:	c7 44 24 04 58 01 00 	movl   $0x158,0x4(%esp)
 a7c:	00 
 a7d:	c7 04 24 01 00 00 00 	movl   $0x1,(%esp)
 a84:	e8 fc ff ff ff       	call   a85 <jpstats_results+0x250>
 a89:	8d 85 6c ff ff ff    	lea    -0x94(%ebp),%eax
 a8f:	89 44 24 04          	mov    %eax,0x4(%esp)
 a93:	8b 45 f0             	mov    -0x10(%ebp),%eax
 a96:	89 04 24             	mov    %eax,(%esp)
 a99:	e8 fc ff ff ff       	call   a9a <jpstats_results+0x265>
 a9e:	8d 85 6c ff ff ff    	lea    -0x94(%ebp),%eax
 aa4:	89 04 24             	mov    %eax,(%esp)
 aa7:	e8 fc ff ff ff       	call   aa8 <jpstats_results+0x273>
 aac:	89 44 24 08          	mov    %eax,0x8(%esp)
 ab0:	8d 85 6c ff ff ff    	lea    -0x94(%ebp),%eax
 ab6:	89 44 24 04          	mov    %eax,0x4(%esp)
 aba:	c7 04 24 01 00 00 00 	movl   $0x1,(%esp)
 ac1:	e8 fc ff ff ff       	call   ac2 <jpstats_results+0x28d>
 ac6:	c7 44 24 08 01 00 00 	movl   $0x1,0x8(%esp)
 acd:	00 
 ace:	c7 44 24 04 65 01 00 	movl   $0x165,0x4(%esp)
 ad5:	00 
 ad6:	c7 04 24 01 00 00 00 	movl   $0x1,(%esp)
 add:	e8 fc ff ff ff       	call   ade <jpstats_results+0x2a9>
 ae2:	c9                   	leave  
 ae3:	c3                   	ret    

jp.o:     file format elf32-i386


Disassembly of section .text:

00000000 <jp_run>:
   0:	55                   	push   %ebp
   1:	89 e5                	mov    %esp,%ebp
   3:	83 ec 08             	sub    $0x8,%esp
   6:	8b 45 08             	mov    0x8(%ebp),%eax
   9:	8b 90 90 00 00 00    	mov    0x90(%eax),%edx
   f:	8b 45 08             	mov    0x8(%ebp),%eax
  12:	89 04 24             	mov    %eax,(%esp)
  15:	ff d2                	call   *%edx
  17:	c9                   	leave  
  18:	c3                   	ret    

00000019 <get_jp_result>:
  19:	55                   	push   %ebp
  1a:	89 e5                	mov    %esp,%ebp
  1c:	8b 45 08             	mov    0x8(%ebp),%eax
  1f:	8b 80 88 00 00 00    	mov    0x88(%eax),%eax
  25:	5d                   	pop    %ebp
  26:	c3                   	ret    

00000027 <get_jp_descr>:
  27:	55                   	push   %ebp
  28:	89 e5                	mov    %esp,%ebp
  2a:	8b 45 08             	mov    0x8(%ebp),%eax
  2d:	5d                   	pop    %ebp
  2e:	c3                   	ret    

0000002f <new_jp>:
  2f:	55                   	push   %ebp
  30:	89 e5                	mov    %esp,%ebp
  32:	83 ec 08             	sub    $0x8,%esp
  35:	8b 55 08             	mov    0x8(%ebp),%edx
  38:	8b 45 0c             	mov    0xc(%ebp),%eax
  3b:	89 82 80 00 00 00    	mov    %eax,0x80(%edx)
  41:	8b 55 08             	mov    0x8(%ebp),%edx
  44:	8b 45 10             	mov    0x10(%ebp),%eax
  47:	89 82 84 00 00 00    	mov    %eax,0x84(%edx)
  4d:	8b 55 08             	mov    0x8(%ebp),%edx
  50:	8b 45 14             	mov    0x14(%ebp),%eax
  53:	89 44 24 04          	mov    %eax,0x4(%esp)
  57:	89 14 24             	mov    %edx,(%esp)
  5a:	e8 fc ff ff ff       	call   5b <new_jp+0x2c>
  5f:	8b 55 08             	mov    0x8(%ebp),%edx
  62:	8b 45 18             	mov    0x18(%ebp),%eax
  65:	89 82 90 00 00 00    	mov    %eax,0x90(%edx)
  6b:	c9                   	leave  
  6c:	c3                   	ret    

0000006d <copy_jpstat>:
  6d:	55                   	push   %ebp
  6e:	89 e5                	mov    %esp,%ebp
  70:	83 ec 08             	sub    $0x8,%esp
  73:	8b 45 0c             	mov    0xc(%ebp),%eax
  76:	8b 90 80 00 00 00    	mov    0x80(%eax),%edx
  7c:	8b 45 08             	mov    0x8(%ebp),%eax
  7f:	89 90 80 00 00 00    	mov    %edx,0x80(%eax)
  85:	8b 45 0c             	mov    0xc(%ebp),%eax
  88:	8b 90 84 00 00 00    	mov    0x84(%eax),%edx
  8e:	8b 45 08             	mov    0x8(%ebp),%eax
  91:	89 90 84 00 00 00    	mov    %edx,0x84(%eax)
  97:	8b 45 0c             	mov    0xc(%ebp),%eax
  9a:	8b 55 08             	mov    0x8(%ebp),%edx
  9d:	89 44 24 04          	mov    %eax,0x4(%esp)
  a1:	89 14 24             	mov    %edx,(%esp)
  a4:	e8 fc ff ff ff       	call   a5 <copy_jpstat+0x38>
  a9:	8b 45 0c             	mov    0xc(%ebp),%eax
  ac:	8b 90 90 00 00 00    	mov    0x90(%eax),%edx
  b2:	8b 45 08             	mov    0x8(%ebp),%eax
  b5:	89 90 90 00 00 00    	mov    %edx,0x90(%eax)
  bb:	c9                   	leave  
  bc:	c3                   	ret    

utils_user.o:     file format elf32-i386


Disassembly of section .text:

00000000 <proso_strlen>:
   0:	55                   	push   %ebp
   1:	89 e5                	mov    %esp,%ebp
   3:	83 ec 10             	sub    $0x10,%esp
   6:	c7 45 fc 00 00 00 00 	movl   $0x0,-0x4(%ebp)
   d:	eb 06                	jmp    15 <proso_strlen+0x15>
   f:	8d 45 fc             	lea    -0x4(%ebp),%eax
  12:	83 00 01             	addl   $0x1,(%eax)
  15:	8b 45 fc             	mov    -0x4(%ebp),%eax
  18:	03 45 08             	add    0x8(%ebp),%eax
  1b:	0f b6 00             	movzbl (%eax),%eax
  1e:	84 c0                	test   %al,%al
  20:	75 ed                	jne    f <proso_strlen+0xf>
  22:	8b 45 fc             	mov    -0x4(%ebp),%eax
  25:	c9                   	leave  
  26:	c3                   	ret    

00000027 <proso_strcpy>:
  27:	55                   	push   %ebp
  28:	89 e5                	mov    %esp,%ebp
  2a:	83 ec 10             	sub    $0x10,%esp
  2d:	c7 45 fc 00 00 00 00 	movl   $0x0,-0x4(%ebp)
  34:	eb 19                	jmp    4f <proso_strcpy+0x28>
  36:	8b 45 fc             	mov    -0x4(%ebp),%eax
  39:	89 c2                	mov    %eax,%edx
  3b:	03 55 08             	add    0x8(%ebp),%edx
  3e:	8b 45 fc             	mov    -0x4(%ebp),%eax
  41:	03 45 0c             	add    0xc(%ebp),%eax
  44:	0f b6 00             	movzbl (%eax),%eax
  47:	88 02                	mov    %al,(%edx)
  49:	8d 45 fc             	lea    -0x4(%ebp),%eax
  4c:	83 00 01             	addl   $0x1,(%eax)
  4f:	8b 45 fc             	mov    -0x4(%ebp),%eax
  52:	03 45 0c             	add    0xc(%ebp),%eax
  55:	0f b6 00             	movzbl (%eax),%eax
  58:	84 c0                	test   %al,%al
  5a:	75 da                	jne    36 <proso_strcpy+0xf>
  5c:	8b 45 fc             	mov    -0x4(%ebp),%eax
  5f:	89 c2                	mov    %eax,%edx
  61:	03 55 08             	add    0x8(%ebp),%edx
  64:	8b 45 fc             	mov    -0x4(%ebp),%eax
  67:	03 45 0c             	add    0xc(%ebp),%eax
  6a:	0f b6 00             	movzbl (%eax),%eax
  6d:	88 02                	mov    %al,(%edx)
  6f:	8b 45 08             	mov    0x8(%ebp),%eax
  72:	c9                   	leave  
  73:	c3                   	ret    

00000074 <proso_itoa>:
  74:	55                   	push   %ebp
  75:	89 e5                	mov    %esp,%ebp
  77:	56                   	push   %esi
  78:	53                   	push   %ebx
  79:	83 ec 18             	sub    $0x18,%esp
  7c:	c7 45 f0 01 00 00 00 	movl   $0x1,-0x10(%ebp)
  83:	8b 45 08             	mov    0x8(%ebp),%eax
  86:	89 45 f4             	mov    %eax,-0xc(%ebp)
  89:	eb 26                	jmp    b1 <proso_itoa+0x3d>
  8b:	8d 45 f0             	lea    -0x10(%ebp),%eax
  8e:	83 00 01             	addl   $0x1,(%eax)
  91:	8b 4d f4             	mov    -0xc(%ebp),%ecx
  94:	c7 45 e0 67 66 66 66 	movl   $0x66666667,-0x20(%ebp)
  9b:	8b 45 e0             	mov    -0x20(%ebp),%eax
  9e:	f7 e9                	imul   %ecx
  a0:	c1 fa 02             	sar    $0x2,%edx
  a3:	89 c8                	mov    %ecx,%eax
  a5:	c1 f8 1f             	sar    $0x1f,%eax
  a8:	89 d1                	mov    %edx,%ecx
  aa:	29 c1                	sub    %eax,%ecx
  ac:	89 c8                	mov    %ecx,%eax
  ae:	89 45 f4             	mov    %eax,-0xc(%ebp)
  b1:	8b 45 f4             	mov    -0xc(%ebp),%eax
  b4:	83 c0 09             	add    $0x9,%eax
  b7:	83 f8 12             	cmp    $0x12,%eax
  ba:	77 cf                	ja     8b <proso_itoa+0x17>
  bc:	8b 45 f0             	mov    -0x10(%ebp),%eax
  bf:	03 45 0c             	add    0xc(%ebp),%eax
  c2:	c6 00 00             	movb   $0x0,(%eax)
  c5:	8b 45 08             	mov    0x8(%ebp),%eax
  c8:	89 45 f4             	mov    %eax,-0xc(%ebp)
  cb:	8d 45 f0             	lea    -0x10(%ebp),%eax
  ce:	83 28 01             	subl   $0x1,(%eax)
  d1:	eb 67                	jmp    13a <proso_itoa+0xc6>
  d3:	8b 45 f0             	mov    -0x10(%ebp),%eax
  d6:	89 c3                	mov    %eax,%ebx
  d8:	03 5d 0c             	add    0xc(%ebp),%ebx
  db:	8b 4d f4             	mov    -0xc(%ebp),%ecx
  de:	c7 45 e0 67 66 66 66 	movl   $0x66666667,-0x20(%ebp)
  e5:	8b 45 e0             	mov    -0x20(%ebp),%eax
  e8:	f7 e9                	imul   %ecx
  ea:	c1 fa 02             	sar    $0x2,%edx
  ed:	89 c8                	mov    %ecx,%eax
  ef:	c1 f8 1f             	sar    $0x1f,%eax
  f2:	89 d6                	mov    %edx,%esi
  f4:	29 c6                	sub    %eax,%esi
  f6:	89 75 e4             	mov    %esi,-0x1c(%ebp)
  f9:	8b 45 e4             	mov    -0x1c(%ebp),%eax
  fc:	01 c0                	add    %eax,%eax
  fe:	01 c0                	add    %eax,%eax
 100:	03 45 e4             	add    -0x1c(%ebp),%eax
 103:	01 c0                	add    %eax,%eax
 105:	89 ca                	mov    %ecx,%edx
 107:	29 c2                	sub    %eax,%edx
 109:	89 55 e4             	mov    %edx,-0x1c(%ebp)
 10c:	0f b6 45 e4          	movzbl -0x1c(%ebp),%eax
 110:	04 30                	add    $0x30,%al
 112:	88 03                	mov    %al,(%ebx)
 114:	8b 4d f4             	mov    -0xc(%ebp),%ecx
 117:	c7 45 e0 67 66 66 66 	movl   $0x66666667,-0x20(%ebp)
 11e:	8b 45 e0             	mov    -0x20(%ebp),%eax
 121:	f7 e9                	imul   %ecx
 123:	c1 fa 02             	sar    $0x2,%edx
 126:	89 c8                	mov    %ecx,%eax
 128:	c1 f8 1f             	sar    $0x1f,%eax
 12b:	89 d1                	mov    %edx,%ecx
 12d:	29 c1                	sub    %eax,%ecx
 12f:	89 c8                	mov    %ecx,%eax
 131:	89 45 f4             	mov    %eax,-0xc(%ebp)
 134:	8d 45 f0             	lea    -0x10(%ebp),%eax
 137:	83 28 01             	subl   $0x1,(%eax)
 13a:	83 7d f0 00          	cmpl   $0x0,-0x10(%ebp)
 13e:	7f 93                	jg     d3 <proso_itoa+0x5f>
 140:	8b 45 f4             	mov    -0xc(%ebp),%eax
 143:	8d 50 30             	lea    0x30(%eax),%edx
 146:	8b 45 0c             	mov    0xc(%ebp),%eax
 149:	88 10                	mov    %dl,(%eax)
 14b:	83 c4 18             	add    $0x18,%esp
 14e:	5b                   	pop    %ebx
 14f:	5e                   	pop    %esi
 150:	5d                   	pop    %ebp
 151:	c3                   	ret    

00000152 <get_tics>:
 152:	55                   	push   %ebp
 153:	89 e5                	mov    %esp,%ebp
 155:	8b 45 08             	mov    0x8(%ebp),%eax
 158:	5d                   	pop    %ebp
 159:	c3                   	ret    

0000015a <get_cs>:
 15a:	55                   	push   %ebp
 15b:	89 e5                	mov    %esp,%ebp
 15d:	8b 45 0c             	mov    0xc(%ebp),%eax
 160:	5d                   	pop    %ebp
 161:	c3                   	ret    

00000162 <get_remaining_quantum>:
 162:	55                   	push   %ebp
 163:	89 e5                	mov    %esp,%ebp
 165:	8b 45 10             	mov    0x10(%ebp),%eax
 168:	5d                   	pop    %ebp
 169:	c3                   	ret    

jpE1.2.o:     file format elf32-i386


Disassembly of section .text:

00000000 <init_deliver2>:
       0:	55                   	push   %ebp
       1:	89 e5                	mov    %esp,%ebp
       3:	83 ec 18             	sub    $0x18,%esp
       6:	c7 44 24 14 00 00 00 	movl   $0x0,0x14(%esp)
       d:	00 
       e:	c7 44 24 10 00 00 00 	movl   $0x0,0x10(%esp)
      15:	00 
      16:	c7 44 24 0c 00 00 00 	movl   $0x0,0xc(%esp)
      1d:	00 
      1e:	c7 44 24 08 46 00 00 	movl   $0x46,0x8(%esp)
      25:	00 
      26:	c7 44 24 04 00 00 00 	movl   $0x0,0x4(%esp)
      2d:	00 
      2e:	8b 45 08             	mov    0x8(%ebp),%eax
      31:	89 04 24             	mov    %eax,(%esp)
      34:	e8 fc ff ff ff       	call   35 <init_deliver2+0x35>
      39:	c7 44 24 14 00 00 00 	movl   $0x0,0x14(%esp)
      40:	00 
      41:	c7 44 24 10 00 00 00 	movl   $0x0,0x10(%esp)
      48:	00 
      49:	c7 44 24 0c 70 00 00 	movl   $0x70,0xc(%esp)
      50:	00 
      51:	c7 44 24 08 6e 00 00 	movl   $0x6e,0x8(%esp)
      58:	00 
      59:	c7 44 24 04 0c 00 00 	movl   $0xc,0x4(%esp)
      60:	00 
      61:	8b 45 08             	mov    0x8(%ebp),%eax
      64:	89 04 24             	mov    %eax,(%esp)
      67:	e8 fc ff ff ff       	call   68 <init_deliver2+0x68>
      6c:	c7 44 24 14 00 00 00 	movl   $0x0,0x14(%esp)
      73:	00 
      74:	c7 44 24 10 00 00 00 	movl   $0x0,0x10(%esp)
      7b:	00 
      7c:	c7 44 24 0c 00 00 00 	movl   $0x0,0xc(%esp)
      83:	00 
      84:	c7 44 24 08 28 00 00 	movl   $0x28,0x8(%esp)
      8b:	00 
      8c:	c7 44 24 04 34 00 00 	movl   $0x34,0x4(%esp)
      93:	00 
      94:	8b 45 08             	mov    0x8(%ebp),%eax
      97:	89 04 24             	mov    %eax,(%esp)
      9a:	e8 fc ff ff ff       	call   9b <init_deliver2+0x9b>
      9f:	c7 44 24 14 00 00 00 	movl   $0x0,0x14(%esp)
      a6:	00 
      a7:	c7 44 24 10 00 00 00 	movl   $0x0,0x10(%esp)
      ae:	00 
      af:	c7 44 24 0c 01 00 00 	movl   $0x1,0xc(%esp)
      b6:	00 
      b7:	c7 44 24 08 28 00 00 	movl   $0x28,0x8(%esp)
      be:	00 
      bf:	c7 44 24 04 58 00 00 	movl   $0x58,0x4(%esp)
      c6:	00 
      c7:	8b 45 08             	mov    0x8(%ebp),%eax
      ca:	89 04 24             	mov    %eax,(%esp)
      cd:	e8 fc ff ff ff       	call   ce <init_deliver2+0xce>
      d2:	c7 44 24 14 00 00 00 	movl   $0x0,0x14(%esp)
      d9:	00 
      da:	c7 44 24 10 00 00 00 	movl   $0x0,0x10(%esp)
      e1:	00 
      e2:	c7 44 24 0c 02 00 00 	movl   $0x2,0xc(%esp)
      e9:	00 
      ea:	c7 44 24 08 28 00 00 	movl   $0x28,0x8(%esp)
      f1:	00 
      f2:	c7 44 24 04 75 00 00 	movl   $0x75,0x4(%esp)
      f9:	00 
      fa:	8b 45 08             	mov    0x8(%ebp),%eax
      fd:	89 04 24             	mov    %eax,(%esp)
     100:	e8 fc ff ff ff       	call   101 <init_deliver2+0x101>
     105:	c7 44 24 14 00 00 00 	movl   $0x0,0x14(%esp)
     10c:	00 
     10d:	c7 44 24 10 00 00 00 	movl   $0x0,0x10(%esp)
     114:	00 
     115:	c7 44 24 0c 00 00 00 	movl   $0x0,0xc(%esp)
     11c:	00 
     11d:	c7 44 24 08 3c 00 00 	movl   $0x3c,0x8(%esp)
     124:	00 
     125:	c7 44 24 04 88 00 00 	movl   $0x88,0x4(%esp)
     12c:	00 
     12d:	8b 45 08             	mov    0x8(%ebp),%eax
     130:	89 04 24             	mov    %eax,(%esp)
     133:	e8 fc ff ff ff       	call   134 <init_deliver2+0x134>
     138:	c7 44 24 14 00 00 00 	movl   $0x0,0x14(%esp)
     13f:	00 
     140:	c7 44 24 10 00 00 00 	movl   $0x0,0x10(%esp)
     147:	00 
     148:	c7 44 24 0c 01 00 00 	movl   $0x1,0xc(%esp)
     14f:	00 
     150:	c7 44 24 08 3c 00 00 	movl   $0x3c,0x8(%esp)
     157:	00 
     158:	c7 44 24 04 b0 00 00 	movl   $0xb0,0x4(%esp)
     15f:	00 
     160:	8b 45 08             	mov    0x8(%ebp),%eax
     163:	89 04 24             	mov    %eax,(%esp)
     166:	e8 fc ff ff ff       	call   167 <init_deliver2+0x167>
     16b:	c7 44 24 14 00 00 00 	movl   $0x0,0x14(%esp)
     172:	00 
     173:	c7 44 24 10 00 00 00 	movl   $0x0,0x10(%esp)
     17a:	00 
     17b:	c7 44 24 0c 02 00 00 	movl   $0x2,0xc(%esp)
     182:	00 
     183:	c7 44 24 08 3c 00 00 	movl   $0x3c,0x8(%esp)
     18a:	00 
     18b:	c7 44 24 04 d8 00 00 	movl   $0xd8,0x4(%esp)
     192:	00 
     193:	8b 45 08             	mov    0x8(%ebp),%eax
     196:	89 04 24             	mov    %eax,(%esp)
     199:	e8 fc ff ff ff       	call   19a <init_deliver2+0x19a>
     19e:	c7 44 24 14 00 00 00 	movl   $0x0,0x14(%esp)
     1a5:	00 
     1a6:	c7 44 24 10 00 00 00 	movl   $0x0,0x10(%esp)
     1ad:	00 
     1ae:	c7 44 24 0c 15 00 00 	movl   $0x15,0xc(%esp)
     1b5:	00 
     1b6:	c7 44 24 08 3c 00 00 	movl   $0x3c,0x8(%esp)
     1bd:	00 
     1be:	c7 44 24 04 00 01 00 	movl   $0x100,0x4(%esp)
     1c5:	00 
     1c6:	8b 45 08             	mov    0x8(%ebp),%eax
     1c9:	89 04 24             	mov    %eax,(%esp)
     1cc:	e8 fc ff ff ff       	call   1cd <init_deliver2+0x1cd>
     1d1:	c7 44 24 14 00 00 00 	movl   $0x0,0x14(%esp)
     1d8:	00 
     1d9:	c7 44 24 10 00 00 00 	movl   $0x0,0x10(%esp)
     1e0:	00 
     1e1:	c7 44 24 0c 16 00 00 	movl   $0x16,0xc(%esp)
     1e8:	00 
     1e9:	c7 44 24 08 3c 00 00 	movl   $0x3c,0x8(%esp)
     1f0:	00 
     1f1:	c7 44 24 04 38 01 00 	movl   $0x138,0x4(%esp)
     1f8:	00 
     1f9:	8b 45 08             	mov    0x8(%ebp),%eax
     1fc:	89 04 24             	mov    %eax,(%esp)
     1ff:	e8 fc ff ff ff       	call   200 <init_deliver2+0x200>
     204:	c7 44 24 14 00 00 00 	movl   $0x0,0x14(%esp)
     20b:	00 
     20c:	c7 44 24 10 00 00 00 	movl   $0x0,0x10(%esp)
     213:	00 
     214:	c7 44 24 0c 03 00 00 	movl   $0x3,0xc(%esp)
     21b:	00 
     21c:	c7 44 24 08 3c 00 00 	movl   $0x3c,0x8(%esp)
     223:	00 
     224:	c7 44 24 04 70 01 00 	movl   $0x170,0x4(%esp)
     22b:	00 
     22c:	8b 45 08             	mov    0x8(%ebp),%eax
     22f:	89 04 24             	mov    %eax,(%esp)
     232:	e8 fc ff ff ff       	call   233 <init_deliver2+0x233>
     237:	c7 44 24 14 00 00 00 	movl   $0x0,0x14(%esp)
     23e:	00 
     23f:	c7 44 24 10 00 00 00 	movl   $0x0,0x10(%esp)
     246:	00 
     247:	c7 44 24 0c 00 00 00 	movl   $0x0,0xc(%esp)
     24e:	00 
     24f:	c7 44 24 08 50 00 00 	movl   $0x50,0x8(%esp)
     256:	00 
     257:	c7 44 24 04 94 01 00 	movl   $0x194,0x4(%esp)
     25e:	00 
     25f:	8b 45 08             	mov    0x8(%ebp),%eax
     262:	89 04 24             	mov    %eax,(%esp)
     265:	e8 fc ff ff ff       	call   266 <init_deliver2+0x266>
     26a:	c7 44 24 14 00 00 00 	movl   $0x0,0x14(%esp)
     271:	00 
     272:	c7 44 24 10 00 00 00 	movl   $0x0,0x10(%esp)
     279:	00 
     27a:	c7 44 24 0c 01 00 00 	movl   $0x1,0xc(%esp)
     281:	00 
     282:	c7 44 24 08 50 00 00 	movl   $0x50,0x8(%esp)
     289:	00 
     28a:	c7 44 24 04 d0 01 00 	movl   $0x1d0,0x4(%esp)
     291:	00 
     292:	8b 45 08             	mov    0x8(%ebp),%eax
     295:	89 04 24             	mov    %eax,(%esp)
     298:	e8 fc ff ff ff       	call   299 <init_deliver2+0x299>
     29d:	c7 44 24 14 00 00 00 	movl   $0x0,0x14(%esp)
     2a4:	00 
     2a5:	c7 44 24 10 00 00 00 	movl   $0x0,0x10(%esp)
     2ac:	00 
     2ad:	c7 44 24 0c 6f 00 00 	movl   $0x6f,0xc(%esp)
     2b4:	00 
     2b5:	c7 44 24 08 6e 00 00 	movl   $0x6e,0x8(%esp)
     2bc:	00 
     2bd:	c7 44 24 04 fb 01 00 	movl   $0x1fb,0x4(%esp)
     2c4:	00 
     2c5:	8b 45 08             	mov    0x8(%ebp),%eax
     2c8:	89 04 24             	mov    %eax,(%esp)
     2cb:	e8 fc ff ff ff       	call   2cc <init_deliver2+0x2cc>
     2d0:	c7 44 24 14 00 00 00 	movl   $0x0,0x14(%esp)
     2d7:	00 
     2d8:	c7 44 24 10 00 00 00 	movl   $0x0,0x10(%esp)
     2df:	00 
     2e0:	c7 44 24 0c 02 00 00 	movl   $0x2,0xc(%esp)
     2e7:	00 
     2e8:	c7 44 24 08 50 00 00 	movl   $0x50,0x8(%esp)
     2ef:	00 
     2f0:	c7 44 24 04 0c 02 00 	movl   $0x20c,0x4(%esp)
     2f7:	00 
     2f8:	8b 45 08             	mov    0x8(%ebp),%eax
     2fb:	89 04 24             	mov    %eax,(%esp)
     2fe:	e8 fc ff ff ff       	call   2ff <init_deliver2+0x2ff>
     303:	c7 44 24 14 00 00 00 	movl   $0x0,0x14(%esp)
     30a:	00 
     30b:	c7 44 24 10 00 00 00 	movl   $0x0,0x10(%esp)
     312:	00 
     313:	c7 44 24 0c 03 00 00 	movl   $0x3,0xc(%esp)
     31a:	00 
     31b:	c7 44 24 08 50 00 00 	movl   $0x50,0x8(%esp)
     322:	00 
     323:	c7 44 24 04 4c 02 00 	movl   $0x24c,0x4(%esp)
     32a:	00 
     32b:	8b 45 08             	mov    0x8(%ebp),%eax
     32e:	89 04 24             	mov    %eax,(%esp)
     331:	e8 fc ff ff ff       	call   332 <init_deliver2+0x332>
     336:	c7 44 24 14 00 00 00 	movl   $0x0,0x14(%esp)
     33d:	00 
     33e:	c7 44 24 10 00 00 00 	movl   $0x0,0x10(%esp)
     345:	00 
     346:	c7 44 24 0c 04 00 00 	movl   $0x4,0xc(%esp)
     34d:	00 
     34e:	c7 44 24 08 50 00 00 	movl   $0x50,0x8(%esp)
     355:	00 
     356:	c7 44 24 04 74 02 00 	movl   $0x274,0x4(%esp)
     35d:	00 
     35e:	8b 45 08             	mov    0x8(%ebp),%eax
     361:	89 04 24             	mov    %eax,(%esp)
     364:	e8 fc ff ff ff       	call   365 <init_deliver2+0x365>
     369:	c7 44 24 14 00 00 00 	movl   $0x0,0x14(%esp)
     370:	00 
     371:	c7 44 24 10 00 00 00 	movl   $0x0,0x10(%esp)
     378:	00 
     379:	c7 44 24 0c 0e 00 00 	movl   $0xe,0xc(%esp)
     380:	00 
     381:	c7 44 24 08 50 00 00 	movl   $0x50,0x8(%esp)
     388:	00 
     389:	c7 44 24 04 87 02 00 	movl   $0x287,0x4(%esp)
     390:	00 
     391:	8b 45 08             	mov    0x8(%ebp),%eax
     394:	89 04 24             	mov    %eax,(%esp)
     397:	e8 fc ff ff ff       	call   398 <init_deliver2+0x398>
     39c:	c7 44 24 14 00 00 00 	movl   $0x0,0x14(%esp)
     3a3:	00 
     3a4:	c7 44 24 10 00 00 00 	movl   $0x0,0x10(%esp)
     3ab:	00 
     3ac:	c7 44 24 0c 0f 00 00 	movl   $0xf,0xc(%esp)
     3b3:	00 
     3b4:	c7 44 24 08 50 00 00 	movl   $0x50,0x8(%esp)
     3bb:	00 
     3bc:	c7 44 24 04 9e 02 00 	movl   $0x29e,0x4(%esp)
     3c3:	00 
     3c4:	8b 45 08             	mov    0x8(%ebp),%eax
     3c7:	89 04 24             	mov    %eax,(%esp)
     3ca:	e8 fc ff ff ff       	call   3cb <init_deliver2+0x3cb>
     3cf:	c7 44 24 14 00 00 00 	movl   $0x0,0x14(%esp)
     3d6:	00 
     3d7:	c7 44 24 10 00 00 00 	movl   $0x0,0x10(%esp)
     3de:	00 
     3df:	c7 44 24 0c 10 00 00 	movl   $0x10,0xc(%esp)
     3e6:	00 
     3e7:	c7 44 24 08 50 00 00 	movl   $0x50,0x8(%esp)
     3ee:	00 
     3ef:	c7 44 24 04 b8 02 00 	movl   $0x2b8,0x4(%esp)
     3f6:	00 
     3f7:	8b 45 08             	mov    0x8(%ebp),%eax
     3fa:	89 04 24             	mov    %eax,(%esp)
     3fd:	e8 fc ff ff ff       	call   3fe <init_deliver2+0x3fe>
     402:	c7 44 24 14 00 00 00 	movl   $0x0,0x14(%esp)
     409:	00 
     40a:	c7 44 24 10 00 00 00 	movl   $0x0,0x10(%esp)
     411:	00 
     412:	c7 44 24 0c 05 00 00 	movl   $0x5,0xc(%esp)
     419:	00 
     41a:	c7 44 24 08 50 00 00 	movl   $0x50,0x8(%esp)
     421:	00 
     422:	c7 44 24 04 dc 02 00 	movl   $0x2dc,0x4(%esp)
     429:	00 
     42a:	8b 45 08             	mov    0x8(%ebp),%eax
     42d:	89 04 24             	mov    %eax,(%esp)
     430:	e8 fc ff ff ff       	call   431 <init_deliver2+0x431>
     435:	c7 44 24 14 00 00 00 	movl   $0x0,0x14(%esp)
     43c:	00 
     43d:	c7 44 24 10 00 00 00 	movl   $0x0,0x10(%esp)
     444:	00 
     445:	c7 44 24 0c 06 00 00 	movl   $0x6,0xc(%esp)
     44c:	00 
     44d:	c7 44 24 08 50 00 00 	movl   $0x50,0x8(%esp)
     454:	00 
     455:	c7 44 24 04 1c 03 00 	movl   $0x31c,0x4(%esp)
     45c:	00 
     45d:	8b 45 08             	mov    0x8(%ebp),%eax
     460:	89 04 24             	mov    %eax,(%esp)
     463:	e8 fc ff ff ff       	call   464 <init_deliver2+0x464>
     468:	c7 44 24 14 00 00 00 	movl   $0x0,0x14(%esp)
     46f:	00 
     470:	c7 44 24 10 00 00 00 	movl   $0x0,0x10(%esp)
     477:	00 
     478:	c7 44 24 0c 0b 00 00 	movl   $0xb,0xc(%esp)
     47f:	00 
     480:	c7 44 24 08 50 00 00 	movl   $0x50,0x8(%esp)
     487:	00 
     488:	c7 44 24 04 42 03 00 	movl   $0x342,0x4(%esp)
     48f:	00 
     490:	8b 45 08             	mov    0x8(%ebp),%eax
     493:	89 04 24             	mov    %eax,(%esp)
     496:	e8 fc ff ff ff       	call   497 <init_deliver2+0x497>
     49b:	c7 44 24 14 00 00 00 	movl   $0x0,0x14(%esp)
     4a2:	00 
     4a3:	c7 44 24 10 00 00 00 	movl   $0x0,0x10(%esp)
     4aa:	00 
     4ab:	c7 44 24 0c 00 00 00 	movl   $0x0,0xc(%esp)
     4b2:	00 
     4b3:	c7 44 24 08 1e 00 00 	movl   $0x1e,0x8(%esp)
     4ba:	00 
     4bb:	c7 44 24 04 57 03 00 	movl   $0x357,0x4(%esp)
     4c2:	00 
     4c3:	8b 45 08             	mov    0x8(%ebp),%eax
     4c6:	89 04 24             	mov    %eax,(%esp)
     4c9:	e8 fc ff ff ff       	call   4ca <init_deliver2+0x4ca>
     4ce:	c7 44 24 14 00 00 00 	movl   $0x0,0x14(%esp)
     4d5:	00 
     4d6:	c7 44 24 10 00 00 00 	movl   $0x0,0x10(%esp)
     4dd:	00 
     4de:	c7 44 24 0c 01 00 00 	movl   $0x1,0xc(%esp)
     4e5:	00 
     4e6:	c7 44 24 08 1e 00 00 	movl   $0x1e,0x8(%esp)
     4ed:	00 
     4ee:	c7 44 24 04 6a 03 00 	movl   $0x36a,0x4(%esp)
     4f5:	00 
     4f6:	8b 45 08             	mov    0x8(%ebp),%eax
     4f9:	89 04 24             	mov    %eax,(%esp)
     4fc:	e8 fc ff ff ff       	call   4fd <init_deliver2+0x4fd>
     501:	c7 44 24 14 00 00 00 	movl   $0x0,0x14(%esp)
     508:	00 
     509:	c7 44 24 10 00 00 00 	movl   $0x0,0x10(%esp)
     510:	00 
     511:	c7 44 24 0c 02 00 00 	movl   $0x2,0xc(%esp)
     518:	00 
     519:	c7 44 24 08 1e 00 00 	movl   $0x1e,0x8(%esp)
     520:	00 
     521:	c7 44 24 04 7c 03 00 	movl   $0x37c,0x4(%esp)
     528:	00 
     529:	8b 45 08             	mov    0x8(%ebp),%eax
     52c:	89 04 24             	mov    %eax,(%esp)
     52f:	e8 fc ff ff ff       	call   530 <init_deliver2+0x530>
     534:	c7 44 24 14 00 00 00 	movl   $0x0,0x14(%esp)
     53b:	00 
     53c:	c7 44 24 10 00 00 00 	movl   $0x0,0x10(%esp)
     543:	00 
     544:	c7 44 24 0c 03 00 00 	movl   $0x3,0xc(%esp)
     54b:	00 
     54c:	c7 44 24 08 1e 00 00 	movl   $0x1e,0x8(%esp)
     553:	00 
     554:	c7 44 24 04 91 03 00 	movl   $0x391,0x4(%esp)
     55b:	00 
     55c:	8b 45 08             	mov    0x8(%ebp),%eax
     55f:	89 04 24             	mov    %eax,(%esp)
     562:	e8 fc ff ff ff       	call   563 <init_deliver2+0x563>
     567:	c7 44 24 14 00 00 00 	movl   $0x0,0x14(%esp)
     56e:	00 
     56f:	c7 44 24 10 00 00 00 	movl   $0x0,0x10(%esp)
     576:	00 
     577:	c7 44 24 0c 07 00 00 	movl   $0x7,0xc(%esp)
     57e:	00 
     57f:	c7 44 24 08 50 00 00 	movl   $0x50,0x8(%esp)
     586:	00 
     587:	c7 44 24 04 a4 03 00 	movl   $0x3a4,0x4(%esp)
     58e:	00 
     58f:	8b 45 08             	mov    0x8(%ebp),%eax
     592:	89 04 24             	mov    %eax,(%esp)
     595:	e8 fc ff ff ff       	call   596 <init_deliver2+0x596>
     59a:	c7 44 24 14 00 00 00 	movl   $0x0,0x14(%esp)
     5a1:	00 
     5a2:	c7 44 24 10 00 00 00 	movl   $0x0,0x10(%esp)
     5a9:	00 
     5aa:	c7 44 24 0c 08 00 00 	movl   $0x8,0xc(%esp)
     5b1:	00 
     5b2:	c7 44 24 08 50 00 00 	movl   $0x50,0x8(%esp)
     5b9:	00 
     5ba:	c7 44 24 04 e0 03 00 	movl   $0x3e0,0x4(%esp)
     5c1:	00 
     5c2:	8b 45 08             	mov    0x8(%ebp),%eax
     5c5:	89 04 24             	mov    %eax,(%esp)
     5c8:	e8 fc ff ff ff       	call   5c9 <init_deliver2+0x5c9>
     5cd:	c7 44 24 14 00 00 00 	movl   $0x0,0x14(%esp)
     5d4:	00 
     5d5:	c7 44 24 10 00 00 00 	movl   $0x0,0x10(%esp)
     5dc:	00 
     5dd:	c7 44 24 0c 0c 00 00 	movl   $0xc,0xc(%esp)
     5e4:	00 
     5e5:	c7 44 24 08 50 00 00 	movl   $0x50,0x8(%esp)
     5ec:	00 
     5ed:	c7 44 24 04 04 04 00 	movl   $0x404,0x4(%esp)
     5f4:	00 
     5f5:	8b 45 08             	mov    0x8(%ebp),%eax
     5f8:	89 04 24             	mov    %eax,(%esp)
     5fb:	e8 fc ff ff ff       	call   5fc <init_deliver2+0x5fc>
     600:	c7 44 24 14 00 00 00 	movl   $0x0,0x14(%esp)
     607:	00 
     608:	c7 44 24 10 00 00 00 	movl   $0x0,0x10(%esp)
     60f:	00 
     610:	c7 44 24 0c 0d 00 00 	movl   $0xd,0xc(%esp)
     617:	00 
     618:	c7 44 24 08 50 00 00 	movl   $0x50,0x8(%esp)
     61f:	00 
     620:	c7 44 24 04 24 04 00 	movl   $0x424,0x4(%esp)
     627:	00 
     628:	8b 45 08             	mov    0x8(%ebp),%eax
     62b:	89 04 24             	mov    %eax,(%esp)
     62e:	e8 fc ff ff ff       	call   62f <init_deliver2+0x62f>
     633:	c7 44 24 14 00 00 00 	movl   $0x0,0x14(%esp)
     63a:	00 
     63b:	c7 44 24 10 00 00 00 	movl   $0x0,0x10(%esp)
     642:	00 
     643:	c7 44 24 0c 04 00 00 	movl   $0x4,0xc(%esp)
     64a:	00 
     64b:	c7 44 24 08 3c 00 00 	movl   $0x3c,0x8(%esp)
     652:	00 
     653:	c7 44 24 04 45 04 00 	movl   $0x445,0x4(%esp)
     65a:	00 
     65b:	8b 45 08             	mov    0x8(%ebp),%eax
     65e:	89 04 24             	mov    %eax,(%esp)
     661:	e8 fc ff ff ff       	call   662 <init_deliver2+0x662>
     666:	c7 44 24 14 00 00 00 	movl   $0x0,0x14(%esp)
     66d:	00 
     66e:	c7 44 24 10 00 00 00 	movl   $0x0,0x10(%esp)
     675:	00 
     676:	c7 44 24 0c 06 00 00 	movl   $0x6,0xc(%esp)
     67d:	00 
     67e:	c7 44 24 08 3c 00 00 	movl   $0x3c,0x8(%esp)
     685:	00 
     686:	c7 44 24 04 61 04 00 	movl   $0x461,0x4(%esp)
     68d:	00 
     68e:	8b 45 08             	mov    0x8(%ebp),%eax
     691:	89 04 24             	mov    %eax,(%esp)
     694:	e8 fc ff ff ff       	call   695 <init_deliver2+0x695>
     699:	c7 44 24 14 00 00 00 	movl   $0x0,0x14(%esp)
     6a0:	00 
     6a1:	c7 44 24 10 00 00 00 	movl   $0x0,0x10(%esp)
     6a8:	00 
     6a9:	c7 44 24 0c 09 00 00 	movl   $0x9,0xc(%esp)
     6b0:	00 
     6b1:	c7 44 24 08 50 00 00 	movl   $0x50,0x8(%esp)
     6b8:	00 
     6b9:	c7 44 24 04 7c 04 00 	movl   $0x47c,0x4(%esp)
     6c0:	00 
     6c1:	8b 45 08             	mov    0x8(%ebp),%eax
     6c4:	89 04 24             	mov    %eax,(%esp)
     6c7:	e8 fc ff ff ff       	call   6c8 <init_deliver2+0x6c8>
     6cc:	c7 44 24 14 00 00 00 	movl   $0x0,0x14(%esp)
     6d3:	00 
     6d4:	c7 44 24 10 00 00 00 	movl   $0x0,0x10(%esp)
     6db:	00 
     6dc:	c7 44 24 0c 11 00 00 	movl   $0x11,0xc(%esp)
     6e3:	00 
     6e4:	c7 44 24 08 50 00 00 	movl   $0x50,0x8(%esp)
     6eb:	00 
     6ec:	c7 44 24 04 98 04 00 	movl   $0x498,0x4(%esp)
     6f3:	00 
     6f4:	8b 45 08             	mov    0x8(%ebp),%eax
     6f7:	89 04 24             	mov    %eax,(%esp)
     6fa:	e8 fc ff ff ff       	call   6fb <init_deliver2+0x6fb>
     6ff:	c7 44 24 14 00 00 00 	movl   $0x0,0x14(%esp)
     706:	00 
     707:	c7 44 24 10 00 00 00 	movl   $0x0,0x10(%esp)
     70e:	00 
     70f:	c7 44 24 0c 05 00 00 	movl   $0x5,0xc(%esp)
     716:	00 
     717:	c7 44 24 08 3c 00 00 	movl   $0x3c,0x8(%esp)
     71e:	00 
     71f:	c7 44 24 04 c5 04 00 	movl   $0x4c5,0x4(%esp)
     726:	00 
     727:	8b 45 08             	mov    0x8(%ebp),%eax
     72a:	89 04 24             	mov    %eax,(%esp)
     72d:	e8 fc ff ff ff       	call   72e <init_deliver2+0x72e>
     732:	c7 44 24 14 00 00 00 	movl   $0x0,0x14(%esp)
     739:	00 
     73a:	c7 44 24 10 00 00 00 	movl   $0x0,0x10(%esp)
     741:	00 
     742:	c7 44 24 0c 07 00 00 	movl   $0x7,0xc(%esp)
     749:	00 
     74a:	c7 44 24 08 3c 00 00 	movl   $0x3c,0x8(%esp)
     751:	00 
     752:	c7 44 24 04 e4 04 00 	movl   $0x4e4,0x4(%esp)
     759:	00 
     75a:	8b 45 08             	mov    0x8(%ebp),%eax
     75d:	89 04 24             	mov    %eax,(%esp)
     760:	e8 fc ff ff ff       	call   761 <init_deliver2+0x761>
     765:	c7 44 24 14 00 00 00 	movl   $0x0,0x14(%esp)
     76c:	00 
     76d:	c7 44 24 10 00 00 00 	movl   $0x0,0x10(%esp)
     774:	00 
     775:	c7 44 24 0c 08 00 00 	movl   $0x8,0xc(%esp)
     77c:	00 
     77d:	c7 44 24 08 3c 00 00 	movl   $0x3c,0x8(%esp)
     784:	00 
     785:	c7 44 24 04 18 05 00 	movl   $0x518,0x4(%esp)
     78c:	00 
     78d:	8b 45 08             	mov    0x8(%ebp),%eax
     790:	89 04 24             	mov    %eax,(%esp)
     793:	e8 fc ff ff ff       	call   794 <init_deliver2+0x794>
     798:	c7 44 24 14 00 00 00 	movl   $0x0,0x14(%esp)
     79f:	00 
     7a0:	c7 44 24 10 00 00 00 	movl   $0x0,0x10(%esp)
     7a7:	00 
     7a8:	c7 44 24 0c 04 00 00 	movl   $0x4,0xc(%esp)
     7af:	00 
     7b0:	c7 44 24 08 1e 00 00 	movl   $0x1e,0x8(%esp)
     7b7:	00 
     7b8:	c7 44 24 04 4c 05 00 	movl   $0x54c,0x4(%esp)
     7bf:	00 
     7c0:	8b 45 08             	mov    0x8(%ebp),%eax
     7c3:	89 04 24             	mov    %eax,(%esp)
     7c6:	e8 fc ff ff ff       	call   7c7 <init_deliver2+0x7c7>
     7cb:	c7 44 24 14 00 00 00 	movl   $0x0,0x14(%esp)
     7d2:	00 
     7d3:	c7 44 24 10 00 00 00 	movl   $0x0,0x10(%esp)
     7da:	00 
     7db:	c7 44 24 0c 01 00 00 	movl   $0x1,0xc(%esp)
     7e2:	00 
     7e3:	c7 44 24 08 64 00 00 	movl   $0x64,0x8(%esp)
     7ea:	00 
     7eb:	c7 44 24 04 7a 05 00 	movl   $0x57a,0x4(%esp)
     7f2:	00 
     7f3:	8b 45 08             	mov    0x8(%ebp),%eax
     7f6:	89 04 24             	mov    %eax,(%esp)
     7f9:	e8 fc ff ff ff       	call   7fa <init_deliver2+0x7fa>
     7fe:	c7 44 24 14 00 00 00 	movl   $0x0,0x14(%esp)
     805:	00 
     806:	c7 44 24 10 00 00 00 	movl   $0x0,0x10(%esp)
     80d:	00 
     80e:	c7 44 24 0c 00 00 00 	movl   $0x0,0xc(%esp)
     815:	00 
     816:	c7 44 24 08 64 00 00 	movl   $0x64,0x8(%esp)
     81d:	00 
     81e:	c7 44 24 04 98 05 00 	movl   $0x598,0x4(%esp)
     825:	00 
     826:	8b 45 08             	mov    0x8(%ebp),%eax
     829:	89 04 24             	mov    %eax,(%esp)
     82c:	e8 fc ff ff ff       	call   82d <init_deliver2+0x82d>
     831:	c7 44 24 14 00 00 00 	movl   $0x0,0x14(%esp)
     838:	00 
     839:	c7 44 24 10 00 00 00 	movl   $0x0,0x10(%esp)
     840:	00 
     841:	c7 44 24 0c 03 00 00 	movl   $0x3,0xc(%esp)
     848:	00 
     849:	c7 44 24 08 28 00 00 	movl   $0x28,0x8(%esp)
     850:	00 
     851:	c7 44 24 04 a4 05 00 	movl   $0x5a4,0x4(%esp)
     858:	00 
     859:	8b 45 08             	mov    0x8(%ebp),%eax
     85c:	89 04 24             	mov    %eax,(%esp)
     85f:	e8 fc ff ff ff       	call   860 <init_deliver2+0x860>
     864:	c7 44 24 14 00 00 00 	movl   $0x0,0x14(%esp)
     86b:	00 
     86c:	c7 44 24 10 00 00 00 	movl   $0x0,0x10(%esp)
     873:	00 
     874:	c7 44 24 0c 01 00 00 	movl   $0x1,0xc(%esp)
     87b:	00 
     87c:	c7 44 24 08 32 00 00 	movl   $0x32,0x8(%esp)
     883:	00 
     884:	c7 44 24 04 bf 05 00 	movl   $0x5bf,0x4(%esp)
     88b:	00 
     88c:	8b 45 08             	mov    0x8(%ebp),%eax
     88f:	89 04 24             	mov    %eax,(%esp)
     892:	e8 fc ff ff ff       	call   893 <init_deliver2+0x893>
     897:	c7 44 24 14 00 00 00 	movl   $0x0,0x14(%esp)
     89e:	00 
     89f:	c7 44 24 10 00 00 00 	movl   $0x0,0x10(%esp)
     8a6:	00 
     8a7:	c7 44 24 0c 05 00 00 	movl   $0x5,0xc(%esp)
     8ae:	00 
     8af:	c7 44 24 08 1e 00 00 	movl   $0x1e,0x8(%esp)
     8b6:	00 
     8b7:	c7 44 24 04 d4 05 00 	movl   $0x5d4,0x4(%esp)
     8be:	00 
     8bf:	8b 45 08             	mov    0x8(%ebp),%eax
     8c2:	89 04 24             	mov    %eax,(%esp)
     8c5:	e8 fc ff ff ff       	call   8c6 <init_deliver2+0x8c6>
     8ca:	c7 44 24 14 00 00 00 	movl   $0x0,0x14(%esp)
     8d1:	00 
     8d2:	c7 44 24 10 00 00 00 	movl   $0x0,0x10(%esp)
     8d9:	00 
     8da:	c7 44 24 0c 06 00 00 	movl   $0x6,0xc(%esp)
     8e1:	00 
     8e2:	c7 44 24 08 1e 00 00 	movl   $0x1e,0x8(%esp)
     8e9:	00 
     8ea:	c7 44 24 04 f0 05 00 	movl   $0x5f0,0x4(%esp)
     8f1:	00 
     8f2:	8b 45 08             	mov    0x8(%ebp),%eax
     8f5:	89 04 24             	mov    %eax,(%esp)
     8f8:	e8 fc ff ff ff       	call   8f9 <init_deliver2+0x8f9>
     8fd:	c7 44 24 14 00 00 00 	movl   $0x0,0x14(%esp)
     904:	00 
     905:	c7 44 24 10 00 00 00 	movl   $0x0,0x10(%esp)
     90c:	00 
     90d:	c7 44 24 0c 07 00 00 	movl   $0x7,0xc(%esp)
     914:	00 
     915:	c7 44 24 08 1e 00 00 	movl   $0x1e,0x8(%esp)
     91c:	00 
     91d:	c7 44 24 04 1c 06 00 	movl   $0x61c,0x4(%esp)
     924:	00 
     925:	8b 45 08             	mov    0x8(%ebp),%eax
     928:	89 04 24             	mov    %eax,(%esp)
     92b:	e8 fc ff ff ff       	call   92c <init_deliver2+0x92c>
     930:	c7 44 24 14 00 00 00 	movl   $0x0,0x14(%esp)
     937:	00 
     938:	c7 44 24 10 00 00 00 	movl   $0x0,0x10(%esp)
     93f:	00 
     940:	c7 44 24 0c 08 00 00 	movl   $0x8,0xc(%esp)
     947:	00 
     948:	c7 44 24 08 1e 00 00 	movl   $0x1e,0x8(%esp)
     94f:	00 
     950:	c7 44 24 04 54 06 00 	movl   $0x654,0x4(%esp)
     957:	00 
     958:	8b 45 08             	mov    0x8(%ebp),%eax
     95b:	89 04 24             	mov    %eax,(%esp)
     95e:	e8 fc ff ff ff       	call   95f <init_deliver2+0x95f>
     963:	c7 44 24 14 00 00 00 	movl   $0x0,0x14(%esp)
     96a:	00 
     96b:	c7 44 24 10 00 00 00 	movl   $0x0,0x10(%esp)
     972:	00 
     973:	c7 44 24 0c 09 00 00 	movl   $0x9,0xc(%esp)
     97a:	00 
     97b:	c7 44 24 08 1e 00 00 	movl   $0x1e,0x8(%esp)
     982:	00 
     983:	c7 44 24 04 8c 06 00 	movl   $0x68c,0x4(%esp)
     98a:	00 
     98b:	8b 45 08             	mov    0x8(%ebp),%eax
     98e:	89 04 24             	mov    %eax,(%esp)
     991:	e8 fc ff ff ff       	call   992 <init_deliver2+0x992>
     996:	c7 44 24 14 00 00 00 	movl   $0x0,0x14(%esp)
     99d:	00 
     99e:	c7 44 24 10 00 00 00 	movl   $0x0,0x10(%esp)
     9a5:	00 
     9a6:	c7 44 24 0c 00 00 00 	movl   $0x0,0xc(%esp)
     9ad:	00 
     9ae:	c7 44 24 08 5a 00 00 	movl   $0x5a,0x8(%esp)
     9b5:	00 
     9b6:	c7 44 24 04 ac 06 00 	movl   $0x6ac,0x4(%esp)
     9bd:	00 
     9be:	8b 45 08             	mov    0x8(%ebp),%eax
     9c1:	89 04 24             	mov    %eax,(%esp)
     9c4:	e8 fc ff ff ff       	call   9c5 <init_deliver2+0x9c5>
     9c9:	c7 44 24 14 00 00 00 	movl   $0x0,0x14(%esp)
     9d0:	00 
     9d1:	c7 44 24 10 00 00 00 	movl   $0x0,0x10(%esp)
     9d8:	00 
     9d9:	c7 44 24 0c 12 00 00 	movl   $0x12,0xc(%esp)
     9e0:	00 
     9e1:	c7 44 24 08 50 00 00 	movl   $0x50,0x8(%esp)
     9e8:	00 
     9e9:	c7 44 24 04 c8 06 00 	movl   $0x6c8,0x4(%esp)
     9f0:	00 
     9f1:	8b 45 08             	mov    0x8(%ebp),%eax
     9f4:	89 04 24             	mov    %eax,(%esp)
     9f7:	e8 fc ff ff ff       	call   9f8 <init_deliver2+0x9f8>
     9fc:	c7 44 24 14 00 00 00 	movl   $0x0,0x14(%esp)
     a03:	00 
     a04:	c7 44 24 10 00 00 00 	movl   $0x0,0x10(%esp)
     a0b:	00 
     a0c:	c7 44 24 0c 02 00 00 	movl   $0x2,0xc(%esp)
     a13:	00 
     a14:	c7 44 24 08 32 00 00 	movl   $0x32,0x8(%esp)
     a1b:	00 
     a1c:	c7 44 24 04 e8 06 00 	movl   $0x6e8,0x4(%esp)
     a23:	00 
     a24:	8b 45 08             	mov    0x8(%ebp),%eax
     a27:	89 04 24             	mov    %eax,(%esp)
     a2a:	e8 fc ff ff ff       	call   a2b <init_deliver2+0xa2b>
     a2f:	b8 00 00 00 00       	mov    $0x0,%eax
     a34:	c9                   	leave  
     a35:	c3                   	ret    

00000a36 <runjp>:
     a36:	55                   	push   %ebp
     a37:	89 e5                	mov    %esp,%ebp
     a39:	83 ec 28             	sub    $0x28,%esp
     a3c:	c7 44 24 04 04 07 00 	movl   $0x704,0x4(%esp)
     a43:	00 
     a44:	c7 04 24 00 00 00 00 	movl   $0x0,(%esp)
     a4b:	e8 fc ff ff ff       	call   a4c <runjp+0x16>
     a50:	89 45 fc             	mov    %eax,-0x4(%ebp)
     a53:	83 7d fc 00          	cmpl   $0x0,-0x4(%ebp)
     a57:	79 08                	jns    a61 <runjp+0x2b>
     a59:	8b 45 fc             	mov    -0x4(%ebp),%eax
     a5c:	89 45 ec             	mov    %eax,-0x14(%ebp)
     a5f:	eb 26                	jmp    a87 <runjp+0x51>
     a61:	c7 04 24 00 00 00 00 	movl   $0x0,(%esp)
     a68:	e8 fc ff ff ff       	call   a69 <runjp+0x33>
     a6d:	c7 04 24 00 00 00 00 	movl   $0x0,(%esp)
     a74:	e8 fc ff ff ff       	call   a75 <runjp+0x3f>
     a79:	c7 04 24 00 00 00 00 	movl   $0x0,(%esp)
     a80:	e8 fc ff ff ff       	call   a81 <runjp+0x4b>
     a85:	eb 03                	jmp    a8a <runjp+0x54>
     a87:	8b 45 ec             	mov    -0x14(%ebp),%eax
     a8a:	c9                   	leave  
     a8b:	c3                   	ret    

00000a8c <runjp_rank>:
     a8c:	55                   	push   %ebp
     a8d:	89 e5                	mov    %esp,%ebp
     a8f:	83 ec 28             	sub    $0x28,%esp
     a92:	8b 45 0c             	mov    0xc(%ebp),%eax
     a95:	89 44 24 0c          	mov    %eax,0xc(%esp)
     a99:	8b 45 08             	mov    0x8(%ebp),%eax
     a9c:	89 44 24 08          	mov    %eax,0x8(%esp)
     aa0:	c7 44 24 04 04 07 00 	movl   $0x704,0x4(%esp)
     aa7:	00 
     aa8:	c7 04 24 00 00 00 00 	movl   $0x0,(%esp)
     aaf:	e8 fc ff ff ff       	call   ab0 <runjp_rank+0x24>
     ab4:	89 45 fc             	mov    %eax,-0x4(%ebp)
     ab7:	83 7d fc 00          	cmpl   $0x0,-0x4(%ebp)
     abb:	79 08                	jns    ac5 <runjp_rank+0x39>
     abd:	8b 45 fc             	mov    -0x4(%ebp),%eax
     ac0:	89 45 ec             	mov    %eax,-0x14(%ebp)
     ac3:	eb 26                	jmp    aeb <runjp_rank+0x5f>
     ac5:	c7 04 24 00 00 00 00 	movl   $0x0,(%esp)
     acc:	e8 fc ff ff ff       	call   acd <runjp_rank+0x41>
     ad1:	c7 04 24 00 00 00 00 	movl   $0x0,(%esp)
     ad8:	e8 fc ff ff ff       	call   ad9 <runjp_rank+0x4d>
     add:	c7 04 24 00 00 00 00 	movl   $0x0,(%esp)
     ae4:	e8 fc ff ff ff       	call   ae5 <runjp_rank+0x59>
     ae9:	eb 03                	jmp    aee <runjp_rank+0x62>
     aeb:	8b 45 ec             	mov    -0x14(%ebp),%eax
     aee:	c9                   	leave  
     aef:	c3                   	ret    

00000af0 <testGetPID>:
     af0:	55                   	push   %ebp
     af1:	89 e5                	mov    %esp,%ebp
     af3:	83 ec 08             	sub    $0x8,%esp
     af6:	e8 fc ff ff ff       	call   af7 <testGetPID+0x7>
     afb:	85 c0                	test   %eax,%eax
     afd:	74 0d                	je     b0c <testGetPID+0x1c>
     aff:	8b 45 08             	mov    0x8(%ebp),%eax
     b02:	c7 80 88 00 00 00 02 	movl   $0x2,0x88(%eax)
     b09:	00 00 00 
     b0c:	c9                   	leave  
     b0d:	c3                   	ret    

00000b0e <testGetStatsP0>:
     b0e:	55                   	push   %ebp
     b0f:	89 e5                	mov    %esp,%ebp
     b11:	83 ec 28             	sub    $0x28,%esp
     b14:	e8 dc 00 00 00       	call   bf5 <delay>
     b19:	8d 45 f0             	lea    -0x10(%ebp),%eax
     b1c:	89 44 24 04          	mov    %eax,0x4(%esp)
     b20:	c7 04 24 00 00 00 00 	movl   $0x0,(%esp)
     b27:	e8 fc ff ff ff       	call   b28 <testGetStatsP0+0x1a>
     b2c:	89 45 fc             	mov    %eax,-0x4(%ebp)
     b2f:	83 7d fc 00          	cmpl   $0x0,-0x4(%ebp)
     b33:	74 57                	je     b8c <testGetStatsP0+0x7e>
     b35:	8b 45 08             	mov    0x8(%ebp),%eax
     b38:	c7 80 88 00 00 00 02 	movl   $0x2,0x88(%eax)
     b3f:	00 00 00 
     b42:	83 7d fc 00          	cmpl   $0x0,-0x4(%ebp)
     b46:	79 05                	jns    b4d <testGetStatsP0+0x3f>
     b48:	e8 fc ff ff ff       	call   b49 <testGetStatsP0+0x3b>
     b4d:	8b 45 08             	mov    0x8(%ebp),%eax
     b50:	c7 80 8c 00 00 00 10 	movl   $0x710,0x8c(%eax)
     b57:	07 00 00 
     b5a:	8b 45 08             	mov    0x8(%ebp),%eax
     b5d:	8b 80 8c 00 00 00    	mov    0x8c(%eax),%eax
     b63:	89 04 24             	mov    %eax,(%esp)
     b66:	e8 fc ff ff ff       	call   b67 <testGetStatsP0+0x59>
     b6b:	89 c2                	mov    %eax,%edx
     b6d:	8b 45 08             	mov    0x8(%ebp),%eax
     b70:	8b 80 8c 00 00 00    	mov    0x8c(%eax),%eax
     b76:	89 54 24 08          	mov    %edx,0x8(%esp)
     b7a:	89 44 24 04          	mov    %eax,0x4(%esp)
     b7e:	c7 04 24 01 00 00 00 	movl   $0x1,(%esp)
     b85:	e8 fc ff ff ff       	call   b86 <testGetStatsP0+0x78>
     b8a:	eb 67                	jmp    bf3 <testGetStatsP0+0xe5>
     b8c:	8b 45 f0             	mov    -0x10(%ebp),%eax
     b8f:	89 04 24             	mov    %eax,(%esp)
     b92:	8b 45 f4             	mov    -0xc(%ebp),%eax
     b95:	89 44 24 04          	mov    %eax,0x4(%esp)
     b99:	8b 45 f8             	mov    -0x8(%ebp),%eax
     b9c:	89 44 24 08          	mov    %eax,0x8(%esp)
     ba0:	e8 fc ff ff ff       	call   ba1 <testGetStatsP0+0x93>
     ba5:	85 c0                	test   %eax,%eax
     ba7:	7f 4a                	jg     bf3 <testGetStatsP0+0xe5>
     ba9:	8b 45 08             	mov    0x8(%ebp),%eax
     bac:	c7 80 88 00 00 00 02 	movl   $0x2,0x88(%eax)
     bb3:	00 00 00 
     bb6:	8b 45 08             	mov    0x8(%ebp),%eax
     bb9:	c7 80 8c 00 00 00 38 	movl   $0x738,0x8c(%eax)
     bc0:	07 00 00 
     bc3:	8b 45 08             	mov    0x8(%ebp),%eax
     bc6:	8b 80 8c 00 00 00    	mov    0x8c(%eax),%eax
     bcc:	89 04 24             	mov    %eax,(%esp)
     bcf:	e8 fc ff ff ff       	call   bd0 <testGetStatsP0+0xc2>
     bd4:	89 c2                	mov    %eax,%edx
     bd6:	8b 45 08             	mov    0x8(%ebp),%eax
     bd9:	8b 80 8c 00 00 00    	mov    0x8c(%eax),%eax
     bdf:	89 54 24 08          	mov    %edx,0x8(%esp)
     be3:	89 44 24 04          	mov    %eax,0x4(%esp)
     be7:	c7 04 24 01 00 00 00 	movl   $0x1,(%esp)
     bee:	e8 fc ff ff ff       	call   bef <testGetStatsP0+0xe1>
     bf3:	c9                   	leave  
     bf4:	c3                   	ret    

00000bf5 <delay>:
     bf5:	55                   	push   %ebp
     bf6:	89 e5                	mov    %esp,%ebp
     bf8:	83 ec 28             	sub    $0x28,%esp
     bfb:	c7 45 f8 00 00 00 00 	movl   $0x0,-0x8(%ebp)
     c02:	c7 04 24 0a 00 00 00 	movl   $0xa,(%esp)
     c09:	e8 fc ff ff ff       	call   c0a <delay+0x15>
     c0e:	89 45 fc             	mov    %eax,-0x4(%ebp)
     c11:	8b 45 fc             	mov    -0x4(%ebp),%eax
     c14:	89 04 24             	mov    %eax,(%esp)
     c17:	e8 fc ff ff ff       	call   c18 <delay+0x23>
     c1c:	85 c0                	test   %eax,%eax
     c1e:	79 2c                	jns    c4c <delay+0x57>
     c20:	c7 04 24 60 07 00 00 	movl   $0x760,(%esp)
     c27:	e8 fc ff ff ff       	call   c28 <delay+0x33>
     c2c:	89 44 24 08          	mov    %eax,0x8(%esp)
     c30:	c7 44 24 04 60 07 00 	movl   $0x760,0x4(%esp)
     c37:	00 
     c38:	c7 04 24 01 00 00 00 	movl   $0x1,(%esp)
     c3f:	e8 fc ff ff ff       	call   c40 <delay+0x4b>
     c44:	eb 06                	jmp    c4c <delay+0x57>
     c46:	8d 45 f8             	lea    -0x8(%ebp),%eax
     c49:	83 00 01             	addl   $0x1,(%eax)
     c4c:	8b 4d fc             	mov    -0x4(%ebp),%ecx
     c4f:	89 c8                	mov    %ecx,%eax
     c51:	01 c0                	add    %eax,%eax
     c53:	01 c8                	add    %ecx,%eax
     c55:	01 c0                	add    %eax,%eax
     c57:	01 c0                	add    %eax,%eax
     c59:	89 c2                	mov    %eax,%edx
     c5b:	c1 e2 06             	shl    $0x6,%edx
     c5e:	01 d0                	add    %edx,%eax
     c60:	01 c8                	add    %ecx,%eax
     c62:	01 c0                	add    %eax,%eax
     c64:	01 c0                	add    %eax,%eax
     c66:	01 c8                	add    %ecx,%eax
     c68:	c1 e0 03             	shl    $0x3,%eax
     c6b:	3b 45 f8             	cmp    -0x8(%ebp),%eax
     c6e:	7f d6                	jg     c46 <delay+0x51>
     c70:	c9                   	leave  
     c71:	c3                   	ret    

00000c72 <testMemP0>:
     c72:	55                   	push   %ebp
     c73:	89 e5                	mov    %esp,%ebp
     c75:	83 ec 28             	sub    $0x28,%esp
     c78:	eb 05                	jmp    c7f <testMemP0+0xd>
     c7a:	e8 76 ff ff ff       	call   bf5 <delay>
     c7f:	e8 fc ff ff ff       	call   c80 <testMemP0+0xe>
     c84:	85 c0                	test   %eax,%eax
     c86:	75 f2                	jne    c7a <testMemP0+0x8>
     c88:	c7 45 f8 9f 86 01 00 	movl   $0x1869f,-0x8(%ebp)
     c8f:	e8 fc ff ff ff       	call   c90 <testMemP0+0x1e>
     c94:	89 45 fc             	mov    %eax,-0x4(%ebp)
     c97:	83 7d fc 00          	cmpl   $0x0,-0x4(%ebp)
     c9b:	79 4c                	jns    ce9 <testMemP0+0x77>
     c9d:	8b 45 08             	mov    0x8(%ebp),%eax
     ca0:	c7 80 88 00 00 00 02 	movl   $0x2,0x88(%eax)
     ca7:	00 00 00 
     caa:	8b 45 08             	mov    0x8(%ebp),%eax
     cad:	c7 80 8c 00 00 00 94 	movl   $0x794,0x8c(%eax)
     cb4:	07 00 00 
     cb7:	8b 45 08             	mov    0x8(%ebp),%eax
     cba:	8b 80 8c 00 00 00    	mov    0x8c(%eax),%eax
     cc0:	89 04 24             	mov    %eax,(%esp)
     cc3:	e8 fc ff ff ff       	call   cc4 <testMemP0+0x52>
     cc8:	89 c2                	mov    %eax,%edx
     cca:	8b 45 08             	mov    0x8(%ebp),%eax
     ccd:	8b 80 8c 00 00 00    	mov    0x8c(%eax),%eax
     cd3:	89 54 24 08          	mov    %edx,0x8(%esp)
     cd7:	89 44 24 04          	mov    %eax,0x4(%esp)
     cdb:	c7 04 24 01 00 00 00 	movl   $0x1,(%esp)
     ce2:	e8 fc ff ff ff       	call   ce3 <testMemP0+0x71>
     ce7:	eb 61                	jmp    d4a <testMemP0+0xd8>
     ce9:	83 7d fc 00          	cmpl   $0x0,-0x4(%ebp)
     ced:	75 05                	jne    cf4 <testMemP0+0x82>
     cef:	e8 fc ff ff ff       	call   cf0 <testMemP0+0x7e>
     cf4:	83 7d fc 00          	cmpl   $0x0,-0x4(%ebp)
     cf8:	7e 50                	jle    d4a <testMemP0+0xd8>
     cfa:	e8 f6 fe ff ff       	call   bf5 <delay>
     cff:	81 7d f8 9f 86 01 00 	cmpl   $0x1869f,-0x8(%ebp)
     d06:	74 42                	je     d4a <testMemP0+0xd8>
     d08:	e8 fc ff ff ff       	call   d09 <testMemP0+0x97>
     d0d:	8b 45 08             	mov    0x8(%ebp),%eax
     d10:	c7 80 8c 00 00 00 c0 	movl   $0x7c0,0x8c(%eax)
     d17:	07 00 00 
     d1a:	8b 45 08             	mov    0x8(%ebp),%eax
     d1d:	8b 80 8c 00 00 00    	mov    0x8c(%eax),%eax
     d23:	89 04 24             	mov    %eax,(%esp)
     d26:	e8 fc ff ff ff       	call   d27 <testMemP0+0xb5>
     d2b:	89 c2                	mov    %eax,%edx
     d2d:	8b 45 08             	mov    0x8(%ebp),%eax
     d30:	8b 80 8c 00 00 00    	mov    0x8c(%eax),%eax
     d36:	89 54 24 08          	mov    %edx,0x8(%esp)
     d3a:	89 44 24 04          	mov    %eax,0x4(%esp)
     d3e:	c7 04 24 01 00 00 00 	movl   $0x1,(%esp)
     d45:	e8 fc ff ff ff       	call   d46 <testMemP0+0xd4>
     d4a:	c9                   	leave  
     d4b:	c3                   	ret    

00000d4c <testNiceParInv>:
     d4c:	55                   	push   %ebp
     d4d:	89 e5                	mov    %esp,%ebp
     d4f:	83 ec 28             	sub    $0x28,%esp
     d52:	c7 04 24 ff ff ff ff 	movl   $0xffffffff,(%esp)
     d59:	e8 fc ff ff ff       	call   d5a <testNiceParInv+0xe>
     d5e:	89 45 fc             	mov    %eax,-0x4(%ebp)
     d61:	83 7d fc 00          	cmpl   $0x0,-0x4(%ebp)
     d65:	0f 89 d2 00 00 00    	jns    e3d <testNiceParInv+0xf1>
     d6b:	83 7d fc ff          	cmpl   $0xffffffff,-0x4(%ebp)
     d6f:	75 1c                	jne    d8d <testNiceParInv+0x41>
     d71:	a1 00 00 00 00       	mov    0x0,%eax
     d76:	83 f8 16             	cmp    $0x16,%eax
     d79:	75 12                	jne    d8d <testNiceParInv+0x41>
     d7b:	8b 45 08             	mov    0x8(%ebp),%eax
     d7e:	c7 80 88 00 00 00 00 	movl   $0x0,0x88(%eax)
     d85:	00 00 00 
     d88:	e9 fa 00 00 00       	jmp    e87 <testNiceParInv+0x13b>
     d8d:	83 7d fc ff          	cmpl   $0xffffffff,-0x4(%ebp)
     d91:	75 5e                	jne    df1 <testNiceParInv+0xa5>
     d93:	a1 00 00 00 00       	mov    0x0,%eax
     d98:	83 f8 16             	cmp    $0x16,%eax
     d9b:	74 54                	je     df1 <testNiceParInv+0xa5>
     d9d:	8b 45 08             	mov    0x8(%ebp),%eax
     da0:	c7 80 88 00 00 00 01 	movl   $0x1,0x88(%eax)
     da7:	00 00 00 
     daa:	e8 fc ff ff ff       	call   dab <testNiceParInv+0x5f>
     daf:	8b 45 08             	mov    0x8(%ebp),%eax
     db2:	c7 80 8c 00 00 00 04 	movl   $0x804,0x8c(%eax)
     db9:	08 00 00 
     dbc:	8b 45 08             	mov    0x8(%ebp),%eax
     dbf:	8b 80 8c 00 00 00    	mov    0x8c(%eax),%eax
     dc5:	89 04 24             	mov    %eax,(%esp)
     dc8:	e8 fc ff ff ff       	call   dc9 <testNiceParInv+0x7d>
     dcd:	89 c2                	mov    %eax,%edx
     dcf:	8b 45 08             	mov    0x8(%ebp),%eax
     dd2:	8b 80 8c 00 00 00    	mov    0x8c(%eax),%eax
     dd8:	89 54 24 08          	mov    %edx,0x8(%esp)
     ddc:	89 44 24 04          	mov    %eax,0x4(%esp)
     de0:	c7 04 24 01 00 00 00 	movl   $0x1,(%esp)
     de7:	e8 fc ff ff ff       	call   de8 <testNiceParInv+0x9c>
     dec:	e9 96 00 00 00       	jmp    e87 <testNiceParInv+0x13b>
     df1:	8b 45 08             	mov    0x8(%ebp),%eax
     df4:	c7 80 88 00 00 00 02 	movl   $0x2,0x88(%eax)
     dfb:	00 00 00 
     dfe:	8b 45 08             	mov    0x8(%ebp),%eax
     e01:	c7 80 8c 00 00 00 50 	movl   $0x850,0x8c(%eax)
     e08:	08 00 00 
     e0b:	8b 45 08             	mov    0x8(%ebp),%eax
     e0e:	8b 80 8c 00 00 00    	mov    0x8c(%eax),%eax
     e14:	89 04 24             	mov    %eax,(%esp)
     e17:	e8 fc ff ff ff       	call   e18 <testNiceParInv+0xcc>
     e1c:	89 c2                	mov    %eax,%edx
     e1e:	8b 45 08             	mov    0x8(%ebp),%eax
     e21:	8b 80 8c 00 00 00    	mov    0x8c(%eax),%eax
     e27:	89 54 24 08          	mov    %edx,0x8(%esp)
     e2b:	89 44 24 04          	mov    %eax,0x4(%esp)
     e2f:	c7 04 24 01 00 00 00 	movl   $0x1,(%esp)
     e36:	e8 fc ff ff ff       	call   e37 <testNiceParInv+0xeb>
     e3b:	eb 4a                	jmp    e87 <testNiceParInv+0x13b>
     e3d:	8b 45 08             	mov    0x8(%ebp),%eax
     e40:	c7 80 88 00 00 00 02 	movl   $0x2,0x88(%eax)
     e47:	00 00 00 
     e4a:	8b 45 08             	mov    0x8(%ebp),%eax
     e4d:	c7 80 8c 00 00 00 90 	movl   $0x890,0x8c(%eax)
     e54:	08 00 00 
     e57:	8b 45 08             	mov    0x8(%ebp),%eax
     e5a:	8b 80 8c 00 00 00    	mov    0x8c(%eax),%eax
     e60:	89 04 24             	mov    %eax,(%esp)
     e63:	e8 fc ff ff ff       	call   e64 <testNiceParInv+0x118>
     e68:	89 c2                	mov    %eax,%edx
     e6a:	8b 45 08             	mov    0x8(%ebp),%eax
     e6d:	8b 80 8c 00 00 00    	mov    0x8c(%eax),%eax
     e73:	89 54 24 08          	mov    %edx,0x8(%esp)
     e77:	89 44 24 04          	mov    %eax,0x4(%esp)
     e7b:	c7 04 24 01 00 00 00 	movl   $0x1,(%esp)
     e82:	e8 fc ff ff ff       	call   e83 <testNiceParInv+0x137>
     e87:	c9                   	leave  
     e88:	c3                   	ret    

00000e89 <testNicePar0>:
     e89:	55                   	push   %ebp
     e8a:	89 e5                	mov    %esp,%ebp
     e8c:	83 ec 28             	sub    $0x28,%esp
     e8f:	c7 04 24 00 00 00 00 	movl   $0x0,(%esp)
     e96:	e8 fc ff ff ff       	call   e97 <testNicePar0+0xe>
     e9b:	89 45 fc             	mov    %eax,-0x4(%ebp)
     e9e:	83 7d fc 00          	cmpl   $0x0,-0x4(%ebp)
     ea2:	78 4f                	js     ef3 <testNicePar0+0x6a>
     ea4:	8b 45 08             	mov    0x8(%ebp),%eax
     ea7:	c7 80 88 00 00 00 02 	movl   $0x2,0x88(%eax)
     eae:	00 00 00 
     eb1:	8b 45 08             	mov    0x8(%ebp),%eax
     eb4:	c7 80 8c 00 00 00 90 	movl   $0x890,0x8c(%eax)
     ebb:	08 00 00 
     ebe:	8b 45 08             	mov    0x8(%ebp),%eax
     ec1:	8b 80 8c 00 00 00    	mov    0x8c(%eax),%eax
     ec7:	89 04 24             	mov    %eax,(%esp)
     eca:	e8 fc ff ff ff       	call   ecb <testNicePar0+0x42>
     ecf:	89 c2                	mov    %eax,%edx
     ed1:	8b 45 08             	mov    0x8(%ebp),%eax
     ed4:	8b 80 8c 00 00 00    	mov    0x8c(%eax),%eax
     eda:	89 54 24 08          	mov    %edx,0x8(%esp)
     ede:	89 44 24 04          	mov    %eax,0x4(%esp)
     ee2:	c7 04 24 01 00 00 00 	movl   $0x1,(%esp)
     ee9:	e8 fc ff ff ff       	call   eea <testNicePar0+0x61>
     eee:	e9 cd 00 00 00       	jmp    fc0 <testNicePar0+0x137>
     ef3:	83 7d fc ff          	cmpl   $0xffffffff,-0x4(%ebp)
     ef7:	75 1c                	jne    f15 <testNicePar0+0x8c>
     ef9:	a1 00 00 00 00       	mov    0x0,%eax
     efe:	83 f8 16             	cmp    $0x16,%eax
     f01:	75 12                	jne    f15 <testNicePar0+0x8c>
     f03:	8b 45 08             	mov    0x8(%ebp),%eax
     f06:	c7 80 88 00 00 00 00 	movl   $0x0,0x88(%eax)
     f0d:	00 00 00 
     f10:	e9 ab 00 00 00       	jmp    fc0 <testNicePar0+0x137>
     f15:	83 7d fc ff          	cmpl   $0xffffffff,-0x4(%ebp)
     f19:	75 5b                	jne    f76 <testNicePar0+0xed>
     f1b:	a1 00 00 00 00       	mov    0x0,%eax
     f20:	83 f8 16             	cmp    $0x16,%eax
     f23:	74 51                	je     f76 <testNicePar0+0xed>
     f25:	8b 45 08             	mov    0x8(%ebp),%eax
     f28:	c7 80 88 00 00 00 01 	movl   $0x1,0x88(%eax)
     f2f:	00 00 00 
     f32:	e8 fc ff ff ff       	call   f33 <testNicePar0+0xaa>
     f37:	8b 45 08             	mov    0x8(%ebp),%eax
     f3a:	c7 80 8c 00 00 00 04 	movl   $0x804,0x8c(%eax)
     f41:	08 00 00 
     f44:	8b 45 08             	mov    0x8(%ebp),%eax
     f47:	8b 80 8c 00 00 00    	mov    0x8c(%eax),%eax
     f4d:	89 04 24             	mov    %eax,(%esp)
     f50:	e8 fc ff ff ff       	call   f51 <testNicePar0+0xc8>
     f55:	89 c2                	mov    %eax,%edx
     f57:	8b 45 08             	mov    0x8(%ebp),%eax
     f5a:	8b 80 8c 00 00 00    	mov    0x8c(%eax),%eax
     f60:	89 54 24 08          	mov    %edx,0x8(%esp)
     f64:	89 44 24 04          	mov    %eax,0x4(%esp)
     f68:	c7 04 24 01 00 00 00 	movl   $0x1,(%esp)
     f6f:	e8 fc ff ff ff       	call   f70 <testNicePar0+0xe7>
     f74:	eb 4a                	jmp    fc0 <testNicePar0+0x137>
     f76:	8b 45 08             	mov    0x8(%ebp),%eax
     f79:	c7 80 88 00 00 00 02 	movl   $0x2,0x88(%eax)
     f80:	00 00 00 
     f83:	8b 45 08             	mov    0x8(%ebp),%eax
     f86:	c7 80 8c 00 00 00 50 	movl   $0x850,0x8c(%eax)
     f8d:	08 00 00 
     f90:	8b 45 08             	mov    0x8(%ebp),%eax
     f93:	8b 80 8c 00 00 00    	mov    0x8c(%eax),%eax
     f99:	89 04 24             	mov    %eax,(%esp)
     f9c:	e8 fc ff ff ff       	call   f9d <testNicePar0+0x114>
     fa1:	89 c2                	mov    %eax,%edx
     fa3:	8b 45 08             	mov    0x8(%ebp),%eax
     fa6:	8b 80 8c 00 00 00    	mov    0x8c(%eax),%eax
     fac:	89 54 24 08          	mov    %edx,0x8(%esp)
     fb0:	89 44 24 04          	mov    %eax,0x4(%esp)
     fb4:	c7 04 24 01 00 00 00 	movl   $0x1,(%esp)
     fbb:	e8 fc ff ff ff       	call   fbc <testNicePar0+0x133>
     fc0:	c9                   	leave  
     fc1:	c3                   	ret    

00000fc2 <testNiceRes>:
     fc2:	55                   	push   %ebp
     fc3:	89 e5                	mov    %esp,%ebp
     fc5:	83 ec 28             	sub    $0x28,%esp
     fc8:	c7 04 24 0a 00 00 00 	movl   $0xa,(%esp)
     fcf:	e8 fc ff ff ff       	call   fd0 <testNiceRes+0xe>
     fd4:	89 45 fc             	mov    %eax,-0x4(%ebp)
     fd7:	83 7d fc 00          	cmpl   $0x0,-0x4(%ebp)
     fdb:	78 73                	js     1050 <testNiceRes+0x8e>
     fdd:	c7 04 24 05 00 00 00 	movl   $0x5,(%esp)
     fe4:	e8 fc ff ff ff       	call   fe5 <testNiceRes+0x23>
     fe9:	89 45 fc             	mov    %eax,-0x4(%ebp)
     fec:	83 7d fc 0a          	cmpl   $0xa,-0x4(%ebp)
     ff0:	75 12                	jne    1004 <testNiceRes+0x42>
     ff2:	8b 45 08             	mov    0x8(%ebp),%eax
     ff5:	c7 80 88 00 00 00 00 	movl   $0x0,0x88(%eax)
     ffc:	00 00 00 
     fff:	e9 9b 00 00 00       	jmp    109f <testNiceRes+0xdd>
    1004:	8b 45 08             	mov    0x8(%ebp),%eax
    1007:	c7 80 88 00 00 00 02 	movl   $0x2,0x88(%eax)
    100e:	00 00 00 
    1011:	8b 45 08             	mov    0x8(%ebp),%eax
    1014:	c7 80 8c 00 00 00 b5 	movl   $0x8b5,0x8c(%eax)
    101b:	08 00 00 
    101e:	8b 45 08             	mov    0x8(%ebp),%eax
    1021:	8b 80 8c 00 00 00    	mov    0x8c(%eax),%eax
    1027:	89 04 24             	mov    %eax,(%esp)
    102a:	e8 fc ff ff ff       	call   102b <testNiceRes+0x69>
    102f:	89 c2                	mov    %eax,%edx
    1031:	8b 45 08             	mov    0x8(%ebp),%eax
    1034:	8b 80 8c 00 00 00    	mov    0x8c(%eax),%eax
    103a:	89 54 24 08          	mov    %edx,0x8(%esp)
    103e:	89 44 24 04          	mov    %eax,0x4(%esp)
    1042:	c7 04 24 01 00 00 00 	movl   $0x1,(%esp)
    1049:	e8 fc ff ff ff       	call   104a <testNiceRes+0x88>
    104e:	eb 4f                	jmp    109f <testNiceRes+0xdd>
    1050:	8b 45 08             	mov    0x8(%ebp),%eax
    1053:	c7 80 88 00 00 00 02 	movl   $0x2,0x88(%eax)
    105a:	00 00 00 
    105d:	e8 fc ff ff ff       	call   105e <testNiceRes+0x9c>
    1062:	8b 45 08             	mov    0x8(%ebp),%eax
    1065:	c7 80 8c 00 00 00 d4 	movl   $0x8d4,0x8c(%eax)
    106c:	08 00 00 
    106f:	8b 45 08             	mov    0x8(%ebp),%eax
    1072:	8b 80 8c 00 00 00    	mov    0x8c(%eax),%eax
    1078:	89 04 24             	mov    %eax,(%esp)
    107b:	e8 fc ff ff ff       	call   107c <testNiceRes+0xba>
    1080:	89 c2                	mov    %eax,%edx
    1082:	8b 45 08             	mov    0x8(%ebp),%eax
    1085:	8b 80 8c 00 00 00    	mov    0x8c(%eax),%eax
    108b:	89 54 24 08          	mov    %edx,0x8(%esp)
    108f:	89 44 24 04          	mov    %eax,0x4(%esp)
    1093:	c7 04 24 01 00 00 00 	movl   $0x1,(%esp)
    109a:	e8 fc ff ff ff       	call   109b <testNiceRes+0xd9>
    109f:	c9                   	leave  
    10a0:	c3                   	ret    

000010a1 <testExitTask0>:
    10a1:	55                   	push   %ebp
    10a2:	89 e5                	mov    %esp,%ebp
    10a4:	83 ec 08             	sub    $0x8,%esp
    10a7:	8b 45 08             	mov    0x8(%ebp),%eax
    10aa:	c7 80 88 00 00 00 02 	movl   $0x2,0x88(%eax)
    10b1:	00 00 00 
    10b4:	e8 fc ff ff ff       	call   10b5 <testExitTask0+0x14>
    10b9:	8b 45 08             	mov    0x8(%ebp),%eax
    10bc:	c7 80 88 00 00 00 00 	movl   $0x0,0x88(%eax)
    10c3:	00 00 00 
    10c6:	c9                   	leave  
    10c7:	c3                   	ret    

000010c8 <testGetStatsInvalidPID>:
    10c8:	55                   	push   %ebp
    10c9:	89 e5                	mov    %esp,%ebp
    10cb:	83 ec 28             	sub    $0x28,%esp
    10ce:	8d 45 f0             	lea    -0x10(%ebp),%eax
    10d1:	89 44 24 04          	mov    %eax,0x4(%esp)
    10d5:	c7 04 24 ff ff ff ff 	movl   $0xffffffff,(%esp)
    10dc:	e8 fc ff ff ff       	call   10dd <testGetStatsInvalidPID+0x15>
    10e1:	89 45 fc             	mov    %eax,-0x4(%ebp)
    10e4:	83 7d fc 00          	cmpl   $0x0,-0x4(%ebp)
    10e8:	78 4f                	js     1139 <testGetStatsInvalidPID+0x71>
    10ea:	8b 45 08             	mov    0x8(%ebp),%eax
    10ed:	c7 80 88 00 00 00 02 	movl   $0x2,0x88(%eax)
    10f4:	00 00 00 
    10f7:	8b 45 08             	mov    0x8(%ebp),%eax
    10fa:	c7 80 8c 00 00 00 fc 	movl   $0x8fc,0x8c(%eax)
    1101:	08 00 00 
    1104:	8b 45 08             	mov    0x8(%ebp),%eax
    1107:	8b 80 8c 00 00 00    	mov    0x8c(%eax),%eax
    110d:	89 04 24             	mov    %eax,(%esp)
    1110:	e8 fc ff ff ff       	call   1111 <testGetStatsInvalidPID+0x49>
    1115:	89 c2                	mov    %eax,%edx
    1117:	8b 45 08             	mov    0x8(%ebp),%eax
    111a:	8b 80 8c 00 00 00    	mov    0x8c(%eax),%eax
    1120:	89 54 24 08          	mov    %edx,0x8(%esp)
    1124:	89 44 24 04          	mov    %eax,0x4(%esp)
    1128:	c7 04 24 01 00 00 00 	movl   $0x1,(%esp)
    112f:	e8 fc ff ff ff       	call   1130 <testGetStatsInvalidPID+0x68>
    1134:	e9 bd 00 00 00       	jmp    11f6 <testGetStatsInvalidPID+0x12e>
    1139:	83 7d fc ff          	cmpl   $0xffffffff,-0x4(%ebp)
    113d:	75 6d                	jne    11ac <testGetStatsInvalidPID+0xe4>
    113f:	a1 00 00 00 00       	mov    0x0,%eax
    1144:	83 f8 16             	cmp    $0x16,%eax
    1147:	75 12                	jne    115b <testGetStatsInvalidPID+0x93>
    1149:	8b 45 08             	mov    0x8(%ebp),%eax
    114c:	c7 80 88 00 00 00 00 	movl   $0x0,0x88(%eax)
    1153:	00 00 00 
    1156:	e9 9b 00 00 00       	jmp    11f6 <testGetStatsInvalidPID+0x12e>
    115b:	8b 45 08             	mov    0x8(%ebp),%eax
    115e:	c7 80 88 00 00 00 01 	movl   $0x1,0x88(%eax)
    1165:	00 00 00 
    1168:	e8 fc ff ff ff       	call   1169 <testGetStatsInvalidPID+0xa1>
    116d:	8b 45 08             	mov    0x8(%ebp),%eax
    1170:	c7 80 8c 00 00 00 28 	movl   $0x928,0x8c(%eax)
    1177:	09 00 00 
    117a:	8b 45 08             	mov    0x8(%ebp),%eax
    117d:	8b 80 8c 00 00 00    	mov    0x8c(%eax),%eax
    1183:	89 04 24             	mov    %eax,(%esp)
    1186:	e8 fc ff ff ff       	call   1187 <testGetStatsInvalidPID+0xbf>
    118b:	89 c2                	mov    %eax,%edx
    118d:	8b 45 08             	mov    0x8(%ebp),%eax
    1190:	8b 80 8c 00 00 00    	mov    0x8c(%eax),%eax
    1196:	89 54 24 08          	mov    %edx,0x8(%esp)
    119a:	89 44 24 04          	mov    %eax,0x4(%esp)
    119e:	c7 04 24 01 00 00 00 	movl   $0x1,(%esp)
    11a5:	e8 fc ff ff ff       	call   11a6 <testGetStatsInvalidPID+0xde>
    11aa:	eb 4a                	jmp    11f6 <testGetStatsInvalidPID+0x12e>
    11ac:	8b 45 08             	mov    0x8(%ebp),%eax
    11af:	c7 80 88 00 00 00 02 	movl   $0x2,0x88(%eax)
    11b6:	00 00 00 
    11b9:	8b 45 08             	mov    0x8(%ebp),%eax
    11bc:	c7 80 8c 00 00 00 78 	movl   $0x978,0x8c(%eax)
    11c3:	09 00 00 
    11c6:	8b 45 08             	mov    0x8(%ebp),%eax
    11c9:	8b 80 8c 00 00 00    	mov    0x8c(%eax),%eax
    11cf:	89 04 24             	mov    %eax,(%esp)
    11d2:	e8 fc ff ff ff       	call   11d3 <testGetStatsInvalidPID+0x10b>
    11d7:	89 c2                	mov    %eax,%edx
    11d9:	8b 45 08             	mov    0x8(%ebp),%eax
    11dc:	8b 80 8c 00 00 00    	mov    0x8c(%eax),%eax
    11e2:	89 54 24 08          	mov    %edx,0x8(%esp)
    11e6:	89 44 24 04          	mov    %eax,0x4(%esp)
    11ea:	c7 04 24 01 00 00 00 	movl   $0x1,(%esp)
    11f1:	e8 fc ff ff ff       	call   11f2 <testGetStatsInvalidPID+0x12a>
    11f6:	c9                   	leave  
    11f7:	c3                   	ret    

000011f8 <testGetStatsUnknownPID>:
    11f8:	55                   	push   %ebp
    11f9:	89 e5                	mov    %esp,%ebp
    11fb:	83 ec 28             	sub    $0x28,%esp
    11fe:	8d 45 f0             	lea    -0x10(%ebp),%eax
    1201:	89 44 24 04          	mov    %eax,0x4(%esp)
    1205:	c7 04 24 e8 fd 00 00 	movl   $0xfde8,(%esp)
    120c:	e8 fc ff ff ff       	call   120d <testGetStatsUnknownPID+0x15>
    1211:	89 45 fc             	mov    %eax,-0x4(%ebp)
    1214:	83 7d fc 00          	cmpl   $0x0,-0x4(%ebp)
    1218:	78 4f                	js     1269 <testGetStatsUnknownPID+0x71>
    121a:	8b 45 08             	mov    0x8(%ebp),%eax
    121d:	c7 80 88 00 00 00 02 	movl   $0x2,0x88(%eax)
    1224:	00 00 00 
    1227:	8b 45 08             	mov    0x8(%ebp),%eax
    122a:	c7 80 8c 00 00 00 fc 	movl   $0x8fc,0x8c(%eax)
    1231:	08 00 00 
    1234:	8b 45 08             	mov    0x8(%ebp),%eax
    1237:	8b 80 8c 00 00 00    	mov    0x8c(%eax),%eax
    123d:	89 04 24             	mov    %eax,(%esp)
    1240:	e8 fc ff ff ff       	call   1241 <testGetStatsUnknownPID+0x49>
    1245:	89 c2                	mov    %eax,%edx
    1247:	8b 45 08             	mov    0x8(%ebp),%eax
    124a:	8b 80 8c 00 00 00    	mov    0x8c(%eax),%eax
    1250:	89 54 24 08          	mov    %edx,0x8(%esp)
    1254:	89 44 24 04          	mov    %eax,0x4(%esp)
    1258:	c7 04 24 01 00 00 00 	movl   $0x1,(%esp)
    125f:	e8 fc ff ff ff       	call   1260 <testGetStatsUnknownPID+0x68>
    1264:	e9 bd 00 00 00       	jmp    1326 <testGetStatsUnknownPID+0x12e>
    1269:	83 7d fc ff          	cmpl   $0xffffffff,-0x4(%ebp)
    126d:	75 6d                	jne    12dc <testGetStatsUnknownPID+0xe4>
    126f:	a1 00 00 00 00       	mov    0x0,%eax
    1274:	83 f8 03             	cmp    $0x3,%eax
    1277:	75 12                	jne    128b <testGetStatsUnknownPID+0x93>
    1279:	8b 45 08             	mov    0x8(%ebp),%eax
    127c:	c7 80 88 00 00 00 00 	movl   $0x0,0x88(%eax)
    1283:	00 00 00 
    1286:	e9 9b 00 00 00       	jmp    1326 <testGetStatsUnknownPID+0x12e>
    128b:	8b 45 08             	mov    0x8(%ebp),%eax
    128e:	c7 80 88 00 00 00 01 	movl   $0x1,0x88(%eax)
    1295:	00 00 00 
    1298:	e8 fc ff ff ff       	call   1299 <testGetStatsUnknownPID+0xa1>
    129d:	8b 45 08             	mov    0x8(%ebp),%eax
    12a0:	c7 80 8c 00 00 00 bc 	movl   $0x9bc,0x8c(%eax)
    12a7:	09 00 00 
    12aa:	8b 45 08             	mov    0x8(%ebp),%eax
    12ad:	8b 80 8c 00 00 00    	mov    0x8c(%eax),%eax
    12b3:	89 04 24             	mov    %eax,(%esp)
    12b6:	e8 fc ff ff ff       	call   12b7 <testGetStatsUnknownPID+0xbf>
    12bb:	89 c2                	mov    %eax,%edx
    12bd:	8b 45 08             	mov    0x8(%ebp),%eax
    12c0:	8b 80 8c 00 00 00    	mov    0x8c(%eax),%eax
    12c6:	89 54 24 08          	mov    %edx,0x8(%esp)
    12ca:	89 44 24 04          	mov    %eax,0x4(%esp)
    12ce:	c7 04 24 01 00 00 00 	movl   $0x1,(%esp)
    12d5:	e8 fc ff ff ff       	call   12d6 <testGetStatsUnknownPID+0xde>
    12da:	eb 4a                	jmp    1326 <testGetStatsUnknownPID+0x12e>
    12dc:	8b 45 08             	mov    0x8(%ebp),%eax
    12df:	c7 80 88 00 00 00 02 	movl   $0x2,0x88(%eax)
    12e6:	00 00 00 
    12e9:	8b 45 08             	mov    0x8(%ebp),%eax
    12ec:	c7 80 8c 00 00 00 78 	movl   $0x978,0x8c(%eax)
    12f3:	09 00 00 
    12f6:	8b 45 08             	mov    0x8(%ebp),%eax
    12f9:	8b 80 8c 00 00 00    	mov    0x8c(%eax),%eax
    12ff:	89 04 24             	mov    %eax,(%esp)
    1302:	e8 fc ff ff ff       	call   1303 <testGetStatsUnknownPID+0x10b>
    1307:	89 c2                	mov    %eax,%edx
    1309:	8b 45 08             	mov    0x8(%ebp),%eax
    130c:	8b 80 8c 00 00 00    	mov    0x8c(%eax),%eax
    1312:	89 54 24 08          	mov    %edx,0x8(%esp)
    1316:	89 44 24 04          	mov    %eax,0x4(%esp)
    131a:	c7 04 24 01 00 00 00 	movl   $0x1,(%esp)
    1321:	e8 fc ff ff ff       	call   1322 <testGetStatsUnknownPID+0x12a>
    1326:	c9                   	leave  
    1327:	c3                   	ret    

00001328 <testGetStatsInvalidAddress>:
    1328:	55                   	push   %ebp
    1329:	89 e5                	mov    %esp,%ebp
    132b:	83 ec 28             	sub    $0x28,%esp
    132e:	e8 fc ff ff ff       	call   132f <testGetStatsInvalidAddress+0x7>
    1333:	c7 44 24 04 00 00 00 	movl   $0x0,0x4(%esp)
    133a:	00 
    133b:	89 04 24             	mov    %eax,(%esp)
    133e:	e8 fc ff ff ff       	call   133f <testGetStatsInvalidAddress+0x17>
    1343:	89 45 fc             	mov    %eax,-0x4(%ebp)
    1346:	83 7d fc 00          	cmpl   $0x0,-0x4(%ebp)
    134a:	78 4f                	js     139b <testGetStatsInvalidAddress+0x73>
    134c:	8b 45 08             	mov    0x8(%ebp),%eax
    134f:	c7 80 88 00 00 00 02 	movl   $0x2,0x88(%eax)
    1356:	00 00 00 
    1359:	8b 45 08             	mov    0x8(%ebp),%eax
    135c:	c7 80 8c 00 00 00 fc 	movl   $0x8fc,0x8c(%eax)
    1363:	08 00 00 
    1366:	8b 45 08             	mov    0x8(%ebp),%eax
    1369:	8b 80 8c 00 00 00    	mov    0x8c(%eax),%eax
    136f:	89 04 24             	mov    %eax,(%esp)
    1372:	e8 fc ff ff ff       	call   1373 <testGetStatsInvalidAddress+0x4b>
    1377:	89 c2                	mov    %eax,%edx
    1379:	8b 45 08             	mov    0x8(%ebp),%eax
    137c:	8b 80 8c 00 00 00    	mov    0x8c(%eax),%eax
    1382:	89 54 24 08          	mov    %edx,0x8(%esp)
    1386:	89 44 24 04          	mov    %eax,0x4(%esp)
    138a:	c7 04 24 01 00 00 00 	movl   $0x1,(%esp)
    1391:	e8 fc ff ff ff       	call   1392 <testGetStatsInvalidAddress+0x6a>
    1396:	e9 bd 00 00 00       	jmp    1458 <testGetStatsInvalidAddress+0x130>
    139b:	83 7d fc ff          	cmpl   $0xffffffff,-0x4(%ebp)
    139f:	75 6d                	jne    140e <testGetStatsInvalidAddress+0xe6>
    13a1:	a1 00 00 00 00       	mov    0x0,%eax
    13a6:	83 f8 0e             	cmp    $0xe,%eax
    13a9:	75 12                	jne    13bd <testGetStatsInvalidAddress+0x95>
    13ab:	8b 45 08             	mov    0x8(%ebp),%eax
    13ae:	c7 80 88 00 00 00 00 	movl   $0x0,0x88(%eax)
    13b5:	00 00 00 
    13b8:	e9 9b 00 00 00       	jmp    1458 <testGetStatsInvalidAddress+0x130>
    13bd:	8b 45 08             	mov    0x8(%ebp),%eax
    13c0:	c7 80 88 00 00 00 01 	movl   $0x1,0x88(%eax)
    13c7:	00 00 00 
    13ca:	e8 fc ff ff ff       	call   13cb <testGetStatsInvalidAddress+0xa3>
    13cf:	8b 45 08             	mov    0x8(%ebp),%eax
    13d2:	c7 80 8c 00 00 00 0c 	movl   $0xa0c,0x8c(%eax)
    13d9:	0a 00 00 
    13dc:	8b 45 08             	mov    0x8(%ebp),%eax
    13df:	8b 80 8c 00 00 00    	mov    0x8c(%eax),%eax
    13e5:	89 04 24             	mov    %eax,(%esp)
    13e8:	e8 fc ff ff ff       	call   13e9 <testGetStatsInvalidAddress+0xc1>
    13ed:	89 c2                	mov    %eax,%edx
    13ef:	8b 45 08             	mov    0x8(%ebp),%eax
    13f2:	8b 80 8c 00 00 00    	mov    0x8c(%eax),%eax
    13f8:	89 54 24 08          	mov    %edx,0x8(%esp)
    13fc:	89 44 24 04          	mov    %eax,0x4(%esp)
    1400:	c7 04 24 01 00 00 00 	movl   $0x1,(%esp)
    1407:	e8 fc ff ff ff       	call   1408 <testGetStatsInvalidAddress+0xe0>
    140c:	eb 4a                	jmp    1458 <testGetStatsInvalidAddress+0x130>
    140e:	8b 45 08             	mov    0x8(%ebp),%eax
    1411:	c7 80 88 00 00 00 02 	movl   $0x2,0x88(%eax)
    1418:	00 00 00 
    141b:	8b 45 08             	mov    0x8(%ebp),%eax
    141e:	c7 80 8c 00 00 00 78 	movl   $0x978,0x8c(%eax)
    1425:	09 00 00 
    1428:	8b 45 08             	mov    0x8(%ebp),%eax
    142b:	8b 80 8c 00 00 00    	mov    0x8c(%eax),%eax
    1431:	89 04 24             	mov    %eax,(%esp)
    1434:	e8 fc ff ff ff       	call   1435 <testGetStatsInvalidAddress+0x10d>
    1439:	89 c2                	mov    %eax,%edx
    143b:	8b 45 08             	mov    0x8(%ebp),%eax
    143e:	8b 80 8c 00 00 00    	mov    0x8c(%eax),%eax
    1444:	89 54 24 08          	mov    %edx,0x8(%esp)
    1448:	89 44 24 04          	mov    %eax,0x4(%esp)
    144c:	c7 04 24 01 00 00 00 	movl   $0x1,(%esp)
    1453:	e8 fc ff ff ff       	call   1454 <testGetStatsInvalidAddress+0x12c>
    1458:	c9                   	leave  
    1459:	c3                   	ret    

0000145a <testGetStatsInvalidAddress1>:
    145a:	55                   	push   %ebp
    145b:	89 e5                	mov    %esp,%ebp
    145d:	83 ec 28             	sub    $0x28,%esp
    1460:	e8 fc ff ff ff       	call   1461 <testGetStatsInvalidAddress1+0x7>
    1465:	c7 44 24 04 00 00 01 	movl   $0x10000,0x4(%esp)
    146c:	00 
    146d:	89 04 24             	mov    %eax,(%esp)
    1470:	e8 fc ff ff ff       	call   1471 <testGetStatsInvalidAddress1+0x17>
    1475:	89 45 fc             	mov    %eax,-0x4(%ebp)
    1478:	83 7d fc 00          	cmpl   $0x0,-0x4(%ebp)
    147c:	78 4f                	js     14cd <testGetStatsInvalidAddress1+0x73>
    147e:	8b 45 08             	mov    0x8(%ebp),%eax
    1481:	c7 80 88 00 00 00 02 	movl   $0x2,0x88(%eax)
    1488:	00 00 00 
    148b:	8b 45 08             	mov    0x8(%ebp),%eax
    148e:	c7 80 8c 00 00 00 fc 	movl   $0x8fc,0x8c(%eax)
    1495:	08 00 00 
    1498:	8b 45 08             	mov    0x8(%ebp),%eax
    149b:	8b 80 8c 00 00 00    	mov    0x8c(%eax),%eax
    14a1:	89 04 24             	mov    %eax,(%esp)
    14a4:	e8 fc ff ff ff       	call   14a5 <testGetStatsInvalidAddress1+0x4b>
    14a9:	89 c2                	mov    %eax,%edx
    14ab:	8b 45 08             	mov    0x8(%ebp),%eax
    14ae:	8b 80 8c 00 00 00    	mov    0x8c(%eax),%eax
    14b4:	89 54 24 08          	mov    %edx,0x8(%esp)
    14b8:	89 44 24 04          	mov    %eax,0x4(%esp)
    14bc:	c7 04 24 01 00 00 00 	movl   $0x1,(%esp)
    14c3:	e8 fc ff ff ff       	call   14c4 <testGetStatsInvalidAddress1+0x6a>
    14c8:	e9 bd 00 00 00       	jmp    158a <testGetStatsInvalidAddress1+0x130>
    14cd:	83 7d fc ff          	cmpl   $0xffffffff,-0x4(%ebp)
    14d1:	75 6d                	jne    1540 <testGetStatsInvalidAddress1+0xe6>
    14d3:	a1 00 00 00 00       	mov    0x0,%eax
    14d8:	83 f8 0e             	cmp    $0xe,%eax
    14db:	75 12                	jne    14ef <testGetStatsInvalidAddress1+0x95>
    14dd:	8b 45 08             	mov    0x8(%ebp),%eax
    14e0:	c7 80 88 00 00 00 00 	movl   $0x0,0x88(%eax)
    14e7:	00 00 00 
    14ea:	e9 9b 00 00 00       	jmp    158a <testGetStatsInvalidAddress1+0x130>
    14ef:	8b 45 08             	mov    0x8(%ebp),%eax
    14f2:	c7 80 88 00 00 00 01 	movl   $0x1,0x88(%eax)
    14f9:	00 00 00 
    14fc:	e8 fc ff ff ff       	call   14fd <testGetStatsInvalidAddress1+0xa3>
    1501:	8b 45 08             	mov    0x8(%ebp),%eax
    1504:	c7 80 8c 00 00 00 0c 	movl   $0xa0c,0x8c(%eax)
    150b:	0a 00 00 
    150e:	8b 45 08             	mov    0x8(%ebp),%eax
    1511:	8b 80 8c 00 00 00    	mov    0x8c(%eax),%eax
    1517:	89 04 24             	mov    %eax,(%esp)
    151a:	e8 fc ff ff ff       	call   151b <testGetStatsInvalidAddress1+0xc1>
    151f:	89 c2                	mov    %eax,%edx
    1521:	8b 45 08             	mov    0x8(%ebp),%eax
    1524:	8b 80 8c 00 00 00    	mov    0x8c(%eax),%eax
    152a:	89 54 24 08          	mov    %edx,0x8(%esp)
    152e:	89 44 24 04          	mov    %eax,0x4(%esp)
    1532:	c7 04 24 01 00 00 00 	movl   $0x1,(%esp)
    1539:	e8 fc ff ff ff       	call   153a <testGetStatsInvalidAddress1+0xe0>
    153e:	eb 4a                	jmp    158a <testGetStatsInvalidAddress1+0x130>
    1540:	8b 45 08             	mov    0x8(%ebp),%eax
    1543:	c7 80 88 00 00 00 02 	movl   $0x2,0x88(%eax)
    154a:	00 00 00 
    154d:	8b 45 08             	mov    0x8(%ebp),%eax
    1550:	c7 80 8c 00 00 00 78 	movl   $0x978,0x8c(%eax)
    1557:	09 00 00 
    155a:	8b 45 08             	mov    0x8(%ebp),%eax
    155d:	8b 80 8c 00 00 00    	mov    0x8c(%eax),%eax
    1563:	89 04 24             	mov    %eax,(%esp)
    1566:	e8 fc ff ff ff       	call   1567 <testGetStatsInvalidAddress1+0x10d>
    156b:	89 c2                	mov    %eax,%edx
    156d:	8b 45 08             	mov    0x8(%ebp),%eax
    1570:	8b 80 8c 00 00 00    	mov    0x8c(%eax),%eax
    1576:	89 54 24 08          	mov    %edx,0x8(%esp)
    157a:	89 44 24 04          	mov    %eax,0x4(%esp)
    157e:	c7 04 24 01 00 00 00 	movl   $0x1,(%esp)
    1585:	e8 fc ff ff ff       	call   1586 <testGetStatsInvalidAddress1+0x12c>
    158a:	c9                   	leave  
    158b:	c3                   	ret    

0000158c <testGetStatsInvalidAddress2>:
    158c:	55                   	push   %ebp
    158d:	89 e5                	mov    %esp,%ebp
    158f:	83 ec 28             	sub    $0x28,%esp
    1592:	e8 fc ff ff ff       	call   1593 <testGetStatsInvalidAddress2+0x7>
    1597:	c7 44 24 04 ef be ad 	movl   $0xdeadbeef,0x4(%esp)
    159e:	de 
    159f:	89 04 24             	mov    %eax,(%esp)
    15a2:	e8 fc ff ff ff       	call   15a3 <testGetStatsInvalidAddress2+0x17>
    15a7:	89 45 fc             	mov    %eax,-0x4(%ebp)
    15aa:	83 7d fc 00          	cmpl   $0x0,-0x4(%ebp)
    15ae:	78 4f                	js     15ff <testGetStatsInvalidAddress2+0x73>
    15b0:	8b 45 08             	mov    0x8(%ebp),%eax
    15b3:	c7 80 88 00 00 00 02 	movl   $0x2,0x88(%eax)
    15ba:	00 00 00 
    15bd:	8b 45 08             	mov    0x8(%ebp),%eax
    15c0:	c7 80 8c 00 00 00 fc 	movl   $0x8fc,0x8c(%eax)
    15c7:	08 00 00 
    15ca:	8b 45 08             	mov    0x8(%ebp),%eax
    15cd:	8b 80 8c 00 00 00    	mov    0x8c(%eax),%eax
    15d3:	89 04 24             	mov    %eax,(%esp)
    15d6:	e8 fc ff ff ff       	call   15d7 <testGetStatsInvalidAddress2+0x4b>
    15db:	89 c2                	mov    %eax,%edx
    15dd:	8b 45 08             	mov    0x8(%ebp),%eax
    15e0:	8b 80 8c 00 00 00    	mov    0x8c(%eax),%eax
    15e6:	89 54 24 08          	mov    %edx,0x8(%esp)
    15ea:	89 44 24 04          	mov    %eax,0x4(%esp)
    15ee:	c7 04 24 01 00 00 00 	movl   $0x1,(%esp)
    15f5:	e8 fc ff ff ff       	call   15f6 <testGetStatsInvalidAddress2+0x6a>
    15fa:	e9 bd 00 00 00       	jmp    16bc <testGetStatsInvalidAddress2+0x130>
    15ff:	83 7d fc ff          	cmpl   $0xffffffff,-0x4(%ebp)
    1603:	75 6d                	jne    1672 <testGetStatsInvalidAddress2+0xe6>
    1605:	a1 00 00 00 00       	mov    0x0,%eax
    160a:	83 f8 0e             	cmp    $0xe,%eax
    160d:	75 12                	jne    1621 <testGetStatsInvalidAddress2+0x95>
    160f:	8b 45 08             	mov    0x8(%ebp),%eax
    1612:	c7 80 88 00 00 00 00 	movl   $0x0,0x88(%eax)
    1619:	00 00 00 
    161c:	e9 9b 00 00 00       	jmp    16bc <testGetStatsInvalidAddress2+0x130>
    1621:	8b 45 08             	mov    0x8(%ebp),%eax
    1624:	c7 80 88 00 00 00 01 	movl   $0x1,0x88(%eax)
    162b:	00 00 00 
    162e:	e8 fc ff ff ff       	call   162f <testGetStatsInvalidAddress2+0xa3>
    1633:	8b 45 08             	mov    0x8(%ebp),%eax
    1636:	c7 80 8c 00 00 00 0c 	movl   $0xa0c,0x8c(%eax)
    163d:	0a 00 00 
    1640:	8b 45 08             	mov    0x8(%ebp),%eax
    1643:	8b 80 8c 00 00 00    	mov    0x8c(%eax),%eax
    1649:	89 04 24             	mov    %eax,(%esp)
    164c:	e8 fc ff ff ff       	call   164d <testGetStatsInvalidAddress2+0xc1>
    1651:	89 c2                	mov    %eax,%edx
    1653:	8b 45 08             	mov    0x8(%ebp),%eax
    1656:	8b 80 8c 00 00 00    	mov    0x8c(%eax),%eax
    165c:	89 54 24 08          	mov    %edx,0x8(%esp)
    1660:	89 44 24 04          	mov    %eax,0x4(%esp)
    1664:	c7 04 24 01 00 00 00 	movl   $0x1,(%esp)
    166b:	e8 fc ff ff ff       	call   166c <testGetStatsInvalidAddress2+0xe0>
    1670:	eb 4a                	jmp    16bc <testGetStatsInvalidAddress2+0x130>
    1672:	8b 45 08             	mov    0x8(%ebp),%eax
    1675:	c7 80 88 00 00 00 02 	movl   $0x2,0x88(%eax)
    167c:	00 00 00 
    167f:	8b 45 08             	mov    0x8(%ebp),%eax
    1682:	c7 80 8c 00 00 00 78 	movl   $0x978,0x8c(%eax)
    1689:	09 00 00 
    168c:	8b 45 08             	mov    0x8(%ebp),%eax
    168f:	8b 80 8c 00 00 00    	mov    0x8c(%eax),%eax
    1695:	89 04 24             	mov    %eax,(%esp)
    1698:	e8 fc ff ff ff       	call   1699 <testGetStatsInvalidAddress2+0x10d>
    169d:	89 c2                	mov    %eax,%edx
    169f:	8b 45 08             	mov    0x8(%ebp),%eax
    16a2:	8b 80 8c 00 00 00    	mov    0x8c(%eax),%eax
    16a8:	89 54 24 08          	mov    %edx,0x8(%esp)
    16ac:	89 44 24 04          	mov    %eax,0x4(%esp)
    16b0:	c7 04 24 01 00 00 00 	movl   $0x1,(%esp)
    16b7:	e8 fc ff ff ff       	call   16b8 <testGetStatsInvalidAddress2+0x12c>
    16bc:	c9                   	leave  
    16bd:	c3                   	ret    

000016be <testGetStatsCurrent>:
    16be:	55                   	push   %ebp
    16bf:	89 e5                	mov    %esp,%ebp
    16c1:	83 ec 28             	sub    $0x28,%esp
    16c4:	e8 2c f5 ff ff       	call   bf5 <delay>
    16c9:	e8 fc ff ff ff       	call   16ca <testGetStatsCurrent+0xc>
    16ce:	8d 55 f0             	lea    -0x10(%ebp),%edx
    16d1:	89 54 24 04          	mov    %edx,0x4(%esp)
    16d5:	89 04 24             	mov    %eax,(%esp)
    16d8:	e8 fc ff ff ff       	call   16d9 <testGetStatsCurrent+0x1b>
    16dd:	89 45 fc             	mov    %eax,-0x4(%ebp)
    16e0:	83 7d fc 00          	cmpl   $0x0,-0x4(%ebp)
    16e4:	74 57                	je     173d <testGetStatsCurrent+0x7f>
    16e6:	8b 45 08             	mov    0x8(%ebp),%eax
    16e9:	c7 80 88 00 00 00 02 	movl   $0x2,0x88(%eax)
    16f0:	00 00 00 
    16f3:	83 7d fc 00          	cmpl   $0x0,-0x4(%ebp)
    16f7:	79 05                	jns    16fe <testGetStatsCurrent+0x40>
    16f9:	e8 fc ff ff ff       	call   16fa <testGetStatsCurrent+0x3c>
    16fe:	8b 45 08             	mov    0x8(%ebp),%eax
    1701:	c7 80 8c 00 00 00 10 	movl   $0x710,0x8c(%eax)
    1708:	07 00 00 
    170b:	8b 45 08             	mov    0x8(%ebp),%eax
    170e:	8b 80 8c 00 00 00    	mov    0x8c(%eax),%eax
    1714:	89 04 24             	mov    %eax,(%esp)
    1717:	e8 fc ff ff ff       	call   1718 <testGetStatsCurrent+0x5a>
    171c:	89 c2                	mov    %eax,%edx
    171e:	8b 45 08             	mov    0x8(%ebp),%eax
    1721:	8b 80 8c 00 00 00    	mov    0x8c(%eax),%eax
    1727:	89 54 24 08          	mov    %edx,0x8(%esp)
    172b:	89 44 24 04          	mov    %eax,0x4(%esp)
    172f:	c7 04 24 01 00 00 00 	movl   $0x1,(%esp)
    1736:	e8 fc ff ff ff       	call   1737 <testGetStatsCurrent+0x79>
    173b:	eb 67                	jmp    17a4 <testGetStatsCurrent+0xe6>
    173d:	8b 45 f0             	mov    -0x10(%ebp),%eax
    1740:	89 04 24             	mov    %eax,(%esp)
    1743:	8b 45 f4             	mov    -0xc(%ebp),%eax
    1746:	89 44 24 04          	mov    %eax,0x4(%esp)
    174a:	8b 45 f8             	mov    -0x8(%ebp),%eax
    174d:	89 44 24 08          	mov    %eax,0x8(%esp)
    1751:	e8 fc ff ff ff       	call   1752 <testGetStatsCurrent+0x94>
    1756:	85 c0                	test   %eax,%eax
    1758:	7f 4a                	jg     17a4 <testGetStatsCurrent+0xe6>
    175a:	8b 45 08             	mov    0x8(%ebp),%eax
    175d:	c7 80 88 00 00 00 02 	movl   $0x2,0x88(%eax)
    1764:	00 00 00 
    1767:	8b 45 08             	mov    0x8(%ebp),%eax
    176a:	c7 80 8c 00 00 00 38 	movl   $0x738,0x8c(%eax)
    1771:	07 00 00 
    1774:	8b 45 08             	mov    0x8(%ebp),%eax
    1777:	8b 80 8c 00 00 00    	mov    0x8c(%eax),%eax
    177d:	89 04 24             	mov    %eax,(%esp)
    1780:	e8 fc ff ff ff       	call   1781 <testGetStatsCurrent+0xc3>
    1785:	89 c2                	mov    %eax,%edx
    1787:	8b 45 08             	mov    0x8(%ebp),%eax
    178a:	8b 80 8c 00 00 00    	mov    0x8c(%eax),%eax
    1790:	89 54 24 08          	mov    %edx,0x8(%esp)
    1794:	89 44 24 04          	mov    %eax,0x4(%esp)
    1798:	c7 04 24 01 00 00 00 	movl   $0x1,(%esp)
    179f:	e8 fc ff ff ff       	call   17a0 <testGetStatsCurrent+0xe2>
    17a4:	c9                   	leave  
    17a5:	c3                   	ret    

000017a6 <testTicsAccountingRunning>:
    17a6:	55                   	push   %ebp
    17a7:	89 e5                	mov    %esp,%ebp
    17a9:	53                   	push   %ebx
    17aa:	83 ec 34             	sub    $0x34,%esp
    17ad:	e8 43 f4 ff ff       	call   bf5 <delay>
    17b2:	e8 fc ff ff ff       	call   17b3 <testTicsAccountingRunning+0xd>
    17b7:	8d 55 ec             	lea    -0x14(%ebp),%edx
    17ba:	89 54 24 04          	mov    %edx,0x4(%esp)
    17be:	89 04 24             	mov    %eax,(%esp)
    17c1:	e8 fc ff ff ff       	call   17c2 <testTicsAccountingRunning+0x1c>
    17c6:	89 45 f8             	mov    %eax,-0x8(%ebp)
    17c9:	83 7d f8 00          	cmpl   $0x0,-0x8(%ebp)
    17cd:	0f 88 6a 01 00 00    	js     193d <testTicsAccountingRunning+0x197>
    17d3:	8b 45 ec             	mov    -0x14(%ebp),%eax
    17d6:	89 04 24             	mov    %eax,(%esp)
    17d9:	8b 45 f0             	mov    -0x10(%ebp),%eax
    17dc:	89 44 24 04          	mov    %eax,0x4(%esp)
    17e0:	8b 45 f4             	mov    -0xc(%ebp),%eax
    17e3:	89 44 24 08          	mov    %eax,0x8(%esp)
    17e7:	e8 fc ff ff ff       	call   17e8 <testTicsAccountingRunning+0x42>
    17ec:	85 c0                	test   %eax,%eax
    17ee:	7f 4f                	jg     183f <testTicsAccountingRunning+0x99>
    17f0:	8b 45 08             	mov    0x8(%ebp),%eax
    17f3:	c7 80 88 00 00 00 02 	movl   $0x2,0x88(%eax)
    17fa:	00 00 00 
    17fd:	8b 45 08             	mov    0x8(%ebp),%eax
    1800:	c7 80 8c 00 00 00 38 	movl   $0x738,0x8c(%eax)
    1807:	07 00 00 
    180a:	8b 45 08             	mov    0x8(%ebp),%eax
    180d:	8b 80 8c 00 00 00    	mov    0x8c(%eax),%eax
    1813:	89 04 24             	mov    %eax,(%esp)
    1816:	e8 fc ff ff ff       	call   1817 <testTicsAccountingRunning+0x71>
    181b:	89 c2                	mov    %eax,%edx
    181d:	8b 45 08             	mov    0x8(%ebp),%eax
    1820:	8b 80 8c 00 00 00    	mov    0x8c(%eax),%eax
    1826:	89 54 24 08          	mov    %edx,0x8(%esp)
    182a:	89 44 24 04          	mov    %eax,0x4(%esp)
    182e:	c7 04 24 01 00 00 00 	movl   $0x1,(%esp)
    1835:	e8 fc ff ff ff       	call   1836 <testTicsAccountingRunning+0x90>
    183a:	e9 40 01 00 00       	jmp    197f <testTicsAccountingRunning+0x1d9>
    183f:	e8 b1 f3 ff ff       	call   bf5 <delay>
    1844:	e8 fc ff ff ff       	call   1845 <testTicsAccountingRunning+0x9f>
    1849:	8d 55 e0             	lea    -0x20(%ebp),%edx
    184c:	89 54 24 04          	mov    %edx,0x4(%esp)
    1850:	89 04 24             	mov    %eax,(%esp)
    1853:	e8 fc ff ff ff       	call   1854 <testTicsAccountingRunning+0xae>
    1858:	89 45 f8             	mov    %eax,-0x8(%ebp)
    185b:	83 7d f8 00          	cmpl   $0x0,-0x8(%ebp)
    185f:	74 54                	je     18b5 <testTicsAccountingRunning+0x10f>
    1861:	8b 45 08             	mov    0x8(%ebp),%eax
    1864:	c7 80 88 00 00 00 02 	movl   $0x2,0x88(%eax)
    186b:	00 00 00 
    186e:	e8 fc ff ff ff       	call   186f <testTicsAccountingRunning+0xc9>
    1873:	8b 45 08             	mov    0x8(%ebp),%eax
    1876:	c7 80 8c 00 00 00 5c 	movl   $0xa5c,0x8c(%eax)
    187d:	0a 00 00 
    1880:	8b 45 08             	mov    0x8(%ebp),%eax
    1883:	8b 80 8c 00 00 00    	mov    0x8c(%eax),%eax
    1889:	89 04 24             	mov    %eax,(%esp)
    188c:	e8 fc ff ff ff       	call   188d <testTicsAccountingRunning+0xe7>
    1891:	89 c2                	mov    %eax,%edx
    1893:	8b 45 08             	mov    0x8(%ebp),%eax
    1896:	8b 80 8c 00 00 00    	mov    0x8c(%eax),%eax
    189c:	89 54 24 08          	mov    %edx,0x8(%esp)
    18a0:	89 44 24 04          	mov    %eax,0x4(%esp)
    18a4:	c7 04 24 01 00 00 00 	movl   $0x1,(%esp)
    18ab:	e8 fc ff ff ff       	call   18ac <testTicsAccountingRunning+0x106>
    18b0:	e9 ca 00 00 00       	jmp    197f <testTicsAccountingRunning+0x1d9>
    18b5:	8b 45 e0             	mov    -0x20(%ebp),%eax
    18b8:	89 04 24             	mov    %eax,(%esp)
    18bb:	8b 45 e4             	mov    -0x1c(%ebp),%eax
    18be:	89 44 24 04          	mov    %eax,0x4(%esp)
    18c2:	8b 45 e8             	mov    -0x18(%ebp),%eax
    18c5:	89 44 24 08          	mov    %eax,0x8(%esp)
    18c9:	e8 fc ff ff ff       	call   18ca <testTicsAccountingRunning+0x124>
    18ce:	89 c3                	mov    %eax,%ebx
    18d0:	8b 45 ec             	mov    -0x14(%ebp),%eax
    18d3:	89 04 24             	mov    %eax,(%esp)
    18d6:	8b 45 f0             	mov    -0x10(%ebp),%eax
    18d9:	89 44 24 04          	mov    %eax,0x4(%esp)
    18dd:	8b 45 f4             	mov    -0xc(%ebp),%eax
    18e0:	89 44 24 08          	mov    %eax,0x8(%esp)
    18e4:	e8 fc ff ff ff       	call   18e5 <testTicsAccountingRunning+0x13f>
    18e9:	39 c3                	cmp    %eax,%ebx
    18eb:	0f 8f 8e 00 00 00    	jg     197f <testTicsAccountingRunning+0x1d9>
    18f1:	8b 45 08             	mov    0x8(%ebp),%eax
    18f4:	c7 80 88 00 00 00 02 	movl   $0x2,0x88(%eax)
    18fb:	00 00 00 
    18fe:	8b 45 08             	mov    0x8(%ebp),%eax
    1901:	c7 80 8c 00 00 00 38 	movl   $0x738,0x8c(%eax)
    1908:	07 00 00 
    190b:	8b 45 08             	mov    0x8(%ebp),%eax
    190e:	8b 80 8c 00 00 00    	mov    0x8c(%eax),%eax
    1914:	89 04 24             	mov    %eax,(%esp)
    1917:	e8 fc ff ff ff       	call   1918 <testTicsAccountingRunning+0x172>
    191c:	89 c2                	mov    %eax,%edx
    191e:	8b 45 08             	mov    0x8(%ebp),%eax
    1921:	8b 80 8c 00 00 00    	mov    0x8c(%eax),%eax
    1927:	89 54 24 08          	mov    %edx,0x8(%esp)
    192b:	89 44 24 04          	mov    %eax,0x4(%esp)
    192f:	c7 04 24 01 00 00 00 	movl   $0x1,(%esp)
    1936:	e8 fc ff ff ff       	call   1937 <testTicsAccountingRunning+0x191>
    193b:	eb 42                	jmp    197f <testTicsAccountingRunning+0x1d9>
    193d:	e8 fc ff ff ff       	call   193e <testTicsAccountingRunning+0x198>
    1942:	8b 45 08             	mov    0x8(%ebp),%eax
    1945:	c7 80 8c 00 00 00 5c 	movl   $0xa5c,0x8c(%eax)
    194c:	0a 00 00 
    194f:	8b 45 08             	mov    0x8(%ebp),%eax
    1952:	8b 80 8c 00 00 00    	mov    0x8c(%eax),%eax
    1958:	89 04 24             	mov    %eax,(%esp)
    195b:	e8 fc ff ff ff       	call   195c <testTicsAccountingRunning+0x1b6>
    1960:	89 c2                	mov    %eax,%edx
    1962:	8b 45 08             	mov    0x8(%ebp),%eax
    1965:	8b 80 8c 00 00 00    	mov    0x8c(%eax),%eax
    196b:	89 54 24 08          	mov    %edx,0x8(%esp)
    196f:	89 44 24 04          	mov    %eax,0x4(%esp)
    1973:	c7 04 24 01 00 00 00 	movl   $0x1,(%esp)
    197a:	e8 fc ff ff ff       	call   197b <testTicsAccountingRunning+0x1d5>
    197f:	83 c4 34             	add    $0x34,%esp
    1982:	5b                   	pop    %ebx
    1983:	5d                   	pop    %ebp
    1984:	c3                   	ret    

00001985 <testInitInvalidSem>:
    1985:	55                   	push   %ebp
    1986:	89 e5                	mov    %esp,%ebp
    1988:	83 ec 28             	sub    $0x28,%esp
    198b:	c7 44 24 04 00 00 00 	movl   $0x0,0x4(%esp)
    1992:	00 
    1993:	c7 04 24 ff ff ff ff 	movl   $0xffffffff,(%esp)
    199a:	e8 fc ff ff ff       	call   199b <testInitInvalidSem+0x16>
    199f:	89 45 fc             	mov    %eax,-0x4(%ebp)
    19a2:	83 7d fc 00          	cmpl   $0x0,-0x4(%ebp)
    19a6:	78 4f                	js     19f7 <testInitInvalidSem+0x72>
    19a8:	8b 45 08             	mov    0x8(%ebp),%eax
    19ab:	c7 80 88 00 00 00 02 	movl   $0x2,0x88(%eax)
    19b2:	00 00 00 
    19b5:	8b 45 08             	mov    0x8(%ebp),%eax
    19b8:	c7 80 8c 00 00 00 8c 	movl   $0xa8c,0x8c(%eax)
    19bf:	0a 00 00 
    19c2:	8b 45 08             	mov    0x8(%ebp),%eax
    19c5:	8b 80 8c 00 00 00    	mov    0x8c(%eax),%eax
    19cb:	89 04 24             	mov    %eax,(%esp)
    19ce:	e8 fc ff ff ff       	call   19cf <testInitInvalidSem+0x4a>
    19d3:	89 c2                	mov    %eax,%edx
    19d5:	8b 45 08             	mov    0x8(%ebp),%eax
    19d8:	8b 80 8c 00 00 00    	mov    0x8c(%eax),%eax
    19de:	89 54 24 08          	mov    %edx,0x8(%esp)
    19e2:	89 44 24 04          	mov    %eax,0x4(%esp)
    19e6:	c7 04 24 01 00 00 00 	movl   $0x1,(%esp)
    19ed:	e8 fc ff ff ff       	call   19ee <testInitInvalidSem+0x69>
    19f2:	e9 16 01 00 00       	jmp    1b0d <testInitInvalidSem+0x188>
    19f7:	a1 00 00 00 00       	mov    0x0,%eax
    19fc:	83 f8 16             	cmp    $0x16,%eax
    19ff:	74 4f                	je     1a50 <testInitInvalidSem+0xcb>
    1a01:	8b 45 08             	mov    0x8(%ebp),%eax
    1a04:	c7 80 88 00 00 00 01 	movl   $0x1,0x88(%eax)
    1a0b:	00 00 00 
    1a0e:	8b 45 08             	mov    0x8(%ebp),%eax
    1a11:	c7 80 8c 00 00 00 c8 	movl   $0xac8,0x8c(%eax)
    1a18:	0a 00 00 
    1a1b:	8b 45 08             	mov    0x8(%ebp),%eax
    1a1e:	8b 80 8c 00 00 00    	mov    0x8c(%eax),%eax
    1a24:	89 04 24             	mov    %eax,(%esp)
    1a27:	e8 fc ff ff ff       	call   1a28 <testInitInvalidSem+0xa3>
    1a2c:	89 c2                	mov    %eax,%edx
    1a2e:	8b 45 08             	mov    0x8(%ebp),%eax
    1a31:	8b 80 8c 00 00 00    	mov    0x8c(%eax),%eax
    1a37:	89 54 24 08          	mov    %edx,0x8(%esp)
    1a3b:	89 44 24 04          	mov    %eax,0x4(%esp)
    1a3f:	c7 04 24 01 00 00 00 	movl   $0x1,(%esp)
    1a46:	e8 fc ff ff ff       	call   1a47 <testInitInvalidSem+0xc2>
    1a4b:	e9 bd 00 00 00       	jmp    1b0d <testInitInvalidSem+0x188>
    1a50:	c7 44 24 04 00 00 00 	movl   $0x0,0x4(%esp)
    1a57:	00 
    1a58:	c7 04 24 64 00 00 00 	movl   $0x64,(%esp)
    1a5f:	e8 fc ff ff ff       	call   1a60 <testInitInvalidSem+0xdb>
    1a64:	89 45 fc             	mov    %eax,-0x4(%ebp)
    1a67:	83 7d fc 00          	cmpl   $0x0,-0x4(%ebp)
    1a6b:	78 4c                	js     1ab9 <testInitInvalidSem+0x134>
    1a6d:	8b 45 08             	mov    0x8(%ebp),%eax
    1a70:	c7 80 88 00 00 00 02 	movl   $0x2,0x88(%eax)
    1a77:	00 00 00 
    1a7a:	8b 45 08             	mov    0x8(%ebp),%eax
    1a7d:	c7 80 8c 00 00 00 0c 	movl   $0xb0c,0x8c(%eax)
    1a84:	0b 00 00 
    1a87:	8b 45 08             	mov    0x8(%ebp),%eax
    1a8a:	8b 80 8c 00 00 00    	mov    0x8c(%eax),%eax
    1a90:	89 04 24             	mov    %eax,(%esp)
    1a93:	e8 fc ff ff ff       	call   1a94 <testInitInvalidSem+0x10f>
    1a98:	89 c2                	mov    %eax,%edx
    1a9a:	8b 45 08             	mov    0x8(%ebp),%eax
    1a9d:	8b 80 8c 00 00 00    	mov    0x8c(%eax),%eax
    1aa3:	89 54 24 08          	mov    %edx,0x8(%esp)
    1aa7:	89 44 24 04          	mov    %eax,0x4(%esp)
    1aab:	c7 04 24 01 00 00 00 	movl   $0x1,(%esp)
    1ab2:	e8 fc ff ff ff       	call   1ab3 <testInitInvalidSem+0x12e>
    1ab7:	eb 54                	jmp    1b0d <testInitInvalidSem+0x188>
    1ab9:	a1 00 00 00 00       	mov    0x0,%eax
    1abe:	83 f8 16             	cmp    $0x16,%eax
    1ac1:	74 4a                	je     1b0d <testInitInvalidSem+0x188>
    1ac3:	8b 45 08             	mov    0x8(%ebp),%eax
    1ac6:	c7 80 88 00 00 00 01 	movl   $0x1,0x88(%eax)
    1acd:	00 00 00 
    1ad0:	8b 45 08             	mov    0x8(%ebp),%eax
    1ad3:	c7 80 8c 00 00 00 c8 	movl   $0xac8,0x8c(%eax)
    1ada:	0a 00 00 
    1add:	8b 45 08             	mov    0x8(%ebp),%eax
    1ae0:	8b 80 8c 00 00 00    	mov    0x8c(%eax),%eax
    1ae6:	89 04 24             	mov    %eax,(%esp)
    1ae9:	e8 fc ff ff ff       	call   1aea <testInitInvalidSem+0x165>
    1aee:	89 c2                	mov    %eax,%edx
    1af0:	8b 45 08             	mov    0x8(%ebp),%eax
    1af3:	8b 80 8c 00 00 00    	mov    0x8c(%eax),%eax
    1af9:	89 54 24 08          	mov    %edx,0x8(%esp)
    1afd:	89 44 24 04          	mov    %eax,0x4(%esp)
    1b01:	c7 04 24 01 00 00 00 	movl   $0x1,(%esp)
    1b08:	e8 fc ff ff ff       	call   1b09 <testInitInvalidSem+0x184>
    1b0d:	c9                   	leave  
    1b0e:	c3                   	ret    

00001b0f <testInitInitializedSem>:
    1b0f:	55                   	push   %ebp
    1b10:	89 e5                	mov    %esp,%ebp
    1b12:	83 ec 28             	sub    $0x28,%esp
    1b15:	c7 44 24 04 00 00 00 	movl   $0x0,0x4(%esp)
    1b1c:	00 
    1b1d:	c7 04 24 00 00 00 00 	movl   $0x0,(%esp)
    1b24:	e8 fc ff ff ff       	call   1b25 <testInitInitializedSem+0x16>
    1b29:	89 45 fc             	mov    %eax,-0x4(%ebp)
    1b2c:	83 7d fc 00          	cmpl   $0x0,-0x4(%ebp)
    1b30:	79 54                	jns    1b86 <testInitInitializedSem+0x77>
    1b32:	8b 45 08             	mov    0x8(%ebp),%eax
    1b35:	c7 80 88 00 00 00 02 	movl   $0x2,0x88(%eax)
    1b3c:	00 00 00 
    1b3f:	e8 fc ff ff ff       	call   1b40 <testInitInitializedSem+0x31>
    1b44:	8b 45 08             	mov    0x8(%ebp),%eax
    1b47:	c7 80 8c 00 00 00 4c 	movl   $0xb4c,0x8c(%eax)
    1b4e:	0b 00 00 
    1b51:	8b 45 08             	mov    0x8(%ebp),%eax
    1b54:	8b 80 8c 00 00 00    	mov    0x8c(%eax),%eax
    1b5a:	89 04 24             	mov    %eax,(%esp)
    1b5d:	e8 fc ff ff ff       	call   1b5e <testInitInitializedSem+0x4f>
    1b62:	89 c2                	mov    %eax,%edx
    1b64:	8b 45 08             	mov    0x8(%ebp),%eax
    1b67:	8b 80 8c 00 00 00    	mov    0x8c(%eax),%eax
    1b6d:	89 54 24 08          	mov    %edx,0x8(%esp)
    1b71:	89 44 24 04          	mov    %eax,0x4(%esp)
    1b75:	c7 04 24 01 00 00 00 	movl   $0x1,(%esp)
    1b7c:	e8 fc ff ff ff       	call   1b7d <testInitInitializedSem+0x6e>
    1b81:	e9 d2 00 00 00       	jmp    1c58 <testInitInitializedSem+0x149>
    1b86:	c7 44 24 04 00 00 00 	movl   $0x0,0x4(%esp)
    1b8d:	00 
    1b8e:	c7 04 24 00 00 00 00 	movl   $0x0,(%esp)
    1b95:	e8 fc ff ff ff       	call   1b96 <testInitInitializedSem+0x87>
    1b9a:	89 45 fc             	mov    %eax,-0x4(%ebp)
    1b9d:	83 7d fc ff          	cmpl   $0xffffffff,-0x4(%ebp)
    1ba1:	74 4c                	je     1bef <testInitInitializedSem+0xe0>
    1ba3:	8b 45 08             	mov    0x8(%ebp),%eax
    1ba6:	c7 80 88 00 00 00 02 	movl   $0x2,0x88(%eax)
    1bad:	00 00 00 
    1bb0:	8b 45 08             	mov    0x8(%ebp),%eax
    1bb3:	c7 80 8c 00 00 00 78 	movl   $0xb78,0x8c(%eax)
    1bba:	0b 00 00 
    1bbd:	8b 45 08             	mov    0x8(%ebp),%eax
    1bc0:	8b 80 8c 00 00 00    	mov    0x8c(%eax),%eax
    1bc6:	89 04 24             	mov    %eax,(%esp)
    1bc9:	e8 fc ff ff ff       	call   1bca <testInitInitializedSem+0xbb>
    1bce:	89 c2                	mov    %eax,%edx
    1bd0:	8b 45 08             	mov    0x8(%ebp),%eax
    1bd3:	8b 80 8c 00 00 00    	mov    0x8c(%eax),%eax
    1bd9:	89 54 24 08          	mov    %edx,0x8(%esp)
    1bdd:	89 44 24 04          	mov    %eax,0x4(%esp)
    1be1:	c7 04 24 01 00 00 00 	movl   $0x1,(%esp)
    1be8:	e8 fc ff ff ff       	call   1be9 <testInitInitializedSem+0xda>
    1bed:	eb 5a                	jmp    1c49 <testInitInitializedSem+0x13a>
    1bef:	83 7d fc ff          	cmpl   $0xffffffff,-0x4(%ebp)
    1bf3:	75 54                	jne    1c49 <testInitInitializedSem+0x13a>
    1bf5:	a1 00 00 00 00       	mov    0x0,%eax
    1bfa:	83 f8 10             	cmp    $0x10,%eax
    1bfd:	74 4a                	je     1c49 <testInitInitializedSem+0x13a>
    1bff:	8b 45 08             	mov    0x8(%ebp),%eax
    1c02:	c7 80 88 00 00 00 01 	movl   $0x1,0x88(%eax)
    1c09:	00 00 00 
    1c0c:	8b 45 08             	mov    0x8(%ebp),%eax
    1c0f:	c7 80 8c 00 00 00 c0 	movl   $0xbc0,0x8c(%eax)
    1c16:	0b 00 00 
    1c19:	8b 45 08             	mov    0x8(%ebp),%eax
    1c1c:	8b 80 8c 00 00 00    	mov    0x8c(%eax),%eax
    1c22:	89 04 24             	mov    %eax,(%esp)
    1c25:	e8 fc ff ff ff       	call   1c26 <testInitInitializedSem+0x117>
    1c2a:	89 c2                	mov    %eax,%edx
    1c2c:	8b 45 08             	mov    0x8(%ebp),%eax
    1c2f:	8b 80 8c 00 00 00    	mov    0x8c(%eax),%eax
    1c35:	89 54 24 08          	mov    %edx,0x8(%esp)
    1c39:	89 44 24 04          	mov    %eax,0x4(%esp)
    1c3d:	c7 04 24 01 00 00 00 	movl   $0x1,(%esp)
    1c44:	e8 fc ff ff ff       	call   1c45 <testInitInitializedSem+0x136>
    1c49:	c7 04 24 00 00 00 00 	movl   $0x0,(%esp)
    1c50:	e8 fc ff ff ff       	call   1c51 <testInitInitializedSem+0x142>
    1c55:	89 45 fc             	mov    %eax,-0x4(%ebp)
    1c58:	c9                   	leave  
    1c59:	c3                   	ret    

00001c5a <testInitTooManySem>:
    1c5a:	55                   	push   %ebp
    1c5b:	89 e5                	mov    %esp,%ebp
    1c5d:	83 ec 28             	sub    $0x28,%esp
    1c60:	c7 45 f4 00 00 00 00 	movl   $0x0,-0xc(%ebp)
    1c67:	c7 45 f8 00 00 00 00 	movl   $0x0,-0x8(%ebp)
    1c6e:	c7 45 fc f4 01 00 00 	movl   $0x1f4,-0x4(%ebp)
    1c75:	eb 1c                	jmp    1c93 <testInitTooManySem+0x39>
    1c77:	c7 44 24 04 00 00 00 	movl   $0x0,0x4(%esp)
    1c7e:	00 
    1c7f:	8b 45 f8             	mov    -0x8(%ebp),%eax
    1c82:	89 04 24             	mov    %eax,(%esp)
    1c85:	e8 fc ff ff ff       	call   1c86 <testInitTooManySem+0x2c>
    1c8a:	89 45 f4             	mov    %eax,-0xc(%ebp)
    1c8d:	8d 45 f8             	lea    -0x8(%ebp),%eax
    1c90:	83 00 01             	addl   $0x1,(%eax)
    1c93:	83 7d f4 00          	cmpl   $0x0,-0xc(%ebp)
    1c97:	78 08                	js     1ca1 <testInitTooManySem+0x47>
    1c99:	8b 45 f8             	mov    -0x8(%ebp),%eax
    1c9c:	3b 45 fc             	cmp    -0x4(%ebp),%eax
    1c9f:	7c d6                	jl     1c77 <testInitTooManySem+0x1d>
    1ca1:	83 7d f4 00          	cmpl   $0x0,-0xc(%ebp)
    1ca5:	78 4f                	js     1cf6 <testInitTooManySem+0x9c>
    1ca7:	8b 45 08             	mov    0x8(%ebp),%eax
    1caa:	c7 80 88 00 00 00 02 	movl   $0x2,0x88(%eax)
    1cb1:	00 00 00 
    1cb4:	8b 45 08             	mov    0x8(%ebp),%eax
    1cb7:	c7 80 8c 00 00 00 f4 	movl   $0xbf4,0x8c(%eax)
    1cbe:	0b 00 00 
    1cc1:	8b 45 08             	mov    0x8(%ebp),%eax
    1cc4:	8b 80 8c 00 00 00    	mov    0x8c(%eax),%eax
    1cca:	89 04 24             	mov    %eax,(%esp)
    1ccd:	e8 fc ff ff ff       	call   1cce <testInitTooManySem+0x74>
    1cd2:	89 c2                	mov    %eax,%edx
    1cd4:	8b 45 08             	mov    0x8(%ebp),%eax
    1cd7:	8b 80 8c 00 00 00    	mov    0x8c(%eax),%eax
    1cdd:	89 54 24 08          	mov    %edx,0x8(%esp)
    1ce1:	89 44 24 04          	mov    %eax,0x4(%esp)
    1ce5:	c7 04 24 01 00 00 00 	movl   $0x1,(%esp)
    1cec:	e8 fc ff ff ff       	call   1ced <testInitTooManySem+0x93>
    1cf1:	e9 89 00 00 00       	jmp    1d7f <testInitTooManySem+0x125>
    1cf6:	83 7d f4 ff          	cmpl   $0xffffffff,-0xc(%ebp)
    1cfa:	75 23                	jne    1d1f <testInitTooManySem+0xc5>
    1cfc:	a1 00 00 00 00       	mov    0x0,%eax
    1d01:	83 f8 0b             	cmp    $0xb,%eax
    1d04:	74 0a                	je     1d10 <testInitTooManySem+0xb6>
    1d06:	a1 00 00 00 00       	mov    0x0,%eax
    1d0b:	83 f8 16             	cmp    $0x16,%eax
    1d0e:	75 0f                	jne    1d1f <testInitTooManySem+0xc5>
    1d10:	8b 45 08             	mov    0x8(%ebp),%eax
    1d13:	c7 80 88 00 00 00 00 	movl   $0x0,0x88(%eax)
    1d1a:	00 00 00 
    1d1d:	eb 60                	jmp    1d7f <testInitTooManySem+0x125>
    1d1f:	8b 45 08             	mov    0x8(%ebp),%eax
    1d22:	c7 80 88 00 00 00 01 	movl   $0x1,0x88(%eax)
    1d29:	00 00 00 
    1d2c:	8b 45 08             	mov    0x8(%ebp),%eax
    1d2f:	c7 80 8c 00 00 00 44 	movl   $0xc44,0x8c(%eax)
    1d36:	0c 00 00 
    1d39:	8b 45 08             	mov    0x8(%ebp),%eax
    1d3c:	8b 80 8c 00 00 00    	mov    0x8c(%eax),%eax
    1d42:	89 04 24             	mov    %eax,(%esp)
    1d45:	e8 fc ff ff ff       	call   1d46 <testInitTooManySem+0xec>
    1d4a:	89 c2                	mov    %eax,%edx
    1d4c:	8b 45 08             	mov    0x8(%ebp),%eax
    1d4f:	8b 80 8c 00 00 00    	mov    0x8c(%eax),%eax
    1d55:	89 54 24 08          	mov    %edx,0x8(%esp)
    1d59:	89 44 24 04          	mov    %eax,0x4(%esp)
    1d5d:	c7 04 24 01 00 00 00 	movl   $0x1,(%esp)
    1d64:	e8 fc ff ff ff       	call   1d65 <testInitTooManySem+0x10b>
    1d69:	eb 14                	jmp    1d7f <testInitTooManySem+0x125>
    1d6b:	8b 45 f8             	mov    -0x8(%ebp),%eax
    1d6e:	83 e8 01             	sub    $0x1,%eax
    1d71:	89 04 24             	mov    %eax,(%esp)
    1d74:	e8 fc ff ff ff       	call   1d75 <testInitTooManySem+0x11b>
    1d79:	8d 45 f8             	lea    -0x8(%ebp),%eax
    1d7c:	83 28 01             	subl   $0x1,(%eax)
    1d7f:	83 7d f8 00          	cmpl   $0x0,-0x8(%ebp)
    1d83:	7f e6                	jg     1d6b <testInitTooManySem+0x111>
    1d85:	c9                   	leave  
    1d86:	c3                   	ret    

00001d87 <testReuseSem>:
    1d87:	55                   	push   %ebp
    1d88:	89 e5                	mov    %esp,%ebp
    1d8a:	83 ec 28             	sub    $0x28,%esp
    1d8d:	c7 45 fc 00 00 00 00 	movl   $0x0,-0x4(%ebp)
    1d94:	c7 44 24 04 00 00 00 	movl   $0x0,0x4(%esp)
    1d9b:	00 
    1d9c:	c7 04 24 00 00 00 00 	movl   $0x0,(%esp)
    1da3:	e8 fc ff ff ff       	call   1da4 <testReuseSem+0x1d>
    1da8:	89 45 fc             	mov    %eax,-0x4(%ebp)
    1dab:	83 7d fc 00          	cmpl   $0x0,-0x4(%ebp)
    1daf:	79 54                	jns    1e05 <testReuseSem+0x7e>
    1db1:	8b 45 08             	mov    0x8(%ebp),%eax
    1db4:	c7 80 88 00 00 00 02 	movl   $0x2,0x88(%eax)
    1dbb:	00 00 00 
    1dbe:	e8 fc ff ff ff       	call   1dbf <testReuseSem+0x38>
    1dc3:	8b 45 08             	mov    0x8(%ebp),%eax
    1dc6:	c7 80 8c 00 00 00 88 	movl   $0xc88,0x8c(%eax)
    1dcd:	0c 00 00 
    1dd0:	8b 45 08             	mov    0x8(%ebp),%eax
    1dd3:	8b 80 8c 00 00 00    	mov    0x8c(%eax),%eax
    1dd9:	89 04 24             	mov    %eax,(%esp)
    1ddc:	e8 fc ff ff ff       	call   1ddd <testReuseSem+0x56>
    1de1:	89 c2                	mov    %eax,%edx
    1de3:	8b 45 08             	mov    0x8(%ebp),%eax
    1de6:	8b 80 8c 00 00 00    	mov    0x8c(%eax),%eax
    1dec:	89 54 24 08          	mov    %edx,0x8(%esp)
    1df0:	89 44 24 04          	mov    %eax,0x4(%esp)
    1df4:	c7 04 24 01 00 00 00 	movl   $0x1,(%esp)
    1dfb:	e8 fc ff ff ff       	call   1dfc <testReuseSem+0x75>
    1e00:	e9 e0 00 00 00       	jmp    1ee5 <testReuseSem+0x15e>
    1e05:	c7 04 24 00 00 00 00 	movl   $0x0,(%esp)
    1e0c:	e8 fc ff ff ff       	call   1e0d <testReuseSem+0x86>
    1e11:	89 45 fc             	mov    %eax,-0x4(%ebp)
    1e14:	83 7d fc 00          	cmpl   $0x0,-0x4(%ebp)
    1e18:	79 51                	jns    1e6b <testReuseSem+0xe4>
    1e1a:	8b 45 08             	mov    0x8(%ebp),%eax
    1e1d:	c7 80 88 00 00 00 02 	movl   $0x2,0x88(%eax)
    1e24:	00 00 00 
    1e27:	e8 fc ff ff ff       	call   1e28 <testReuseSem+0xa1>
    1e2c:	8b 45 08             	mov    0x8(%ebp),%eax
    1e2f:	c7 80 8c 00 00 00 b8 	movl   $0xcb8,0x8c(%eax)
    1e36:	0c 00 00 
    1e39:	8b 45 08             	mov    0x8(%ebp),%eax
    1e3c:	8b 80 8c 00 00 00    	mov    0x8c(%eax),%eax
    1e42:	89 04 24             	mov    %eax,(%esp)
    1e45:	e8 fc ff ff ff       	call   1e46 <testReuseSem+0xbf>
    1e4a:	89 c2                	mov    %eax,%edx
    1e4c:	8b 45 08             	mov    0x8(%ebp),%eax
    1e4f:	8b 80 8c 00 00 00    	mov    0x8c(%eax),%eax
    1e55:	89 54 24 08          	mov    %edx,0x8(%esp)
    1e59:	89 44 24 04          	mov    %eax,0x4(%esp)
    1e5d:	c7 04 24 01 00 00 00 	movl   $0x1,(%esp)
    1e64:	e8 fc ff ff ff       	call   1e65 <testReuseSem+0xde>
    1e69:	eb 7a                	jmp    1ee5 <testReuseSem+0x15e>
    1e6b:	c7 44 24 04 01 00 00 	movl   $0x1,0x4(%esp)
    1e72:	00 
    1e73:	c7 04 24 00 00 00 00 	movl   $0x0,(%esp)
    1e7a:	e8 fc ff ff ff       	call   1e7b <testReuseSem+0xf4>
    1e7f:	89 45 fc             	mov    %eax,-0x4(%ebp)
    1e82:	83 7d fc 00          	cmpl   $0x0,-0x4(%ebp)
    1e86:	79 51                	jns    1ed9 <testReuseSem+0x152>
    1e88:	8b 45 08             	mov    0x8(%ebp),%eax
    1e8b:	c7 80 88 00 00 00 02 	movl   $0x2,0x88(%eax)
    1e92:	00 00 00 
    1e95:	e8 fc ff ff ff       	call   1e96 <testReuseSem+0x10f>
    1e9a:	8b 45 08             	mov    0x8(%ebp),%eax
    1e9d:	c7 80 8c 00 00 00 e8 	movl   $0xce8,0x8c(%eax)
    1ea4:	0c 00 00 
    1ea7:	8b 45 08             	mov    0x8(%ebp),%eax
    1eaa:	8b 80 8c 00 00 00    	mov    0x8c(%eax),%eax
    1eb0:	89 04 24             	mov    %eax,(%esp)
    1eb3:	e8 fc ff ff ff       	call   1eb4 <testReuseSem+0x12d>
    1eb8:	89 c2                	mov    %eax,%edx
    1eba:	8b 45 08             	mov    0x8(%ebp),%eax
    1ebd:	8b 80 8c 00 00 00    	mov    0x8c(%eax),%eax
    1ec3:	89 54 24 08          	mov    %edx,0x8(%esp)
    1ec7:	89 44 24 04          	mov    %eax,0x4(%esp)
    1ecb:	c7 04 24 01 00 00 00 	movl   $0x1,(%esp)
    1ed2:	e8 fc ff ff ff       	call   1ed3 <testReuseSem+0x14c>
    1ed7:	eb 0c                	jmp    1ee5 <testReuseSem+0x15e>
    1ed9:	c7 04 24 00 00 00 00 	movl   $0x0,(%esp)
    1ee0:	e8 fc ff ff ff       	call   1ee1 <testReuseSem+0x15a>
    1ee5:	c9                   	leave  
    1ee6:	c3                   	ret    

00001ee7 <testDestroyInvSem>:
    1ee7:	55                   	push   %ebp
    1ee8:	89 e5                	mov    %esp,%ebp
    1eea:	83 ec 28             	sub    $0x28,%esp
    1eed:	c7 04 24 ff ff ff ff 	movl   $0xffffffff,(%esp)
    1ef4:	e8 fc ff ff ff       	call   1ef5 <testDestroyInvSem+0xe>
    1ef9:	89 45 fc             	mov    %eax,-0x4(%ebp)
    1efc:	83 7d fc ff          	cmpl   $0xffffffff,-0x4(%ebp)
    1f00:	74 4f                	je     1f51 <testDestroyInvSem+0x6a>
    1f02:	8b 45 08             	mov    0x8(%ebp),%eax
    1f05:	c7 80 88 00 00 00 02 	movl   $0x2,0x88(%eax)
    1f0c:	00 00 00 
    1f0f:	8b 45 08             	mov    0x8(%ebp),%eax
    1f12:	c7 80 8c 00 00 00 10 	movl   $0xd10,0x8c(%eax)
    1f19:	0d 00 00 
    1f1c:	8b 45 08             	mov    0x8(%ebp),%eax
    1f1f:	8b 80 8c 00 00 00    	mov    0x8c(%eax),%eax
    1f25:	89 04 24             	mov    %eax,(%esp)
    1f28:	e8 fc ff ff ff       	call   1f29 <testDestroyInvSem+0x42>
    1f2d:	89 c2                	mov    %eax,%edx
    1f2f:	8b 45 08             	mov    0x8(%ebp),%eax
    1f32:	8b 80 8c 00 00 00    	mov    0x8c(%eax),%eax
    1f38:	89 54 24 08          	mov    %edx,0x8(%esp)
    1f3c:	89 44 24 04          	mov    %eax,0x4(%esp)
    1f40:	c7 04 24 01 00 00 00 	movl   $0x1,(%esp)
    1f47:	e8 fc ff ff ff       	call   1f48 <testDestroyInvSem+0x61>
    1f4c:	e9 14 01 00 00       	jmp    2065 <testDestroyInvSem+0x17e>
    1f51:	83 7d fc ff          	cmpl   $0xffffffff,-0x4(%ebp)
    1f55:	75 59                	jne    1fb0 <testDestroyInvSem+0xc9>
    1f57:	a1 00 00 00 00       	mov    0x0,%eax
    1f5c:	83 f8 16             	cmp    $0x16,%eax
    1f5f:	74 4f                	je     1fb0 <testDestroyInvSem+0xc9>
    1f61:	8b 45 08             	mov    0x8(%ebp),%eax
    1f64:	c7 80 88 00 00 00 01 	movl   $0x1,0x88(%eax)
    1f6b:	00 00 00 
    1f6e:	8b 45 08             	mov    0x8(%ebp),%eax
    1f71:	c7 80 8c 00 00 00 48 	movl   $0xd48,0x8c(%eax)
    1f78:	0d 00 00 
    1f7b:	8b 45 08             	mov    0x8(%ebp),%eax
    1f7e:	8b 80 8c 00 00 00    	mov    0x8c(%eax),%eax
    1f84:	89 04 24             	mov    %eax,(%esp)
    1f87:	e8 fc ff ff ff       	call   1f88 <testDestroyInvSem+0xa1>
    1f8c:	89 c2                	mov    %eax,%edx
    1f8e:	8b 45 08             	mov    0x8(%ebp),%eax
    1f91:	8b 80 8c 00 00 00    	mov    0x8c(%eax),%eax
    1f97:	89 54 24 08          	mov    %edx,0x8(%esp)
    1f9b:	89 44 24 04          	mov    %eax,0x4(%esp)
    1f9f:	c7 04 24 01 00 00 00 	movl   $0x1,(%esp)
    1fa6:	e8 fc ff ff ff       	call   1fa7 <testDestroyInvSem+0xc0>
    1fab:	e9 b5 00 00 00       	jmp    2065 <testDestroyInvSem+0x17e>
    1fb0:	c7 04 24 64 00 00 00 	movl   $0x64,(%esp)
    1fb7:	e8 fc ff ff ff       	call   1fb8 <testDestroyInvSem+0xd1>
    1fbc:	89 45 fc             	mov    %eax,-0x4(%ebp)
    1fbf:	83 7d fc 00          	cmpl   $0x0,-0x4(%ebp)
    1fc3:	78 4c                	js     2011 <testDestroyInvSem+0x12a>
    1fc5:	8b 45 08             	mov    0x8(%ebp),%eax
    1fc8:	c7 80 88 00 00 00 02 	movl   $0x2,0x88(%eax)
    1fcf:	00 00 00 
    1fd2:	8b 45 08             	mov    0x8(%ebp),%eax
    1fd5:	c7 80 8c 00 00 00 10 	movl   $0xd10,0x8c(%eax)
    1fdc:	0d 00 00 
    1fdf:	8b 45 08             	mov    0x8(%ebp),%eax
    1fe2:	8b 80 8c 00 00 00    	mov    0x8c(%eax),%eax
    1fe8:	89 04 24             	mov    %eax,(%esp)
    1feb:	e8 fc ff ff ff       	call   1fec <testDestroyInvSem+0x105>
    1ff0:	89 c2                	mov    %eax,%edx
    1ff2:	8b 45 08             	mov    0x8(%ebp),%eax
    1ff5:	8b 80 8c 00 00 00    	mov    0x8c(%eax),%eax
    1ffb:	89 54 24 08          	mov    %edx,0x8(%esp)
    1fff:	89 44 24 04          	mov    %eax,0x4(%esp)
    2003:	c7 04 24 01 00 00 00 	movl   $0x1,(%esp)
    200a:	e8 fc ff ff ff       	call   200b <testDestroyInvSem+0x124>
    200f:	eb 54                	jmp    2065 <testDestroyInvSem+0x17e>
    2011:	a1 00 00 00 00       	mov    0x0,%eax
    2016:	83 f8 16             	cmp    $0x16,%eax
    2019:	74 4a                	je     2065 <testDestroyInvSem+0x17e>
    201b:	8b 45 08             	mov    0x8(%ebp),%eax
    201e:	c7 80 88 00 00 00 01 	movl   $0x1,0x88(%eax)
    2025:	00 00 00 
    2028:	8b 45 08             	mov    0x8(%ebp),%eax
    202b:	c7 80 8c 00 00 00 48 	movl   $0xd48,0x8c(%eax)
    2032:	0d 00 00 
    2035:	8b 45 08             	mov    0x8(%ebp),%eax
    2038:	8b 80 8c 00 00 00    	mov    0x8c(%eax),%eax
    203e:	89 04 24             	mov    %eax,(%esp)
    2041:	e8 fc ff ff ff       	call   2042 <testDestroyInvSem+0x15b>
    2046:	89 c2                	mov    %eax,%edx
    2048:	8b 45 08             	mov    0x8(%ebp),%eax
    204b:	8b 80 8c 00 00 00    	mov    0x8c(%eax),%eax
    2051:	89 54 24 08          	mov    %edx,0x8(%esp)
    2055:	89 44 24 04          	mov    %eax,0x4(%esp)
    2059:	c7 04 24 01 00 00 00 	movl   $0x1,(%esp)
    2060:	e8 fc ff ff ff       	call   2061 <testDestroyInvSem+0x17a>
    2065:	c9                   	leave  
    2066:	c3                   	ret    

00002067 <testDestroyNotInitSem>:
    2067:	55                   	push   %ebp
    2068:	89 e5                	mov    %esp,%ebp
    206a:	83 ec 28             	sub    $0x28,%esp
    206d:	c7 04 24 09 00 00 00 	movl   $0x9,(%esp)
    2074:	e8 fc ff ff ff       	call   2075 <testDestroyNotInitSem+0xe>
    2079:	89 45 fc             	mov    %eax,-0x4(%ebp)
    207c:	83 7d fc ff          	cmpl   $0xffffffff,-0x4(%ebp)
    2080:	74 4c                	je     20ce <testDestroyNotInitSem+0x67>
    2082:	8b 45 08             	mov    0x8(%ebp),%eax
    2085:	c7 80 88 00 00 00 02 	movl   $0x2,0x88(%eax)
    208c:	00 00 00 
    208f:	8b 45 08             	mov    0x8(%ebp),%eax
    2092:	c7 80 8c 00 00 00 88 	movl   $0xd88,0x8c(%eax)
    2099:	0d 00 00 
    209c:	8b 45 08             	mov    0x8(%ebp),%eax
    209f:	8b 80 8c 00 00 00    	mov    0x8c(%eax),%eax
    20a5:	89 04 24             	mov    %eax,(%esp)
    20a8:	e8 fc ff ff ff       	call   20a9 <testDestroyNotInitSem+0x42>
    20ad:	89 c2                	mov    %eax,%edx
    20af:	8b 45 08             	mov    0x8(%ebp),%eax
    20b2:	8b 80 8c 00 00 00    	mov    0x8c(%eax),%eax
    20b8:	89 54 24 08          	mov    %edx,0x8(%esp)
    20bc:	89 44 24 04          	mov    %eax,0x4(%esp)
    20c0:	c7 04 24 01 00 00 00 	movl   $0x1,(%esp)
    20c7:	e8 fc ff ff ff       	call   20c8 <testDestroyNotInitSem+0x61>
    20cc:	eb 5a                	jmp    2128 <testDestroyNotInitSem+0xc1>
    20ce:	83 7d fc ff          	cmpl   $0xffffffff,-0x4(%ebp)
    20d2:	75 54                	jne    2128 <testDestroyNotInitSem+0xc1>
    20d4:	a1 00 00 00 00       	mov    0x0,%eax
    20d9:	83 f8 16             	cmp    $0x16,%eax
    20dc:	74 4a                	je     2128 <testDestroyNotInitSem+0xc1>
    20de:	8b 45 08             	mov    0x8(%ebp),%eax
    20e1:	c7 80 88 00 00 00 01 	movl   $0x1,0x88(%eax)
    20e8:	00 00 00 
    20eb:	8b 45 08             	mov    0x8(%ebp),%eax
    20ee:	c7 80 8c 00 00 00 c8 	movl   $0xdc8,0x8c(%eax)
    20f5:	0d 00 00 
    20f8:	8b 45 08             	mov    0x8(%ebp),%eax
    20fb:	8b 80 8c 00 00 00    	mov    0x8c(%eax),%eax
    2101:	89 04 24             	mov    %eax,(%esp)
    2104:	e8 fc ff ff ff       	call   2105 <testDestroyNotInitSem+0x9e>
    2109:	89 c2                	mov    %eax,%edx
    210b:	8b 45 08             	mov    0x8(%ebp),%eax
    210e:	8b 80 8c 00 00 00    	mov    0x8c(%eax),%eax
    2114:	89 54 24 08          	mov    %edx,0x8(%esp)
    2118:	89 44 24 04          	mov    %eax,0x4(%esp)
    211c:	c7 04 24 01 00 00 00 	movl   $0x1,(%esp)
    2123:	e8 fc ff ff ff       	call   2124 <testDestroyNotInitSem+0xbd>
    2128:	c9                   	leave  
    2129:	c3                   	ret    

0000212a <testDestroyNotOwner>:
    212a:	55                   	push   %ebp
    212b:	89 e5                	mov    %esp,%ebp
    212d:	83 ec 28             	sub    $0x28,%esp
    2130:	e8 fc ff ff ff       	call   2131 <testDestroyNotOwner+0x7>
    2135:	85 c0                	test   %eax,%eax
    2137:	75 65                	jne    219e <testDestroyNotOwner+0x74>
    2139:	e8 fc ff ff ff       	call   213a <testDestroyNotOwner+0x10>
    213e:	89 45 f8             	mov    %eax,-0x8(%ebp)
    2141:	83 7d f8 00          	cmpl   $0x0,-0x8(%ebp)
    2145:	7e 02                	jle    2149 <testDestroyNotOwner+0x1f>
    2147:	eb fe                	jmp    2147 <testDestroyNotOwner+0x1d>
    2149:	83 7d f8 00          	cmpl   $0x0,-0x8(%ebp)
    214d:	79 4f                	jns    219e <testDestroyNotOwner+0x74>
    214f:	8b 45 08             	mov    0x8(%ebp),%eax
    2152:	c7 80 88 00 00 00 02 	movl   $0x2,0x88(%eax)
    2159:	00 00 00 
    215c:	8b 45 08             	mov    0x8(%ebp),%eax
    215f:	c7 80 8c 00 00 00 00 	movl   $0xe00,0x8c(%eax)
    2166:	0e 00 00 
    2169:	8b 45 08             	mov    0x8(%ebp),%eax
    216c:	8b 80 8c 00 00 00    	mov    0x8c(%eax),%eax
    2172:	89 04 24             	mov    %eax,(%esp)
    2175:	e8 fc ff ff ff       	call   2176 <testDestroyNotOwner+0x4c>
    217a:	89 c2                	mov    %eax,%edx
    217c:	8b 45 08             	mov    0x8(%ebp),%eax
    217f:	8b 80 8c 00 00 00    	mov    0x8c(%eax),%eax
    2185:	89 54 24 08          	mov    %edx,0x8(%esp)
    2189:	89 44 24 04          	mov    %eax,0x4(%esp)
    218d:	c7 04 24 01 00 00 00 	movl   $0x1,(%esp)
    2194:	e8 fc ff ff ff       	call   2195 <testDestroyNotOwner+0x6b>
    2199:	e9 0d 02 00 00       	jmp    23ab <testDestroyNotOwner+0x281>
    219e:	c7 44 24 04 00 00 00 	movl   $0x0,0x4(%esp)
    21a5:	00 
    21a6:	c7 04 24 01 00 00 00 	movl   $0x1,(%esp)
    21ad:	e8 fc ff ff ff       	call   21ae <testDestroyNotOwner+0x84>
    21b2:	c7 44 24 04 00 00 00 	movl   $0x0,0x4(%esp)
    21b9:	00 
    21ba:	c7 04 24 02 00 00 00 	movl   $0x2,(%esp)
    21c1:	e8 fc ff ff ff       	call   21c2 <testDestroyNotOwner+0x98>
    21c6:	e8 fc ff ff ff       	call   21c7 <testDestroyNotOwner+0x9d>
    21cb:	89 45 fc             	mov    %eax,-0x4(%ebp)
    21ce:	83 7d fc 00          	cmpl   $0x0,-0x4(%ebp)
    21d2:	79 5b                	jns    222f <testDestroyNotOwner+0x105>
    21d4:	8b 45 08             	mov    0x8(%ebp),%eax
    21d7:	c7 80 88 00 00 00 02 	movl   $0x2,0x88(%eax)
    21de:	00 00 00 
    21e1:	8b 45 08             	mov    0x8(%ebp),%eax
    21e4:	c7 80 8c 00 00 00 94 	movl   $0x794,0x8c(%eax)
    21eb:	07 00 00 
    21ee:	8b 45 08             	mov    0x8(%ebp),%eax
    21f1:	8b 80 8c 00 00 00    	mov    0x8c(%eax),%eax
    21f7:	89 04 24             	mov    %eax,(%esp)
    21fa:	e8 fc ff ff ff       	call   21fb <testDestroyNotOwner+0xd1>
    21ff:	89 c2                	mov    %eax,%edx
    2201:	8b 45 08             	mov    0x8(%ebp),%eax
    2204:	8b 80 8c 00 00 00    	mov    0x8c(%eax),%eax
    220a:	89 54 24 08          	mov    %edx,0x8(%esp)
    220e:	89 44 24 04          	mov    %eax,0x4(%esp)
    2212:	c7 04 24 01 00 00 00 	movl   $0x1,(%esp)
    2219:	e8 fc ff ff ff       	call   221a <testDestroyNotOwner+0xf0>
    221e:	c7 04 24 01 00 00 00 	movl   $0x1,(%esp)
    2225:	e8 fc ff ff ff       	call   2226 <testDestroyNotOwner+0xfc>
    222a:	e9 7c 01 00 00       	jmp    23ab <testDestroyNotOwner+0x281>
    222f:	83 7d fc 00          	cmpl   $0x0,-0x4(%ebp)
    2233:	75 72                	jne    22a7 <testDestroyNotOwner+0x17d>
    2235:	c7 44 24 04 00 00 00 	movl   $0x0,0x4(%esp)
    223c:	00 
    223d:	c7 04 24 00 00 00 00 	movl   $0x0,(%esp)
    2244:	e8 fc ff ff ff       	call   2245 <testDestroyNotOwner+0x11b>
    2249:	c7 04 24 01 00 00 00 	movl   $0x1,(%esp)
    2250:	e8 fc ff ff ff       	call   2251 <testDestroyNotOwner+0x127>
    2255:	c7 04 24 02 00 00 00 	movl   $0x2,(%esp)
    225c:	e8 fc ff ff ff       	call   225d <testDestroyNotOwner+0x133>
    2261:	c7 04 24 00 00 00 00 	movl   $0x0,(%esp)
    2268:	e8 fc ff ff ff       	call   2269 <testDestroyNotOwner+0x13f>
    226d:	c7 04 24 01 00 00 00 	movl   $0x1,(%esp)
    2274:	e8 fc ff ff ff       	call   2275 <testDestroyNotOwner+0x14b>
    2279:	e8 fc ff ff ff       	call   227a <testDestroyNotOwner+0x150>
    227e:	c7 04 24 24 0e 00 00 	movl   $0xe24,(%esp)
    2285:	e8 fc ff ff ff       	call   2286 <testDestroyNotOwner+0x15c>
    228a:	89 44 24 08          	mov    %eax,0x8(%esp)
    228e:	c7 44 24 04 24 0e 00 	movl   $0xe24,0x4(%esp)
    2295:	00 
    2296:	c7 04 24 01 00 00 00 	movl   $0x1,(%esp)
    229d:	e8 fc ff ff ff       	call   229e <testDestroyNotOwner+0x174>
    22a2:	e9 04 01 00 00       	jmp    23ab <testDestroyNotOwner+0x281>
    22a7:	83 7d fc 00          	cmpl   $0x0,-0x4(%ebp)
    22ab:	0f 8e fa 00 00 00    	jle    23ab <testDestroyNotOwner+0x281>
    22b1:	c7 04 24 01 00 00 00 	movl   $0x1,(%esp)
    22b8:	e8 fc ff ff ff       	call   22b9 <testDestroyNotOwner+0x18f>
    22bd:	c7 04 24 00 00 00 00 	movl   $0x0,(%esp)
    22c4:	e8 fc ff ff ff       	call   22c5 <testDestroyNotOwner+0x19b>
    22c9:	89 45 f8             	mov    %eax,-0x8(%ebp)
    22cc:	83 7d f8 00          	cmpl   $0x0,-0x8(%ebp)
    22d0:	78 4f                	js     2321 <testDestroyNotOwner+0x1f7>
    22d2:	8b 45 08             	mov    0x8(%ebp),%eax
    22d5:	c7 80 88 00 00 00 02 	movl   $0x2,0x88(%eax)
    22dc:	00 00 00 
    22df:	8b 45 08             	mov    0x8(%ebp),%eax
    22e2:	c7 80 8c 00 00 00 48 	movl   $0xe48,0x8c(%eax)
    22e9:	0e 00 00 
    22ec:	8b 45 08             	mov    0x8(%ebp),%eax
    22ef:	8b 80 8c 00 00 00    	mov    0x8c(%eax),%eax
    22f5:	89 04 24             	mov    %eax,(%esp)
    22f8:	e8 fc ff ff ff       	call   22f9 <testDestroyNotOwner+0x1cf>
    22fd:	89 c2                	mov    %eax,%edx
    22ff:	8b 45 08             	mov    0x8(%ebp),%eax
    2302:	8b 80 8c 00 00 00    	mov    0x8c(%eax),%eax
    2308:	89 54 24 08          	mov    %edx,0x8(%esp)
    230c:	89 44 24 04          	mov    %eax,0x4(%esp)
    2310:	c7 04 24 01 00 00 00 	movl   $0x1,(%esp)
    2317:	e8 fc ff ff ff       	call   2318 <testDestroyNotOwner+0x1ee>
    231c:	e9 8a 00 00 00       	jmp    23ab <testDestroyNotOwner+0x281>
    2321:	83 7d f8 ff          	cmpl   $0xffffffff,-0x8(%ebp)
    2325:	75 54                	jne    237b <testDestroyNotOwner+0x251>
    2327:	a1 00 00 00 00       	mov    0x0,%eax
    232c:	83 f8 01             	cmp    $0x1,%eax
    232f:	74 4a                	je     237b <testDestroyNotOwner+0x251>
    2331:	8b 45 08             	mov    0x8(%ebp),%eax
    2334:	c7 80 88 00 00 00 01 	movl   $0x1,0x88(%eax)
    233b:	00 00 00 
    233e:	8b 45 08             	mov    0x8(%ebp),%eax
    2341:	c7 80 8c 00 00 00 80 	movl   $0xe80,0x8c(%eax)
    2348:	0e 00 00 
    234b:	8b 45 08             	mov    0x8(%ebp),%eax
    234e:	8b 80 8c 00 00 00    	mov    0x8c(%eax),%eax
    2354:	89 04 24             	mov    %eax,(%esp)
    2357:	e8 fc ff ff ff       	call   2358 <testDestroyNotOwner+0x22e>
    235c:	89 c2                	mov    %eax,%edx
    235e:	8b 45 08             	mov    0x8(%ebp),%eax
    2361:	8b 80 8c 00 00 00    	mov    0x8c(%eax),%eax
    2367:	89 54 24 08          	mov    %edx,0x8(%esp)
    236b:	89 44 24 04          	mov    %eax,0x4(%esp)
    236f:	c7 04 24 01 00 00 00 	movl   $0x1,(%esp)
    2376:	e8 fc ff ff ff       	call   2377 <testDestroyNotOwner+0x24d>
    237b:	c7 04 24 02 00 00 00 	movl   $0x2,(%esp)
    2382:	e8 fc ff ff ff       	call   2383 <testDestroyNotOwner+0x259>
    2387:	c7 04 24 01 00 00 00 	movl   $0x1,(%esp)
    238e:	e8 fc ff ff ff       	call   238f <testDestroyNotOwner+0x265>
    2393:	c7 04 24 01 00 00 00 	movl   $0x1,(%esp)
    239a:	e8 fc ff ff ff       	call   239b <testDestroyNotOwner+0x271>
    239f:	c7 04 24 02 00 00 00 	movl   $0x2,(%esp)
    23a6:	e8 fc ff ff ff       	call   23a7 <testDestroyNotOwner+0x27d>
    23ab:	c9                   	leave  
    23ac:	c3                   	ret    

000023ad <testDestroyExit>:
    23ad:	55                   	push   %ebp
    23ae:	89 e5                	mov    %esp,%ebp
    23b0:	83 ec 28             	sub    $0x28,%esp
    23b3:	c7 45 fc 00 00 00 00 	movl   $0x0,-0x4(%ebp)
    23ba:	e8 fc ff ff ff       	call   23bb <testDestroyExit+0xe>
    23bf:	85 c0                	test   %eax,%eax
    23c1:	75 65                	jne    2428 <testDestroyExit+0x7b>
    23c3:	e8 fc ff ff ff       	call   23c4 <testDestroyExit+0x17>
    23c8:	89 45 f4             	mov    %eax,-0xc(%ebp)
    23cb:	83 7d f4 00          	cmpl   $0x0,-0xc(%ebp)
    23cf:	79 4f                	jns    2420 <testDestroyExit+0x73>
    23d1:	8b 45 08             	mov    0x8(%ebp),%eax
    23d4:	c7 80 88 00 00 00 02 	movl   $0x2,0x88(%eax)
    23db:	00 00 00 
    23de:	8b 45 08             	mov    0x8(%ebp),%eax
    23e1:	c7 80 8c 00 00 00 b8 	movl   $0xeb8,0x8c(%eax)
    23e8:	0e 00 00 
    23eb:	8b 45 08             	mov    0x8(%ebp),%eax
    23ee:	8b 80 8c 00 00 00    	mov    0x8c(%eax),%eax
    23f4:	89 04 24             	mov    %eax,(%esp)
    23f7:	e8 fc ff ff ff       	call   23f8 <testDestroyExit+0x4b>
    23fc:	89 c2                	mov    %eax,%edx
    23fe:	8b 45 08             	mov    0x8(%ebp),%eax
    2401:	8b 80 8c 00 00 00    	mov    0x8c(%eax),%eax
    2407:	89 54 24 08          	mov    %edx,0x8(%esp)
    240b:	89 44 24 04          	mov    %eax,0x4(%esp)
    240f:	c7 04 24 01 00 00 00 	movl   $0x1,(%esp)
    2416:	e8 fc ff ff ff       	call   2417 <testDestroyExit+0x6a>
    241b:	e9 15 02 00 00       	jmp    2635 <testDestroyExit+0x288>
    2420:	83 7d f4 00          	cmpl   $0x0,-0xc(%ebp)
    2424:	7e 02                	jle    2428 <testDestroyExit+0x7b>
    2426:	eb fe                	jmp    2426 <testDestroyExit+0x79>
    2428:	c7 44 24 04 00 00 00 	movl   $0x0,0x4(%esp)
    242f:	00 
    2430:	c7 04 24 00 00 00 00 	movl   $0x0,(%esp)
    2437:	e8 fc ff ff ff       	call   2438 <testDestroyExit+0x8b>
    243c:	85 c0                	test   %eax,%eax
    243e:	79 4f                	jns    248f <testDestroyExit+0xe2>
    2440:	8b 45 08             	mov    0x8(%ebp),%eax
    2443:	c7 80 88 00 00 00 02 	movl   $0x2,0x88(%eax)
    244a:	00 00 00 
    244d:	8b 45 08             	mov    0x8(%ebp),%eax
    2450:	c7 80 8c 00 00 00 e4 	movl   $0xee4,0x8c(%eax)
    2457:	0e 00 00 
    245a:	8b 45 08             	mov    0x8(%ebp),%eax
    245d:	8b 80 8c 00 00 00    	mov    0x8c(%eax),%eax
    2463:	89 04 24             	mov    %eax,(%esp)
    2466:	e8 fc ff ff ff       	call   2467 <testDestroyExit+0xba>
    246b:	89 c2                	mov    %eax,%edx
    246d:	8b 45 08             	mov    0x8(%ebp),%eax
    2470:	8b 80 8c 00 00 00    	mov    0x8c(%eax),%eax
    2476:	89 54 24 08          	mov    %edx,0x8(%esp)
    247a:	89 44 24 04          	mov    %eax,0x4(%esp)
    247e:	c7 04 24 01 00 00 00 	movl   $0x1,(%esp)
    2485:	e8 fc ff ff ff       	call   2486 <testDestroyExit+0xd9>
    248a:	e9 a6 01 00 00       	jmp    2635 <testDestroyExit+0x288>
    248f:	e8 fc ff ff ff       	call   2490 <testDestroyExit+0xe3>
    2494:	89 45 f4             	mov    %eax,-0xc(%ebp)
    2497:	83 7d f4 00          	cmpl   $0x0,-0xc(%ebp)
    249b:	79 4f                	jns    24ec <testDestroyExit+0x13f>
    249d:	8b 45 08             	mov    0x8(%ebp),%eax
    24a0:	c7 80 88 00 00 00 02 	movl   $0x2,0x88(%eax)
    24a7:	00 00 00 
    24aa:	8b 45 08             	mov    0x8(%ebp),%eax
    24ad:	c7 80 8c 00 00 00 b8 	movl   $0xeb8,0x8c(%eax)
    24b4:	0e 00 00 
    24b7:	8b 45 08             	mov    0x8(%ebp),%eax
    24ba:	8b 80 8c 00 00 00    	mov    0x8c(%eax),%eax
    24c0:	89 04 24             	mov    %eax,(%esp)
    24c3:	e8 fc ff ff ff       	call   24c4 <testDestroyExit+0x117>
    24c8:	89 c2                	mov    %eax,%edx
    24ca:	8b 45 08             	mov    0x8(%ebp),%eax
    24cd:	8b 80 8c 00 00 00    	mov    0x8c(%eax),%eax
    24d3:	89 54 24 08          	mov    %edx,0x8(%esp)
    24d7:	89 44 24 04          	mov    %eax,0x4(%esp)
    24db:	c7 04 24 01 00 00 00 	movl   $0x1,(%esp)
    24e2:	e8 fc ff ff ff       	call   24e3 <testDestroyExit+0x136>
    24e7:	e9 49 01 00 00       	jmp    2635 <testDestroyExit+0x288>
    24ec:	83 7d f4 00          	cmpl   $0x0,-0xc(%ebp)
    24f0:	75 62                	jne    2554 <testDestroyExit+0x1a7>
    24f2:	c7 45 f8 01 00 00 00 	movl   $0x1,-0x8(%ebp)
    24f9:	eb 19                	jmp    2514 <testDestroyExit+0x167>
    24fb:	c7 44 24 04 00 00 00 	movl   $0x0,0x4(%esp)
    2502:	00 
    2503:	8b 45 f8             	mov    -0x8(%ebp),%eax
    2506:	89 04 24             	mov    %eax,(%esp)
    2509:	e8 fc ff ff ff       	call   250a <testDestroyExit+0x15d>
    250e:	8d 45 f8             	lea    -0x8(%ebp),%eax
    2511:	83 00 01             	addl   $0x1,(%eax)
    2514:	83 7d f8 03          	cmpl   $0x3,-0x8(%ebp)
    2518:	7e e1                	jle    24fb <testDestroyExit+0x14e>
    251a:	c7 04 24 00 00 00 00 	movl   $0x0,(%esp)
    2521:	e8 fc ff ff ff       	call   2522 <testDestroyExit+0x175>
    2526:	e8 fc ff ff ff       	call   2527 <testDestroyExit+0x17a>
    252b:	c7 04 24 24 0e 00 00 	movl   $0xe24,(%esp)
    2532:	e8 fc ff ff ff       	call   2533 <testDestroyExit+0x186>
    2537:	89 44 24 08          	mov    %eax,0x8(%esp)
    253b:	c7 44 24 04 24 0e 00 	movl   $0xe24,0x4(%esp)
    2542:	00 
    2543:	c7 04 24 01 00 00 00 	movl   $0x1,(%esp)
    254a:	e8 fc ff ff ff       	call   254b <testDestroyExit+0x19e>
    254f:	e9 e1 00 00 00       	jmp    2635 <testDestroyExit+0x288>
    2554:	c7 04 24 00 00 00 00 	movl   $0x0,(%esp)
    255b:	e8 fc ff ff ff       	call   255c <testDestroyExit+0x1af>
    2560:	e8 90 e6 ff ff       	call   bf5 <delay>
    2565:	c7 45 f8 01 00 00 00 	movl   $0x1,-0x8(%ebp)
    256c:	eb 28                	jmp    2596 <testDestroyExit+0x1e9>
    256e:	c7 44 24 04 00 00 00 	movl   $0x0,0x4(%esp)
    2575:	00 
    2576:	8b 45 f8             	mov    -0x8(%ebp),%eax
    2579:	89 04 24             	mov    %eax,(%esp)
    257c:	e8 fc ff ff ff       	call   257d <testDestroyExit+0x1d0>
    2581:	89 45 f0             	mov    %eax,-0x10(%ebp)
    2584:	83 7d f0 00          	cmpl   $0x0,-0x10(%ebp)
    2588:	79 06                	jns    2590 <testDestroyExit+0x1e3>
    258a:	8d 45 fc             	lea    -0x4(%ebp),%eax
    258d:	83 00 01             	addl   $0x1,(%eax)
    2590:	8d 45 f8             	lea    -0x8(%ebp),%eax
    2593:	83 00 01             	addl   $0x1,(%eax)
    2596:	83 7d f8 03          	cmpl   $0x3,-0x8(%ebp)
    259a:	7e d2                	jle    256e <testDestroyExit+0x1c1>
    259c:	83 7d fc 00          	cmpl   $0x0,-0x4(%ebp)
    25a0:	0f 8e 8f 00 00 00    	jle    2635 <testDestroyExit+0x288>
    25a6:	8b 45 08             	mov    0x8(%ebp),%eax
    25a9:	c7 80 88 00 00 00 02 	movl   $0x2,0x88(%eax)
    25b0:	00 00 00 
    25b3:	83 7d fc 03          	cmpl   $0x3,-0x4(%ebp)
    25b7:	75 3f                	jne    25f8 <testDestroyExit+0x24b>
    25b9:	8b 45 08             	mov    0x8(%ebp),%eax
    25bc:	c7 80 8c 00 00 00 10 	movl   $0xf10,0x8c(%eax)
    25c3:	0f 00 00 
    25c6:	8b 45 08             	mov    0x8(%ebp),%eax
    25c9:	8b 80 8c 00 00 00    	mov    0x8c(%eax),%eax
    25cf:	89 04 24             	mov    %eax,(%esp)
    25d2:	e8 fc ff ff ff       	call   25d3 <testDestroyExit+0x226>
    25d7:	89 c2                	mov    %eax,%edx
    25d9:	8b 45 08             	mov    0x8(%ebp),%eax
    25dc:	8b 80 8c 00 00 00    	mov    0x8c(%eax),%eax
    25e2:	89 54 24 08          	mov    %edx,0x8(%esp)
    25e6:	89 44 24 04          	mov    %eax,0x4(%esp)
    25ea:	c7 04 24 01 00 00 00 	movl   $0x1,(%esp)
    25f1:	e8 fc ff ff ff       	call   25f2 <testDestroyExit+0x245>
    25f6:	eb 3d                	jmp    2635 <testDestroyExit+0x288>
    25f8:	8b 45 08             	mov    0x8(%ebp),%eax
    25fb:	c7 80 8c 00 00 00 58 	movl   $0xf58,0x8c(%eax)
    2602:	0f 00 00 
    2605:	8b 45 08             	mov    0x8(%ebp),%eax
    2608:	8b 80 8c 00 00 00    	mov    0x8c(%eax),%eax
    260e:	89 04 24             	mov    %eax,(%esp)
    2611:	e8 fc ff ff ff       	call   2612 <testDestroyExit+0x265>
    2616:	89 c2                	mov    %eax,%edx
    2618:	8b 45 08             	mov    0x8(%ebp),%eax
    261b:	8b 80 8c 00 00 00    	mov    0x8c(%eax),%eax
    2621:	89 54 24 08          	mov    %edx,0x8(%esp)
    2625:	89 44 24 04          	mov    %eax,0x4(%esp)
    2629:	c7 04 24 01 00 00 00 	movl   $0x1,(%esp)
    2630:	e8 fc ff ff ff       	call   2631 <testDestroyExit+0x284>
    2635:	c9                   	leave  
    2636:	c3                   	ret    

00002637 <testDoNotDestroyExit>:
    2637:	55                   	push   %ebp
    2638:	89 e5                	mov    %esp,%ebp
    263a:	83 ec 28             	sub    $0x28,%esp
    263d:	c7 45 fc 00 00 00 00 	movl   $0x0,-0x4(%ebp)
    2644:	e8 fc ff ff ff       	call   2645 <testDoNotDestroyExit+0xe>
    2649:	89 45 f4             	mov    %eax,-0xc(%ebp)
    264c:	83 7d f4 00          	cmpl   $0x0,-0xc(%ebp)
    2650:	79 4f                	jns    26a1 <testDoNotDestroyExit+0x6a>
    2652:	8b 45 08             	mov    0x8(%ebp),%eax
    2655:	c7 80 88 00 00 00 02 	movl   $0x2,0x88(%eax)
    265c:	00 00 00 
    265f:	8b 45 08             	mov    0x8(%ebp),%eax
    2662:	c7 80 8c 00 00 00 b8 	movl   $0xeb8,0x8c(%eax)
    2669:	0e 00 00 
    266c:	8b 45 08             	mov    0x8(%ebp),%eax
    266f:	8b 80 8c 00 00 00    	mov    0x8c(%eax),%eax
    2675:	89 04 24             	mov    %eax,(%esp)
    2678:	e8 fc ff ff ff       	call   2679 <testDoNotDestroyExit+0x42>
    267d:	89 c2                	mov    %eax,%edx
    267f:	8b 45 08             	mov    0x8(%ebp),%eax
    2682:	8b 80 8c 00 00 00    	mov    0x8c(%eax),%eax
    2688:	89 54 24 08          	mov    %edx,0x8(%esp)
    268c:	89 44 24 04          	mov    %eax,0x4(%esp)
    2690:	c7 04 24 01 00 00 00 	movl   $0x1,(%esp)
    2697:	e8 fc ff ff ff       	call   2698 <testDoNotDestroyExit+0x61>
    269c:	e9 0b 01 00 00       	jmp    27ac <testDoNotDestroyExit+0x175>
    26a1:	c7 45 f8 00 00 00 00 	movl   $0x0,-0x8(%ebp)
    26a8:	eb 19                	jmp    26c3 <testDoNotDestroyExit+0x8c>
    26aa:	c7 44 24 04 00 00 00 	movl   $0x0,0x4(%esp)
    26b1:	00 
    26b2:	8b 45 f8             	mov    -0x8(%ebp),%eax
    26b5:	89 04 24             	mov    %eax,(%esp)
    26b8:	e8 fc ff ff ff       	call   26b9 <testDoNotDestroyExit+0x82>
    26bd:	8d 45 f8             	lea    -0x8(%ebp),%eax
    26c0:	83 00 01             	addl   $0x1,(%eax)
    26c3:	83 7d f8 03          	cmpl   $0x3,-0x8(%ebp)
    26c7:	7e e1                	jle    26aa <testDoNotDestroyExit+0x73>
    26c9:	83 7d f4 00          	cmpl   $0x0,-0xc(%ebp)
    26cd:	75 3a                	jne    2709 <testDoNotDestroyExit+0xd2>
    26cf:	c7 04 24 00 00 00 00 	movl   $0x0,(%esp)
    26d6:	e8 fc ff ff ff       	call   26d7 <testDoNotDestroyExit+0xa0>
    26db:	e8 fc ff ff ff       	call   26dc <testDoNotDestroyExit+0xa5>
    26e0:	c7 04 24 24 0e 00 00 	movl   $0xe24,(%esp)
    26e7:	e8 fc ff ff ff       	call   26e8 <testDoNotDestroyExit+0xb1>
    26ec:	89 44 24 08          	mov    %eax,0x8(%esp)
    26f0:	c7 44 24 04 24 0e 00 	movl   $0xe24,0x4(%esp)
    26f7:	00 
    26f8:	c7 04 24 01 00 00 00 	movl   $0x1,(%esp)
    26ff:	e8 fc ff ff ff       	call   2700 <testDoNotDestroyExit+0xc9>
    2704:	e9 a3 00 00 00       	jmp    27ac <testDoNotDestroyExit+0x175>
    2709:	c7 04 24 00 00 00 00 	movl   $0x0,(%esp)
    2710:	e8 fc ff ff ff       	call   2711 <testDoNotDestroyExit+0xda>
    2715:	e8 db e4 ff ff       	call   bf5 <delay>
    271a:	c7 45 f8 00 00 00 00 	movl   $0x0,-0x8(%ebp)
    2721:	eb 33                	jmp    2756 <testDoNotDestroyExit+0x11f>
    2723:	c7 44 24 04 00 00 00 	movl   $0x0,0x4(%esp)
    272a:	00 
    272b:	8b 45 f8             	mov    -0x8(%ebp),%eax
    272e:	89 04 24             	mov    %eax,(%esp)
    2731:	e8 fc ff ff ff       	call   2732 <testDoNotDestroyExit+0xfb>
    2736:	89 45 f0             	mov    %eax,-0x10(%ebp)
    2739:	83 7d f0 00          	cmpl   $0x0,-0x10(%ebp)
    273d:	79 06                	jns    2745 <testDoNotDestroyExit+0x10e>
    273f:	8d 45 fc             	lea    -0x4(%ebp),%eax
    2742:	83 00 01             	addl   $0x1,(%eax)
    2745:	8b 45 f8             	mov    -0x8(%ebp),%eax
    2748:	89 04 24             	mov    %eax,(%esp)
    274b:	e8 fc ff ff ff       	call   274c <testDoNotDestroyExit+0x115>
    2750:	8d 45 f8             	lea    -0x8(%ebp),%eax
    2753:	83 00 01             	addl   $0x1,(%eax)
    2756:	83 7d f8 03          	cmpl   $0x3,-0x8(%ebp)
    275a:	7e c7                	jle    2723 <testDoNotDestroyExit+0xec>
    275c:	83 7d fc 02          	cmpl   $0x2,-0x4(%ebp)
    2760:	7f 4a                	jg     27ac <testDoNotDestroyExit+0x175>
    2762:	8b 45 08             	mov    0x8(%ebp),%eax
    2765:	c7 80 88 00 00 00 02 	movl   $0x2,0x88(%eax)
    276c:	00 00 00 
    276f:	8b 45 08             	mov    0x8(%ebp),%eax
    2772:	c7 80 8c 00 00 00 a4 	movl   $0xfa4,0x8c(%eax)
    2779:	0f 00 00 
    277c:	8b 45 08             	mov    0x8(%ebp),%eax
    277f:	8b 80 8c 00 00 00    	mov    0x8c(%eax),%eax
    2785:	89 04 24             	mov    %eax,(%esp)
    2788:	e8 fc ff ff ff       	call   2789 <testDoNotDestroyExit+0x152>
    278d:	89 c2                	mov    %eax,%edx
    278f:	8b 45 08             	mov    0x8(%ebp),%eax
    2792:	8b 80 8c 00 00 00    	mov    0x8c(%eax),%eax
    2798:	89 54 24 08          	mov    %edx,0x8(%esp)
    279c:	89 44 24 04          	mov    %eax,0x4(%esp)
    27a0:	c7 04 24 01 00 00 00 	movl   $0x1,(%esp)
    27a7:	e8 fc ff ff ff       	call   27a8 <testDoNotDestroyExit+0x171>
    27ac:	c9                   	leave  
    27ad:	c3                   	ret    

000027ae <testWaitTask0>:
    27ae:	55                   	push   %ebp
    27af:	89 e5                	mov    %esp,%ebp
    27b1:	83 ec 28             	sub    $0x28,%esp
    27b4:	e8 fc ff ff ff       	call   27b5 <testWaitTask0+0x7>
    27b9:	85 c0                	test   %eax,%eax
    27bb:	74 54                	je     2811 <testWaitTask0+0x63>
    27bd:	8b 45 08             	mov    0x8(%ebp),%eax
    27c0:	c7 80 88 00 00 00 02 	movl   $0x2,0x88(%eax)
    27c7:	00 00 00 
    27ca:	e8 fc ff ff ff       	call   27cb <testWaitTask0+0x1d>
    27cf:	8b 45 08             	mov    0x8(%ebp),%eax
    27d2:	c7 80 8c 00 00 00 e4 	movl   $0xfe4,0x8c(%eax)
    27d9:	0f 00 00 
    27dc:	8b 45 08             	mov    0x8(%ebp),%eax
    27df:	8b 80 8c 00 00 00    	mov    0x8c(%eax),%eax
    27e5:	89 04 24             	mov    %eax,(%esp)
    27e8:	e8 fc ff ff ff       	call   27e9 <testWaitTask0+0x3b>
    27ed:	89 c2                	mov    %eax,%edx
    27ef:	8b 45 08             	mov    0x8(%ebp),%eax
    27f2:	8b 80 8c 00 00 00    	mov    0x8c(%eax),%eax
    27f8:	89 54 24 08          	mov    %edx,0x8(%esp)
    27fc:	89 44 24 04          	mov    %eax,0x4(%esp)
    2800:	c7 04 24 01 00 00 00 	movl   $0x1,(%esp)
    2807:	e8 fc ff ff ff       	call   2808 <testWaitTask0+0x5a>
    280c:	e9 3e 01 00 00       	jmp    294f <testWaitTask0+0x1a1>
    2811:	c7 44 24 04 00 00 00 	movl   $0x0,0x4(%esp)
    2818:	00 
    2819:	c7 04 24 00 00 00 00 	movl   $0x0,(%esp)
    2820:	e8 fc ff ff ff       	call   2821 <testWaitTask0+0x73>
    2825:	89 45 fc             	mov    %eax,-0x4(%ebp)
    2828:	83 7d fc 00          	cmpl   $0x0,-0x4(%ebp)
    282c:	79 54                	jns    2882 <testWaitTask0+0xd4>
    282e:	8b 45 08             	mov    0x8(%ebp),%eax
    2831:	c7 80 88 00 00 00 02 	movl   $0x2,0x88(%eax)
    2838:	00 00 00 
    283b:	e8 fc ff ff ff       	call   283c <testWaitTask0+0x8e>
    2840:	8b 45 08             	mov    0x8(%ebp),%eax
    2843:	c7 80 8c 00 00 00 88 	movl   $0xc88,0x8c(%eax)
    284a:	0c 00 00 
    284d:	8b 45 08             	mov    0x8(%ebp),%eax
    2850:	8b 80 8c 00 00 00    	mov    0x8c(%eax),%eax
    2856:	89 04 24             	mov    %eax,(%esp)
    2859:	e8 fc ff ff ff       	call   285a <testWaitTask0+0xac>
    285e:	89 c2                	mov    %eax,%edx
    2860:	8b 45 08             	mov    0x8(%ebp),%eax
    2863:	8b 80 8c 00 00 00    	mov    0x8c(%eax),%eax
    2869:	89 54 24 08          	mov    %edx,0x8(%esp)
    286d:	89 44 24 04          	mov    %eax,0x4(%esp)
    2871:	c7 04 24 01 00 00 00 	movl   $0x1,(%esp)
    2878:	e8 fc ff ff ff       	call   2879 <testWaitTask0+0xcb>
    287d:	e9 cd 00 00 00       	jmp    294f <testWaitTask0+0x1a1>
    2882:	c7 04 24 00 00 00 00 	movl   $0x0,(%esp)
    2889:	e8 fc ff ff ff       	call   288a <testWaitTask0+0xdc>
    288e:	89 45 fc             	mov    %eax,-0x4(%ebp)
    2891:	83 7d fc 00          	cmpl   $0x0,-0x4(%ebp)
    2895:	78 58                	js     28ef <testWaitTask0+0x141>
    2897:	8b 45 08             	mov    0x8(%ebp),%eax
    289a:	c7 80 88 00 00 00 02 	movl   $0x2,0x88(%eax)
    28a1:	00 00 00 
    28a4:	8b 45 08             	mov    0x8(%ebp),%eax
    28a7:	c7 80 8c 00 00 00 1c 	movl   $0x101c,0x8c(%eax)
    28ae:	10 00 00 
    28b1:	8b 45 08             	mov    0x8(%ebp),%eax
    28b4:	8b 80 8c 00 00 00    	mov    0x8c(%eax),%eax
    28ba:	89 04 24             	mov    %eax,(%esp)
    28bd:	e8 fc ff ff ff       	call   28be <testWaitTask0+0x110>
    28c2:	89 c2                	mov    %eax,%edx
    28c4:	8b 45 08             	mov    0x8(%ebp),%eax
    28c7:	8b 80 8c 00 00 00    	mov    0x8c(%eax),%eax
    28cd:	89 54 24 08          	mov    %edx,0x8(%esp)
    28d1:	89 44 24 04          	mov    %eax,0x4(%esp)
    28d5:	c7 04 24 01 00 00 00 	movl   $0x1,(%esp)
    28dc:	e8 fc ff ff ff       	call   28dd <testWaitTask0+0x12f>
    28e1:	c7 04 24 00 00 00 00 	movl   $0x0,(%esp)
    28e8:	e8 fc ff ff ff       	call   28e9 <testWaitTask0+0x13b>
    28ed:	eb 54                	jmp    2943 <testWaitTask0+0x195>
    28ef:	a1 00 00 00 00       	mov    0x0,%eax
    28f4:	83 f8 01             	cmp    $0x1,%eax
    28f7:	74 4a                	je     2943 <testWaitTask0+0x195>
    28f9:	8b 45 08             	mov    0x8(%ebp),%eax
    28fc:	c7 80 88 00 00 00 01 	movl   $0x1,0x88(%eax)
    2903:	00 00 00 
    2906:	8b 45 08             	mov    0x8(%ebp),%eax
    2909:	c7 80 8c 00 00 00 4c 	movl   $0x104c,0x8c(%eax)
    2910:	10 00 00 
    2913:	8b 45 08             	mov    0x8(%ebp),%eax
    2916:	8b 80 8c 00 00 00    	mov    0x8c(%eax),%eax
    291c:	89 04 24             	mov    %eax,(%esp)
    291f:	e8 fc ff ff ff       	call   2920 <testWaitTask0+0x172>
    2924:	89 c2                	mov    %eax,%edx
    2926:	8b 45 08             	mov    0x8(%ebp),%eax
    2929:	8b 80 8c 00 00 00    	mov    0x8c(%eax),%eax
    292f:	89 54 24 08          	mov    %edx,0x8(%esp)
    2933:	89 44 24 04          	mov    %eax,0x4(%esp)
    2937:	c7 04 24 01 00 00 00 	movl   $0x1,(%esp)
    293e:	e8 fc ff ff ff       	call   293f <testWaitTask0+0x191>
    2943:	c7 04 24 00 00 00 00 	movl   $0x0,(%esp)
    294a:	e8 fc ff ff ff       	call   294b <testWaitTask0+0x19d>
    294f:	c9                   	leave  
    2950:	c3                   	ret    

00002951 <testInvalidSemSignal>:
    2951:	55                   	push   %ebp
    2952:	89 e5                	mov    %esp,%ebp
    2954:	83 ec 28             	sub    $0x28,%esp
    2957:	c7 04 24 ff ff ff ff 	movl   $0xffffffff,(%esp)
    295e:	e8 fc ff ff ff       	call   295f <testInvalidSemSignal+0xe>
    2963:	89 45 fc             	mov    %eax,-0x4(%ebp)
    2966:	83 7d fc 00          	cmpl   $0x0,-0x4(%ebp)
    296a:	78 4f                	js     29bb <testInvalidSemSignal+0x6a>
    296c:	8b 45 08             	mov    0x8(%ebp),%eax
    296f:	c7 80 88 00 00 00 02 	movl   $0x2,0x88(%eax)
    2976:	00 00 00 
    2979:	8b 45 08             	mov    0x8(%ebp),%eax
    297c:	c7 80 8c 00 00 00 8c 	movl   $0x108c,0x8c(%eax)
    2983:	10 00 00 
    2986:	8b 45 08             	mov    0x8(%ebp),%eax
    2989:	8b 80 8c 00 00 00    	mov    0x8c(%eax),%eax
    298f:	89 04 24             	mov    %eax,(%esp)
    2992:	e8 fc ff ff ff       	call   2993 <testInvalidSemSignal+0x42>
    2997:	89 c2                	mov    %eax,%edx
    2999:	8b 45 08             	mov    0x8(%ebp),%eax
    299c:	8b 80 8c 00 00 00    	mov    0x8c(%eax),%eax
    29a2:	89 54 24 08          	mov    %edx,0x8(%esp)
    29a6:	89 44 24 04          	mov    %eax,0x4(%esp)
    29aa:	c7 04 24 01 00 00 00 	movl   $0x1,(%esp)
    29b1:	e8 fc ff ff ff       	call   29b2 <testInvalidSemSignal+0x61>
    29b6:	e9 0e 01 00 00       	jmp    2ac9 <testInvalidSemSignal+0x178>
    29bb:	a1 00 00 00 00       	mov    0x0,%eax
    29c0:	83 f8 16             	cmp    $0x16,%eax
    29c3:	74 4f                	je     2a14 <testInvalidSemSignal+0xc3>
    29c5:	8b 45 08             	mov    0x8(%ebp),%eax
    29c8:	c7 80 88 00 00 00 01 	movl   $0x1,0x88(%eax)
    29cf:	00 00 00 
    29d2:	8b 45 08             	mov    0x8(%ebp),%eax
    29d5:	c7 80 8c 00 00 00 c8 	movl   $0x10c8,0x8c(%eax)
    29dc:	10 00 00 
    29df:	8b 45 08             	mov    0x8(%ebp),%eax
    29e2:	8b 80 8c 00 00 00    	mov    0x8c(%eax),%eax
    29e8:	89 04 24             	mov    %eax,(%esp)
    29eb:	e8 fc ff ff ff       	call   29ec <testInvalidSemSignal+0x9b>
    29f0:	89 c2                	mov    %eax,%edx
    29f2:	8b 45 08             	mov    0x8(%ebp),%eax
    29f5:	8b 80 8c 00 00 00    	mov    0x8c(%eax),%eax
    29fb:	89 54 24 08          	mov    %edx,0x8(%esp)
    29ff:	89 44 24 04          	mov    %eax,0x4(%esp)
    2a03:	c7 04 24 01 00 00 00 	movl   $0x1,(%esp)
    2a0a:	e8 fc ff ff ff       	call   2a0b <testInvalidSemSignal+0xba>
    2a0f:	e9 b5 00 00 00       	jmp    2ac9 <testInvalidSemSignal+0x178>
    2a14:	c7 04 24 64 00 00 00 	movl   $0x64,(%esp)
    2a1b:	e8 fc ff ff ff       	call   2a1c <testInvalidSemSignal+0xcb>
    2a20:	89 45 fc             	mov    %eax,-0x4(%ebp)
    2a23:	83 7d fc 00          	cmpl   $0x0,-0x4(%ebp)
    2a27:	78 4c                	js     2a75 <testInvalidSemSignal+0x124>
    2a29:	8b 45 08             	mov    0x8(%ebp),%eax
    2a2c:	c7 80 88 00 00 00 02 	movl   $0x2,0x88(%eax)
    2a33:	00 00 00 
    2a36:	8b 45 08             	mov    0x8(%ebp),%eax
    2a39:	c7 80 8c 00 00 00 20 	movl   $0x1120,0x8c(%eax)
    2a40:	11 00 00 
    2a43:	8b 45 08             	mov    0x8(%ebp),%eax
    2a46:	8b 80 8c 00 00 00    	mov    0x8c(%eax),%eax
    2a4c:	89 04 24             	mov    %eax,(%esp)
    2a4f:	e8 fc ff ff ff       	call   2a50 <testInvalidSemSignal+0xff>
    2a54:	89 c2                	mov    %eax,%edx
    2a56:	8b 45 08             	mov    0x8(%ebp),%eax
    2a59:	8b 80 8c 00 00 00    	mov    0x8c(%eax),%eax
    2a5f:	89 54 24 08          	mov    %edx,0x8(%esp)
    2a63:	89 44 24 04          	mov    %eax,0x4(%esp)
    2a67:	c7 04 24 01 00 00 00 	movl   $0x1,(%esp)
    2a6e:	e8 fc ff ff ff       	call   2a6f <testInvalidSemSignal+0x11e>
    2a73:	eb 54                	jmp    2ac9 <testInvalidSemSignal+0x178>
    2a75:	a1 00 00 00 00       	mov    0x0,%eax
    2a7a:	83 f8 16             	cmp    $0x16,%eax
    2a7d:	74 4a                	je     2ac9 <testInvalidSemSignal+0x178>
    2a7f:	8b 45 08             	mov    0x8(%ebp),%eax
    2a82:	c7 80 88 00 00 00 01 	movl   $0x1,0x88(%eax)
    2a89:	00 00 00 
    2a8c:	8b 45 08             	mov    0x8(%ebp),%eax
    2a8f:	c7 80 8c 00 00 00 5c 	movl   $0x115c,0x8c(%eax)
    2a96:	11 00 00 
    2a99:	8b 45 08             	mov    0x8(%ebp),%eax
    2a9c:	8b 80 8c 00 00 00    	mov    0x8c(%eax),%eax
    2aa2:	89 04 24             	mov    %eax,(%esp)
    2aa5:	e8 fc ff ff ff       	call   2aa6 <testInvalidSemSignal+0x155>
    2aaa:	89 c2                	mov    %eax,%edx
    2aac:	8b 45 08             	mov    0x8(%ebp),%eax
    2aaf:	8b 80 8c 00 00 00    	mov    0x8c(%eax),%eax
    2ab5:	89 54 24 08          	mov    %edx,0x8(%esp)
    2ab9:	89 44 24 04          	mov    %eax,0x4(%esp)
    2abd:	c7 04 24 01 00 00 00 	movl   $0x1,(%esp)
    2ac4:	e8 fc ff ff ff       	call   2ac5 <testInvalidSemSignal+0x174>
    2ac9:	c9                   	leave  
    2aca:	c3                   	ret    

00002acb <testUnitializedSemSignal>:
    2acb:	55                   	push   %ebp
    2acc:	89 e5                	mov    %esp,%ebp
    2ace:	83 ec 28             	sub    $0x28,%esp
    2ad1:	c7 04 24 00 00 00 00 	movl   $0x0,(%esp)
    2ad8:	e8 fc ff ff ff       	call   2ad9 <testUnitializedSemSignal+0xe>
    2add:	89 45 fc             	mov    %eax,-0x4(%ebp)
    2ae0:	83 7d fc 00          	cmpl   $0x0,-0x4(%ebp)
    2ae4:	78 4c                	js     2b32 <testUnitializedSemSignal+0x67>
    2ae6:	8b 45 08             	mov    0x8(%ebp),%eax
    2ae9:	c7 80 88 00 00 00 02 	movl   $0x2,0x88(%eax)
    2af0:	00 00 00 
    2af3:	8b 45 08             	mov    0x8(%ebp),%eax
    2af6:	c7 80 8c 00 00 00 b4 	movl   $0x11b4,0x8c(%eax)
    2afd:	11 00 00 
    2b00:	8b 45 08             	mov    0x8(%ebp),%eax
    2b03:	8b 80 8c 00 00 00    	mov    0x8c(%eax),%eax
    2b09:	89 04 24             	mov    %eax,(%esp)
    2b0c:	e8 fc ff ff ff       	call   2b0d <testUnitializedSemSignal+0x42>
    2b11:	89 c2                	mov    %eax,%edx
    2b13:	8b 45 08             	mov    0x8(%ebp),%eax
    2b16:	8b 80 8c 00 00 00    	mov    0x8c(%eax),%eax
    2b1c:	89 54 24 08          	mov    %edx,0x8(%esp)
    2b20:	89 44 24 04          	mov    %eax,0x4(%esp)
    2b24:	c7 04 24 01 00 00 00 	movl   $0x1,(%esp)
    2b2b:	e8 fc ff ff ff       	call   2b2c <testUnitializedSemSignal+0x61>
    2b30:	eb 54                	jmp    2b86 <testUnitializedSemSignal+0xbb>
    2b32:	a1 00 00 00 00       	mov    0x0,%eax
    2b37:	83 f8 16             	cmp    $0x16,%eax
    2b3a:	74 4a                	je     2b86 <testUnitializedSemSignal+0xbb>
    2b3c:	8b 45 08             	mov    0x8(%ebp),%eax
    2b3f:	c7 80 88 00 00 00 01 	movl   $0x1,0x88(%eax)
    2b46:	00 00 00 
    2b49:	8b 45 08             	mov    0x8(%ebp),%eax
    2b4c:	c7 80 8c 00 00 00 f0 	movl   $0x11f0,0x8c(%eax)
    2b53:	11 00 00 
    2b56:	8b 45 08             	mov    0x8(%ebp),%eax
    2b59:	8b 80 8c 00 00 00    	mov    0x8c(%eax),%eax
    2b5f:	89 04 24             	mov    %eax,(%esp)
    2b62:	e8 fc ff ff ff       	call   2b63 <testUnitializedSemSignal+0x98>
    2b67:	89 c2                	mov    %eax,%edx
    2b69:	8b 45 08             	mov    0x8(%ebp),%eax
    2b6c:	8b 80 8c 00 00 00    	mov    0x8c(%eax),%eax
    2b72:	89 54 24 08          	mov    %edx,0x8(%esp)
    2b76:	89 44 24 04          	mov    %eax,0x4(%esp)
    2b7a:	c7 04 24 01 00 00 00 	movl   $0x1,(%esp)
    2b81:	e8 fc ff ff ff       	call   2b82 <testUnitializedSemSignal+0xb7>
    2b86:	c9                   	leave  
    2b87:	c3                   	ret    

00002b88 <testSignalDestroyed>:
    2b88:	55                   	push   %ebp
    2b89:	89 e5                	mov    %esp,%ebp
    2b8b:	83 ec 28             	sub    $0x28,%esp
    2b8e:	c7 44 24 04 00 00 00 	movl   $0x0,0x4(%esp)
    2b95:	00 
    2b96:	c7 04 24 00 00 00 00 	movl   $0x0,(%esp)
    2b9d:	e8 fc ff ff ff       	call   2b9e <testSignalDestroyed+0x16>
    2ba2:	89 45 fc             	mov    %eax,-0x4(%ebp)
    2ba5:	83 7d fc 00          	cmpl   $0x0,-0x4(%ebp)
    2ba9:	79 54                	jns    2bff <testSignalDestroyed+0x77>
    2bab:	e8 fc ff ff ff       	call   2bac <testSignalDestroyed+0x24>
    2bb0:	8b 45 08             	mov    0x8(%ebp),%eax
    2bb3:	c7 80 8c 00 00 00 4c 	movl   $0xb4c,0x8c(%eax)
    2bba:	0b 00 00 
    2bbd:	8b 45 08             	mov    0x8(%ebp),%eax
    2bc0:	8b 80 8c 00 00 00    	mov    0x8c(%eax),%eax
    2bc6:	89 04 24             	mov    %eax,(%esp)
    2bc9:	e8 fc ff ff ff       	call   2bca <testSignalDestroyed+0x42>
    2bce:	89 c2                	mov    %eax,%edx
    2bd0:	8b 45 08             	mov    0x8(%ebp),%eax
    2bd3:	8b 80 8c 00 00 00    	mov    0x8c(%eax),%eax
    2bd9:	89 54 24 08          	mov    %edx,0x8(%esp)
    2bdd:	89 44 24 04          	mov    %eax,0x4(%esp)
    2be1:	c7 04 24 01 00 00 00 	movl   $0x1,(%esp)
    2be8:	e8 fc ff ff ff       	call   2be9 <testSignalDestroyed+0x61>
    2bed:	8b 45 08             	mov    0x8(%ebp),%eax
    2bf0:	c7 80 88 00 00 00 02 	movl   $0x2,0x88(%eax)
    2bf7:	00 00 00 
    2bfa:	e9 c5 00 00 00       	jmp    2cc4 <testSignalDestroyed+0x13c>
    2bff:	c7 04 24 00 00 00 00 	movl   $0x0,(%esp)
    2c06:	e8 fc ff ff ff       	call   2c07 <testSignalDestroyed+0x7f>
    2c0b:	89 45 fc             	mov    %eax,-0x4(%ebp)
    2c0e:	83 7d fc 00          	cmpl   $0x0,-0x4(%ebp)
    2c12:	79 51                	jns    2c65 <testSignalDestroyed+0xdd>
    2c14:	e8 fc ff ff ff       	call   2c15 <testSignalDestroyed+0x8d>
    2c19:	8b 45 08             	mov    0x8(%ebp),%eax
    2c1c:	c7 80 8c 00 00 00 34 	movl   $0x1234,0x8c(%eax)
    2c23:	12 00 00 
    2c26:	8b 45 08             	mov    0x8(%ebp),%eax
    2c29:	8b 80 8c 00 00 00    	mov    0x8c(%eax),%eax
    2c2f:	89 04 24             	mov    %eax,(%esp)
    2c32:	e8 fc ff ff ff       	call   2c33 <testSignalDestroyed+0xab>
    2c37:	89 c2                	mov    %eax,%edx
    2c39:	8b 45 08             	mov    0x8(%ebp),%eax
    2c3c:	8b 80 8c 00 00 00    	mov    0x8c(%eax),%eax
    2c42:	89 54 24 08          	mov    %edx,0x8(%esp)
    2c46:	89 44 24 04          	mov    %eax,0x4(%esp)
    2c4a:	c7 04 24 01 00 00 00 	movl   $0x1,(%esp)
    2c51:	e8 fc ff ff ff       	call   2c52 <testSignalDestroyed+0xca>
    2c56:	8b 45 08             	mov    0x8(%ebp),%eax
    2c59:	c7 80 88 00 00 00 02 	movl   $0x2,0x88(%eax)
    2c60:	00 00 00 
    2c63:	eb 5f                	jmp    2cc4 <testSignalDestroyed+0x13c>
    2c65:	c7 04 24 00 00 00 00 	movl   $0x0,(%esp)
    2c6c:	e8 fc ff ff ff       	call   2c6d <testSignalDestroyed+0xe5>
    2c71:	89 45 fc             	mov    %eax,-0x4(%ebp)
    2c74:	83 7d fc 00          	cmpl   $0x0,-0x4(%ebp)
    2c78:	78 4a                	js     2cc4 <testSignalDestroyed+0x13c>
    2c7a:	8b 45 08             	mov    0x8(%ebp),%eax
    2c7d:	c7 80 8c 00 00 00 60 	movl   $0x1260,0x8c(%eax)
    2c84:	12 00 00 
    2c87:	8b 45 08             	mov    0x8(%ebp),%eax
    2c8a:	8b 80 8c 00 00 00    	mov    0x8c(%eax),%eax
    2c90:	89 04 24             	mov    %eax,(%esp)
    2c93:	e8 fc ff ff ff       	call   2c94 <testSignalDestroyed+0x10c>
    2c98:	89 c2                	mov    %eax,%edx
    2c9a:	8b 45 08             	mov    0x8(%ebp),%eax
    2c9d:	8b 80 8c 00 00 00    	mov    0x8c(%eax),%eax
    2ca3:	89 54 24 08          	mov    %edx,0x8(%esp)
    2ca7:	89 44 24 04          	mov    %eax,0x4(%esp)
    2cab:	c7 04 24 01 00 00 00 	movl   $0x1,(%esp)
    2cb2:	e8 fc ff ff ff       	call   2cb3 <testSignalDestroyed+0x12b>
    2cb7:	8b 45 08             	mov    0x8(%ebp),%eax
    2cba:	c7 80 88 00 00 00 02 	movl   $0x2,0x88(%eax)
    2cc1:	00 00 00 
    2cc4:	c9                   	leave  
    2cc5:	c3                   	ret    

00002cc6 <testSemFunctionality2>:
    2cc6:	55                   	push   %ebp
    2cc7:	89 e5                	mov    %esp,%ebp
    2cc9:	83 ec 28             	sub    $0x28,%esp
    2ccc:	e8 fc ff ff ff       	call   2ccd <testSemFunctionality2+0x7>
    2cd1:	85 c0                	test   %eax,%eax
    2cd3:	75 6a                	jne    2d3f <testSemFunctionality2+0x79>
    2cd5:	e8 fc ff ff ff       	call   2cd6 <testSemFunctionality2+0x10>
    2cda:	89 45 f8             	mov    %eax,-0x8(%ebp)
    2cdd:	83 7d f8 00          	cmpl   $0x0,-0x8(%ebp)
    2ce1:	7e 02                	jle    2ce5 <testSemFunctionality2+0x1f>
    2ce3:	eb fe                	jmp    2ce3 <testSemFunctionality2+0x1d>
    2ce5:	83 7d f8 00          	cmpl   $0x0,-0x8(%ebp)
    2ce9:	79 54                	jns    2d3f <testSemFunctionality2+0x79>
    2ceb:	8b 45 08             	mov    0x8(%ebp),%eax
    2cee:	c7 80 88 00 00 00 02 	movl   $0x2,0x88(%eax)
    2cf5:	00 00 00 
    2cf8:	e8 fc ff ff ff       	call   2cf9 <testSemFunctionality2+0x33>
    2cfd:	8b 45 08             	mov    0x8(%ebp),%eax
    2d00:	c7 80 8c 00 00 00 00 	movl   $0xe00,0x8c(%eax)
    2d07:	0e 00 00 
    2d0a:	8b 45 08             	mov    0x8(%ebp),%eax
    2d0d:	8b 80 8c 00 00 00    	mov    0x8c(%eax),%eax
    2d13:	89 04 24             	mov    %eax,(%esp)
    2d16:	e8 fc ff ff ff       	call   2d17 <testSemFunctionality2+0x51>
    2d1b:	89 c2                	mov    %eax,%edx
    2d1d:	8b 45 08             	mov    0x8(%ebp),%eax
    2d20:	8b 80 8c 00 00 00    	mov    0x8c(%eax),%eax
    2d26:	89 54 24 08          	mov    %edx,0x8(%esp)
    2d2a:	89 44 24 04          	mov    %eax,0x4(%esp)
    2d2e:	c7 04 24 01 00 00 00 	movl   $0x1,(%esp)
    2d35:	e8 fc ff ff ff       	call   2d36 <testSemFunctionality2+0x70>
    2d3a:	e9 26 01 00 00       	jmp    2e65 <testSemFunctionality2+0x19f>
    2d3f:	c7 44 24 04 00 00 00 	movl   $0x0,0x4(%esp)
    2d46:	00 
    2d47:	c7 04 24 00 00 00 00 	movl   $0x0,(%esp)
    2d4e:	e8 fc ff ff ff       	call   2d4f <testSemFunctionality2+0x89>
    2d53:	89 45 fc             	mov    %eax,-0x4(%ebp)
    2d56:	83 7d fc 00          	cmpl   $0x0,-0x4(%ebp)
    2d5a:	79 54                	jns    2db0 <testSemFunctionality2+0xea>
    2d5c:	e8 fc ff ff ff       	call   2d5d <testSemFunctionality2+0x97>
    2d61:	8b 45 08             	mov    0x8(%ebp),%eax
    2d64:	c7 80 8c 00 00 00 4c 	movl   $0xb4c,0x8c(%eax)
    2d6b:	0b 00 00 
    2d6e:	8b 45 08             	mov    0x8(%ebp),%eax
    2d71:	8b 80 8c 00 00 00    	mov    0x8c(%eax),%eax
    2d77:	89 04 24             	mov    %eax,(%esp)
    2d7a:	e8 fc ff ff ff       	call   2d7b <testSemFunctionality2+0xb5>
    2d7f:	89 c2                	mov    %eax,%edx
    2d81:	8b 45 08             	mov    0x8(%ebp),%eax
    2d84:	8b 80 8c 00 00 00    	mov    0x8c(%eax),%eax
    2d8a:	89 54 24 08          	mov    %edx,0x8(%esp)
    2d8e:	89 44 24 04          	mov    %eax,0x4(%esp)
    2d92:	c7 04 24 01 00 00 00 	movl   $0x1,(%esp)
    2d99:	e8 fc ff ff ff       	call   2d9a <testSemFunctionality2+0xd4>
    2d9e:	8b 45 08             	mov    0x8(%ebp),%eax
    2da1:	c7 80 88 00 00 00 02 	movl   $0x2,0x88(%eax)
    2da8:	00 00 00 
    2dab:	e9 b5 00 00 00       	jmp    2e65 <testSemFunctionality2+0x19f>
    2db0:	e8 fc ff ff ff       	call   2db1 <testSemFunctionality2+0xeb>
    2db5:	89 45 f8             	mov    %eax,-0x8(%ebp)
    2db8:	83 7d f8 00          	cmpl   $0x0,-0x8(%ebp)
    2dbc:	75 3c                	jne    2dfa <testSemFunctionality2+0x134>
    2dbe:	e8 32 de ff ff       	call   bf5 <delay>
    2dc3:	c7 04 24 00 00 00 00 	movl   $0x0,(%esp)
    2dca:	e8 fc ff ff ff       	call   2dcb <testSemFunctionality2+0x105>
    2dcf:	e8 fc ff ff ff       	call   2dd0 <testSemFunctionality2+0x10a>
    2dd4:	c7 04 24 24 0e 00 00 	movl   $0xe24,(%esp)
    2ddb:	e8 fc ff ff ff       	call   2ddc <testSemFunctionality2+0x116>
    2de0:	89 44 24 08          	mov    %eax,0x8(%esp)
    2de4:	c7 44 24 04 24 0e 00 	movl   $0xe24,0x4(%esp)
    2deb:	00 
    2dec:	c7 04 24 01 00 00 00 	movl   $0x1,(%esp)
    2df3:	e8 fc ff ff ff       	call   2df4 <testSemFunctionality2+0x12e>
    2df8:	eb 6b                	jmp    2e65 <testSemFunctionality2+0x19f>
    2dfa:	c7 04 24 00 00 00 00 	movl   $0x0,(%esp)
    2e01:	e8 fc ff ff ff       	call   2e02 <testSemFunctionality2+0x13c>
    2e06:	89 45 fc             	mov    %eax,-0x4(%ebp)
    2e09:	83 7d fc 00          	cmpl   $0x0,-0x4(%ebp)
    2e0d:	74 4a                	je     2e59 <testSemFunctionality2+0x193>
    2e0f:	8b 45 08             	mov    0x8(%ebp),%eax
    2e12:	c7 80 88 00 00 00 02 	movl   $0x2,0x88(%eax)
    2e19:	00 00 00 
    2e1c:	8b 45 08             	mov    0x8(%ebp),%eax
    2e1f:	c7 80 8c 00 00 00 a0 	movl   $0x12a0,0x8c(%eax)
    2e26:	12 00 00 
    2e29:	8b 45 08             	mov    0x8(%ebp),%eax
    2e2c:	8b 80 8c 00 00 00    	mov    0x8c(%eax),%eax
    2e32:	89 04 24             	mov    %eax,(%esp)
    2e35:	e8 fc ff ff ff       	call   2e36 <testSemFunctionality2+0x170>
    2e3a:	89 c2                	mov    %eax,%edx
    2e3c:	8b 45 08             	mov    0x8(%ebp),%eax
    2e3f:	8b 80 8c 00 00 00    	mov    0x8c(%eax),%eax
    2e45:	89 54 24 08          	mov    %edx,0x8(%esp)
    2e49:	89 44 24 04          	mov    %eax,0x4(%esp)
    2e4d:	c7 04 24 01 00 00 00 	movl   $0x1,(%esp)
    2e54:	e8 fc ff ff ff       	call   2e55 <testSemFunctionality2+0x18f>
    2e59:	c7 04 24 00 00 00 00 	movl   $0x0,(%esp)
    2e60:	e8 fc ff ff ff       	call   2e61 <testSemFunctionality2+0x19b>
    2e65:	c9                   	leave  
    2e66:	c3                   	ret    

00002e67 <testFatherResultFork>:
    2e67:	55                   	push   %ebp
    2e68:	89 e5                	mov    %esp,%ebp
    2e6a:	83 ec 28             	sub    $0x28,%esp
    2e6d:	e8 fc ff ff ff       	call   2e6e <testFatherResultFork+0x7>
    2e72:	89 45 fc             	mov    %eax,-0x4(%ebp)
    2e75:	e8 fc ff ff ff       	call   2e76 <testFatherResultFork+0xf>
    2e7a:	89 45 f8             	mov    %eax,-0x8(%ebp)
    2e7d:	e8 fc ff ff ff       	call   2e7e <testFatherResultFork+0x17>
    2e82:	3b 45 fc             	cmp    -0x4(%ebp),%eax
    2e85:	75 61                	jne    2ee8 <testFatherResultFork+0x81>
    2e87:	83 7d f8 00          	cmpl   $0x0,-0x8(%ebp)
    2e8b:	7f 4c                	jg     2ed9 <testFatherResultFork+0x72>
    2e8d:	8b 45 08             	mov    0x8(%ebp),%eax
    2e90:	c7 80 88 00 00 00 02 	movl   $0x2,0x88(%eax)
    2e97:	00 00 00 
    2e9a:	8b 45 08             	mov    0x8(%ebp),%eax
    2e9d:	c7 80 8c 00 00 00 d8 	movl   $0x12d8,0x8c(%eax)
    2ea4:	12 00 00 
    2ea7:	8b 45 08             	mov    0x8(%ebp),%eax
    2eaa:	8b 80 8c 00 00 00    	mov    0x8c(%eax),%eax
    2eb0:	89 04 24             	mov    %eax,(%esp)
    2eb3:	e8 fc ff ff ff       	call   2eb4 <testFatherResultFork+0x4d>
    2eb8:	89 c2                	mov    %eax,%edx
    2eba:	8b 45 08             	mov    0x8(%ebp),%eax
    2ebd:	8b 80 8c 00 00 00    	mov    0x8c(%eax),%eax
    2ec3:	89 54 24 08          	mov    %edx,0x8(%esp)
    2ec7:	89 44 24 04          	mov    %eax,0x4(%esp)
    2ecb:	c7 04 24 01 00 00 00 	movl   $0x1,(%esp)
    2ed2:	e8 fc ff ff ff       	call   2ed3 <testFatherResultFork+0x6c>
    2ed7:	eb 38                	jmp    2f11 <testFatherResultFork+0xaa>
    2ed9:	8b 45 08             	mov    0x8(%ebp),%eax
    2edc:	c7 80 88 00 00 00 00 	movl   $0x0,0x88(%eax)
    2ee3:	00 00 00 
    2ee6:	eb 29                	jmp    2f11 <testFatherResultFork+0xaa>
    2ee8:	e8 fc ff ff ff       	call   2ee9 <testFatherResultFork+0x82>
    2eed:	c7 04 24 24 0e 00 00 	movl   $0xe24,(%esp)
    2ef4:	e8 fc ff ff ff       	call   2ef5 <testFatherResultFork+0x8e>
    2ef9:	89 44 24 08          	mov    %eax,0x8(%esp)
    2efd:	c7 44 24 04 24 0e 00 	movl   $0xe24,0x4(%esp)
    2f04:	00 
    2f05:	c7 04 24 01 00 00 00 	movl   $0x1,(%esp)
    2f0c:	e8 fc ff ff ff       	call   2f0d <testFatherResultFork+0xa6>
    2f11:	c9                   	leave  
    2f12:	c3                   	ret    

00002f13 <testChildResultFork>:
    2f13:	55                   	push   %ebp
    2f14:	89 e5                	mov    %esp,%ebp
    2f16:	83 ec 38             	sub    $0x38,%esp
    2f19:	e8 fc ff ff ff       	call   2f1a <testChildResultFork+0x7>
    2f1e:	89 45 fc             	mov    %eax,-0x4(%ebp)
    2f21:	e8 fc ff ff ff       	call   2f22 <testChildResultFork+0xf>
    2f26:	89 45 f8             	mov    %eax,-0x8(%ebp)
    2f29:	83 7d f8 00          	cmpl   $0x0,-0x8(%ebp)
    2f2d:	0f 8e 8f 00 00 00    	jle    2fc2 <testChildResultFork+0xaf>
    2f33:	e8 fc ff ff ff       	call   2f34 <testChildResultFork+0x21>
    2f38:	3b 45 fc             	cmp    -0x4(%ebp),%eax
    2f3b:	74 4f                	je     2f8c <testChildResultFork+0x79>
    2f3d:	8b 45 08             	mov    0x8(%ebp),%eax
    2f40:	c7 80 88 00 00 00 02 	movl   $0x2,0x88(%eax)
    2f47:	00 00 00 
    2f4a:	8b 45 08             	mov    0x8(%ebp),%eax
    2f4d:	c7 80 8c 00 00 00 24 	movl   $0x1324,0x8c(%eax)
    2f54:	13 00 00 
    2f57:	8b 45 08             	mov    0x8(%ebp),%eax
    2f5a:	8b 80 8c 00 00 00    	mov    0x8c(%eax),%eax
    2f60:	89 04 24             	mov    %eax,(%esp)
    2f63:	e8 fc ff ff ff       	call   2f64 <testChildResultFork+0x51>
    2f68:	89 c2                	mov    %eax,%edx
    2f6a:	8b 45 08             	mov    0x8(%ebp),%eax
    2f6d:	8b 80 8c 00 00 00    	mov    0x8c(%eax),%eax
    2f73:	89 54 24 08          	mov    %edx,0x8(%esp)
    2f77:	89 44 24 04          	mov    %eax,0x4(%esp)
    2f7b:	c7 04 24 01 00 00 00 	movl   $0x1,(%esp)
    2f82:	e8 fc ff ff ff       	call   2f83 <testChildResultFork+0x70>
    2f87:	e9 86 00 00 00       	jmp    3012 <testChildResultFork+0xff>
    2f8c:	e8 fc ff ff ff       	call   2f8d <testChildResultFork+0x7a>
    2f91:	85 c0                	test   %eax,%eax
    2f93:	75 02                	jne    2f97 <testChildResultFork+0x84>
    2f95:	eb fe                	jmp    2f95 <testChildResultFork+0x82>
    2f97:	e8 fc ff ff ff       	call   2f98 <testChildResultFork+0x85>
    2f9c:	c7 04 24 24 0e 00 00 	movl   $0xe24,(%esp)
    2fa3:	e8 fc ff ff ff       	call   2fa4 <testChildResultFork+0x91>
    2fa8:	89 44 24 08          	mov    %eax,0x8(%esp)
    2fac:	c7 44 24 04 24 0e 00 	movl   $0xe24,0x4(%esp)
    2fb3:	00 
    2fb4:	c7 04 24 01 00 00 00 	movl   $0x1,(%esp)
    2fbb:	e8 fc ff ff ff       	call   2fbc <testChildResultFork+0xa9>
    2fc0:	eb 50                	jmp    3012 <testChildResultFork+0xff>
    2fc2:	83 7d f8 00          	cmpl   $0x0,-0x8(%ebp)
    2fc6:	79 4a                	jns    3012 <testChildResultFork+0xff>
    2fc8:	8b 45 08             	mov    0x8(%ebp),%eax
    2fcb:	c7 80 88 00 00 00 02 	movl   $0x2,0x88(%eax)
    2fd2:	00 00 00 
    2fd5:	8b 45 08             	mov    0x8(%ebp),%eax
    2fd8:	c7 80 8c 00 00 00 60 	movl   $0x1360,0x8c(%eax)
    2fdf:	13 00 00 
    2fe2:	8b 45 08             	mov    0x8(%ebp),%eax
    2fe5:	8b 80 8c 00 00 00    	mov    0x8c(%eax),%eax
    2feb:	89 04 24             	mov    %eax,(%esp)
    2fee:	e8 fc ff ff ff       	call   2fef <testChildResultFork+0xdc>
    2ff3:	89 c2                	mov    %eax,%edx
    2ff5:	8b 45 08             	mov    0x8(%ebp),%eax
    2ff8:	8b 80 8c 00 00 00    	mov    0x8c(%eax),%eax
    2ffe:	89 54 24 08          	mov    %edx,0x8(%esp)
    3002:	89 44 24 04          	mov    %eax,0x4(%esp)
    3006:	c7 04 24 01 00 00 00 	movl   $0x1,(%esp)
    300d:	e8 fc ff ff ff       	call   300e <testChildResultFork+0xfb>
    3012:	c9                   	leave  
    3013:	c3                   	ret    

00003014 <testForkInheritQuantum>:
    3014:	55                   	push   %ebp
    3015:	89 e5                	mov    %esp,%ebp
    3017:	83 ec 28             	sub    $0x28,%esp
    301a:	c7 45 f0 00 00 00 00 	movl   $0x0,-0x10(%ebp)
    3021:	c7 45 f4 15 00 00 00 	movl   $0x15,-0xc(%ebp)
    3028:	c7 45 f8 00 00 00 00 	movl   $0x0,-0x8(%ebp)
    302f:	8b 45 f4             	mov    -0xc(%ebp),%eax
    3032:	89 04 24             	mov    %eax,(%esp)
    3035:	e8 fc ff ff ff       	call   3036 <testForkInheritQuantum+0x22>
    303a:	89 45 f0             	mov    %eax,-0x10(%ebp)
    303d:	83 7d f0 00          	cmpl   $0x0,-0x10(%ebp)
    3041:	79 56                	jns    3099 <testForkInheritQuantum+0x85>
    3043:	8b 45 08             	mov    0x8(%ebp),%eax
    3046:	c7 80 8c 00 00 00 98 	movl   $0x1398,0x8c(%eax)
    304d:	13 00 00 
    3050:	8b 45 08             	mov    0x8(%ebp),%eax
    3053:	8b 80 8c 00 00 00    	mov    0x8c(%eax),%eax
    3059:	89 04 24             	mov    %eax,(%esp)
    305c:	e8 fc ff ff ff       	call   305d <testForkInheritQuantum+0x49>
    3061:	89 c2                	mov    %eax,%edx
    3063:	8b 45 08             	mov    0x8(%ebp),%eax
    3066:	8b 80 8c 00 00 00    	mov    0x8c(%eax),%eax
    306c:	89 54 24 08          	mov    %edx,0x8(%esp)
    3070:	89 44 24 04          	mov    %eax,0x4(%esp)
    3074:	c7 04 24 01 00 00 00 	movl   $0x1,(%esp)
    307b:	e8 fc ff ff ff       	call   307c <testForkInheritQuantum+0x68>
    3080:	8b 45 08             	mov    0x8(%ebp),%eax
    3083:	c7 80 88 00 00 00 02 	movl   $0x2,0x88(%eax)
    308a:	00 00 00 
    308d:	c7 45 ec 00 00 00 00 	movl   $0x0,-0x14(%ebp)
    3094:	e9 16 01 00 00       	jmp    31af <testForkInheritQuantum+0x19b>
    3099:	e8 fc ff ff ff       	call   309a <testForkInheritQuantum+0x86>
    309e:	89 45 fc             	mov    %eax,-0x4(%ebp)
    30a1:	83 7d fc 00          	cmpl   $0x0,-0x4(%ebp)
    30a5:	79 5b                	jns    3102 <testForkInheritQuantum+0xee>
    30a7:	8b 45 08             	mov    0x8(%ebp),%eax
    30aa:	c7 80 8c 00 00 00 e4 	movl   $0x13e4,0x8c(%eax)
    30b1:	13 00 00 
    30b4:	8b 45 08             	mov    0x8(%ebp),%eax
    30b7:	8b 80 8c 00 00 00    	mov    0x8c(%eax),%eax
    30bd:	89 04 24             	mov    %eax,(%esp)
    30c0:	e8 fc ff ff ff       	call   30c1 <testForkInheritQuantum+0xad>
    30c5:	89 c2                	mov    %eax,%edx
    30c7:	8b 45 08             	mov    0x8(%ebp),%eax
    30ca:	8b 80 8c 00 00 00    	mov    0x8c(%eax),%eax
    30d0:	89 54 24 08          	mov    %edx,0x8(%esp)
    30d4:	89 44 24 04          	mov    %eax,0x4(%esp)
    30d8:	c7 04 24 01 00 00 00 	movl   $0x1,(%esp)
    30df:	e8 fc ff ff ff       	call   30e0 <testForkInheritQuantum+0xcc>
    30e4:	e8 fc ff ff ff       	call   30e5 <testForkInheritQuantum+0xd1>
    30e9:	8b 45 08             	mov    0x8(%ebp),%eax
    30ec:	c7 80 88 00 00 00 02 	movl   $0x2,0x88(%eax)
    30f3:	00 00 00 
    30f6:	c7 45 ec 00 00 00 00 	movl   $0x0,-0x14(%ebp)
    30fd:	e9 ad 00 00 00       	jmp    31af <testForkInheritQuantum+0x19b>
    3102:	83 7d fc 00          	cmpl   $0x0,-0x4(%ebp)
    3106:	75 71                	jne    3179 <testForkInheritQuantum+0x165>
    3108:	8b 45 f0             	mov    -0x10(%ebp),%eax
    310b:	89 04 24             	mov    %eax,(%esp)
    310e:	e8 fc ff ff ff       	call   310f <testForkInheritQuantum+0xfb>
    3113:	89 45 f8             	mov    %eax,-0x8(%ebp)
    3116:	8b 45 f8             	mov    -0x8(%ebp),%eax
    3119:	3b 45 f4             	cmp    -0xc(%ebp),%eax
    311c:	74 4c                	je     316a <testForkInheritQuantum+0x156>
    311e:	8b 45 08             	mov    0x8(%ebp),%eax
    3121:	c7 80 8c 00 00 00 10 	movl   $0x1410,0x8c(%eax)
    3128:	14 00 00 
    312b:	8b 45 08             	mov    0x8(%ebp),%eax
    312e:	8b 80 8c 00 00 00    	mov    0x8c(%eax),%eax
    3134:	89 04 24             	mov    %eax,(%esp)
    3137:	e8 fc ff ff ff       	call   3138 <testForkInheritQuantum+0x124>
    313c:	89 c2                	mov    %eax,%edx
    313e:	8b 45 08             	mov    0x8(%ebp),%eax
    3141:	8b 80 8c 00 00 00    	mov    0x8c(%eax),%eax
    3147:	89 54 24 08          	mov    %edx,0x8(%esp)
    314b:	89 44 24 04          	mov    %eax,0x4(%esp)
    314f:	c7 04 24 01 00 00 00 	movl   $0x1,(%esp)
    3156:	e8 fc ff ff ff       	call   3157 <testForkInheritQuantum+0x143>
    315b:	8b 45 08             	mov    0x8(%ebp),%eax
    315e:	c7 80 88 00 00 00 02 	movl   $0x2,0x88(%eax)
    3165:	00 00 00 
    3168:	eb 43                	jmp    31ad <testForkInheritQuantum+0x199>
    316a:	8b 45 08             	mov    0x8(%ebp),%eax
    316d:	c7 80 88 00 00 00 00 	movl   $0x0,0x88(%eax)
    3174:	00 00 00 
    3177:	eb 34                	jmp    31ad <testForkInheritQuantum+0x199>
    3179:	e8 fc ff ff ff       	call   317a <testForkInheritQuantum+0x166>
    317e:	85 c0                	test   %eax,%eax
    3180:	75 02                	jne    3184 <testForkInheritQuantum+0x170>
    3182:	eb fe                	jmp    3182 <testForkInheritQuantum+0x16e>
    3184:	e8 fc ff ff ff       	call   3185 <testForkInheritQuantum+0x171>
    3189:	c7 04 24 24 0e 00 00 	movl   $0xe24,(%esp)
    3190:	e8 fc ff ff ff       	call   3191 <testForkInheritQuantum+0x17d>
    3195:	89 44 24 08          	mov    %eax,0x8(%esp)
    3199:	c7 44 24 04 24 0e 00 	movl   $0xe24,0x4(%esp)
    31a0:	00 
    31a1:	c7 04 24 01 00 00 00 	movl   $0x1,(%esp)
    31a8:	e8 fc ff ff ff       	call   31a9 <testForkInheritQuantum+0x195>
    31ad:	eb 06                	jmp    31b5 <testForkInheritQuantum+0x1a1>
    31af:	8b 45 ec             	mov    -0x14(%ebp),%eax
    31b2:	89 45 e8             	mov    %eax,-0x18(%ebp)
    31b5:	8b 45 e8             	mov    -0x18(%ebp),%eax
    31b8:	c9                   	leave  
    31b9:	c3                   	ret    

000031ba <testForkResetStats>:
    31ba:	55                   	push   %ebp
    31bb:	89 e5                	mov    %esp,%ebp
    31bd:	53                   	push   %ebx
    31be:	83 ec 34             	sub    $0x34,%esp
    31c1:	e8 2f da ff ff       	call   bf5 <delay>
    31c6:	e8 fc ff ff ff       	call   31c7 <testForkResetStats+0xd>
    31cb:	8d 55 ec             	lea    -0x14(%ebp),%edx
    31ce:	89 54 24 04          	mov    %edx,0x4(%esp)
    31d2:	89 04 24             	mov    %eax,(%esp)
    31d5:	e8 fc ff ff ff       	call   31d6 <testForkResetStats+0x1c>
    31da:	85 c0                	test   %eax,%eax
    31dc:	0f 88 9d 01 00 00    	js     337f <testForkResetStats+0x1c5>
    31e2:	e8 fc ff ff ff       	call   31e3 <testForkResetStats+0x29>
    31e7:	89 45 f8             	mov    %eax,-0x8(%ebp)
    31ea:	83 7d f8 00          	cmpl   $0x0,-0x8(%ebp)
    31ee:	0f 85 00 01 00 00    	jne    32f4 <testForkResetStats+0x13a>
    31f4:	e8 fc ff ff ff       	call   31f5 <testForkResetStats+0x3b>
    31f9:	8d 55 e0             	lea    -0x20(%ebp),%edx
    31fc:	89 54 24 04          	mov    %edx,0x4(%esp)
    3200:	89 04 24             	mov    %eax,(%esp)
    3203:	e8 fc ff ff ff       	call   3204 <testForkResetStats+0x4a>
    3208:	85 c0                	test   %eax,%eax
    320a:	0f 88 90 00 00 00    	js     32a0 <testForkResetStats+0xe6>
    3210:	8b 45 e0             	mov    -0x20(%ebp),%eax
    3213:	89 04 24             	mov    %eax,(%esp)
    3216:	8b 45 e4             	mov    -0x1c(%ebp),%eax
    3219:	89 44 24 04          	mov    %eax,0x4(%esp)
    321d:	8b 45 e8             	mov    -0x18(%ebp),%eax
    3220:	89 44 24 08          	mov    %eax,0x8(%esp)
    3224:	e8 fc ff ff ff       	call   3225 <testForkResetStats+0x6b>
    3229:	89 c3                	mov    %eax,%ebx
    322b:	8b 45 ec             	mov    -0x14(%ebp),%eax
    322e:	89 04 24             	mov    %eax,(%esp)
    3231:	8b 45 f0             	mov    -0x10(%ebp),%eax
    3234:	89 44 24 04          	mov    %eax,0x4(%esp)
    3238:	8b 45 f4             	mov    -0xc(%ebp),%eax
    323b:	89 44 24 08          	mov    %eax,0x8(%esp)
    323f:	e8 fc ff ff ff       	call   3240 <testForkResetStats+0x86>
    3244:	39 c3                	cmp    %eax,%ebx
    3246:	0f 8c 82 01 00 00    	jl     33ce <testForkResetStats+0x214>
    324c:	8b 45 08             	mov    0x8(%ebp),%eax
    324f:	c7 80 88 00 00 00 02 	movl   $0x2,0x88(%eax)
    3256:	00 00 00 
    3259:	e8 fc ff ff ff       	call   325a <testForkResetStats+0xa0>
    325e:	8b 45 08             	mov    0x8(%ebp),%eax
    3261:	c7 80 8c 00 00 00 50 	movl   $0x1450,0x8c(%eax)
    3268:	14 00 00 
    326b:	8b 45 08             	mov    0x8(%ebp),%eax
    326e:	8b 80 8c 00 00 00    	mov    0x8c(%eax),%eax
    3274:	89 04 24             	mov    %eax,(%esp)
    3277:	e8 fc ff ff ff       	call   3278 <testForkResetStats+0xbe>
    327c:	89 c2                	mov    %eax,%edx
    327e:	8b 45 08             	mov    0x8(%ebp),%eax
    3281:	8b 80 8c 00 00 00    	mov    0x8c(%eax),%eax
    3287:	89 54 24 08          	mov    %edx,0x8(%esp)
    328b:	89 44 24 04          	mov    %eax,0x4(%esp)
    328f:	c7 04 24 01 00 00 00 	movl   $0x1,(%esp)
    3296:	e8 fc ff ff ff       	call   3297 <testForkResetStats+0xdd>
    329b:	e9 2e 01 00 00       	jmp    33ce <testForkResetStats+0x214>
    32a0:	8b 45 08             	mov    0x8(%ebp),%eax
    32a3:	c7 80 88 00 00 00 02 	movl   $0x2,0x88(%eax)
    32aa:	00 00 00 
    32ad:	e8 fc ff ff ff       	call   32ae <testForkResetStats+0xf4>
    32b2:	8b 45 08             	mov    0x8(%ebp),%eax
    32b5:	c7 80 8c 00 00 00 8c 	movl   $0x148c,0x8c(%eax)
    32bc:	14 00 00 
    32bf:	8b 45 08             	mov    0x8(%ebp),%eax
    32c2:	8b 80 8c 00 00 00    	mov    0x8c(%eax),%eax
    32c8:	89 04 24             	mov    %eax,(%esp)
    32cb:	e8 fc ff ff ff       	call   32cc <testForkResetStats+0x112>
    32d0:	89 c2                	mov    %eax,%edx
    32d2:	8b 45 08             	mov    0x8(%ebp),%eax
    32d5:	8b 80 8c 00 00 00    	mov    0x8c(%eax),%eax
    32db:	89 54 24 08          	mov    %edx,0x8(%esp)
    32df:	89 44 24 04          	mov    %eax,0x4(%esp)
    32e3:	c7 04 24 01 00 00 00 	movl   $0x1,(%esp)
    32ea:	e8 fc ff ff ff       	call   32eb <testForkResetStats+0x131>
    32ef:	e9 da 00 00 00       	jmp    33ce <testForkResetStats+0x214>
    32f4:	83 7d f8 ff          	cmpl   $0xffffffff,-0x8(%ebp)
    32f8:	74 34                	je     332e <testForkResetStats+0x174>
    32fa:	e8 fc ff ff ff       	call   32fb <testForkResetStats+0x141>
    32ff:	85 c0                	test   %eax,%eax
    3301:	75 02                	jne    3305 <testForkResetStats+0x14b>
    3303:	eb fe                	jmp    3303 <testForkResetStats+0x149>
    3305:	e8 fc ff ff ff       	call   3306 <testForkResetStats+0x14c>
    330a:	c7 04 24 24 0e 00 00 	movl   $0xe24,(%esp)
    3311:	e8 fc ff ff ff       	call   3312 <testForkResetStats+0x158>
    3316:	89 44 24 08          	mov    %eax,0x8(%esp)
    331a:	c7 44 24 04 24 0e 00 	movl   $0xe24,0x4(%esp)
    3321:	00 
    3322:	c7 04 24 01 00 00 00 	movl   $0x1,(%esp)
    3329:	e8 fc ff ff ff       	call   332a <testForkResetStats+0x170>
    332e:	8b 45 08             	mov    0x8(%ebp),%eax
    3331:	c7 80 88 00 00 00 02 	movl   $0x2,0x88(%eax)
    3338:	00 00 00 
    333b:	e8 fc ff ff ff       	call   333c <testForkResetStats+0x182>
    3340:	8b 45 08             	mov    0x8(%ebp),%eax
    3343:	c7 80 8c 00 00 00 bc 	movl   $0x14bc,0x8c(%eax)
    334a:	14 00 00 
    334d:	8b 45 08             	mov    0x8(%ebp),%eax
    3350:	8b 80 8c 00 00 00    	mov    0x8c(%eax),%eax
    3356:	89 04 24             	mov    %eax,(%esp)
    3359:	e8 fc ff ff ff       	call   335a <testForkResetStats+0x1a0>
    335e:	89 c2                	mov    %eax,%edx
    3360:	8b 45 08             	mov    0x8(%ebp),%eax
    3363:	8b 80 8c 00 00 00    	mov    0x8c(%eax),%eax
    3369:	89 54 24 08          	mov    %edx,0x8(%esp)
    336d:	89 44 24 04          	mov    %eax,0x4(%esp)
    3371:	c7 04 24 01 00 00 00 	movl   $0x1,(%esp)
    3378:	e8 fc ff ff ff       	call   3379 <testForkResetStats+0x1bf>
    337d:	eb 4f                	jmp    33ce <testForkResetStats+0x214>
    337f:	8b 45 08             	mov    0x8(%ebp),%eax
    3382:	c7 80 88 00 00 00 02 	movl   $0x2,0x88(%eax)
    3389:	00 00 00 
    338c:	e8 fc ff ff ff       	call   338d <testForkResetStats+0x1d3>
    3391:	8b 45 08             	mov    0x8(%ebp),%eax
    3394:	c7 80 8c 00 00 00 8c 	movl   $0x148c,0x8c(%eax)
    339b:	14 00 00 
    339e:	8b 45 08             	mov    0x8(%ebp),%eax
    33a1:	8b 80 8c 00 00 00    	mov    0x8c(%eax),%eax
    33a7:	89 04 24             	mov    %eax,(%esp)
    33aa:	e8 fc ff ff ff       	call   33ab <testForkResetStats+0x1f1>
    33af:	89 c2                	mov    %eax,%edx
    33b1:	8b 45 08             	mov    0x8(%ebp),%eax
    33b4:	8b 80 8c 00 00 00    	mov    0x8c(%eax),%eax
    33ba:	89 54 24 08          	mov    %edx,0x8(%esp)
    33be:	89 44 24 04          	mov    %eax,0x4(%esp)
    33c2:	c7 04 24 01 00 00 00 	movl   $0x1,(%esp)
    33c9:	e8 fc ff ff ff       	call   33ca <testForkResetStats+0x210>
    33ce:	83 c4 34             	add    $0x34,%esp
    33d1:	5b                   	pop    %ebx
    33d2:	5d                   	pop    %ebp
    33d3:	c3                   	ret    

000033d4 <testInvalidSemWait>:
    33d4:	55                   	push   %ebp
    33d5:	89 e5                	mov    %esp,%ebp
    33d7:	83 ec 28             	sub    $0x28,%esp
    33da:	e8 fc ff ff ff       	call   33db <testInvalidSemWait+0x7>
    33df:	85 c0                	test   %eax,%eax
    33e1:	75 65                	jne    3448 <testInvalidSemWait+0x74>
    33e3:	e8 fc ff ff ff       	call   33e4 <testInvalidSemWait+0x10>
    33e8:	89 45 fc             	mov    %eax,-0x4(%ebp)
    33eb:	83 7d fc 00          	cmpl   $0x0,-0x4(%ebp)
    33ef:	7e 02                	jle    33f3 <testInvalidSemWait+0x1f>
    33f1:	eb fe                	jmp    33f1 <testInvalidSemWait+0x1d>
    33f3:	83 7d fc 00          	cmpl   $0x0,-0x4(%ebp)
    33f7:	79 4f                	jns    3448 <testInvalidSemWait+0x74>
    33f9:	8b 45 08             	mov    0x8(%ebp),%eax
    33fc:	c7 80 88 00 00 00 02 	movl   $0x2,0x88(%eax)
    3403:	00 00 00 
    3406:	8b 45 08             	mov    0x8(%ebp),%eax
    3409:	c7 80 8c 00 00 00 00 	movl   $0xe00,0x8c(%eax)
    3410:	0e 00 00 
    3413:	8b 45 08             	mov    0x8(%ebp),%eax
    3416:	8b 80 8c 00 00 00    	mov    0x8c(%eax),%eax
    341c:	89 04 24             	mov    %eax,(%esp)
    341f:	e8 fc ff ff ff       	call   3420 <testInvalidSemWait+0x4c>
    3424:	89 c2                	mov    %eax,%edx
    3426:	8b 45 08             	mov    0x8(%ebp),%eax
    3429:	8b 80 8c 00 00 00    	mov    0x8c(%eax),%eax
    342f:	89 54 24 08          	mov    %edx,0x8(%esp)
    3433:	89 44 24 04          	mov    %eax,0x4(%esp)
    3437:	c7 04 24 01 00 00 00 	movl   $0x1,(%esp)
    343e:	e8 fc ff ff ff       	call   343f <testInvalidSemWait+0x6b>
    3443:	e9 72 01 00 00       	jmp    35ba <testInvalidSemWait+0x1e6>
    3448:	c7 04 24 ff ff ff ff 	movl   $0xffffffff,(%esp)
    344f:	e8 fc ff ff ff       	call   3450 <testInvalidSemWait+0x7c>
    3454:	89 45 fc             	mov    %eax,-0x4(%ebp)
    3457:	83 7d fc 00          	cmpl   $0x0,-0x4(%ebp)
    345b:	78 4f                	js     34ac <testInvalidSemWait+0xd8>
    345d:	8b 45 08             	mov    0x8(%ebp),%eax
    3460:	c7 80 88 00 00 00 02 	movl   $0x2,0x88(%eax)
    3467:	00 00 00 
    346a:	8b 45 08             	mov    0x8(%ebp),%eax
    346d:	c7 80 8c 00 00 00 e8 	movl   $0x14e8,0x8c(%eax)
    3474:	14 00 00 
    3477:	8b 45 08             	mov    0x8(%ebp),%eax
    347a:	8b 80 8c 00 00 00    	mov    0x8c(%eax),%eax
    3480:	89 04 24             	mov    %eax,(%esp)
    3483:	e8 fc ff ff ff       	call   3484 <testInvalidSemWait+0xb0>
    3488:	89 c2                	mov    %eax,%edx
    348a:	8b 45 08             	mov    0x8(%ebp),%eax
    348d:	8b 80 8c 00 00 00    	mov    0x8c(%eax),%eax
    3493:	89 54 24 08          	mov    %edx,0x8(%esp)
    3497:	89 44 24 04          	mov    %eax,0x4(%esp)
    349b:	c7 04 24 01 00 00 00 	movl   $0x1,(%esp)
    34a2:	e8 fc ff ff ff       	call   34a3 <testInvalidSemWait+0xcf>
    34a7:	e9 0e 01 00 00       	jmp    35ba <testInvalidSemWait+0x1e6>
    34ac:	a1 00 00 00 00       	mov    0x0,%eax
    34b1:	83 f8 16             	cmp    $0x16,%eax
    34b4:	74 4f                	je     3505 <testInvalidSemWait+0x131>
    34b6:	8b 45 08             	mov    0x8(%ebp),%eax
    34b9:	c7 80 8c 00 00 00 20 	movl   $0x1520,0x8c(%eax)
    34c0:	15 00 00 
    34c3:	8b 45 08             	mov    0x8(%ebp),%eax
    34c6:	8b 80 8c 00 00 00    	mov    0x8c(%eax),%eax
    34cc:	89 04 24             	mov    %eax,(%esp)
    34cf:	e8 fc ff ff ff       	call   34d0 <testInvalidSemWait+0xfc>
    34d4:	89 c2                	mov    %eax,%edx
    34d6:	8b 45 08             	mov    0x8(%ebp),%eax
    34d9:	8b 80 8c 00 00 00    	mov    0x8c(%eax),%eax
    34df:	89 54 24 08          	mov    %edx,0x8(%esp)
    34e3:	89 44 24 04          	mov    %eax,0x4(%esp)
    34e7:	c7 04 24 01 00 00 00 	movl   $0x1,(%esp)
    34ee:	e8 fc ff ff ff       	call   34ef <testInvalidSemWait+0x11b>
    34f3:	8b 45 08             	mov    0x8(%ebp),%eax
    34f6:	c7 80 88 00 00 00 01 	movl   $0x1,0x88(%eax)
    34fd:	00 00 00 
    3500:	e9 b5 00 00 00       	jmp    35ba <testInvalidSemWait+0x1e6>
    3505:	c7 04 24 64 00 00 00 	movl   $0x64,(%esp)
    350c:	e8 fc ff ff ff       	call   350d <testInvalidSemWait+0x139>
    3511:	89 45 fc             	mov    %eax,-0x4(%ebp)
    3514:	83 7d fc 00          	cmpl   $0x0,-0x4(%ebp)
    3518:	78 4c                	js     3566 <testInvalidSemWait+0x192>
    351a:	8b 45 08             	mov    0x8(%ebp),%eax
    351d:	c7 80 8c 00 00 00 64 	movl   $0x1564,0x8c(%eax)
    3524:	15 00 00 
    3527:	8b 45 08             	mov    0x8(%ebp),%eax
    352a:	8b 80 8c 00 00 00    	mov    0x8c(%eax),%eax
    3530:	89 04 24             	mov    %eax,(%esp)
    3533:	e8 fc ff ff ff       	call   3534 <testInvalidSemWait+0x160>
    3538:	89 c2                	mov    %eax,%edx
    353a:	8b 45 08             	mov    0x8(%ebp),%eax
    353d:	8b 80 8c 00 00 00    	mov    0x8c(%eax),%eax
    3543:	89 54 24 08          	mov    %edx,0x8(%esp)
    3547:	89 44 24 04          	mov    %eax,0x4(%esp)
    354b:	c7 04 24 01 00 00 00 	movl   $0x1,(%esp)
    3552:	e8 fc ff ff ff       	call   3553 <testInvalidSemWait+0x17f>
    3557:	8b 45 08             	mov    0x8(%ebp),%eax
    355a:	c7 80 88 00 00 00 02 	movl   $0x2,0x88(%eax)
    3561:	00 00 00 
    3564:	eb 54                	jmp    35ba <testInvalidSemWait+0x1e6>
    3566:	a1 00 00 00 00       	mov    0x0,%eax
    356b:	83 f8 16             	cmp    $0x16,%eax
    356e:	74 4a                	je     35ba <testInvalidSemWait+0x1e6>
    3570:	8b 45 08             	mov    0x8(%ebp),%eax
    3573:	c7 80 8c 00 00 00 20 	movl   $0x1520,0x8c(%eax)
    357a:	15 00 00 
    357d:	8b 45 08             	mov    0x8(%ebp),%eax
    3580:	8b 80 8c 00 00 00    	mov    0x8c(%eax),%eax
    3586:	89 04 24             	mov    %eax,(%esp)
    3589:	e8 fc ff ff ff       	call   358a <testInvalidSemWait+0x1b6>
    358e:	89 c2                	mov    %eax,%edx
    3590:	8b 45 08             	mov    0x8(%ebp),%eax
    3593:	8b 80 8c 00 00 00    	mov    0x8c(%eax),%eax
    3599:	89 54 24 08          	mov    %edx,0x8(%esp)
    359d:	89 44 24 04          	mov    %eax,0x4(%esp)
    35a1:	c7 04 24 01 00 00 00 	movl   $0x1,(%esp)
    35a8:	e8 fc ff ff ff       	call   35a9 <testInvalidSemWait+0x1d5>
    35ad:	8b 45 08             	mov    0x8(%ebp),%eax
    35b0:	c7 80 88 00 00 00 01 	movl   $0x1,0x88(%eax)
    35b7:	00 00 00 
    35ba:	c9                   	leave  
    35bb:	c3                   	ret    

000035bc <testUnitializedSemWait>:
    35bc:	55                   	push   %ebp
    35bd:	89 e5                	mov    %esp,%ebp
    35bf:	83 ec 28             	sub    $0x28,%esp
    35c2:	e8 fc ff ff ff       	call   35c3 <testUnitializedSemWait+0x7>
    35c7:	85 c0                	test   %eax,%eax
    35c9:	75 6a                	jne    3635 <testUnitializedSemWait+0x79>
    35cb:	e8 fc ff ff ff       	call   35cc <testUnitializedSemWait+0x10>
    35d0:	89 45 fc             	mov    %eax,-0x4(%ebp)
    35d3:	83 7d fc 00          	cmpl   $0x0,-0x4(%ebp)
    35d7:	7e 02                	jle    35db <testUnitializedSemWait+0x1f>
    35d9:	eb fe                	jmp    35d9 <testUnitializedSemWait+0x1d>
    35db:	83 7d fc 00          	cmpl   $0x0,-0x4(%ebp)
    35df:	79 54                	jns    3635 <testUnitializedSemWait+0x79>
    35e1:	8b 45 08             	mov    0x8(%ebp),%eax
    35e4:	c7 80 88 00 00 00 02 	movl   $0x2,0x88(%eax)
    35eb:	00 00 00 
    35ee:	e8 fc ff ff ff       	call   35ef <testUnitializedSemWait+0x33>
    35f3:	8b 45 08             	mov    0x8(%ebp),%eax
    35f6:	c7 80 8c 00 00 00 00 	movl   $0xe00,0x8c(%eax)
    35fd:	0e 00 00 
    3600:	8b 45 08             	mov    0x8(%ebp),%eax
    3603:	8b 80 8c 00 00 00    	mov    0x8c(%eax),%eax
    3609:	89 04 24             	mov    %eax,(%esp)
    360c:	e8 fc ff ff ff       	call   360d <testUnitializedSemWait+0x51>
    3611:	89 c2                	mov    %eax,%edx
    3613:	8b 45 08             	mov    0x8(%ebp),%eax
    3616:	8b 80 8c 00 00 00    	mov    0x8c(%eax),%eax
    361c:	89 54 24 08          	mov    %edx,0x8(%esp)
    3620:	89 44 24 04          	mov    %eax,0x4(%esp)
    3624:	c7 04 24 01 00 00 00 	movl   $0x1,(%esp)
    362b:	e8 fc ff ff ff       	call   362c <testUnitializedSemWait+0x70>
    3630:	e9 b5 00 00 00       	jmp    36ea <testUnitializedSemWait+0x12e>
    3635:	c7 04 24 00 00 00 00 	movl   $0x0,(%esp)
    363c:	e8 fc ff ff ff       	call   363d <testUnitializedSemWait+0x81>
    3641:	89 45 fc             	mov    %eax,-0x4(%ebp)
    3644:	83 7d fc 00          	cmpl   $0x0,-0x4(%ebp)
    3648:	78 4c                	js     3696 <testUnitializedSemWait+0xda>
    364a:	8b 45 08             	mov    0x8(%ebp),%eax
    364d:	c7 80 88 00 00 00 02 	movl   $0x2,0x88(%eax)
    3654:	00 00 00 
    3657:	8b 45 08             	mov    0x8(%ebp),%eax
    365a:	c7 80 8c 00 00 00 a0 	movl   $0x15a0,0x8c(%eax)
    3661:	15 00 00 
    3664:	8b 45 08             	mov    0x8(%ebp),%eax
    3667:	8b 80 8c 00 00 00    	mov    0x8c(%eax),%eax
    366d:	89 04 24             	mov    %eax,(%esp)
    3670:	e8 fc ff ff ff       	call   3671 <testUnitializedSemWait+0xb5>
    3675:	89 c2                	mov    %eax,%edx
    3677:	8b 45 08             	mov    0x8(%ebp),%eax
    367a:	8b 80 8c 00 00 00    	mov    0x8c(%eax),%eax
    3680:	89 54 24 08          	mov    %edx,0x8(%esp)
    3684:	89 44 24 04          	mov    %eax,0x4(%esp)
    3688:	c7 04 24 01 00 00 00 	movl   $0x1,(%esp)
    368f:	e8 fc ff ff ff       	call   3690 <testUnitializedSemWait+0xd4>
    3694:	eb 54                	jmp    36ea <testUnitializedSemWait+0x12e>
    3696:	a1 00 00 00 00       	mov    0x0,%eax
    369b:	83 f8 16             	cmp    $0x16,%eax
    369e:	74 4a                	je     36ea <testUnitializedSemWait+0x12e>
    36a0:	8b 45 08             	mov    0x8(%ebp),%eax
    36a3:	c7 80 88 00 00 00 01 	movl   $0x1,0x88(%eax)
    36aa:	00 00 00 
    36ad:	8b 45 08             	mov    0x8(%ebp),%eax
    36b0:	c7 80 8c 00 00 00 dc 	movl   $0x15dc,0x8c(%eax)
    36b7:	15 00 00 
    36ba:	8b 45 08             	mov    0x8(%ebp),%eax
    36bd:	8b 80 8c 00 00 00    	mov    0x8c(%eax),%eax
    36c3:	89 04 24             	mov    %eax,(%esp)
    36c6:	e8 fc ff ff ff       	call   36c7 <testUnitializedSemWait+0x10b>
    36cb:	89 c2                	mov    %eax,%edx
    36cd:	8b 45 08             	mov    0x8(%ebp),%eax
    36d0:	8b 80 8c 00 00 00    	mov    0x8c(%eax),%eax
    36d6:	89 54 24 08          	mov    %edx,0x8(%esp)
    36da:	89 44 24 04          	mov    %eax,0x4(%esp)
    36de:	c7 04 24 01 00 00 00 	movl   $0x1,(%esp)
    36e5:	e8 fc ff ff ff       	call   36e6 <testUnitializedSemWait+0x12a>
    36ea:	c9                   	leave  
    36eb:	c3                   	ret    

000036ec <testDestroyBusySem1>:
    36ec:	55                   	push   %ebp
    36ed:	89 e5                	mov    %esp,%ebp
    36ef:	83 ec 28             	sub    $0x28,%esp
    36f2:	c7 44 24 04 00 00 00 	movl   $0x0,0x4(%esp)
    36f9:	00 
    36fa:	c7 04 24 00 00 00 00 	movl   $0x0,(%esp)
    3701:	e8 fc ff ff ff       	call   3702 <testDestroyBusySem1+0x16>
    3706:	89 45 f4             	mov    %eax,-0xc(%ebp)
    3709:	83 7d f4 00          	cmpl   $0x0,-0xc(%ebp)
    370d:	79 54                	jns    3763 <testDestroyBusySem1+0x77>
    370f:	8b 45 08             	mov    0x8(%ebp),%eax
    3712:	c7 80 88 00 00 00 02 	movl   $0x2,0x88(%eax)
    3719:	00 00 00 
    371c:	e8 fc ff ff ff       	call   371d <testDestroyBusySem1+0x31>
    3721:	8b 45 08             	mov    0x8(%ebp),%eax
    3724:	c7 80 8c 00 00 00 20 	movl   $0x1620,0x8c(%eax)
    372b:	16 00 00 
    372e:	8b 45 08             	mov    0x8(%ebp),%eax
    3731:	8b 80 8c 00 00 00    	mov    0x8c(%eax),%eax
    3737:	89 04 24             	mov    %eax,(%esp)
    373a:	e8 fc ff ff ff       	call   373b <testDestroyBusySem1+0x4f>
    373f:	89 c2                	mov    %eax,%edx
    3741:	8b 45 08             	mov    0x8(%ebp),%eax
    3744:	8b 80 8c 00 00 00    	mov    0x8c(%eax),%eax
    374a:	89 54 24 08          	mov    %edx,0x8(%esp)
    374e:	89 44 24 04          	mov    %eax,0x4(%esp)
    3752:	c7 04 24 01 00 00 00 	movl   $0x1,(%esp)
    3759:	e8 fc ff ff ff       	call   375a <testDestroyBusySem1+0x6e>
    375e:	e9 04 01 00 00       	jmp    3867 <testDestroyBusySem1+0x17b>
    3763:	e8 fc ff ff ff       	call   3764 <testDestroyBusySem1+0x78>
    3768:	89 45 fc             	mov    %eax,-0x4(%ebp)
    376b:	83 7d fc 00          	cmpl   $0x0,-0x4(%ebp)
    376f:	79 60                	jns    37d1 <testDestroyBusySem1+0xe5>
    3771:	8b 45 08             	mov    0x8(%ebp),%eax
    3774:	c7 80 88 00 00 00 02 	movl   $0x2,0x88(%eax)
    377b:	00 00 00 
    377e:	e8 fc ff ff ff       	call   377f <testDestroyBusySem1+0x93>
    3783:	8b 45 08             	mov    0x8(%ebp),%eax
    3786:	c7 80 8c 00 00 00 50 	movl   $0x1650,0x8c(%eax)
    378d:	16 00 00 
    3790:	8b 45 08             	mov    0x8(%ebp),%eax
    3793:	8b 80 8c 00 00 00    	mov    0x8c(%eax),%eax
    3799:	89 04 24             	mov    %eax,(%esp)
    379c:	e8 fc ff ff ff       	call   379d <testDestroyBusySem1+0xb1>
    37a1:	89 c2                	mov    %eax,%edx
    37a3:	8b 45 08             	mov    0x8(%ebp),%eax
    37a6:	8b 80 8c 00 00 00    	mov    0x8c(%eax),%eax
    37ac:	89 54 24 08          	mov    %edx,0x8(%esp)
    37b0:	89 44 24 04          	mov    %eax,0x4(%esp)
    37b4:	c7 04 24 01 00 00 00 	movl   $0x1,(%esp)
    37bb:	e8 fc ff ff ff       	call   37bc <testDestroyBusySem1+0xd0>
    37c0:	c7 04 24 00 00 00 00 	movl   $0x0,(%esp)
    37c7:	e8 fc ff ff ff       	call   37c8 <testDestroyBusySem1+0xdc>
    37cc:	e9 96 00 00 00       	jmp    3867 <testDestroyBusySem1+0x17b>
    37d1:	83 7d fc 00          	cmpl   $0x0,-0x4(%ebp)
    37d5:	75 14                	jne    37eb <testDestroyBusySem1+0xff>
    37d7:	c7 04 24 00 00 00 00 	movl   $0x0,(%esp)
    37de:	e8 fc ff ff ff       	call   37df <testDestroyBusySem1+0xf3>
    37e3:	89 45 f4             	mov    %eax,-0xc(%ebp)
    37e6:	e8 fc ff ff ff       	call   37e7 <testDestroyBusySem1+0xfb>
    37eb:	e8 05 d4 ff ff       	call   bf5 <delay>
    37f0:	c7 04 24 00 00 00 00 	movl   $0x0,(%esp)
    37f7:	e8 fc ff ff ff       	call   37f8 <testDestroyBusySem1+0x10c>
    37fc:	89 45 f4             	mov    %eax,-0xc(%ebp)
    37ff:	83 7d f4 00          	cmpl   $0x0,-0xc(%ebp)
    3803:	79 62                	jns    3867 <testDestroyBusySem1+0x17b>
    3805:	8b 45 08             	mov    0x8(%ebp),%eax
    3808:	c7 80 88 00 00 00 02 	movl   $0x2,0x88(%eax)
    380f:	00 00 00 
    3812:	8b 45 08             	mov    0x8(%ebp),%eax
    3815:	c7 80 8c 00 00 00 78 	movl   $0x1678,0x8c(%eax)
    381c:	16 00 00 
    381f:	8b 45 08             	mov    0x8(%ebp),%eax
    3822:	8b 80 8c 00 00 00    	mov    0x8c(%eax),%eax
    3828:	89 04 24             	mov    %eax,(%esp)
    382b:	e8 fc ff ff ff       	call   382c <testDestroyBusySem1+0x140>
    3830:	89 c2                	mov    %eax,%edx
    3832:	8b 45 08             	mov    0x8(%ebp),%eax
    3835:	8b 80 8c 00 00 00    	mov    0x8c(%eax),%eax
    383b:	89 54 24 08          	mov    %edx,0x8(%esp)
    383f:	89 44 24 04          	mov    %eax,0x4(%esp)
    3843:	c7 04 24 01 00 00 00 	movl   $0x1,(%esp)
    384a:	e8 fc ff ff ff       	call   384b <testDestroyBusySem1+0x15f>
    384f:	c7 04 24 00 00 00 00 	movl   $0x0,(%esp)
    3856:	e8 fc ff ff ff       	call   3857 <testDestroyBusySem1+0x16b>
    385b:	c7 04 24 00 00 00 00 	movl   $0x0,(%esp)
    3862:	e8 fc ff ff ff       	call   3863 <testDestroyBusySem1+0x177>
    3867:	c9                   	leave  
    3868:	c3                   	ret    

00003869 <testDestroyBusySem2>:
    3869:	55                   	push   %ebp
    386a:	89 e5                	mov    %esp,%ebp
    386c:	83 ec 28             	sub    $0x28,%esp
    386f:	e8 fc ff ff ff       	call   3870 <testDestroyBusySem2+0x7>
    3874:	85 c0                	test   %eax,%eax
    3876:	75 6a                	jne    38e2 <testDestroyBusySem2+0x79>
    3878:	e8 fc ff ff ff       	call   3879 <testDestroyBusySem2+0x10>
    387d:	89 45 f4             	mov    %eax,-0xc(%ebp)
    3880:	83 7d f4 00          	cmpl   $0x0,-0xc(%ebp)
    3884:	7e 02                	jle    3888 <testDestroyBusySem2+0x1f>
    3886:	eb fe                	jmp    3886 <testDestroyBusySem2+0x1d>
    3888:	83 7d f4 00          	cmpl   $0x0,-0xc(%ebp)
    388c:	79 54                	jns    38e2 <testDestroyBusySem2+0x79>
    388e:	8b 45 08             	mov    0x8(%ebp),%eax
    3891:	c7 80 88 00 00 00 02 	movl   $0x2,0x88(%eax)
    3898:	00 00 00 
    389b:	e8 fc ff ff ff       	call   389c <testDestroyBusySem2+0x33>
    38a0:	8b 45 08             	mov    0x8(%ebp),%eax
    38a3:	c7 80 8c 00 00 00 a4 	movl   $0x16a4,0x8c(%eax)
    38aa:	16 00 00 
    38ad:	8b 45 08             	mov    0x8(%ebp),%eax
    38b0:	8b 80 8c 00 00 00    	mov    0x8c(%eax),%eax
    38b6:	89 04 24             	mov    %eax,(%esp)
    38b9:	e8 fc ff ff ff       	call   38ba <testDestroyBusySem2+0x51>
    38be:	89 c2                	mov    %eax,%edx
    38c0:	8b 45 08             	mov    0x8(%ebp),%eax
    38c3:	8b 80 8c 00 00 00    	mov    0x8c(%eax),%eax
    38c9:	89 54 24 08          	mov    %edx,0x8(%esp)
    38cd:	89 44 24 04          	mov    %eax,0x4(%esp)
    38d1:	c7 04 24 01 00 00 00 	movl   $0x1,(%esp)
    38d8:	e8 fc ff ff ff       	call   38d9 <testDestroyBusySem2+0x70>
    38dd:	e9 d9 01 00 00       	jmp    3abb <testDestroyBusySem2+0x252>
    38e2:	c7 44 24 04 00 00 00 	movl   $0x0,0x4(%esp)
    38e9:	00 
    38ea:	c7 04 24 00 00 00 00 	movl   $0x0,(%esp)
    38f1:	e8 fc ff ff ff       	call   38f2 <testDestroyBusySem2+0x89>
    38f6:	89 45 f4             	mov    %eax,-0xc(%ebp)
    38f9:	83 7d f4 00          	cmpl   $0x0,-0xc(%ebp)
    38fd:	79 54                	jns    3953 <testDestroyBusySem2+0xea>
    38ff:	8b 45 08             	mov    0x8(%ebp),%eax
    3902:	c7 80 88 00 00 00 02 	movl   $0x2,0x88(%eax)
    3909:	00 00 00 
    390c:	e8 fc ff ff ff       	call   390d <testDestroyBusySem2+0xa4>
    3911:	8b 45 08             	mov    0x8(%ebp),%eax
    3914:	c7 80 8c 00 00 00 20 	movl   $0x1620,0x8c(%eax)
    391b:	16 00 00 
    391e:	8b 45 08             	mov    0x8(%ebp),%eax
    3921:	8b 80 8c 00 00 00    	mov    0x8c(%eax),%eax
    3927:	89 04 24             	mov    %eax,(%esp)
    392a:	e8 fc ff ff ff       	call   392b <testDestroyBusySem2+0xc2>
    392f:	89 c2                	mov    %eax,%edx
    3931:	8b 45 08             	mov    0x8(%ebp),%eax
    3934:	8b 80 8c 00 00 00    	mov    0x8c(%eax),%eax
    393a:	89 54 24 08          	mov    %edx,0x8(%esp)
    393e:	89 44 24 04          	mov    %eax,0x4(%esp)
    3942:	c7 04 24 01 00 00 00 	movl   $0x1,(%esp)
    3949:	e8 fc ff ff ff       	call   394a <testDestroyBusySem2+0xe1>
    394e:	e9 68 01 00 00       	jmp    3abb <testDestroyBusySem2+0x252>
    3953:	e8 fc ff ff ff       	call   3954 <testDestroyBusySem2+0xeb>
    3958:	89 45 fc             	mov    %eax,-0x4(%ebp)
    395b:	83 7d fc 00          	cmpl   $0x0,-0x4(%ebp)
    395f:	79 60                	jns    39c1 <testDestroyBusySem2+0x158>
    3961:	8b 45 08             	mov    0x8(%ebp),%eax
    3964:	c7 80 88 00 00 00 02 	movl   $0x2,0x88(%eax)
    396b:	00 00 00 
    396e:	e8 fc ff ff ff       	call   396f <testDestroyBusySem2+0x106>
    3973:	8b 45 08             	mov    0x8(%ebp),%eax
    3976:	c7 80 8c 00 00 00 50 	movl   $0x1650,0x8c(%eax)
    397d:	16 00 00 
    3980:	8b 45 08             	mov    0x8(%ebp),%eax
    3983:	8b 80 8c 00 00 00    	mov    0x8c(%eax),%eax
    3989:	89 04 24             	mov    %eax,(%esp)
    398c:	e8 fc ff ff ff       	call   398d <testDestroyBusySem2+0x124>
    3991:	89 c2                	mov    %eax,%edx
    3993:	8b 45 08             	mov    0x8(%ebp),%eax
    3996:	8b 80 8c 00 00 00    	mov    0x8c(%eax),%eax
    399c:	89 54 24 08          	mov    %edx,0x8(%esp)
    39a0:	89 44 24 04          	mov    %eax,0x4(%esp)
    39a4:	c7 04 24 01 00 00 00 	movl   $0x1,(%esp)
    39ab:	e8 fc ff ff ff       	call   39ac <testDestroyBusySem2+0x143>
    39b0:	c7 04 24 00 00 00 00 	movl   $0x0,(%esp)
    39b7:	e8 fc ff ff ff       	call   39b8 <testDestroyBusySem2+0x14f>
    39bc:	e9 fa 00 00 00       	jmp    3abb <testDestroyBusySem2+0x252>
    39c1:	83 7d fc 00          	cmpl   $0x0,-0x4(%ebp)
    39c5:	75 68                	jne    3a2f <testDestroyBusySem2+0x1c6>
    39c7:	c7 04 24 00 00 00 00 	movl   $0x0,(%esp)
    39ce:	e8 fc ff ff ff       	call   39cf <testDestroyBusySem2+0x166>
    39d3:	89 45 f4             	mov    %eax,-0xc(%ebp)
    39d6:	83 7d f4 00          	cmpl   $0x0,-0xc(%ebp)
    39da:	0f 88 db 00 00 00    	js     3abb <testDestroyBusySem2+0x252>
    39e0:	8b 45 08             	mov    0x8(%ebp),%eax
    39e3:	c7 80 88 00 00 00 02 	movl   $0x2,0x88(%eax)
    39ea:	00 00 00 
    39ed:	8b 45 08             	mov    0x8(%ebp),%eax
    39f0:	c7 80 8c 00 00 00 d4 	movl   $0x16d4,0x8c(%eax)
    39f7:	16 00 00 
    39fa:	8b 45 08             	mov    0x8(%ebp),%eax
    39fd:	8b 80 8c 00 00 00    	mov    0x8c(%eax),%eax
    3a03:	89 04 24             	mov    %eax,(%esp)
    3a06:	e8 fc ff ff ff       	call   3a07 <testDestroyBusySem2+0x19e>
    3a0b:	89 c2                	mov    %eax,%edx
    3a0d:	8b 45 08             	mov    0x8(%ebp),%eax
    3a10:	8b 80 8c 00 00 00    	mov    0x8c(%eax),%eax
    3a16:	89 54 24 08          	mov    %edx,0x8(%esp)
    3a1a:	89 44 24 04          	mov    %eax,0x4(%esp)
    3a1e:	c7 04 24 01 00 00 00 	movl   $0x1,(%esp)
    3a25:	e8 fc ff ff ff       	call   3a26 <testDestroyBusySem2+0x1bd>
    3a2a:	e9 8c 00 00 00       	jmp    3abb <testDestroyBusySem2+0x252>
    3a2f:	e8 c1 d1 ff ff       	call   bf5 <delay>
    3a34:	c7 04 24 00 00 00 00 	movl   $0x0,(%esp)
    3a3b:	e8 fc ff ff ff       	call   3a3c <testDestroyBusySem2+0x1d3>
    3a40:	89 45 f4             	mov    %eax,-0xc(%ebp)
    3a43:	83 7d f4 00          	cmpl   $0x0,-0xc(%ebp)
    3a47:	79 49                	jns    3a92 <testDestroyBusySem2+0x229>
    3a49:	8b 45 08             	mov    0x8(%ebp),%eax
    3a4c:	c7 80 8c 00 00 00 78 	movl   $0x1678,0x8c(%eax)
    3a53:	16 00 00 
    3a56:	8b 45 08             	mov    0x8(%ebp),%eax
    3a59:	8b 80 8c 00 00 00    	mov    0x8c(%eax),%eax
    3a5f:	89 04 24             	mov    %eax,(%esp)
    3a62:	e8 fc ff ff ff       	call   3a63 <testDestroyBusySem2+0x1fa>
    3a67:	89 c2                	mov    %eax,%edx
    3a69:	8b 45 08             	mov    0x8(%ebp),%eax
    3a6c:	8b 80 8c 00 00 00    	mov    0x8c(%eax),%eax
    3a72:	89 54 24 08          	mov    %edx,0x8(%esp)
    3a76:	89 44 24 04          	mov    %eax,0x4(%esp)
    3a7a:	c7 04 24 01 00 00 00 	movl   $0x1,(%esp)
    3a81:	e8 fc ff ff ff       	call   3a82 <testDestroyBusySem2+0x219>
    3a86:	c7 04 24 00 00 00 00 	movl   $0x0,(%esp)
    3a8d:	e8 fc ff ff ff       	call   3a8e <testDestroyBusySem2+0x225>
    3a92:	e8 fc ff ff ff       	call   3a93 <testDestroyBusySem2+0x22a>
    3a97:	c7 04 24 24 0e 00 00 	movl   $0xe24,(%esp)
    3a9e:	e8 fc ff ff ff       	call   3a9f <testDestroyBusySem2+0x236>
    3aa3:	89 44 24 08          	mov    %eax,0x8(%esp)
    3aa7:	c7 44 24 04 24 0e 00 	movl   $0xe24,0x4(%esp)
    3aae:	00 
    3aaf:	c7 04 24 01 00 00 00 	movl   $0x1,(%esp)
    3ab6:	e8 fc ff ff ff       	call   3ab7 <testDestroyBusySem2+0x24e>
    3abb:	c9                   	leave  
    3abc:	c3                   	ret    

00003abd <testBolckManyProcess>:
    3abd:	55                   	push   %ebp
    3abe:	89 e5                	mov    %esp,%ebp
    3ac0:	83 ec 38             	sub    $0x38,%esp
    3ac3:	c7 44 24 04 00 00 00 	movl   $0x0,0x4(%esp)
    3aca:	00 
    3acb:	c7 04 24 00 00 00 00 	movl   $0x0,(%esp)
    3ad2:	e8 fc ff ff ff       	call   3ad3 <testBolckManyProcess+0x16>
    3ad7:	89 45 fc             	mov    %eax,-0x4(%ebp)
    3ada:	e8 fc ff ff ff       	call   3adb <testBolckManyProcess+0x1e>
    3adf:	89 45 f0             	mov    %eax,-0x10(%ebp)
    3ae2:	83 7d f0 00          	cmpl   $0x0,-0x10(%ebp)
    3ae6:	79 60                	jns    3b48 <testBolckManyProcess+0x8b>
    3ae8:	8b 45 08             	mov    0x8(%ebp),%eax
    3aeb:	c7 80 88 00 00 00 02 	movl   $0x2,0x88(%eax)
    3af2:	00 00 00 
    3af5:	e8 fc ff ff ff       	call   3af6 <testBolckManyProcess+0x39>
    3afa:	8b 45 08             	mov    0x8(%ebp),%eax
    3afd:	c7 80 8c 00 00 00 00 	movl   $0xe00,0x8c(%eax)
    3b04:	0e 00 00 
    3b07:	8b 45 08             	mov    0x8(%ebp),%eax
    3b0a:	8b 80 8c 00 00 00    	mov    0x8c(%eax),%eax
    3b10:	89 04 24             	mov    %eax,(%esp)
    3b13:	e8 fc ff ff ff       	call   3b14 <testBolckManyProcess+0x57>
    3b18:	89 c2                	mov    %eax,%edx
    3b1a:	8b 45 08             	mov    0x8(%ebp),%eax
    3b1d:	8b 80 8c 00 00 00    	mov    0x8c(%eax),%eax
    3b23:	89 54 24 08          	mov    %edx,0x8(%esp)
    3b27:	89 44 24 04          	mov    %eax,0x4(%esp)
    3b2b:	c7 04 24 01 00 00 00 	movl   $0x1,(%esp)
    3b32:	e8 fc ff ff ff       	call   3b33 <testBolckManyProcess+0x76>
    3b37:	c7 04 24 00 00 00 00 	movl   $0x0,(%esp)
    3b3e:	e8 fc ff ff ff       	call   3b3f <testBolckManyProcess+0x82>
    3b43:	e9 fb 01 00 00       	jmp    3d43 <testBolckManyProcess+0x286>
    3b48:	83 7d f0 00          	cmpl   $0x0,-0x10(%ebp)
    3b4c:	75 11                	jne    3b5f <testBolckManyProcess+0xa2>
    3b4e:	c7 04 24 00 00 00 00 	movl   $0x0,(%esp)
    3b55:	e8 fc ff ff ff       	call   3b56 <testBolckManyProcess+0x99>
    3b5a:	e8 fc ff ff ff       	call   3b5b <testBolckManyProcess+0x9e>
    3b5f:	e8 91 d0 ff ff       	call   bf5 <delay>
    3b64:	e8 fc ff ff ff       	call   3b65 <testBolckManyProcess+0xa8>
    3b69:	89 45 f4             	mov    %eax,-0xc(%ebp)
    3b6c:	83 7d f4 00          	cmpl   $0x0,-0xc(%ebp)
    3b70:	79 60                	jns    3bd2 <testBolckManyProcess+0x115>
    3b72:	8b 45 08             	mov    0x8(%ebp),%eax
    3b75:	c7 80 88 00 00 00 02 	movl   $0x2,0x88(%eax)
    3b7c:	00 00 00 
    3b7f:	e8 fc ff ff ff       	call   3b80 <testBolckManyProcess+0xc3>
    3b84:	8b 45 08             	mov    0x8(%ebp),%eax
    3b87:	c7 80 8c 00 00 00 00 	movl   $0xe00,0x8c(%eax)
    3b8e:	0e 00 00 
    3b91:	8b 45 08             	mov    0x8(%ebp),%eax
    3b94:	8b 80 8c 00 00 00    	mov    0x8c(%eax),%eax
    3b9a:	89 04 24             	mov    %eax,(%esp)
    3b9d:	e8 fc ff ff ff       	call   3b9e <testBolckManyProcess+0xe1>
    3ba2:	89 c2                	mov    %eax,%edx
    3ba4:	8b 45 08             	mov    0x8(%ebp),%eax
    3ba7:	8b 80 8c 00 00 00    	mov    0x8c(%eax),%eax
    3bad:	89 54 24 08          	mov    %edx,0x8(%esp)
    3bb1:	89 44 24 04          	mov    %eax,0x4(%esp)
    3bb5:	c7 04 24 01 00 00 00 	movl   $0x1,(%esp)
    3bbc:	e8 fc ff ff ff       	call   3bbd <testBolckManyProcess+0x100>
    3bc1:	c7 04 24 00 00 00 00 	movl   $0x0,(%esp)
    3bc8:	e8 fc ff ff ff       	call   3bc9 <testBolckManyProcess+0x10c>
    3bcd:	e9 71 01 00 00       	jmp    3d43 <testBolckManyProcess+0x286>
    3bd2:	83 7d f4 00          	cmpl   $0x0,-0xc(%ebp)
    3bd6:	75 11                	jne    3be9 <testBolckManyProcess+0x12c>
    3bd8:	c7 04 24 00 00 00 00 	movl   $0x0,(%esp)
    3bdf:	e8 fc ff ff ff       	call   3be0 <testBolckManyProcess+0x123>
    3be4:	e8 fc ff ff ff       	call   3be5 <testBolckManyProcess+0x128>
    3be9:	e8 07 d0 ff ff       	call   bf5 <delay>
    3bee:	e8 fc ff ff ff       	call   3bef <testBolckManyProcess+0x132>
    3bf3:	89 45 f8             	mov    %eax,-0x8(%ebp)
    3bf6:	83 7d f8 00          	cmpl   $0x0,-0x8(%ebp)
    3bfa:	79 60                	jns    3c5c <testBolckManyProcess+0x19f>
    3bfc:	8b 45 08             	mov    0x8(%ebp),%eax
    3bff:	c7 80 88 00 00 00 02 	movl   $0x2,0x88(%eax)
    3c06:	00 00 00 
    3c09:	e8 fc ff ff ff       	call   3c0a <testBolckManyProcess+0x14d>
    3c0e:	8b 45 08             	mov    0x8(%ebp),%eax
    3c11:	c7 80 8c 00 00 00 00 	movl   $0xe00,0x8c(%eax)
    3c18:	0e 00 00 
    3c1b:	8b 45 08             	mov    0x8(%ebp),%eax
    3c1e:	8b 80 8c 00 00 00    	mov    0x8c(%eax),%eax
    3c24:	89 04 24             	mov    %eax,(%esp)
    3c27:	e8 fc ff ff ff       	call   3c28 <testBolckManyProcess+0x16b>
    3c2c:	89 c2                	mov    %eax,%edx
    3c2e:	8b 45 08             	mov    0x8(%ebp),%eax
    3c31:	8b 80 8c 00 00 00    	mov    0x8c(%eax),%eax
    3c37:	89 54 24 08          	mov    %edx,0x8(%esp)
    3c3b:	89 44 24 04          	mov    %eax,0x4(%esp)
    3c3f:	c7 04 24 01 00 00 00 	movl   $0x1,(%esp)
    3c46:	e8 fc ff ff ff       	call   3c47 <testBolckManyProcess+0x18a>
    3c4b:	c7 04 24 00 00 00 00 	movl   $0x0,(%esp)
    3c52:	e8 fc ff ff ff       	call   3c53 <testBolckManyProcess+0x196>
    3c57:	e9 e7 00 00 00       	jmp    3d43 <testBolckManyProcess+0x286>
    3c5c:	83 7d f8 00          	cmpl   $0x0,-0x8(%ebp)
    3c60:	75 11                	jne    3c73 <testBolckManyProcess+0x1b6>
    3c62:	c7 04 24 00 00 00 00 	movl   $0x0,(%esp)
    3c69:	e8 fc ff ff ff       	call   3c6a <testBolckManyProcess+0x1ad>
    3c6e:	e8 fc ff ff ff       	call   3c6f <testBolckManyProcess+0x1b2>
    3c73:	e8 7d cf ff ff       	call   bf5 <delay>
    3c78:	c7 04 24 00 00 00 00 	movl   $0x0,(%esp)
    3c7f:	e8 fc ff ff ff       	call   3c80 <testBolckManyProcess+0x1c3>
    3c84:	e8 6c cf ff ff       	call   bf5 <delay>
    3c89:	c7 04 24 00 00 00 00 	movl   $0x0,(%esp)
    3c90:	e8 fc ff ff ff       	call   3c91 <testBolckManyProcess+0x1d4>
    3c95:	e8 5b cf ff ff       	call   bf5 <delay>
    3c9a:	c7 04 24 00 00 00 00 	movl   $0x0,(%esp)
    3ca1:	e8 fc ff ff ff       	call   3ca2 <testBolckManyProcess+0x1e5>
    3ca6:	e8 4a cf ff ff       	call   bf5 <delay>
    3cab:	8d 45 e4             	lea    -0x1c(%ebp),%eax
    3cae:	89 44 24 04          	mov    %eax,0x4(%esp)
    3cb2:	8b 45 f0             	mov    -0x10(%ebp),%eax
    3cb5:	89 04 24             	mov    %eax,(%esp)
    3cb8:	e8 fc ff ff ff       	call   3cb9 <testBolckManyProcess+0x1fc>
    3cbd:	85 c0                	test   %eax,%eax
    3cbf:	79 2c                	jns    3ced <testBolckManyProcess+0x230>
    3cc1:	8d 45 e4             	lea    -0x1c(%ebp),%eax
    3cc4:	89 44 24 04          	mov    %eax,0x4(%esp)
    3cc8:	8b 45 f4             	mov    -0xc(%ebp),%eax
    3ccb:	89 04 24             	mov    %eax,(%esp)
    3cce:	e8 fc ff ff ff       	call   3ccf <testBolckManyProcess+0x212>
    3cd3:	85 c0                	test   %eax,%eax
    3cd5:	79 16                	jns    3ced <testBolckManyProcess+0x230>
    3cd7:	8d 45 e4             	lea    -0x1c(%ebp),%eax
    3cda:	89 44 24 04          	mov    %eax,0x4(%esp)
    3cde:	8b 45 f8             	mov    -0x8(%ebp),%eax
    3ce1:	89 04 24             	mov    %eax,(%esp)
    3ce4:	e8 fc ff ff ff       	call   3ce5 <testBolckManyProcess+0x228>
    3ce9:	85 c0                	test   %eax,%eax
    3ceb:	78 4a                	js     3d37 <testBolckManyProcess+0x27a>
    3ced:	8b 45 08             	mov    0x8(%ebp),%eax
    3cf0:	c7 80 8c 00 00 00 40 	movl   $0x1740,0x8c(%eax)
    3cf7:	17 00 00 
    3cfa:	8b 45 08             	mov    0x8(%ebp),%eax
    3cfd:	8b 80 8c 00 00 00    	mov    0x8c(%eax),%eax
    3d03:	89 04 24             	mov    %eax,(%esp)
    3d06:	e8 fc ff ff ff       	call   3d07 <testBolckManyProcess+0x24a>
    3d0b:	89 c2                	mov    %eax,%edx
    3d0d:	8b 45 08             	mov    0x8(%ebp),%eax
    3d10:	8b 80 8c 00 00 00    	mov    0x8c(%eax),%eax
    3d16:	89 54 24 08          	mov    %edx,0x8(%esp)
    3d1a:	89 44 24 04          	mov    %eax,0x4(%esp)
    3d1e:	c7 04 24 01 00 00 00 	movl   $0x1,(%esp)
    3d25:	e8 fc ff ff ff       	call   3d26 <testBolckManyProcess+0x269>
    3d2a:	8b 45 08             	mov    0x8(%ebp),%eax
    3d2d:	c7 80 88 00 00 00 02 	movl   $0x2,0x88(%eax)
    3d34:	00 00 00 
    3d37:	c7 04 24 00 00 00 00 	movl   $0x0,(%esp)
    3d3e:	e8 fc ff ff ff       	call   3d3f <testBolckManyProcess+0x282>
    3d43:	c9                   	leave  
    3d44:	c3                   	ret    

00003d45 <testGetStatsReady>:
    3d45:	55                   	push   %ebp
    3d46:	89 e5                	mov    %esp,%ebp
    3d48:	53                   	push   %ebx
    3d49:	83 ec 44             	sub    $0x44,%esp
    3d4c:	e8 fc ff ff ff       	call   3d4d <testGetStatsReady+0x8>
    3d51:	89 45 f8             	mov    %eax,-0x8(%ebp)
    3d54:	c7 45 f4 00 00 00 00 	movl   $0x0,-0xc(%ebp)
    3d5b:	83 7d f8 00          	cmpl   $0x0,-0x8(%ebp)
    3d5f:	75 6a                	jne    3dcb <testGetStatsReady+0x86>
    3d61:	e8 fc ff ff ff       	call   3d62 <testGetStatsReady+0x1d>
    3d66:	89 45 f4             	mov    %eax,-0xc(%ebp)
    3d69:	83 7d f4 00          	cmpl   $0x0,-0xc(%ebp)
    3d6d:	7e 02                	jle    3d71 <testGetStatsReady+0x2c>
    3d6f:	eb fe                	jmp    3d6f <testGetStatsReady+0x2a>
    3d71:	83 7d f4 00          	cmpl   $0x0,-0xc(%ebp)
    3d75:	79 5b                	jns    3dd2 <testGetStatsReady+0x8d>
    3d77:	8b 45 08             	mov    0x8(%ebp),%eax
    3d7a:	c7 80 88 00 00 00 02 	movl   $0x2,0x88(%eax)
    3d81:	00 00 00 
    3d84:	e8 fc ff ff ff       	call   3d85 <testGetStatsReady+0x40>
    3d89:	8b 45 08             	mov    0x8(%ebp),%eax
    3d8c:	c7 80 8c 00 00 00 bc 	movl   $0x14bc,0x8c(%eax)
    3d93:	14 00 00 
    3d96:	8b 45 08             	mov    0x8(%ebp),%eax
    3d99:	8b 80 8c 00 00 00    	mov    0x8c(%eax),%eax
    3d9f:	89 04 24             	mov    %eax,(%esp)
    3da2:	e8 fc ff ff ff       	call   3da3 <testGetStatsReady+0x5e>
    3da7:	89 c2                	mov    %eax,%edx
    3da9:	8b 45 08             	mov    0x8(%ebp),%eax
    3dac:	8b 80 8c 00 00 00    	mov    0x8c(%eax),%eax
    3db2:	89 54 24 08          	mov    %edx,0x8(%esp)
    3db6:	89 44 24 04          	mov    %eax,0x4(%esp)
    3dba:	c7 04 24 01 00 00 00 	movl   $0x1,(%esp)
    3dc1:	e8 fc ff ff ff       	call   3dc2 <testGetStatsReady+0x7d>
    3dc6:	e9 23 01 00 00       	jmp    3eee <testGetStatsReady+0x1a9>
    3dcb:	c7 45 f8 00 00 00 00 	movl   $0x0,-0x8(%ebp)
    3dd2:	83 7d f4 00          	cmpl   $0x0,-0xc(%ebp)
    3dd6:	0f 85 12 01 00 00    	jne    3eee <testGetStatsReady+0x1a9>
    3ddc:	8d 45 e4             	lea    -0x1c(%ebp),%eax
    3ddf:	89 44 24 04          	mov    %eax,0x4(%esp)
    3de3:	8b 45 f8             	mov    -0x8(%ebp),%eax
    3de6:	89 04 24             	mov    %eax,(%esp)
    3de9:	e8 fc ff ff ff       	call   3dea <testGetStatsReady+0xa5>
    3dee:	89 45 f0             	mov    %eax,-0x10(%ebp)
    3df1:	83 7d f0 00          	cmpl   $0x0,-0x10(%ebp)
    3df5:	79 54                	jns    3e4b <testGetStatsReady+0x106>
    3df7:	8b 45 08             	mov    0x8(%ebp),%eax
    3dfa:	c7 80 88 00 00 00 02 	movl   $0x2,0x88(%eax)
    3e01:	00 00 00 
    3e04:	e8 fc ff ff ff       	call   3e05 <testGetStatsReady+0xc0>
    3e09:	8b 45 08             	mov    0x8(%ebp),%eax
    3e0c:	c7 80 8c 00 00 00 84 	movl   $0x1784,0x8c(%eax)
    3e13:	17 00 00 
    3e16:	8b 45 08             	mov    0x8(%ebp),%eax
    3e19:	8b 80 8c 00 00 00    	mov    0x8c(%eax),%eax
    3e1f:	89 04 24             	mov    %eax,(%esp)
    3e22:	e8 fc ff ff ff       	call   3e23 <testGetStatsReady+0xde>
    3e27:	89 c2                	mov    %eax,%edx
    3e29:	8b 45 08             	mov    0x8(%ebp),%eax
    3e2c:	8b 80 8c 00 00 00    	mov    0x8c(%eax),%eax
    3e32:	89 54 24 08          	mov    %edx,0x8(%esp)
    3e36:	89 44 24 04          	mov    %eax,0x4(%esp)
    3e3a:	c7 04 24 01 00 00 00 	movl   $0x1,(%esp)
    3e41:	e8 fc ff ff ff       	call   3e42 <testGetStatsReady+0xfd>
    3e46:	e9 a3 00 00 00       	jmp    3eee <testGetStatsReady+0x1a9>
    3e4b:	e8 fc ff ff ff       	call   3e4c <testGetStatsReady+0x107>
    3e50:	8d 55 d8             	lea    -0x28(%ebp),%edx
    3e53:	89 54 24 04          	mov    %edx,0x4(%esp)
    3e57:	89 04 24             	mov    %eax,(%esp)
    3e5a:	e8 fc ff ff ff       	call   3e5b <testGetStatsReady+0x116>
    3e5f:	89 45 f0             	mov    %eax,-0x10(%ebp)
    3e62:	83 7d f0 00          	cmpl   $0x0,-0x10(%ebp)
    3e66:	0f 88 82 00 00 00    	js     3eee <testGetStatsReady+0x1a9>
    3e6c:	8b 45 d8             	mov    -0x28(%ebp),%eax
    3e6f:	89 04 24             	mov    %eax,(%esp)
    3e72:	8b 45 dc             	mov    -0x24(%ebp),%eax
    3e75:	89 44 24 04          	mov    %eax,0x4(%esp)
    3e79:	8b 45 e0             	mov    -0x20(%ebp),%eax
    3e7c:	89 44 24 08          	mov    %eax,0x8(%esp)
    3e80:	e8 fc ff ff ff       	call   3e81 <testGetStatsReady+0x13c>
    3e85:	89 c3                	mov    %eax,%ebx
    3e87:	8b 45 e4             	mov    -0x1c(%ebp),%eax
    3e8a:	89 04 24             	mov    %eax,(%esp)
    3e8d:	8b 45 e8             	mov    -0x18(%ebp),%eax
    3e90:	89 44 24 04          	mov    %eax,0x4(%esp)
    3e94:	8b 45 ec             	mov    -0x14(%ebp),%eax
    3e97:	89 44 24 08          	mov    %eax,0x8(%esp)
    3e9b:	e8 fc ff ff ff       	call   3e9c <testGetStatsReady+0x157>
    3ea0:	39 c3                	cmp    %eax,%ebx
    3ea2:	7c 4a                	jl     3eee <testGetStatsReady+0x1a9>
    3ea4:	8b 45 08             	mov    0x8(%ebp),%eax
    3ea7:	c7 80 88 00 00 00 02 	movl   $0x2,0x88(%eax)
    3eae:	00 00 00 
    3eb1:	8b 45 08             	mov    0x8(%ebp),%eax
    3eb4:	c7 80 8c 00 00 00 b4 	movl   $0x17b4,0x8c(%eax)
    3ebb:	17 00 00 
    3ebe:	8b 45 08             	mov    0x8(%ebp),%eax
    3ec1:	8b 80 8c 00 00 00    	mov    0x8c(%eax),%eax
    3ec7:	89 04 24             	mov    %eax,(%esp)
    3eca:	e8 fc ff ff ff       	call   3ecb <testGetStatsReady+0x186>
    3ecf:	89 c2                	mov    %eax,%edx
    3ed1:	8b 45 08             	mov    0x8(%ebp),%eax
    3ed4:	8b 80 8c 00 00 00    	mov    0x8c(%eax),%eax
    3eda:	89 54 24 08          	mov    %edx,0x8(%esp)
    3ede:	89 44 24 04          	mov    %eax,0x4(%esp)
    3ee2:	c7 04 24 01 00 00 00 	movl   $0x1,(%esp)
    3ee9:	e8 fc ff ff ff       	call   3eea <testGetStatsReady+0x1a5>
    3eee:	83 c4 44             	add    $0x44,%esp
    3ef1:	5b                   	pop    %ebx
    3ef2:	5d                   	pop    %ebp
    3ef3:	c3                   	ret    

00003ef4 <testGetStatsDead>:
    3ef4:	55                   	push   %ebp
    3ef5:	89 e5                	mov    %esp,%ebp
    3ef7:	83 ec 38             	sub    $0x38,%esp
    3efa:	c7 44 24 04 00 00 00 	movl   $0x0,0x4(%esp)
    3f01:	00 
    3f02:	c7 04 24 00 00 00 00 	movl   $0x0,(%esp)
    3f09:	e8 fc ff ff ff       	call   3f0a <testGetStatsDead+0x16>
    3f0e:	e8 fc ff ff ff       	call   3f0f <testGetStatsDead+0x1b>
    3f13:	89 45 f8             	mov    %eax,-0x8(%ebp)
    3f16:	83 7d f8 00          	cmpl   $0x0,-0x8(%ebp)
    3f1a:	75 3a                	jne    3f56 <testGetStatsDead+0x62>
    3f1c:	c7 04 24 00 00 00 00 	movl   $0x0,(%esp)
    3f23:	e8 fc ff ff ff       	call   3f24 <testGetStatsDead+0x30>
    3f28:	e8 fc ff ff ff       	call   3f29 <testGetStatsDead+0x35>
    3f2d:	c7 04 24 24 0e 00 00 	movl   $0xe24,(%esp)
    3f34:	e8 fc ff ff ff       	call   3f35 <testGetStatsDead+0x41>
    3f39:	89 44 24 08          	mov    %eax,0x8(%esp)
    3f3d:	c7 44 24 04 24 0e 00 	movl   $0xe24,0x4(%esp)
    3f44:	00 
    3f45:	c7 04 24 01 00 00 00 	movl   $0x1,(%esp)
    3f4c:	e8 fc ff ff ff       	call   3f4d <testGetStatsDead+0x59>
    3f51:	e9 dd 00 00 00       	jmp    4033 <testGetStatsDead+0x13f>
    3f56:	c7 04 24 00 00 00 00 	movl   $0x0,(%esp)
    3f5d:	e8 fc ff ff ff       	call   3f5e <testGetStatsDead+0x6a>
    3f62:	e8 8e cc ff ff       	call   bf5 <delay>
    3f67:	c7 04 24 00 00 00 00 	movl   $0x0,(%esp)
    3f6e:	e8 fc ff ff ff       	call   3f6f <testGetStatsDead+0x7b>
    3f73:	8d 45 ec             	lea    -0x14(%ebp),%eax
    3f76:	89 44 24 04          	mov    %eax,0x4(%esp)
    3f7a:	8b 45 f8             	mov    -0x8(%ebp),%eax
    3f7d:	89 04 24             	mov    %eax,(%esp)
    3f80:	e8 fc ff ff ff       	call   3f81 <testGetStatsDead+0x8d>
    3f85:	89 45 fc             	mov    %eax,-0x4(%ebp)
    3f88:	83 7d fc 00          	cmpl   $0x0,-0x4(%ebp)
    3f8c:	78 4c                	js     3fda <testGetStatsDead+0xe6>
    3f8e:	8b 45 08             	mov    0x8(%ebp),%eax
    3f91:	c7 80 88 00 00 00 02 	movl   $0x2,0x88(%eax)
    3f98:	00 00 00 
    3f9b:	8b 45 08             	mov    0x8(%ebp),%eax
    3f9e:	c7 80 8c 00 00 00 d8 	movl   $0x17d8,0x8c(%eax)
    3fa5:	17 00 00 
    3fa8:	8b 45 08             	mov    0x8(%ebp),%eax
    3fab:	8b 80 8c 00 00 00    	mov    0x8c(%eax),%eax
    3fb1:	89 04 24             	mov    %eax,(%esp)
    3fb4:	e8 fc ff ff ff       	call   3fb5 <testGetStatsDead+0xc1>
    3fb9:	89 c2                	mov    %eax,%edx
    3fbb:	8b 45 08             	mov    0x8(%ebp),%eax
    3fbe:	8b 80 8c 00 00 00    	mov    0x8c(%eax),%eax
    3fc4:	89 54 24 08          	mov    %edx,0x8(%esp)
    3fc8:	89 44 24 04          	mov    %eax,0x4(%esp)
    3fcc:	c7 04 24 01 00 00 00 	movl   $0x1,(%esp)
    3fd3:	e8 fc ff ff ff       	call   3fd4 <testGetStatsDead+0xe0>
    3fd8:	eb 59                	jmp    4033 <testGetStatsDead+0x13f>
    3fda:	a1 00 00 00 00       	mov    0x0,%eax
    3fdf:	83 f8 03             	cmp    $0x3,%eax
    3fe2:	74 4f                	je     4033 <testGetStatsDead+0x13f>
    3fe4:	8b 45 08             	mov    0x8(%ebp),%eax
    3fe7:	c7 80 88 00 00 00 01 	movl   $0x1,0x88(%eax)
    3fee:	00 00 00 
    3ff1:	e8 fc ff ff ff       	call   3ff2 <testGetStatsDead+0xfe>
    3ff6:	8b 45 08             	mov    0x8(%ebp),%eax
    3ff9:	c7 80 8c 00 00 00 10 	movl   $0x1810,0x8c(%eax)
    4000:	18 00 00 
    4003:	8b 45 08             	mov    0x8(%ebp),%eax
    4006:	8b 80 8c 00 00 00    	mov    0x8c(%eax),%eax
    400c:	89 04 24             	mov    %eax,(%esp)
    400f:	e8 fc ff ff ff       	call   4010 <testGetStatsDead+0x11c>
    4014:	89 c2                	mov    %eax,%edx
    4016:	8b 45 08             	mov    0x8(%ebp),%eax
    4019:	8b 80 8c 00 00 00    	mov    0x8c(%eax),%eax
    401f:	89 54 24 08          	mov    %edx,0x8(%esp)
    4023:	89 44 24 04          	mov    %eax,0x4(%esp)
    4027:	c7 04 24 01 00 00 00 	movl   $0x1,(%esp)
    402e:	e8 fc ff ff ff       	call   402f <testGetStatsDead+0x13b>
    4033:	c9                   	leave  
    4034:	c3                   	ret    

00004035 <testGetStatsBlocked>:
    4035:	55                   	push   %ebp
    4036:	89 e5                	mov    %esp,%ebp
    4038:	83 ec 38             	sub    $0x38,%esp
    403b:	c7 45 fc 00 00 00 00 	movl   $0x0,-0x4(%ebp)
    4042:	c7 44 24 04 00 00 00 	movl   $0x0,0x4(%esp)
    4049:	00 
    404a:	c7 04 24 00 00 00 00 	movl   $0x0,(%esp)
    4051:	e8 fc ff ff ff       	call   4052 <testGetStatsBlocked+0x1d>
    4056:	e8 fc ff ff ff       	call   4057 <testGetStatsBlocked+0x22>
    405b:	89 45 f8             	mov    %eax,-0x8(%ebp)
    405e:	83 7d f8 00          	cmpl   $0x0,-0x8(%ebp)
    4062:	75 3a                	jne    409e <testGetStatsBlocked+0x69>
    4064:	c7 04 24 00 00 00 00 	movl   $0x0,(%esp)
    406b:	e8 fc ff ff ff       	call   406c <testGetStatsBlocked+0x37>
    4070:	e8 fc ff ff ff       	call   4071 <testGetStatsBlocked+0x3c>
    4075:	c7 04 24 24 0e 00 00 	movl   $0xe24,(%esp)
    407c:	e8 fc ff ff ff       	call   407d <testGetStatsBlocked+0x48>
    4081:	89 44 24 08          	mov    %eax,0x8(%esp)
    4085:	c7 44 24 04 24 0e 00 	movl   $0xe24,0x4(%esp)
    408c:	00 
    408d:	c7 04 24 01 00 00 00 	movl   $0x1,(%esp)
    4094:	e8 fc ff ff ff       	call   4095 <testGetStatsBlocked+0x60>
    4099:	e9 ee 00 00 00       	jmp    418c <testGetStatsBlocked+0x157>
    409e:	83 7d f8 00          	cmpl   $0x0,-0x8(%ebp)
    40a2:	0f 8e 89 00 00 00    	jle    4131 <testGetStatsBlocked+0xfc>
    40a8:	e8 48 cb ff ff       	call   bf5 <delay>
    40ad:	8d 45 e8             	lea    -0x18(%ebp),%eax
    40b0:	89 44 24 04          	mov    %eax,0x4(%esp)
    40b4:	8b 45 f8             	mov    -0x8(%ebp),%eax
    40b7:	89 04 24             	mov    %eax,(%esp)
    40ba:	e8 fc ff ff ff       	call   40bb <testGetStatsBlocked+0x86>
    40bf:	89 45 f4             	mov    %eax,-0xc(%ebp)
    40c2:	83 7d f4 00          	cmpl   $0x0,-0xc(%ebp)
    40c6:	79 4f                	jns    4117 <testGetStatsBlocked+0xe2>
    40c8:	8b 45 08             	mov    0x8(%ebp),%eax
    40cb:	c7 80 88 00 00 00 02 	movl   $0x2,0x88(%eax)
    40d2:	00 00 00 
    40d5:	e8 fc ff ff ff       	call   40d6 <testGetStatsBlocked+0xa1>
    40da:	8b 45 08             	mov    0x8(%ebp),%eax
    40dd:	c7 80 8c 00 00 00 60 	movl   $0x1860,0x8c(%eax)
    40e4:	18 00 00 
    40e7:	8b 45 08             	mov    0x8(%ebp),%eax
    40ea:	8b 80 8c 00 00 00    	mov    0x8c(%eax),%eax
    40f0:	89 04 24             	mov    %eax,(%esp)
    40f3:	e8 fc ff ff ff       	call   40f4 <testGetStatsBlocked+0xbf>
    40f8:	89 c2                	mov    %eax,%edx
    40fa:	8b 45 08             	mov    0x8(%ebp),%eax
    40fd:	8b 80 8c 00 00 00    	mov    0x8c(%eax),%eax
    4103:	89 54 24 08          	mov    %edx,0x8(%esp)
    4107:	89 44 24 04          	mov    %eax,0x4(%esp)
    410b:	c7 04 24 01 00 00 00 	movl   $0x1,(%esp)
    4112:	e8 fc ff ff ff       	call   4113 <testGetStatsBlocked+0xde>
    4117:	c7 04 24 00 00 00 00 	movl   $0x0,(%esp)
    411e:	e8 fc ff ff ff       	call   411f <testGetStatsBlocked+0xea>
    4123:	c7 04 24 00 00 00 00 	movl   $0x0,(%esp)
    412a:	e8 fc ff ff ff       	call   412b <testGetStatsBlocked+0xf6>
    412f:	eb 5b                	jmp    418c <testGetStatsBlocked+0x157>
    4131:	8b 45 08             	mov    0x8(%ebp),%eax
    4134:	c7 80 88 00 00 00 02 	movl   $0x2,0x88(%eax)
    413b:	00 00 00 
    413e:	e8 fc ff ff ff       	call   413f <testGetStatsBlocked+0x10a>
    4143:	8b 45 08             	mov    0x8(%ebp),%eax
    4146:	c7 80 8c 00 00 00 bc 	movl   $0x14bc,0x8c(%eax)
    414d:	14 00 00 
    4150:	8b 45 08             	mov    0x8(%ebp),%eax
    4153:	8b 80 8c 00 00 00    	mov    0x8c(%eax),%eax
    4159:	89 04 24             	mov    %eax,(%esp)
    415c:	e8 fc ff ff ff       	call   415d <testGetStatsBlocked+0x128>
    4161:	89 c2                	mov    %eax,%edx
    4163:	8b 45 08             	mov    0x8(%ebp),%eax
    4166:	8b 80 8c 00 00 00    	mov    0x8c(%eax),%eax
    416c:	89 54 24 08          	mov    %edx,0x8(%esp)
    4170:	89 44 24 04          	mov    %eax,0x4(%esp)
    4174:	c7 04 24 01 00 00 00 	movl   $0x1,(%esp)
    417b:	e8 fc ff ff ff       	call   417c <testGetStatsBlocked+0x147>
    4180:	c7 04 24 00 00 00 00 	movl   $0x0,(%esp)
    4187:	e8 fc ff ff ff       	call   4188 <testGetStatsBlocked+0x153>
    418c:	c9                   	leave  
    418d:	c3                   	ret    

0000418e <testTicsAccountingBlocked>:
    418e:	55                   	push   %ebp
    418f:	89 e5                	mov    %esp,%ebp
    4191:	53                   	push   %ebx
    4192:	83 ec 44             	sub    $0x44,%esp
    4195:	c7 45 e4 00 00 00 00 	movl   $0x0,-0x1c(%ebp)
    419c:	c7 45 e8 00 00 00 00 	movl   $0x0,-0x18(%ebp)
    41a3:	c7 45 ec 00 00 00 00 	movl   $0x0,-0x14(%ebp)
    41aa:	c7 45 d8 00 00 00 00 	movl   $0x0,-0x28(%ebp)
    41b1:	c7 45 dc 00 00 00 00 	movl   $0x0,-0x24(%ebp)
    41b8:	c7 45 e0 00 00 00 00 	movl   $0x0,-0x20(%ebp)
    41bf:	c7 45 f8 00 00 00 00 	movl   $0x0,-0x8(%ebp)
    41c6:	c7 44 24 04 00 00 00 	movl   $0x0,0x4(%esp)
    41cd:	00 
    41ce:	c7 04 24 00 00 00 00 	movl   $0x0,(%esp)
    41d5:	e8 fc ff ff ff       	call   41d6 <testTicsAccountingBlocked+0x48>
    41da:	89 45 f0             	mov    %eax,-0x10(%ebp)
    41dd:	83 7d f0 00          	cmpl   $0x0,-0x10(%ebp)
    41e1:	79 5c                	jns    423f <testTicsAccountingBlocked+0xb1>
    41e3:	8b 45 08             	mov    0x8(%ebp),%eax
    41e6:	c7 80 88 00 00 00 02 	movl   $0x2,0x88(%eax)
    41ed:	00 00 00 
    41f0:	e8 fc ff ff ff       	call   41f1 <testTicsAccountingBlocked+0x63>
    41f5:	8b 45 08             	mov    0x8(%ebp),%eax
    41f8:	c7 80 8c 00 00 00 a0 	movl   $0x18a0,0x8c(%eax)
    41ff:	18 00 00 
    4202:	8b 45 08             	mov    0x8(%ebp),%eax
    4205:	8b 80 8c 00 00 00    	mov    0x8c(%eax),%eax
    420b:	89 04 24             	mov    %eax,(%esp)
    420e:	e8 fc ff ff ff       	call   420f <testTicsAccountingBlocked+0x81>
    4213:	89 c2                	mov    %eax,%edx
    4215:	8b 45 08             	mov    0x8(%ebp),%eax
    4218:	8b 80 8c 00 00 00    	mov    0x8c(%eax),%eax
    421e:	89 54 24 08          	mov    %edx,0x8(%esp)
    4222:	89 44 24 04          	mov    %eax,0x4(%esp)
    4226:	c7 04 24 01 00 00 00 	movl   $0x1,(%esp)
    422d:	e8 fc ff ff ff       	call   422e <testTicsAccountingBlocked+0xa0>
    4232:	b8 ff ff ff ff       	mov    $0xffffffff,%eax
    4237:	89 45 c8             	mov    %eax,-0x38(%ebp)
    423a:	e9 7f 02 00 00       	jmp    44be <testTicsAccountingBlocked+0x330>
    423f:	e8 fc ff ff ff       	call   4240 <testTicsAccountingBlocked+0xb2>
    4244:	89 45 f4             	mov    %eax,-0xc(%ebp)
    4247:	83 7d f4 00          	cmpl   $0x0,-0xc(%ebp)
    424b:	0f 85 85 00 00 00    	jne    42d6 <testTicsAccountingBlocked+0x148>
    4251:	c7 04 24 00 00 00 00 	movl   $0x0,(%esp)
    4258:	e8 fc ff ff ff       	call   4259 <testTicsAccountingBlocked+0xcb>
    425d:	89 45 f0             	mov    %eax,-0x10(%ebp)
    4260:	83 7d f0 00          	cmpl   $0x0,-0x10(%ebp)
    4264:	79 42                	jns    42a8 <testTicsAccountingBlocked+0x11a>
    4266:	e8 fc ff ff ff       	call   4267 <testTicsAccountingBlocked+0xd9>
    426b:	8b 45 08             	mov    0x8(%ebp),%eax
    426e:	c7 80 8c 00 00 00 d0 	movl   $0x18d0,0x8c(%eax)
    4275:	18 00 00 
    4278:	8b 45 08             	mov    0x8(%ebp),%eax
    427b:	8b 80 8c 00 00 00    	mov    0x8c(%eax),%eax
    4281:	89 04 24             	mov    %eax,(%esp)
    4284:	e8 fc ff ff ff       	call   4285 <testTicsAccountingBlocked+0xf7>
    4289:	89 c2                	mov    %eax,%edx
    428b:	8b 45 08             	mov    0x8(%ebp),%eax
    428e:	8b 80 8c 00 00 00    	mov    0x8c(%eax),%eax
    4294:	89 54 24 08          	mov    %edx,0x8(%esp)
    4298:	89 44 24 04          	mov    %eax,0x4(%esp)
    429c:	c7 04 24 01 00 00 00 	movl   $0x1,(%esp)
    42a3:	e8 fc ff ff ff       	call   42a4 <testTicsAccountingBlocked+0x116>
    42a8:	e8 fc ff ff ff       	call   42a9 <testTicsAccountingBlocked+0x11b>
    42ad:	c7 04 24 24 0e 00 00 	movl   $0xe24,(%esp)
    42b4:	e8 fc ff ff ff       	call   42b5 <testTicsAccountingBlocked+0x127>
    42b9:	89 44 24 08          	mov    %eax,0x8(%esp)
    42bd:	c7 44 24 04 24 0e 00 	movl   $0xe24,0x4(%esp)
    42c4:	00 
    42c5:	c7 04 24 01 00 00 00 	movl   $0x1,(%esp)
    42cc:	e8 fc ff ff ff       	call   42cd <testTicsAccountingBlocked+0x13f>
    42d1:	e9 e6 01 00 00       	jmp    44bc <testTicsAccountingBlocked+0x32e>
    42d6:	83 7d f4 00          	cmpl   $0x0,-0xc(%ebp)
    42da:	0f 8e 81 01 00 00    	jle    4461 <testTicsAccountingBlocked+0x2d3>
    42e0:	e8 10 c9 ff ff       	call   bf5 <delay>
    42e5:	8d 45 e4             	lea    -0x1c(%ebp),%eax
    42e8:	89 44 24 04          	mov    %eax,0x4(%esp)
    42ec:	8b 45 f4             	mov    -0xc(%ebp),%eax
    42ef:	89 04 24             	mov    %eax,(%esp)
    42f2:	e8 fc ff ff ff       	call   42f3 <testTicsAccountingBlocked+0x165>
    42f7:	89 45 f0             	mov    %eax,-0x10(%ebp)
    42fa:	83 7d f0 00          	cmpl   $0x0,-0x10(%ebp)
    42fe:	0f 88 00 01 00 00    	js     4404 <testTicsAccountingBlocked+0x276>
    4304:	e8 ec c8 ff ff       	call   bf5 <delay>
    4309:	8d 45 d8             	lea    -0x28(%ebp),%eax
    430c:	89 44 24 04          	mov    %eax,0x4(%esp)
    4310:	8b 45 f4             	mov    -0xc(%ebp),%eax
    4313:	89 04 24             	mov    %eax,(%esp)
    4316:	e8 fc ff ff ff       	call   4317 <testTicsAccountingBlocked+0x189>
    431b:	89 45 f0             	mov    %eax,-0x10(%ebp)
    431e:	83 7d f0 00          	cmpl   $0x0,-0x10(%ebp)
    4322:	0f 88 8b 00 00 00    	js     43b3 <testTicsAccountingBlocked+0x225>
    4328:	8b 45 e4             	mov    -0x1c(%ebp),%eax
    432b:	89 04 24             	mov    %eax,(%esp)
    432e:	8b 45 e8             	mov    -0x18(%ebp),%eax
    4331:	89 44 24 04          	mov    %eax,0x4(%esp)
    4335:	8b 45 ec             	mov    -0x14(%ebp),%eax
    4338:	89 44 24 08          	mov    %eax,0x8(%esp)
    433c:	e8 fc ff ff ff       	call   433d <testTicsAccountingBlocked+0x1af>
    4341:	89 c3                	mov    %eax,%ebx
    4343:	8b 45 d8             	mov    -0x28(%ebp),%eax
    4346:	89 04 24             	mov    %eax,(%esp)
    4349:	8b 45 dc             	mov    -0x24(%ebp),%eax
    434c:	89 44 24 04          	mov    %eax,0x4(%esp)
    4350:	8b 45 e0             	mov    -0x20(%ebp),%eax
    4353:	89 44 24 08          	mov    %eax,0x8(%esp)
    4357:	e8 fc ff ff ff       	call   4358 <testTicsAccountingBlocked+0x1ca>
    435c:	39 c3                	cmp    %eax,%ebx
    435e:	0f 84 ef 00 00 00    	je     4453 <testTicsAccountingBlocked+0x2c5>
    4364:	8b 45 08             	mov    0x8(%ebp),%eax
    4367:	c7 80 88 00 00 00 02 	movl   $0x2,0x88(%eax)
    436e:	00 00 00 
    4371:	8b 45 08             	mov    0x8(%ebp),%eax
    4374:	c7 80 8c 00 00 00 0c 	movl   $0x190c,0x8c(%eax)
    437b:	19 00 00 
    437e:	8b 45 08             	mov    0x8(%ebp),%eax
    4381:	8b 80 8c 00 00 00    	mov    0x8c(%eax),%eax
    4387:	89 04 24             	mov    %eax,(%esp)
    438a:	e8 fc ff ff ff       	call   438b <testTicsAccountingBlocked+0x1fd>
    438f:	89 c2                	mov    %eax,%edx
    4391:	8b 45 08             	mov    0x8(%ebp),%eax
    4394:	8b 80 8c 00 00 00    	mov    0x8c(%eax),%eax
    439a:	89 54 24 08          	mov    %edx,0x8(%esp)
    439e:	89 44 24 04          	mov    %eax,0x4(%esp)
    43a2:	c7 04 24 01 00 00 00 	movl   $0x1,(%esp)
    43a9:	e8 fc ff ff ff       	call   43aa <testTicsAccountingBlocked+0x21c>
    43ae:	e9 a0 00 00 00       	jmp    4453 <testTicsAccountingBlocked+0x2c5>
    43b3:	8b 45 08             	mov    0x8(%ebp),%eax
    43b6:	c7 80 88 00 00 00 02 	movl   $0x2,0x88(%eax)
    43bd:	00 00 00 
    43c0:	e8 fc ff ff ff       	call   43c1 <testTicsAccountingBlocked+0x233>
    43c5:	8b 45 08             	mov    0x8(%ebp),%eax
    43c8:	c7 80 8c 00 00 00 44 	movl   $0x1944,0x8c(%eax)
    43cf:	19 00 00 
    43d2:	8b 45 08             	mov    0x8(%ebp),%eax
    43d5:	8b 80 8c 00 00 00    	mov    0x8c(%eax),%eax
    43db:	89 04 24             	mov    %eax,(%esp)
    43de:	e8 fc ff ff ff       	call   43df <testTicsAccountingBlocked+0x251>
    43e3:	89 c2                	mov    %eax,%edx
    43e5:	8b 45 08             	mov    0x8(%ebp),%eax
    43e8:	8b 80 8c 00 00 00    	mov    0x8c(%eax),%eax
    43ee:	89 54 24 08          	mov    %edx,0x8(%esp)
    43f2:	89 44 24 04          	mov    %eax,0x4(%esp)
    43f6:	c7 04 24 01 00 00 00 	movl   $0x1,(%esp)
    43fd:	e8 fc ff ff ff       	call   43fe <testTicsAccountingBlocked+0x270>
    4402:	eb 4f                	jmp    4453 <testTicsAccountingBlocked+0x2c5>
    4404:	8b 45 08             	mov    0x8(%ebp),%eax
    4407:	c7 80 88 00 00 00 02 	movl   $0x2,0x88(%eax)
    440e:	00 00 00 
    4411:	e8 fc ff ff ff       	call   4412 <testTicsAccountingBlocked+0x284>
    4416:	8b 45 08             	mov    0x8(%ebp),%eax
    4419:	c7 80 8c 00 00 00 44 	movl   $0x1944,0x8c(%eax)
    4420:	19 00 00 
    4423:	8b 45 08             	mov    0x8(%ebp),%eax
    4426:	8b 80 8c 00 00 00    	mov    0x8c(%eax),%eax
    442c:	89 04 24             	mov    %eax,(%esp)
    442f:	e8 fc ff ff ff       	call   4430 <testTicsAccountingBlocked+0x2a2>
    4434:	89 c2                	mov    %eax,%edx
    4436:	8b 45 08             	mov    0x8(%ebp),%eax
    4439:	8b 80 8c 00 00 00    	mov    0x8c(%eax),%eax
    443f:	89 54 24 08          	mov    %edx,0x8(%esp)
    4443:	89 44 24 04          	mov    %eax,0x4(%esp)
    4447:	c7 04 24 01 00 00 00 	movl   $0x1,(%esp)
    444e:	e8 fc ff ff ff       	call   444f <testTicsAccountingBlocked+0x2c1>
    4453:	c7 04 24 00 00 00 00 	movl   $0x0,(%esp)
    445a:	e8 fc ff ff ff       	call   445b <testTicsAccountingBlocked+0x2cd>
    445f:	eb 4f                	jmp    44b0 <testTicsAccountingBlocked+0x322>
    4461:	8b 45 08             	mov    0x8(%ebp),%eax
    4464:	c7 80 88 00 00 00 02 	movl   $0x2,0x88(%eax)
    446b:	00 00 00 
    446e:	e8 fc ff ff ff       	call   446f <testTicsAccountingBlocked+0x2e1>
    4473:	8b 45 08             	mov    0x8(%ebp),%eax
    4476:	c7 80 8c 00 00 00 bc 	movl   $0x14bc,0x8c(%eax)
    447d:	14 00 00 
    4480:	8b 45 08             	mov    0x8(%ebp),%eax
    4483:	8b 80 8c 00 00 00    	mov    0x8c(%eax),%eax
    4489:	89 04 24             	mov    %eax,(%esp)
    448c:	e8 fc ff ff ff       	call   448d <testTicsAccountingBlocked+0x2ff>
    4491:	89 c2                	mov    %eax,%edx
    4493:	8b 45 08             	mov    0x8(%ebp),%eax
    4496:	8b 80 8c 00 00 00    	mov    0x8c(%eax),%eax
    449c:	89 54 24 08          	mov    %edx,0x8(%esp)
    44a0:	89 44 24 04          	mov    %eax,0x4(%esp)
    44a4:	c7 04 24 01 00 00 00 	movl   $0x1,(%esp)
    44ab:	e8 fc ff ff ff       	call   44ac <testTicsAccountingBlocked+0x31e>
    44b0:	c7 04 24 00 00 00 00 	movl   $0x0,(%esp)
    44b7:	e8 fc ff ff ff       	call   44b8 <testTicsAccountingBlocked+0x32a>
    44bc:	eb 03                	jmp    44c1 <testTicsAccountingBlocked+0x333>
    44be:	8b 45 c8             	mov    -0x38(%ebp),%eax
    44c1:	83 c4 44             	add    $0x44,%esp
    44c4:	5b                   	pop    %ebx
    44c5:	5d                   	pop    %ebp
    44c6:	c3                   	ret    

000044c7 <testIndependentQuantums>:
    44c7:	55                   	push   %ebp
    44c8:	89 e5                	mov    %esp,%ebp
    44ca:	83 ec 28             	sub    $0x28,%esp
    44cd:	e8 fc ff ff ff       	call   44ce <testIndependentQuantums+0x7>
    44d2:	85 c0                	test   %eax,%eax
    44d4:	75 6a                	jne    4540 <testIndependentQuantums+0x79>
    44d6:	e8 fc ff ff ff       	call   44d7 <testIndependentQuantums+0x10>
    44db:	89 45 f0             	mov    %eax,-0x10(%ebp)
    44de:	83 7d f0 00          	cmpl   $0x0,-0x10(%ebp)
    44e2:	7e 02                	jle    44e6 <testIndependentQuantums+0x1f>
    44e4:	eb fe                	jmp    44e4 <testIndependentQuantums+0x1d>
    44e6:	83 7d f0 00          	cmpl   $0x0,-0x10(%ebp)
    44ea:	79 54                	jns    4540 <testIndependentQuantums+0x79>
    44ec:	8b 45 08             	mov    0x8(%ebp),%eax
    44ef:	c7 80 88 00 00 00 02 	movl   $0x2,0x88(%eax)
    44f6:	00 00 00 
    44f9:	e8 fc ff ff ff       	call   44fa <testIndependentQuantums+0x33>
    44fe:	8b 45 08             	mov    0x8(%ebp),%eax
    4501:	c7 80 8c 00 00 00 bc 	movl   $0x14bc,0x8c(%eax)
    4508:	14 00 00 
    450b:	8b 45 08             	mov    0x8(%ebp),%eax
    450e:	8b 80 8c 00 00 00    	mov    0x8c(%eax),%eax
    4514:	89 04 24             	mov    %eax,(%esp)
    4517:	e8 fc ff ff ff       	call   4518 <testIndependentQuantums+0x51>
    451c:	89 c2                	mov    %eax,%edx
    451e:	8b 45 08             	mov    0x8(%ebp),%eax
    4521:	8b 80 8c 00 00 00    	mov    0x8c(%eax),%eax
    4527:	89 54 24 08          	mov    %edx,0x8(%esp)
    452b:	89 44 24 04          	mov    %eax,0x4(%esp)
    452f:	c7 04 24 01 00 00 00 	movl   $0x1,(%esp)
    4536:	e8 fc ff ff ff       	call   4537 <testIndependentQuantums+0x70>
    453b:	e9 5d 01 00 00       	jmp    469d <testIndependentQuantums+0x1d6>
    4540:	c7 04 24 15 00 00 00 	movl   $0x15,(%esp)
    4547:	e8 fc ff ff ff       	call   4548 <testIndependentQuantums+0x81>
    454c:	89 45 fc             	mov    %eax,-0x4(%ebp)
    454f:	8b 45 fc             	mov    -0x4(%ebp),%eax
    4552:	89 04 24             	mov    %eax,(%esp)
    4555:	e8 fc ff ff ff       	call   4556 <testIndependentQuantums+0x8f>
    455a:	c7 44 24 04 00 00 00 	movl   $0x0,0x4(%esp)
    4561:	00 
    4562:	c7 04 24 00 00 00 00 	movl   $0x0,(%esp)
    4569:	e8 fc ff ff ff       	call   456a <testIndependentQuantums+0xa3>
    456e:	e8 fc ff ff ff       	call   456f <testIndependentQuantums+0xa8>
    4573:	89 45 f0             	mov    %eax,-0x10(%ebp)
    4576:	83 7d f0 00          	cmpl   $0x0,-0x10(%ebp)
    457a:	75 46                	jne    45c2 <testIndependentQuantums+0xfb>
    457c:	c7 04 24 1f 00 00 00 	movl   $0x1f,(%esp)
    4583:	e8 fc ff ff ff       	call   4584 <testIndependentQuantums+0xbd>
    4588:	c7 04 24 00 00 00 00 	movl   $0x0,(%esp)
    458f:	e8 fc ff ff ff       	call   4590 <testIndependentQuantums+0xc9>
    4594:	e8 fc ff ff ff       	call   4595 <testIndependentQuantums+0xce>
    4599:	c7 04 24 24 0e 00 00 	movl   $0xe24,(%esp)
    45a0:	e8 fc ff ff ff       	call   45a1 <testIndependentQuantums+0xda>
    45a5:	89 44 24 08          	mov    %eax,0x8(%esp)
    45a9:	c7 44 24 04 24 0e 00 	movl   $0xe24,0x4(%esp)
    45b0:	00 
    45b1:	c7 04 24 01 00 00 00 	movl   $0x1,(%esp)
    45b8:	e8 fc ff ff ff       	call   45b9 <testIndependentQuantums+0xf2>
    45bd:	e9 cf 00 00 00       	jmp    4691 <testIndependentQuantums+0x1ca>
    45c2:	83 7d f0 00          	cmpl   $0x0,-0x10(%ebp)
    45c6:	7e 7a                	jle    4642 <testIndependentQuantums+0x17b>
    45c8:	c7 04 24 00 00 00 00 	movl   $0x0,(%esp)
    45cf:	e8 fc ff ff ff       	call   45d0 <testIndependentQuantums+0x109>
    45d4:	c7 04 24 29 00 00 00 	movl   $0x29,(%esp)
    45db:	e8 fc ff ff ff       	call   45dc <testIndependentQuantums+0x115>
    45e0:	89 45 f8             	mov    %eax,-0x8(%ebp)
    45e3:	8b 45 f8             	mov    -0x8(%ebp),%eax
    45e6:	3b 45 fc             	cmp    -0x4(%ebp),%eax
    45e9:	74 4a                	je     4635 <testIndependentQuantums+0x16e>
    45eb:	8b 45 08             	mov    0x8(%ebp),%eax
    45ee:	c7 80 88 00 00 00 02 	movl   $0x2,0x88(%eax)
    45f5:	00 00 00 
    45f8:	8b 45 08             	mov    0x8(%ebp),%eax
    45fb:	c7 80 8c 00 00 00 90 	movl   $0x1990,0x8c(%eax)
    4602:	19 00 00 
    4605:	8b 45 08             	mov    0x8(%ebp),%eax
    4608:	8b 80 8c 00 00 00    	mov    0x8c(%eax),%eax
    460e:	89 04 24             	mov    %eax,(%esp)
    4611:	e8 fc ff ff ff       	call   4612 <testIndependentQuantums+0x14b>
    4616:	89 c2                	mov    %eax,%edx
    4618:	8b 45 08             	mov    0x8(%ebp),%eax
    461b:	8b 80 8c 00 00 00    	mov    0x8c(%eax),%eax
    4621:	89 54 24 08          	mov    %edx,0x8(%esp)
    4625:	89 44 24 04          	mov    %eax,0x4(%esp)
    4629:	c7 04 24 01 00 00 00 	movl   $0x1,(%esp)
    4630:	e8 fc ff ff ff       	call   4631 <testIndependentQuantums+0x16a>
    4635:	8b 45 f8             	mov    -0x8(%ebp),%eax
    4638:	89 04 24             	mov    %eax,(%esp)
    463b:	e8 fc ff ff ff       	call   463c <testIndependentQuantums+0x175>
    4640:	eb 4f                	jmp    4691 <testIndependentQuantums+0x1ca>
    4642:	8b 45 08             	mov    0x8(%ebp),%eax
    4645:	c7 80 88 00 00 00 02 	movl   $0x2,0x88(%eax)
    464c:	00 00 00 
    464f:	e8 fc ff ff ff       	call   4650 <testIndependentQuantums+0x189>
    4654:	8b 45 08             	mov    0x8(%ebp),%eax
    4657:	c7 80 8c 00 00 00 bc 	movl   $0x14bc,0x8c(%eax)
    465e:	14 00 00 
    4661:	8b 45 08             	mov    0x8(%ebp),%eax
    4664:	8b 80 8c 00 00 00    	mov    0x8c(%eax),%eax
    466a:	89 04 24             	mov    %eax,(%esp)
    466d:	e8 fc ff ff ff       	call   466e <testIndependentQuantums+0x1a7>
    4672:	89 c2                	mov    %eax,%edx
    4674:	8b 45 08             	mov    0x8(%ebp),%eax
    4677:	8b 80 8c 00 00 00    	mov    0x8c(%eax),%eax
    467d:	89 54 24 08          	mov    %edx,0x8(%esp)
    4681:	89 44 24 04          	mov    %eax,0x4(%esp)
    4685:	c7 04 24 01 00 00 00 	movl   $0x1,(%esp)
    468c:	e8 fc ff ff ff       	call   468d <testIndependentQuantums+0x1c6>
    4691:	c7 04 24 00 00 00 00 	movl   $0x0,(%esp)
    4698:	e8 fc ff ff ff       	call   4699 <testIndependentQuantums+0x1d2>
    469d:	c9                   	leave  
    469e:	c3                   	ret    

0000469f <testRoundRobinQuantumRem>:
    469f:	55                   	push   %ebp
    46a0:	89 e5                	mov    %esp,%ebp
    46a2:	83 ec 38             	sub    $0x38,%esp
    46a5:	e8 fc ff ff ff       	call   46a6 <testRoundRobinQuantumRem+0x7>
    46aa:	85 c0                	test   %eax,%eax
    46ac:	75 6a                	jne    4718 <testRoundRobinQuantumRem+0x79>
    46ae:	e8 fc ff ff ff       	call   46af <testRoundRobinQuantumRem+0x10>
    46b3:	89 45 f0             	mov    %eax,-0x10(%ebp)
    46b6:	83 7d f0 00          	cmpl   $0x0,-0x10(%ebp)
    46ba:	7e 02                	jle    46be <testRoundRobinQuantumRem+0x1f>
    46bc:	eb fe                	jmp    46bc <testRoundRobinQuantumRem+0x1d>
    46be:	83 7d f0 00          	cmpl   $0x0,-0x10(%ebp)
    46c2:	79 54                	jns    4718 <testRoundRobinQuantumRem+0x79>
    46c4:	8b 45 08             	mov    0x8(%ebp),%eax
    46c7:	c7 80 88 00 00 00 02 	movl   $0x2,0x88(%eax)
    46ce:	00 00 00 
    46d1:	e8 fc ff ff ff       	call   46d2 <testRoundRobinQuantumRem+0x33>
    46d6:	8b 45 08             	mov    0x8(%ebp),%eax
    46d9:	c7 80 8c 00 00 00 bc 	movl   $0x14bc,0x8c(%eax)
    46e0:	14 00 00 
    46e3:	8b 45 08             	mov    0x8(%ebp),%eax
    46e6:	8b 80 8c 00 00 00    	mov    0x8c(%eax),%eax
    46ec:	89 04 24             	mov    %eax,(%esp)
    46ef:	e8 fc ff ff ff       	call   46f0 <testRoundRobinQuantumRem+0x51>
    46f4:	89 c2                	mov    %eax,%edx
    46f6:	8b 45 08             	mov    0x8(%ebp),%eax
    46f9:	8b 80 8c 00 00 00    	mov    0x8c(%eax),%eax
    46ff:	89 54 24 08          	mov    %edx,0x8(%esp)
    4703:	89 44 24 04          	mov    %eax,0x4(%esp)
    4707:	c7 04 24 01 00 00 00 	movl   $0x1,(%esp)
    470e:	e8 fc ff ff ff       	call   470f <testRoundRobinQuantumRem+0x70>
    4713:	e9 5d 03 00 00       	jmp    4a75 <testRoundRobinQuantumRem+0x3d6>
    4718:	e8 fc ff ff ff       	call   4719 <testRoundRobinQuantumRem+0x7a>
    471d:	89 45 f4             	mov    %eax,-0xc(%ebp)
    4720:	c7 44 24 04 00 00 00 	movl   $0x0,0x4(%esp)
    4727:	00 
    4728:	c7 04 24 00 00 00 00 	movl   $0x0,(%esp)
    472f:	e8 fc ff ff ff       	call   4730 <testRoundRobinQuantumRem+0x91>
    4734:	89 45 ec             	mov    %eax,-0x14(%ebp)
    4737:	83 7d ec 00          	cmpl   $0x0,-0x14(%ebp)
    473b:	79 54                	jns    4791 <testRoundRobinQuantumRem+0xf2>
    473d:	8b 45 08             	mov    0x8(%ebp),%eax
    4740:	c7 80 88 00 00 00 02 	movl   $0x2,0x88(%eax)
    4747:	00 00 00 
    474a:	e8 fc ff ff ff       	call   474b <testRoundRobinQuantumRem+0xac>
    474f:	8b 45 08             	mov    0x8(%ebp),%eax
    4752:	c7 80 8c 00 00 00 a0 	movl   $0x18a0,0x8c(%eax)
    4759:	18 00 00 
    475c:	8b 45 08             	mov    0x8(%ebp),%eax
    475f:	8b 80 8c 00 00 00    	mov    0x8c(%eax),%eax
    4765:	89 04 24             	mov    %eax,(%esp)
    4768:	e8 fc ff ff ff       	call   4769 <testRoundRobinQuantumRem+0xca>
    476d:	89 c2                	mov    %eax,%edx
    476f:	8b 45 08             	mov    0x8(%ebp),%eax
    4772:	8b 80 8c 00 00 00    	mov    0x8c(%eax),%eax
    4778:	89 54 24 08          	mov    %edx,0x8(%esp)
    477c:	89 44 24 04          	mov    %eax,0x4(%esp)
    4780:	c7 04 24 01 00 00 00 	movl   $0x1,(%esp)
    4787:	e8 fc ff ff ff       	call   4788 <testRoundRobinQuantumRem+0xe9>
    478c:	e9 e4 02 00 00       	jmp    4a75 <testRoundRobinQuantumRem+0x3d6>
    4791:	c7 44 24 04 00 00 00 	movl   $0x0,0x4(%esp)
    4798:	00 
    4799:	c7 04 24 01 00 00 00 	movl   $0x1,(%esp)
    47a0:	e8 fc ff ff ff       	call   47a1 <testRoundRobinQuantumRem+0x102>
    47a5:	89 45 ec             	mov    %eax,-0x14(%ebp)
    47a8:	83 7d ec 00          	cmpl   $0x0,-0x14(%ebp)
    47ac:	79 54                	jns    4802 <testRoundRobinQuantumRem+0x163>
    47ae:	8b 45 08             	mov    0x8(%ebp),%eax
    47b1:	c7 80 88 00 00 00 02 	movl   $0x2,0x88(%eax)
    47b8:	00 00 00 
    47bb:	e8 fc ff ff ff       	call   47bc <testRoundRobinQuantumRem+0x11d>
    47c0:	8b 45 08             	mov    0x8(%ebp),%eax
    47c3:	c7 80 8c 00 00 00 cc 	movl   $0x19cc,0x8c(%eax)
    47ca:	19 00 00 
    47cd:	8b 45 08             	mov    0x8(%ebp),%eax
    47d0:	8b 80 8c 00 00 00    	mov    0x8c(%eax),%eax
    47d6:	89 04 24             	mov    %eax,(%esp)
    47d9:	e8 fc ff ff ff       	call   47da <testRoundRobinQuantumRem+0x13b>
    47de:	89 c2                	mov    %eax,%edx
    47e0:	8b 45 08             	mov    0x8(%ebp),%eax
    47e3:	8b 80 8c 00 00 00    	mov    0x8c(%eax),%eax
    47e9:	89 54 24 08          	mov    %edx,0x8(%esp)
    47ed:	89 44 24 04          	mov    %eax,0x4(%esp)
    47f1:	c7 04 24 01 00 00 00 	movl   $0x1,(%esp)
    47f8:	e8 fc ff ff ff       	call   47f9 <testRoundRobinQuantumRem+0x15a>
    47fd:	e9 73 02 00 00       	jmp    4a75 <testRoundRobinQuantumRem+0x3d6>
    4802:	8d 45 e0             	lea    -0x20(%ebp),%eax
    4805:	89 44 24 04          	mov    %eax,0x4(%esp)
    4809:	8b 45 f4             	mov    -0xc(%ebp),%eax
    480c:	89 04 24             	mov    %eax,(%esp)
    480f:	e8 fc ff ff ff       	call   4810 <testRoundRobinQuantumRem+0x171>
    4814:	89 45 ec             	mov    %eax,-0x14(%ebp)
    4817:	83 7d ec 00          	cmpl   $0x0,-0x14(%ebp)
    481b:	79 60                	jns    487d <testRoundRobinQuantumRem+0x1de>
    481d:	8b 45 08             	mov    0x8(%ebp),%eax
    4820:	c7 80 88 00 00 00 02 	movl   $0x2,0x88(%eax)
    4827:	00 00 00 
    482a:	e8 fc ff ff ff       	call   482b <testRoundRobinQuantumRem+0x18c>
    482f:	8b 45 08             	mov    0x8(%ebp),%eax
    4832:	c7 80 8c 00 00 00 fc 	movl   $0x19fc,0x8c(%eax)
    4839:	19 00 00 
    483c:	8b 45 08             	mov    0x8(%ebp),%eax
    483f:	8b 80 8c 00 00 00    	mov    0x8c(%eax),%eax
    4845:	89 04 24             	mov    %eax,(%esp)
    4848:	e8 fc ff ff ff       	call   4849 <testRoundRobinQuantumRem+0x1aa>
    484d:	89 c2                	mov    %eax,%edx
    484f:	8b 45 08             	mov    0x8(%ebp),%eax
    4852:	8b 80 8c 00 00 00    	mov    0x8c(%eax),%eax
    4858:	89 54 24 08          	mov    %edx,0x8(%esp)
    485c:	89 44 24 04          	mov    %eax,0x4(%esp)
    4860:	c7 04 24 01 00 00 00 	movl   $0x1,(%esp)
    4867:	e8 fc ff ff ff       	call   4868 <testRoundRobinQuantumRem+0x1c9>
    486c:	c7 04 24 00 00 00 00 	movl   $0x0,(%esp)
    4873:	e8 fc ff ff ff       	call   4874 <testRoundRobinQuantumRem+0x1d5>
    4878:	e9 f8 01 00 00       	jmp    4a75 <testRoundRobinQuantumRem+0x3d6>
    487d:	8b 45 e0             	mov    -0x20(%ebp),%eax
    4880:	89 04 24             	mov    %eax,(%esp)
    4883:	8b 45 e4             	mov    -0x1c(%ebp),%eax
    4886:	89 44 24 04          	mov    %eax,0x4(%esp)
    488a:	8b 45 e8             	mov    -0x18(%ebp),%eax
    488d:	89 44 24 08          	mov    %eax,0x8(%esp)
    4891:	e8 fc ff ff ff       	call   4892 <testRoundRobinQuantumRem+0x1f3>
    4896:	89 45 f8             	mov    %eax,-0x8(%ebp)
    4899:	e8 fc ff ff ff       	call   489a <testRoundRobinQuantumRem+0x1fb>
    489e:	89 45 f0             	mov    %eax,-0x10(%ebp)
    48a1:	83 7d f0 00          	cmpl   $0x0,-0x10(%ebp)
    48a5:	79 54                	jns    48fb <testRoundRobinQuantumRem+0x25c>
    48a7:	8b 45 08             	mov    0x8(%ebp),%eax
    48aa:	c7 80 88 00 00 00 02 	movl   $0x2,0x88(%eax)
    48b1:	00 00 00 
    48b4:	e8 fc ff ff ff       	call   48b5 <testRoundRobinQuantumRem+0x216>
    48b9:	8b 45 08             	mov    0x8(%ebp),%eax
    48bc:	c7 80 8c 00 00 00 bc 	movl   $0x14bc,0x8c(%eax)
    48c3:	14 00 00 
    48c6:	8b 45 08             	mov    0x8(%ebp),%eax
    48c9:	8b 80 8c 00 00 00    	mov    0x8c(%eax),%eax
    48cf:	89 04 24             	mov    %eax,(%esp)
    48d2:	e8 fc ff ff ff       	call   48d3 <testRoundRobinQuantumRem+0x234>
    48d7:	89 c2                	mov    %eax,%edx
    48d9:	8b 45 08             	mov    0x8(%ebp),%eax
    48dc:	8b 80 8c 00 00 00    	mov    0x8c(%eax),%eax
    48e2:	89 54 24 08          	mov    %edx,0x8(%esp)
    48e6:	89 44 24 04          	mov    %eax,0x4(%esp)
    48ea:	c7 04 24 01 00 00 00 	movl   $0x1,(%esp)
    48f1:	e8 fc ff ff ff       	call   48f2 <testRoundRobinQuantumRem+0x253>
    48f6:	e9 7a 01 00 00       	jmp    4a75 <testRoundRobinQuantumRem+0x3d6>
    48fb:	83 7d f0 00          	cmpl   $0x0,-0x10(%ebp)
    48ff:	75 46                	jne    4947 <testRoundRobinQuantumRem+0x2a8>
    4901:	c7 04 24 01 00 00 00 	movl   $0x1,(%esp)
    4908:	e8 fc ff ff ff       	call   4909 <testRoundRobinQuantumRem+0x26a>
    490d:	c7 04 24 00 00 00 00 	movl   $0x0,(%esp)
    4914:	e8 fc ff ff ff       	call   4915 <testRoundRobinQuantumRem+0x276>
    4919:	e8 fc ff ff ff       	call   491a <testRoundRobinQuantumRem+0x27b>
    491e:	c7 04 24 24 0e 00 00 	movl   $0xe24,(%esp)
    4925:	e8 fc ff ff ff       	call   4926 <testRoundRobinQuantumRem+0x287>
    492a:	89 44 24 08          	mov    %eax,0x8(%esp)
    492e:	c7 44 24 04 24 0e 00 	movl   $0xe24,0x4(%esp)
    4935:	00 
    4936:	c7 04 24 01 00 00 00 	movl   $0x1,(%esp)
    493d:	e8 fc ff ff ff       	call   493e <testRoundRobinQuantumRem+0x29f>
    4942:	e9 2e 01 00 00       	jmp    4a75 <testRoundRobinQuantumRem+0x3d6>
    4947:	c7 04 24 0a 00 00 00 	movl   $0xa,(%esp)
    494e:	e8 fc ff ff ff       	call   494f <testRoundRobinQuantumRem+0x2b0>
    4953:	c7 04 24 01 00 00 00 	movl   $0x1,(%esp)
    495a:	e8 fc ff ff ff       	call   495b <testRoundRobinQuantumRem+0x2bc>
    495f:	c7 04 24 00 00 00 00 	movl   $0x0,(%esp)
    4966:	e8 fc ff ff ff       	call   4967 <testRoundRobinQuantumRem+0x2c8>
    496b:	8d 45 e0             	lea    -0x20(%ebp),%eax
    496e:	89 44 24 04          	mov    %eax,0x4(%esp)
    4972:	8b 45 f4             	mov    -0xc(%ebp),%eax
    4975:	89 04 24             	mov    %eax,(%esp)
    4978:	e8 fc ff ff ff       	call   4979 <testRoundRobinQuantumRem+0x2da>
    497d:	89 45 ec             	mov    %eax,-0x14(%ebp)
    4980:	83 7d ec 00          	cmpl   $0x0,-0x14(%ebp)
    4984:	79 60                	jns    49e6 <testRoundRobinQuantumRem+0x347>
    4986:	8b 45 08             	mov    0x8(%ebp),%eax
    4989:	c7 80 88 00 00 00 02 	movl   $0x2,0x88(%eax)
    4990:	00 00 00 
    4993:	e8 fc ff ff ff       	call   4994 <testRoundRobinQuantumRem+0x2f5>
    4998:	8b 45 08             	mov    0x8(%ebp),%eax
    499b:	c7 80 8c 00 00 00 fc 	movl   $0x19fc,0x8c(%eax)
    49a2:	19 00 00 
    49a5:	8b 45 08             	mov    0x8(%ebp),%eax
    49a8:	8b 80 8c 00 00 00    	mov    0x8c(%eax),%eax
    49ae:	89 04 24             	mov    %eax,(%esp)
    49b1:	e8 fc ff ff ff       	call   49b2 <testRoundRobinQuantumRem+0x313>
    49b6:	89 c2                	mov    %eax,%edx
    49b8:	8b 45 08             	mov    0x8(%ebp),%eax
    49bb:	8b 80 8c 00 00 00    	mov    0x8c(%eax),%eax
    49c1:	89 54 24 08          	mov    %edx,0x8(%esp)
    49c5:	89 44 24 04          	mov    %eax,0x4(%esp)
    49c9:	c7 04 24 01 00 00 00 	movl   $0x1,(%esp)
    49d0:	e8 fc ff ff ff       	call   49d1 <testRoundRobinQuantumRem+0x332>
    49d5:	c7 04 24 00 00 00 00 	movl   $0x0,(%esp)
    49dc:	e8 fc ff ff ff       	call   49dd <testRoundRobinQuantumRem+0x33e>
    49e1:	e9 8f 00 00 00       	jmp    4a75 <testRoundRobinQuantumRem+0x3d6>
    49e6:	8b 45 e0             	mov    -0x20(%ebp),%eax
    49e9:	89 04 24             	mov    %eax,(%esp)
    49ec:	8b 45 e4             	mov    -0x1c(%ebp),%eax
    49ef:	89 44 24 04          	mov    %eax,0x4(%esp)
    49f3:	8b 45 e8             	mov    -0x18(%ebp),%eax
    49f6:	89 44 24 08          	mov    %eax,0x8(%esp)
    49fa:	e8 fc ff ff ff       	call   49fb <testRoundRobinQuantumRem+0x35c>
    49ff:	89 45 fc             	mov    %eax,-0x4(%ebp)
    4a02:	8b 45 fc             	mov    -0x4(%ebp),%eax
    4a05:	3b 45 f8             	cmp    -0x8(%ebp),%eax
    4a08:	7e 15                	jle    4a1f <testRoundRobinQuantumRem+0x380>
    4a0a:	83 7d fc 0a          	cmpl   $0xa,-0x4(%ebp)
    4a0e:	7f 0f                	jg     4a1f <testRoundRobinQuantumRem+0x380>
    4a10:	8b 45 08             	mov    0x8(%ebp),%eax
    4a13:	c7 80 88 00 00 00 00 	movl   $0x0,0x88(%eax)
    4a1a:	00 00 00 
    4a1d:	eb 4a                	jmp    4a69 <testRoundRobinQuantumRem+0x3ca>
    4a1f:	8b 45 08             	mov    0x8(%ebp),%eax
    4a22:	c7 80 88 00 00 00 02 	movl   $0x2,0x88(%eax)
    4a29:	00 00 00 
    4a2c:	8b 45 08             	mov    0x8(%ebp),%eax
    4a2f:	c7 80 8c 00 00 00 2c 	movl   $0x1a2c,0x8c(%eax)
    4a36:	1a 00 00 
    4a39:	8b 45 08             	mov    0x8(%ebp),%eax
    4a3c:	8b 80 8c 00 00 00    	mov    0x8c(%eax),%eax
    4a42:	89 04 24             	mov    %eax,(%esp)
    4a45:	e8 fc ff ff ff       	call   4a46 <testRoundRobinQuantumRem+0x3a7>
    4a4a:	89 c2                	mov    %eax,%edx
    4a4c:	8b 45 08             	mov    0x8(%ebp),%eax
    4a4f:	8b 80 8c 00 00 00    	mov    0x8c(%eax),%eax
    4a55:	89 54 24 08          	mov    %edx,0x8(%esp)
    4a59:	89 44 24 04          	mov    %eax,0x4(%esp)
    4a5d:	c7 04 24 01 00 00 00 	movl   $0x1,(%esp)
    4a64:	e8 fc ff ff ff       	call   4a65 <testRoundRobinQuantumRem+0x3c6>
    4a69:	c7 04 24 00 00 00 00 	movl   $0x0,(%esp)
    4a70:	e8 fc ff ff ff       	call   4a71 <testRoundRobinQuantumRem+0x3d2>
    4a75:	c9                   	leave  
    4a76:	c3                   	ret    

00004a77 <testRoundRobinSwithcNb>:
    4a77:	55                   	push   %ebp
    4a78:	89 e5                	mov    %esp,%ebp
    4a7a:	53                   	push   %ebx
    4a7b:	81 ec 64 01 00 00    	sub    $0x164,%esp
    4a81:	e8 fc ff ff ff       	call   4a82 <testRoundRobinSwithcNb+0xb>
    4a86:	85 c0                	test   %eax,%eax
    4a88:	75 6a                	jne    4af4 <testRoundRobinSwithcNb+0x7d>
    4a8a:	e8 fc ff ff ff       	call   4a8b <testRoundRobinSwithcNb+0x14>
    4a8f:	89 45 e4             	mov    %eax,-0x1c(%ebp)
    4a92:	83 7d e4 00          	cmpl   $0x0,-0x1c(%ebp)
    4a96:	7e 02                	jle    4a9a <testRoundRobinSwithcNb+0x23>
    4a98:	eb fe                	jmp    4a98 <testRoundRobinSwithcNb+0x21>
    4a9a:	83 7d e4 00          	cmpl   $0x0,-0x1c(%ebp)
    4a9e:	79 54                	jns    4af4 <testRoundRobinSwithcNb+0x7d>
    4aa0:	8b 45 08             	mov    0x8(%ebp),%eax
    4aa3:	c7 80 88 00 00 00 02 	movl   $0x2,0x88(%eax)
    4aaa:	00 00 00 
    4aad:	e8 fc ff ff ff       	call   4aae <testRoundRobinSwithcNb+0x37>
    4ab2:	8b 45 08             	mov    0x8(%ebp),%eax
    4ab5:	c7 80 8c 00 00 00 bc 	movl   $0x14bc,0x8c(%eax)
    4abc:	14 00 00 
    4abf:	8b 45 08             	mov    0x8(%ebp),%eax
    4ac2:	8b 80 8c 00 00 00    	mov    0x8c(%eax),%eax
    4ac8:	89 04 24             	mov    %eax,(%esp)
    4acb:	e8 fc ff ff ff       	call   4acc <testRoundRobinSwithcNb+0x55>
    4ad0:	89 c2                	mov    %eax,%edx
    4ad2:	8b 45 08             	mov    0x8(%ebp),%eax
    4ad5:	8b 80 8c 00 00 00    	mov    0x8c(%eax),%eax
    4adb:	89 54 24 08          	mov    %edx,0x8(%esp)
    4adf:	89 44 24 04          	mov    %eax,0x4(%esp)
    4ae3:	c7 04 24 01 00 00 00 	movl   $0x1,(%esp)
    4aea:	e8 fc ff ff ff       	call   4aeb <testRoundRobinSwithcNb+0x74>
    4aef:	e9 ad 04 00 00       	jmp    4fa1 <testRoundRobinSwithcNb+0x52a>
    4af4:	e8 fc ff ff ff       	call   4af5 <testRoundRobinSwithcNb+0x7e>
    4af9:	89 45 e8             	mov    %eax,-0x18(%ebp)
    4afc:	c7 44 24 04 00 00 00 	movl   $0x0,0x4(%esp)
    4b03:	00 
    4b04:	c7 04 24 00 00 00 00 	movl   $0x0,(%esp)
    4b0b:	e8 fc ff ff ff       	call   4b0c <testRoundRobinSwithcNb+0x95>
    4b10:	c7 44 24 04 00 00 00 	movl   $0x0,0x4(%esp)
    4b17:	00 
    4b18:	c7 04 24 01 00 00 00 	movl   $0x1,(%esp)
    4b1f:	e8 fc ff ff ff       	call   4b20 <testRoundRobinSwithcNb+0xa9>
    4b24:	e8 fc ff ff ff       	call   4b25 <testRoundRobinSwithcNb+0xae>
    4b29:	89 45 e4             	mov    %eax,-0x1c(%ebp)
    4b2c:	83 7d e4 00          	cmpl   $0x0,-0x1c(%ebp)
    4b30:	79 54                	jns    4b86 <testRoundRobinSwithcNb+0x10f>
    4b32:	8b 45 08             	mov    0x8(%ebp),%eax
    4b35:	c7 80 88 00 00 00 02 	movl   $0x2,0x88(%eax)
    4b3c:	00 00 00 
    4b3f:	e8 fc ff ff ff       	call   4b40 <testRoundRobinSwithcNb+0xc9>
    4b44:	8b 45 08             	mov    0x8(%ebp),%eax
    4b47:	c7 80 8c 00 00 00 bc 	movl   $0x14bc,0x8c(%eax)
    4b4e:	14 00 00 
    4b51:	8b 45 08             	mov    0x8(%ebp),%eax
    4b54:	8b 80 8c 00 00 00    	mov    0x8c(%eax),%eax
    4b5a:	89 04 24             	mov    %eax,(%esp)
    4b5d:	e8 fc ff ff ff       	call   4b5e <testRoundRobinSwithcNb+0xe7>
    4b62:	89 c2                	mov    %eax,%edx
    4b64:	8b 45 08             	mov    0x8(%ebp),%eax
    4b67:	8b 80 8c 00 00 00    	mov    0x8c(%eax),%eax
    4b6d:	89 54 24 08          	mov    %edx,0x8(%esp)
    4b71:	89 44 24 04          	mov    %eax,0x4(%esp)
    4b75:	c7 04 24 01 00 00 00 	movl   $0x1,(%esp)
    4b7c:	e8 fc ff ff ff       	call   4b7d <testRoundRobinSwithcNb+0x106>
    4b81:	e9 1b 04 00 00       	jmp    4fa1 <testRoundRobinSwithcNb+0x52a>
    4b86:	83 7d e4 00          	cmpl   $0x0,-0x1c(%ebp)
    4b8a:	75 78                	jne    4c04 <testRoundRobinSwithcNb+0x18d>
    4b8c:	c7 04 24 01 00 00 00 	movl   $0x1,(%esp)
    4b93:	e8 fc ff ff ff       	call   4b94 <testRoundRobinSwithcNb+0x11d>
    4b98:	c7 04 24 00 00 00 00 	movl   $0x0,(%esp)
    4b9f:	e8 fc ff ff ff       	call   4ba0 <testRoundRobinSwithcNb+0x129>
    4ba4:	c7 45 f4 00 00 00 00 	movl   $0x0,-0xc(%ebp)
    4bab:	eb 0b                	jmp    4bb8 <testRoundRobinSwithcNb+0x141>
    4bad:	e8 43 c0 ff ff       	call   bf5 <delay>
    4bb2:	8d 45 f4             	lea    -0xc(%ebp),%eax
    4bb5:	83 00 01             	addl   $0x1,(%eax)
    4bb8:	83 7d f4 05          	cmpl   $0x5,-0xc(%ebp)
    4bbc:	7e ef                	jle    4bad <testRoundRobinSwithcNb+0x136>
    4bbe:	c7 04 24 01 00 00 00 	movl   $0x1,(%esp)
    4bc5:	e8 fc ff ff ff       	call   4bc6 <testRoundRobinSwithcNb+0x14f>
    4bca:	c7 04 24 00 00 00 00 	movl   $0x0,(%esp)
    4bd1:	e8 fc ff ff ff       	call   4bd2 <testRoundRobinSwithcNb+0x15b>
    4bd6:	e8 fc ff ff ff       	call   4bd7 <testRoundRobinSwithcNb+0x160>
    4bdb:	c7 04 24 24 0e 00 00 	movl   $0xe24,(%esp)
    4be2:	e8 fc ff ff ff       	call   4be3 <testRoundRobinSwithcNb+0x16c>
    4be7:	89 44 24 08          	mov    %eax,0x8(%esp)
    4beb:	c7 44 24 04 24 0e 00 	movl   $0xe24,0x4(%esp)
    4bf2:	00 
    4bf3:	c7 04 24 01 00 00 00 	movl   $0x1,(%esp)
    4bfa:	e8 fc ff ff ff       	call   4bfb <testRoundRobinSwithcNb+0x184>
    4bff:	e9 9d 03 00 00       	jmp    4fa1 <testRoundRobinSwithcNb+0x52a>
    4c04:	c7 04 24 01 00 00 00 	movl   $0x1,(%esp)
    4c0b:	e8 fc ff ff ff       	call   4c0c <testRoundRobinSwithcNb+0x195>
    4c10:	8d 45 d8             	lea    -0x28(%ebp),%eax
    4c13:	89 44 24 04          	mov    %eax,0x4(%esp)
    4c17:	8b 45 e4             	mov    -0x1c(%ebp),%eax
    4c1a:	89 04 24             	mov    %eax,(%esp)
    4c1d:	e8 fc ff ff ff       	call   4c1e <testRoundRobinSwithcNb+0x1a7>
    4c22:	89 45 f8             	mov    %eax,-0x8(%ebp)
    4c25:	83 7d f8 00          	cmpl   $0x0,-0x8(%ebp)
    4c29:	0f 89 84 00 00 00    	jns    4cb3 <testRoundRobinSwithcNb+0x23c>
    4c2f:	8b 45 08             	mov    0x8(%ebp),%eax
    4c32:	c7 80 88 00 00 00 02 	movl   $0x2,0x88(%eax)
    4c39:	00 00 00 
    4c3c:	e8 fc ff ff ff       	call   4c3d <testRoundRobinSwithcNb+0x1c6>
    4c41:	8b 45 08             	mov    0x8(%ebp),%eax
    4c44:	c7 80 8c 00 00 00 74 	movl   $0x1a74,0x8c(%eax)
    4c4b:	1a 00 00 
    4c4e:	8b 45 08             	mov    0x8(%ebp),%eax
    4c51:	8b 80 8c 00 00 00    	mov    0x8c(%eax),%eax
    4c57:	89 04 24             	mov    %eax,(%esp)
    4c5a:	e8 fc ff ff ff       	call   4c5b <testRoundRobinSwithcNb+0x1e4>
    4c5f:	89 c2                	mov    %eax,%edx
    4c61:	8b 45 08             	mov    0x8(%ebp),%eax
    4c64:	8b 80 8c 00 00 00    	mov    0x8c(%eax),%eax
    4c6a:	89 54 24 08          	mov    %edx,0x8(%esp)
    4c6e:	89 44 24 04          	mov    %eax,0x4(%esp)
    4c72:	c7 04 24 01 00 00 00 	movl   $0x1,(%esp)
    4c79:	e8 fc ff ff ff       	call   4c7a <testRoundRobinSwithcNb+0x203>
    4c7e:	c7 04 24 00 00 00 00 	movl   $0x0,(%esp)
    4c85:	e8 fc ff ff ff       	call   4c86 <testRoundRobinSwithcNb+0x20f>
    4c8a:	c7 04 24 00 00 00 00 	movl   $0x0,(%esp)
    4c91:	e8 fc ff ff ff       	call   4c92 <testRoundRobinSwithcNb+0x21b>
    4c96:	c7 04 24 00 00 00 00 	movl   $0x0,(%esp)
    4c9d:	e8 fc ff ff ff       	call   4c9e <testRoundRobinSwithcNb+0x227>
    4ca2:	c7 04 24 01 00 00 00 	movl   $0x1,(%esp)
    4ca9:	e8 fc ff ff ff       	call   4caa <testRoundRobinSwithcNb+0x233>
    4cae:	e9 ee 02 00 00       	jmp    4fa1 <testRoundRobinSwithcNb+0x52a>
    4cb3:	8d 45 cc             	lea    -0x34(%ebp),%eax
    4cb6:	89 44 24 04          	mov    %eax,0x4(%esp)
    4cba:	8b 45 e8             	mov    -0x18(%ebp),%eax
    4cbd:	89 04 24             	mov    %eax,(%esp)
    4cc0:	e8 fc ff ff ff       	call   4cc1 <testRoundRobinSwithcNb+0x24a>
    4cc5:	89 45 f8             	mov    %eax,-0x8(%ebp)
    4cc8:	83 7d f8 00          	cmpl   $0x0,-0x8(%ebp)
    4ccc:	0f 89 84 00 00 00    	jns    4d56 <testRoundRobinSwithcNb+0x2df>
    4cd2:	8b 45 08             	mov    0x8(%ebp),%eax
    4cd5:	c7 80 88 00 00 00 02 	movl   $0x2,0x88(%eax)
    4cdc:	00 00 00 
    4cdf:	e8 fc ff ff ff       	call   4ce0 <testRoundRobinSwithcNb+0x269>
    4ce4:	8b 45 08             	mov    0x8(%ebp),%eax
    4ce7:	c7 80 8c 00 00 00 98 	movl   $0x1a98,0x8c(%eax)
    4cee:	1a 00 00 
    4cf1:	8b 45 08             	mov    0x8(%ebp),%eax
    4cf4:	8b 80 8c 00 00 00    	mov    0x8c(%eax),%eax
    4cfa:	89 04 24             	mov    %eax,(%esp)
    4cfd:	e8 fc ff ff ff       	call   4cfe <testRoundRobinSwithcNb+0x287>
    4d02:	89 c2                	mov    %eax,%edx
    4d04:	8b 45 08             	mov    0x8(%ebp),%eax
    4d07:	8b 80 8c 00 00 00    	mov    0x8c(%eax),%eax
    4d0d:	89 54 24 08          	mov    %edx,0x8(%esp)
    4d11:	89 44 24 04          	mov    %eax,0x4(%esp)
    4d15:	c7 04 24 01 00 00 00 	movl   $0x1,(%esp)
    4d1c:	e8 fc ff ff ff       	call   4d1d <testRoundRobinSwithcNb+0x2a6>
    4d21:	c7 04 24 00 00 00 00 	movl   $0x0,(%esp)
    4d28:	e8 fc ff ff ff       	call   4d29 <testRoundRobinSwithcNb+0x2b2>
    4d2d:	c7 04 24 00 00 00 00 	movl   $0x0,(%esp)
    4d34:	e8 fc ff ff ff       	call   4d35 <testRoundRobinSwithcNb+0x2be>
    4d39:	c7 04 24 00 00 00 00 	movl   $0x0,(%esp)
    4d40:	e8 fc ff ff ff       	call   4d41 <testRoundRobinSwithcNb+0x2ca>
    4d45:	c7 04 24 01 00 00 00 	movl   $0x1,(%esp)
    4d4c:	e8 fc ff ff ff       	call   4d4d <testRoundRobinSwithcNb+0x2d6>
    4d51:	e9 4b 02 00 00       	jmp    4fa1 <testRoundRobinSwithcNb+0x52a>
    4d56:	c7 04 24 00 00 00 00 	movl   $0x0,(%esp)
    4d5d:	e8 fc ff ff ff       	call   4d5e <testRoundRobinSwithcNb+0x2e7>
    4d62:	c7 45 f4 00 00 00 00 	movl   $0x0,-0xc(%ebp)
    4d69:	eb 0b                	jmp    4d76 <testRoundRobinSwithcNb+0x2ff>
    4d6b:	e8 85 be ff ff       	call   bf5 <delay>
    4d70:	8d 45 f4             	lea    -0xc(%ebp),%eax
    4d73:	83 00 01             	addl   $0x1,(%eax)
    4d76:	83 7d f4 05          	cmpl   $0x5,-0xc(%ebp)
    4d7a:	7e ef                	jle    4d6b <testRoundRobinSwithcNb+0x2f4>
    4d7c:	8d 45 b4             	lea    -0x4c(%ebp),%eax
    4d7f:	89 44 24 04          	mov    %eax,0x4(%esp)
    4d83:	8b 45 e8             	mov    -0x18(%ebp),%eax
    4d86:	89 04 24             	mov    %eax,(%esp)
    4d89:	e8 fc ff ff ff       	call   4d8a <testRoundRobinSwithcNb+0x313>
    4d8e:	89 45 f8             	mov    %eax,-0x8(%ebp)
    4d91:	83 7d f8 00          	cmpl   $0x0,-0x8(%ebp)
    4d95:	79 78                	jns    4e0f <testRoundRobinSwithcNb+0x398>
    4d97:	8b 45 08             	mov    0x8(%ebp),%eax
    4d9a:	c7 80 88 00 00 00 02 	movl   $0x2,0x88(%eax)
    4da1:	00 00 00 
    4da4:	e8 fc ff ff ff       	call   4da5 <testRoundRobinSwithcNb+0x32e>
    4da9:	8b 45 08             	mov    0x8(%ebp),%eax
    4dac:	c7 80 8c 00 00 00 98 	movl   $0x1a98,0x8c(%eax)
    4db3:	1a 00 00 
    4db6:	8b 45 08             	mov    0x8(%ebp),%eax
    4db9:	8b 80 8c 00 00 00    	mov    0x8c(%eax),%eax
    4dbf:	89 04 24             	mov    %eax,(%esp)
    4dc2:	e8 fc ff ff ff       	call   4dc3 <testRoundRobinSwithcNb+0x34c>
    4dc7:	89 c2                	mov    %eax,%edx
    4dc9:	8b 45 08             	mov    0x8(%ebp),%eax
    4dcc:	8b 80 8c 00 00 00    	mov    0x8c(%eax),%eax
    4dd2:	89 54 24 08          	mov    %edx,0x8(%esp)
    4dd6:	89 44 24 04          	mov    %eax,0x4(%esp)
    4dda:	c7 04 24 01 00 00 00 	movl   $0x1,(%esp)
    4de1:	e8 fc ff ff ff       	call   4de2 <testRoundRobinSwithcNb+0x36b>
    4de6:	c7 04 24 00 00 00 00 	movl   $0x0,(%esp)
    4ded:	e8 fc ff ff ff       	call   4dee <testRoundRobinSwithcNb+0x377>
    4df2:	c7 04 24 00 00 00 00 	movl   $0x0,(%esp)
    4df9:	e8 fc ff ff ff       	call   4dfa <testRoundRobinSwithcNb+0x383>
    4dfe:	c7 04 24 01 00 00 00 	movl   $0x1,(%esp)
    4e05:	e8 fc ff ff ff       	call   4e06 <testRoundRobinSwithcNb+0x38f>
    4e0a:	e9 92 01 00 00       	jmp    4fa1 <testRoundRobinSwithcNb+0x52a>
    4e0f:	c7 04 24 01 00 00 00 	movl   $0x1,(%esp)
    4e16:	e8 fc ff ff ff       	call   4e17 <testRoundRobinSwithcNb+0x3a0>
    4e1b:	8d 45 c0             	lea    -0x40(%ebp),%eax
    4e1e:	89 44 24 04          	mov    %eax,0x4(%esp)
    4e22:	8b 45 e4             	mov    -0x1c(%ebp),%eax
    4e25:	89 04 24             	mov    %eax,(%esp)
    4e28:	e8 fc ff ff ff       	call   4e29 <testRoundRobinSwithcNb+0x3b2>
    4e2d:	89 45 f8             	mov    %eax,-0x8(%ebp)
    4e30:	83 7d f8 00          	cmpl   $0x0,-0x8(%ebp)
    4e34:	79 78                	jns    4eae <testRoundRobinSwithcNb+0x437>
    4e36:	8b 45 08             	mov    0x8(%ebp),%eax
    4e39:	c7 80 88 00 00 00 02 	movl   $0x2,0x88(%eax)
    4e40:	00 00 00 
    4e43:	e8 fc ff ff ff       	call   4e44 <testRoundRobinSwithcNb+0x3cd>
    4e48:	8b 45 08             	mov    0x8(%ebp),%eax
    4e4b:	c7 80 8c 00 00 00 74 	movl   $0x1a74,0x8c(%eax)
    4e52:	1a 00 00 
    4e55:	8b 45 08             	mov    0x8(%ebp),%eax
    4e58:	8b 80 8c 00 00 00    	mov    0x8c(%eax),%eax
    4e5e:	89 04 24             	mov    %eax,(%esp)
    4e61:	e8 fc ff ff ff       	call   4e62 <testRoundRobinSwithcNb+0x3eb>
    4e66:	89 c2                	mov    %eax,%edx
    4e68:	8b 45 08             	mov    0x8(%ebp),%eax
    4e6b:	8b 80 8c 00 00 00    	mov    0x8c(%eax),%eax
    4e71:	89 54 24 08          	mov    %edx,0x8(%esp)
    4e75:	89 44 24 04          	mov    %eax,0x4(%esp)
    4e79:	c7 04 24 01 00 00 00 	movl   $0x1,(%esp)
    4e80:	e8 fc ff ff ff       	call   4e81 <testRoundRobinSwithcNb+0x40a>
    4e85:	c7 04 24 00 00 00 00 	movl   $0x0,(%esp)
    4e8c:	e8 fc ff ff ff       	call   4e8d <testRoundRobinSwithcNb+0x416>
    4e91:	c7 04 24 00 00 00 00 	movl   $0x0,(%esp)
    4e98:	e8 fc ff ff ff       	call   4e99 <testRoundRobinSwithcNb+0x422>
    4e9d:	c7 04 24 01 00 00 00 	movl   $0x1,(%esp)
    4ea4:	e8 fc ff ff ff       	call   4ea5 <testRoundRobinSwithcNb+0x42e>
    4ea9:	e9 f3 00 00 00       	jmp    4fa1 <testRoundRobinSwithcNb+0x52a>
    4eae:	c7 04 24 00 00 00 00 	movl   $0x0,(%esp)
    4eb5:	e8 fc ff ff ff       	call   4eb6 <testRoundRobinSwithcNb+0x43f>
    4eba:	c7 04 24 00 00 00 00 	movl   $0x0,(%esp)
    4ec1:	e8 fc ff ff ff       	call   4ec2 <testRoundRobinSwithcNb+0x44b>
    4ec6:	c7 04 24 01 00 00 00 	movl   $0x1,(%esp)
    4ecd:	e8 fc ff ff ff       	call   4ece <testRoundRobinSwithcNb+0x457>
    4ed2:	8b 45 b4             	mov    -0x4c(%ebp),%eax
    4ed5:	89 04 24             	mov    %eax,(%esp)
    4ed8:	8b 45 b8             	mov    -0x48(%ebp),%eax
    4edb:	89 44 24 04          	mov    %eax,0x4(%esp)
    4edf:	8b 45 bc             	mov    -0x44(%ebp),%eax
    4ee2:	89 44 24 08          	mov    %eax,0x8(%esp)
    4ee6:	e8 fc ff ff ff       	call   4ee7 <testRoundRobinSwithcNb+0x470>
    4eeb:	89 c3                	mov    %eax,%ebx
    4eed:	8b 45 cc             	mov    -0x34(%ebp),%eax
    4ef0:	89 04 24             	mov    %eax,(%esp)
    4ef3:	8b 45 d0             	mov    -0x30(%ebp),%eax
    4ef6:	89 44 24 04          	mov    %eax,0x4(%esp)
    4efa:	8b 45 d4             	mov    -0x2c(%ebp),%eax
    4efd:	89 44 24 08          	mov    %eax,0x8(%esp)
    4f01:	e8 fc ff ff ff       	call   4f02 <testRoundRobinSwithcNb+0x48b>
    4f06:	89 da                	mov    %ebx,%edx
    4f08:	29 c2                	sub    %eax,%edx
    4f0a:	89 d0                	mov    %edx,%eax
    4f0c:	89 45 ec             	mov    %eax,-0x14(%ebp)
    4f0f:	8b 45 c0             	mov    -0x40(%ebp),%eax
    4f12:	89 04 24             	mov    %eax,(%esp)
    4f15:	8b 45 c4             	mov    -0x3c(%ebp),%eax
    4f18:	89 44 24 04          	mov    %eax,0x4(%esp)
    4f1c:	8b 45 c8             	mov    -0x38(%ebp),%eax
    4f1f:	89 44 24 08          	mov    %eax,0x8(%esp)
    4f23:	e8 fc ff ff ff       	call   4f24 <testRoundRobinSwithcNb+0x4ad>
    4f28:	89 c3                	mov    %eax,%ebx
    4f2a:	8b 45 d8             	mov    -0x28(%ebp),%eax
    4f2d:	89 04 24             	mov    %eax,(%esp)
    4f30:	8b 45 dc             	mov    -0x24(%ebp),%eax
    4f33:	89 44 24 04          	mov    %eax,0x4(%esp)
    4f37:	8b 45 e0             	mov    -0x20(%ebp),%eax
    4f3a:	89 44 24 08          	mov    %eax,0x8(%esp)
    4f3e:	e8 fc ff ff ff       	call   4f3f <testRoundRobinSwithcNb+0x4c8>
    4f43:	89 da                	mov    %ebx,%edx
    4f45:	29 c2                	sub    %eax,%edx
    4f47:	89 d0                	mov    %edx,%eax
    4f49:	89 45 f0             	mov    %eax,-0x10(%ebp)
    4f4c:	8b 45 f0             	mov    -0x10(%ebp),%eax
    4f4f:	83 e8 01             	sub    $0x1,%eax
    4f52:	3b 45 ec             	cmp    -0x14(%ebp),%eax
    4f55:	74 4a                	je     4fa1 <testRoundRobinSwithcNb+0x52a>
    4f57:	8b 45 08             	mov    0x8(%ebp),%eax
    4f5a:	c7 80 88 00 00 00 02 	movl   $0x2,0x88(%eax)
    4f61:	00 00 00 
    4f64:	8b 45 08             	mov    0x8(%ebp),%eax
    4f67:	c7 80 8c 00 00 00 c4 	movl   $0x1ac4,0x8c(%eax)
    4f6e:	1a 00 00 
    4f71:	8b 45 08             	mov    0x8(%ebp),%eax
    4f74:	8b 80 8c 00 00 00    	mov    0x8c(%eax),%eax
    4f7a:	89 04 24             	mov    %eax,(%esp)
    4f7d:	e8 fc ff ff ff       	call   4f7e <testRoundRobinSwithcNb+0x507>
    4f82:	89 c2                	mov    %eax,%edx
    4f84:	8b 45 08             	mov    0x8(%ebp),%eax
    4f87:	8b 80 8c 00 00 00    	mov    0x8c(%eax),%eax
    4f8d:	89 54 24 08          	mov    %edx,0x8(%esp)
    4f91:	89 44 24 04          	mov    %eax,0x4(%esp)
    4f95:	c7 04 24 01 00 00 00 	movl   $0x1,(%esp)
    4f9c:	e8 fc ff ff ff       	call   4f9d <testRoundRobinSwithcNb+0x526>
    4fa1:	81 c4 64 01 00 00    	add    $0x164,%esp
    4fa7:	5b                   	pop    %ebx
    4fa8:	5d                   	pop    %ebp
    4fa9:	c3                   	ret    

00004faa <testNiceFunctionality>:
    4faa:	55                   	push   %ebp
    4fab:	89 e5                	mov    %esp,%ebp
    4fad:	53                   	push   %ebx
    4fae:	81 ec 74 01 00 00    	sub    $0x174,%esp
    4fb4:	c7 45 f0 0a 00 00 00 	movl   $0xa,-0x10(%ebp)
    4fbb:	e8 fc ff ff ff       	call   4fbc <testNiceFunctionality+0x12>
    4fc0:	85 c0                	test   %eax,%eax
    4fc2:	75 6a                	jne    502e <testNiceFunctionality+0x84>
    4fc4:	e8 fc ff ff ff       	call   4fc5 <testNiceFunctionality+0x1b>
    4fc9:	89 45 d8             	mov    %eax,-0x28(%ebp)
    4fcc:	83 7d d8 00          	cmpl   $0x0,-0x28(%ebp)
    4fd0:	7e 02                	jle    4fd4 <testNiceFunctionality+0x2a>
    4fd2:	eb fe                	jmp    4fd2 <testNiceFunctionality+0x28>
    4fd4:	83 7d d8 00          	cmpl   $0x0,-0x28(%ebp)
    4fd8:	79 54                	jns    502e <testNiceFunctionality+0x84>
    4fda:	8b 45 08             	mov    0x8(%ebp),%eax
    4fdd:	c7 80 88 00 00 00 02 	movl   $0x2,0x88(%eax)
    4fe4:	00 00 00 
    4fe7:	e8 fc ff ff ff       	call   4fe8 <testNiceFunctionality+0x3e>
    4fec:	8b 45 08             	mov    0x8(%ebp),%eax
    4fef:	c7 80 8c 00 00 00 bc 	movl   $0x14bc,0x8c(%eax)
    4ff6:	14 00 00 
    4ff9:	8b 45 08             	mov    0x8(%ebp),%eax
    4ffc:	8b 80 8c 00 00 00    	mov    0x8c(%eax),%eax
    5002:	89 04 24             	mov    %eax,(%esp)
    5005:	e8 fc ff ff ff       	call   5006 <testNiceFunctionality+0x5c>
    500a:	89 c2                	mov    %eax,%edx
    500c:	8b 45 08             	mov    0x8(%ebp),%eax
    500f:	8b 80 8c 00 00 00    	mov    0x8c(%eax),%eax
    5015:	89 54 24 08          	mov    %edx,0x8(%esp)
    5019:	89 44 24 04          	mov    %eax,0x4(%esp)
    501d:	c7 04 24 01 00 00 00 	movl   $0x1,(%esp)
    5024:	e8 fc ff ff ff       	call   5025 <testNiceFunctionality+0x7b>
    5029:	e9 2f 05 00 00       	jmp    555d <testNiceFunctionality+0x5b3>
    502e:	8b 45 f0             	mov    -0x10(%ebp),%eax
    5031:	89 04 24             	mov    %eax,(%esp)
    5034:	e8 fc ff ff ff       	call   5035 <testNiceFunctionality+0x8b>
    5039:	89 45 e8             	mov    %eax,-0x18(%ebp)
    503c:	8b 55 f0             	mov    -0x10(%ebp),%edx
    503f:	89 d0                	mov    %edx,%eax
    5041:	c1 e8 1f             	shr    $0x1f,%eax
    5044:	01 d0                	add    %edx,%eax
    5046:	d1 f8                	sar    %eax
    5048:	89 45 ec             	mov    %eax,-0x14(%ebp)
    504b:	e8 fc ff ff ff       	call   504c <testNiceFunctionality+0xa2>
    5050:	89 45 dc             	mov    %eax,-0x24(%ebp)
    5053:	c7 44 24 04 00 00 00 	movl   $0x0,0x4(%esp)
    505a:	00 
    505b:	c7 04 24 00 00 00 00 	movl   $0x0,(%esp)
    5062:	e8 fc ff ff ff       	call   5063 <testNiceFunctionality+0xb9>
    5067:	c7 44 24 04 00 00 00 	movl   $0x0,0x4(%esp)
    506e:	00 
    506f:	c7 04 24 01 00 00 00 	movl   $0x1,(%esp)
    5076:	e8 fc ff ff ff       	call   5077 <testNiceFunctionality+0xcd>
    507b:	e8 fc ff ff ff       	call   507c <testNiceFunctionality+0xd2>
    5080:	89 45 d8             	mov    %eax,-0x28(%ebp)
    5083:	83 7d d8 00          	cmpl   $0x0,-0x28(%ebp)
    5087:	79 5f                	jns    50e8 <testNiceFunctionality+0x13e>
    5089:	8b 45 08             	mov    0x8(%ebp),%eax
    508c:	c7 80 88 00 00 00 02 	movl   $0x2,0x88(%eax)
    5093:	00 00 00 
    5096:	e8 fc ff ff ff       	call   5097 <testNiceFunctionality+0xed>
    509b:	8b 45 08             	mov    0x8(%ebp),%eax
    509e:	c7 80 8c 00 00 00 bc 	movl   $0x14bc,0x8c(%eax)
    50a5:	14 00 00 
    50a8:	8b 45 08             	mov    0x8(%ebp),%eax
    50ab:	8b 80 8c 00 00 00    	mov    0x8c(%eax),%eax
    50b1:	89 04 24             	mov    %eax,(%esp)
    50b4:	e8 fc ff ff ff       	call   50b5 <testNiceFunctionality+0x10b>
    50b9:	89 c2                	mov    %eax,%edx
    50bb:	8b 45 08             	mov    0x8(%ebp),%eax
    50be:	8b 80 8c 00 00 00    	mov    0x8c(%eax),%eax
    50c4:	89 54 24 08          	mov    %edx,0x8(%esp)
    50c8:	89 44 24 04          	mov    %eax,0x4(%esp)
    50cc:	c7 04 24 01 00 00 00 	movl   $0x1,(%esp)
    50d3:	e8 fc ff ff ff       	call   50d4 <testNiceFunctionality+0x12a>
    50d8:	8b 45 e8             	mov    -0x18(%ebp),%eax
    50db:	89 04 24             	mov    %eax,(%esp)
    50de:	e8 fc ff ff ff       	call   50df <testNiceFunctionality+0x135>
    50e3:	e9 75 04 00 00       	jmp    555d <testNiceFunctionality+0x5b3>
    50e8:	83 7d d8 00          	cmpl   $0x0,-0x28(%ebp)
    50ec:	0f 85 89 00 00 00    	jne    517b <testNiceFunctionality+0x1d1>
    50f2:	8b 45 ec             	mov    -0x14(%ebp),%eax
    50f5:	89 04 24             	mov    %eax,(%esp)
    50f8:	e8 fc ff ff ff       	call   50f9 <testNiceFunctionality+0x14f>
    50fd:	c7 04 24 01 00 00 00 	movl   $0x1,(%esp)
    5104:	e8 fc ff ff ff       	call   5105 <testNiceFunctionality+0x15b>
    5109:	c7 04 24 00 00 00 00 	movl   $0x0,(%esp)
    5110:	e8 fc ff ff ff       	call   5111 <testNiceFunctionality+0x167>
    5115:	c7 45 f4 00 00 00 00 	movl   $0x0,-0xc(%ebp)
    511c:	eb 11                	jmp    512f <testNiceFunctionality+0x185>
    511e:	8b 45 e8             	mov    -0x18(%ebp),%eax
    5121:	89 04 24             	mov    %eax,(%esp)
    5124:	e8 3d 04 00 00       	call   5566 <qtdelay>
    5129:	8d 45 f4             	lea    -0xc(%ebp),%eax
    512c:	83 00 01             	addl   $0x1,(%eax)
    512f:	83 7d f4 05          	cmpl   $0x5,-0xc(%ebp)
    5133:	7e e9                	jle    511e <testNiceFunctionality+0x174>
    5135:	c7 04 24 01 00 00 00 	movl   $0x1,(%esp)
    513c:	e8 fc ff ff ff       	call   513d <testNiceFunctionality+0x193>
    5141:	c7 04 24 00 00 00 00 	movl   $0x0,(%esp)
    5148:	e8 fc ff ff ff       	call   5149 <testNiceFunctionality+0x19f>
    514d:	e8 fc ff ff ff       	call   514e <testNiceFunctionality+0x1a4>
    5152:	c7 04 24 24 0e 00 00 	movl   $0xe24,(%esp)
    5159:	e8 fc ff ff ff       	call   515a <testNiceFunctionality+0x1b0>
    515e:	89 44 24 08          	mov    %eax,0x8(%esp)
    5162:	c7 44 24 04 24 0e 00 	movl   $0xe24,0x4(%esp)
    5169:	00 
    516a:	c7 04 24 01 00 00 00 	movl   $0x1,(%esp)
    5171:	e8 fc ff ff ff       	call   5172 <testNiceFunctionality+0x1c8>
    5176:	e9 e2 03 00 00       	jmp    555d <testNiceFunctionality+0x5b3>
    517b:	c7 04 24 01 00 00 00 	movl   $0x1,(%esp)
    5182:	e8 fc ff ff ff       	call   5183 <testNiceFunctionality+0x1d9>
    5187:	8d 45 cc             	lea    -0x34(%ebp),%eax
    518a:	89 44 24 04          	mov    %eax,0x4(%esp)
    518e:	8b 45 d8             	mov    -0x28(%ebp),%eax
    5191:	89 04 24             	mov    %eax,(%esp)
    5194:	e8 fc ff ff ff       	call   5195 <testNiceFunctionality+0x1eb>
    5199:	89 45 f8             	mov    %eax,-0x8(%ebp)
    519c:	83 7d f8 00          	cmpl   $0x0,-0x8(%ebp)
    51a0:	0f 89 8f 00 00 00    	jns    5235 <testNiceFunctionality+0x28b>
    51a6:	8b 45 08             	mov    0x8(%ebp),%eax
    51a9:	c7 80 88 00 00 00 02 	movl   $0x2,0x88(%eax)
    51b0:	00 00 00 
    51b3:	e8 fc ff ff ff       	call   51b4 <testNiceFunctionality+0x20a>
    51b8:	8b 45 08             	mov    0x8(%ebp),%eax
    51bb:	c7 80 8c 00 00 00 74 	movl   $0x1a74,0x8c(%eax)
    51c2:	1a 00 00 
    51c5:	8b 45 08             	mov    0x8(%ebp),%eax
    51c8:	8b 80 8c 00 00 00    	mov    0x8c(%eax),%eax
    51ce:	89 04 24             	mov    %eax,(%esp)
    51d1:	e8 fc ff ff ff       	call   51d2 <testNiceFunctionality+0x228>
    51d6:	89 c2                	mov    %eax,%edx
    51d8:	8b 45 08             	mov    0x8(%ebp),%eax
    51db:	8b 80 8c 00 00 00    	mov    0x8c(%eax),%eax
    51e1:	89 54 24 08          	mov    %edx,0x8(%esp)
    51e5:	89 44 24 04          	mov    %eax,0x4(%esp)
    51e9:	c7 04 24 01 00 00 00 	movl   $0x1,(%esp)
    51f0:	e8 fc ff ff ff       	call   51f1 <testNiceFunctionality+0x247>
    51f5:	c7 04 24 00 00 00 00 	movl   $0x0,(%esp)
    51fc:	e8 fc ff ff ff       	call   51fd <testNiceFunctionality+0x253>
    5201:	c7 04 24 00 00 00 00 	movl   $0x0,(%esp)
    5208:	e8 fc ff ff ff       	call   5209 <testNiceFunctionality+0x25f>
    520d:	c7 04 24 00 00 00 00 	movl   $0x0,(%esp)
    5214:	e8 fc ff ff ff       	call   5215 <testNiceFunctionality+0x26b>
    5219:	c7 04 24 01 00 00 00 	movl   $0x1,(%esp)
    5220:	e8 fc ff ff ff       	call   5221 <testNiceFunctionality+0x277>
    5225:	8b 45 e8             	mov    -0x18(%ebp),%eax
    5228:	89 04 24             	mov    %eax,(%esp)
    522b:	e8 fc ff ff ff       	call   522c <testNiceFunctionality+0x282>
    5230:	e9 28 03 00 00       	jmp    555d <testNiceFunctionality+0x5b3>
    5235:	8d 45 c0             	lea    -0x40(%ebp),%eax
    5238:	89 44 24 04          	mov    %eax,0x4(%esp)
    523c:	8b 45 dc             	mov    -0x24(%ebp),%eax
    523f:	89 04 24             	mov    %eax,(%esp)
    5242:	e8 fc ff ff ff       	call   5243 <testNiceFunctionality+0x299>
    5247:	89 45 f8             	mov    %eax,-0x8(%ebp)
    524a:	83 7d f8 00          	cmpl   $0x0,-0x8(%ebp)
    524e:	0f 89 8f 00 00 00    	jns    52e3 <testNiceFunctionality+0x339>
    5254:	8b 45 08             	mov    0x8(%ebp),%eax
    5257:	c7 80 88 00 00 00 02 	movl   $0x2,0x88(%eax)
    525e:	00 00 00 
    5261:	e8 fc ff ff ff       	call   5262 <testNiceFunctionality+0x2b8>
    5266:	8b 45 08             	mov    0x8(%ebp),%eax
    5269:	c7 80 8c 00 00 00 98 	movl   $0x1a98,0x8c(%eax)
    5270:	1a 00 00 
    5273:	8b 45 08             	mov    0x8(%ebp),%eax
    5276:	8b 80 8c 00 00 00    	mov    0x8c(%eax),%eax
    527c:	89 04 24             	mov    %eax,(%esp)
    527f:	e8 fc ff ff ff       	call   5280 <testNiceFunctionality+0x2d6>
    5284:	89 c2                	mov    %eax,%edx
    5286:	8b 45 08             	mov    0x8(%ebp),%eax
    5289:	8b 80 8c 00 00 00    	mov    0x8c(%eax),%eax
    528f:	89 54 24 08          	mov    %edx,0x8(%esp)
    5293:	89 44 24 04          	mov    %eax,0x4(%esp)
    5297:	c7 04 24 01 00 00 00 	movl   $0x1,(%esp)
    529e:	e8 fc ff ff ff       	call   529f <testNiceFunctionality+0x2f5>
    52a3:	c7 04 24 00 00 00 00 	movl   $0x0,(%esp)
    52aa:	e8 fc ff ff ff       	call   52ab <testNiceFunctionality+0x301>
    52af:	c7 04 24 00 00 00 00 	movl   $0x0,(%esp)
    52b6:	e8 fc ff ff ff       	call   52b7 <testNiceFunctionality+0x30d>
    52bb:	c7 04 24 00 00 00 00 	movl   $0x0,(%esp)
    52c2:	e8 fc ff ff ff       	call   52c3 <testNiceFunctionality+0x319>
    52c7:	c7 04 24 01 00 00 00 	movl   $0x1,(%esp)
    52ce:	e8 fc ff ff ff       	call   52cf <testNiceFunctionality+0x325>
    52d3:	8b 45 e8             	mov    -0x18(%ebp),%eax
    52d6:	89 04 24             	mov    %eax,(%esp)
    52d9:	e8 fc ff ff ff       	call   52da <testNiceFunctionality+0x330>
    52de:	e9 7a 02 00 00       	jmp    555d <testNiceFunctionality+0x5b3>
    52e3:	c7 04 24 00 00 00 00 	movl   $0x0,(%esp)
    52ea:	e8 fc ff ff ff       	call   52eb <testNiceFunctionality+0x341>
    52ef:	c7 45 f4 00 00 00 00 	movl   $0x0,-0xc(%ebp)
    52f6:	eb 11                	jmp    5309 <testNiceFunctionality+0x35f>
    52f8:	8b 45 e8             	mov    -0x18(%ebp),%eax
    52fb:	89 04 24             	mov    %eax,(%esp)
    52fe:	e8 63 02 00 00       	call   5566 <qtdelay>
    5303:	8d 45 f4             	lea    -0xc(%ebp),%eax
    5306:	83 00 01             	addl   $0x1,(%eax)
    5309:	83 7d f4 05          	cmpl   $0x5,-0xc(%ebp)
    530d:	7e e9                	jle    52f8 <testNiceFunctionality+0x34e>
    530f:	8d 45 a8             	lea    -0x58(%ebp),%eax
    5312:	89 44 24 04          	mov    %eax,0x4(%esp)
    5316:	8b 45 dc             	mov    -0x24(%ebp),%eax
    5319:	89 04 24             	mov    %eax,(%esp)
    531c:	e8 fc ff ff ff       	call   531d <testNiceFunctionality+0x373>
    5321:	89 45 f8             	mov    %eax,-0x8(%ebp)
    5324:	83 7d f8 00          	cmpl   $0x0,-0x8(%ebp)
    5328:	0f 89 83 00 00 00    	jns    53b1 <testNiceFunctionality+0x407>
    532e:	8b 45 08             	mov    0x8(%ebp),%eax
    5331:	c7 80 88 00 00 00 02 	movl   $0x2,0x88(%eax)
    5338:	00 00 00 
    533b:	e8 fc ff ff ff       	call   533c <testNiceFunctionality+0x392>
    5340:	8b 45 08             	mov    0x8(%ebp),%eax
    5343:	c7 80 8c 00 00 00 98 	movl   $0x1a98,0x8c(%eax)
    534a:	1a 00 00 
    534d:	8b 45 08             	mov    0x8(%ebp),%eax
    5350:	8b 80 8c 00 00 00    	mov    0x8c(%eax),%eax
    5356:	89 04 24             	mov    %eax,(%esp)
    5359:	e8 fc ff ff ff       	call   535a <testNiceFunctionality+0x3b0>
    535e:	89 c2                	mov    %eax,%edx
    5360:	8b 45 08             	mov    0x8(%ebp),%eax
    5363:	8b 80 8c 00 00 00    	mov    0x8c(%eax),%eax
    5369:	89 54 24 08          	mov    %edx,0x8(%esp)
    536d:	89 44 24 04          	mov    %eax,0x4(%esp)
    5371:	c7 04 24 01 00 00 00 	movl   $0x1,(%esp)
    5378:	e8 fc ff ff ff       	call   5379 <testNiceFunctionality+0x3cf>
    537d:	c7 04 24 00 00 00 00 	movl   $0x0,(%esp)
    5384:	e8 fc ff ff ff       	call   5385 <testNiceFunctionality+0x3db>
    5389:	c7 04 24 00 00 00 00 	movl   $0x0,(%esp)
    5390:	e8 fc ff ff ff       	call   5391 <testNiceFunctionality+0x3e7>
    5395:	c7 04 24 01 00 00 00 	movl   $0x1,(%esp)
    539c:	e8 fc ff ff ff       	call   539d <testNiceFunctionality+0x3f3>
    53a1:	8b 45 e8             	mov    -0x18(%ebp),%eax
    53a4:	89 04 24             	mov    %eax,(%esp)
    53a7:	e8 fc ff ff ff       	call   53a8 <testNiceFunctionality+0x3fe>
    53ac:	e9 ac 01 00 00       	jmp    555d <testNiceFunctionality+0x5b3>
    53b1:	c7 04 24 01 00 00 00 	movl   $0x1,(%esp)
    53b8:	e8 fc ff ff ff       	call   53b9 <testNiceFunctionality+0x40f>
    53bd:	8d 45 b4             	lea    -0x4c(%ebp),%eax
    53c0:	89 44 24 04          	mov    %eax,0x4(%esp)
    53c4:	8b 45 d8             	mov    -0x28(%ebp),%eax
    53c7:	89 04 24             	mov    %eax,(%esp)
    53ca:	e8 fc ff ff ff       	call   53cb <testNiceFunctionality+0x421>
    53cf:	89 45 f8             	mov    %eax,-0x8(%ebp)
    53d2:	83 7d f8 00          	cmpl   $0x0,-0x8(%ebp)
    53d6:	0f 89 83 00 00 00    	jns    545f <testNiceFunctionality+0x4b5>
    53dc:	8b 45 08             	mov    0x8(%ebp),%eax
    53df:	c7 80 88 00 00 00 02 	movl   $0x2,0x88(%eax)
    53e6:	00 00 00 
    53e9:	e8 fc ff ff ff       	call   53ea <testNiceFunctionality+0x440>
    53ee:	8b 45 08             	mov    0x8(%ebp),%eax
    53f1:	c7 80 8c 00 00 00 08 	movl   $0x1b08,0x8c(%eax)
    53f8:	1b 00 00 
    53fb:	8b 45 08             	mov    0x8(%ebp),%eax
    53fe:	8b 80 8c 00 00 00    	mov    0x8c(%eax),%eax
    5404:	89 04 24             	mov    %eax,(%esp)
    5407:	e8 fc ff ff ff       	call   5408 <testNiceFunctionality+0x45e>
    540c:	89 c2                	mov    %eax,%edx
    540e:	8b 45 08             	mov    0x8(%ebp),%eax
    5411:	8b 80 8c 00 00 00    	mov    0x8c(%eax),%eax
    5417:	89 54 24 08          	mov    %edx,0x8(%esp)
    541b:	89 44 24 04          	mov    %eax,0x4(%esp)
    541f:	c7 04 24 01 00 00 00 	movl   $0x1,(%esp)
    5426:	e8 fc ff ff ff       	call   5427 <testNiceFunctionality+0x47d>
    542b:	c7 04 24 00 00 00 00 	movl   $0x0,(%esp)
    5432:	e8 fc ff ff ff       	call   5433 <testNiceFunctionality+0x489>
    5437:	c7 04 24 00 00 00 00 	movl   $0x0,(%esp)
    543e:	e8 fc ff ff ff       	call   543f <testNiceFunctionality+0x495>
    5443:	c7 04 24 01 00 00 00 	movl   $0x1,(%esp)
    544a:	e8 fc ff ff ff       	call   544b <testNiceFunctionality+0x4a1>
    544f:	8b 45 e8             	mov    -0x18(%ebp),%eax
    5452:	89 04 24             	mov    %eax,(%esp)
    5455:	e8 fc ff ff ff       	call   5456 <testNiceFunctionality+0x4ac>
    545a:	e9 fe 00 00 00       	jmp    555d <testNiceFunctionality+0x5b3>
    545f:	c7 04 24 00 00 00 00 	movl   $0x0,(%esp)
    5466:	e8 fc ff ff ff       	call   5467 <testNiceFunctionality+0x4bd>
    546b:	c7 04 24 00 00 00 00 	movl   $0x0,(%esp)
    5472:	e8 fc ff ff ff       	call   5473 <testNiceFunctionality+0x4c9>
    5477:	c7 04 24 01 00 00 00 	movl   $0x1,(%esp)
    547e:	e8 fc ff ff ff       	call   547f <testNiceFunctionality+0x4d5>
    5483:	8b 45 e8             	mov    -0x18(%ebp),%eax
    5486:	89 04 24             	mov    %eax,(%esp)
    5489:	e8 fc ff ff ff       	call   548a <testNiceFunctionality+0x4e0>
    548e:	8b 45 a8             	mov    -0x58(%ebp),%eax
    5491:	89 04 24             	mov    %eax,(%esp)
    5494:	8b 45 ac             	mov    -0x54(%ebp),%eax
    5497:	89 44 24 04          	mov    %eax,0x4(%esp)
    549b:	8b 45 b0             	mov    -0x50(%ebp),%eax
    549e:	89 44 24 08          	mov    %eax,0x8(%esp)
    54a2:	e8 fc ff ff ff       	call   54a3 <testNiceFunctionality+0x4f9>
    54a7:	89 c3                	mov    %eax,%ebx
    54a9:	8b 45 c0             	mov    -0x40(%ebp),%eax
    54ac:	89 04 24             	mov    %eax,(%esp)
    54af:	8b 45 c4             	mov    -0x3c(%ebp),%eax
    54b2:	89 44 24 04          	mov    %eax,0x4(%esp)
    54b6:	8b 45 c8             	mov    -0x38(%ebp),%eax
    54b9:	89 44 24 08          	mov    %eax,0x8(%esp)
    54bd:	e8 fc ff ff ff       	call   54be <testNiceFunctionality+0x514>
    54c2:	89 da                	mov    %ebx,%edx
    54c4:	29 c2                	sub    %eax,%edx
    54c6:	89 d0                	mov    %edx,%eax
    54c8:	89 45 e0             	mov    %eax,-0x20(%ebp)
    54cb:	8b 45 b4             	mov    -0x4c(%ebp),%eax
    54ce:	89 04 24             	mov    %eax,(%esp)
    54d1:	8b 45 b8             	mov    -0x48(%ebp),%eax
    54d4:	89 44 24 04          	mov    %eax,0x4(%esp)
    54d8:	8b 45 bc             	mov    -0x44(%ebp),%eax
    54db:	89 44 24 08          	mov    %eax,0x8(%esp)
    54df:	e8 fc ff ff ff       	call   54e0 <testNiceFunctionality+0x536>
    54e4:	89 c3                	mov    %eax,%ebx
    54e6:	8b 45 cc             	mov    -0x34(%ebp),%eax
    54e9:	89 04 24             	mov    %eax,(%esp)
    54ec:	8b 45 d0             	mov    -0x30(%ebp),%eax
    54ef:	89 44 24 04          	mov    %eax,0x4(%esp)
    54f3:	8b 45 d4             	mov    -0x2c(%ebp),%eax
    54f6:	89 44 24 08          	mov    %eax,0x8(%esp)
    54fa:	e8 fc ff ff ff       	call   54fb <testNiceFunctionality+0x551>
    54ff:	89 da                	mov    %ebx,%edx
    5501:	29 c2                	sub    %eax,%edx
    5503:	89 d0                	mov    %edx,%eax
    5505:	89 45 e4             	mov    %eax,-0x1c(%ebp)
    5508:	8b 45 e4             	mov    -0x1c(%ebp),%eax
    550b:	83 e8 01             	sub    $0x1,%eax
    550e:	3b 45 e0             	cmp    -0x20(%ebp),%eax
    5511:	73 4a                	jae    555d <testNiceFunctionality+0x5b3>
    5513:	8b 45 08             	mov    0x8(%ebp),%eax
    5516:	c7 80 88 00 00 00 02 	movl   $0x2,0x88(%eax)
    551d:	00 00 00 
    5520:	8b 45 08             	mov    0x8(%ebp),%eax
    5523:	c7 80 8c 00 00 00 2c 	movl   $0x1b2c,0x8c(%eax)
    552a:	1b 00 00 
    552d:	8b 45 08             	mov    0x8(%ebp),%eax
    5530:	8b 80 8c 00 00 00    	mov    0x8c(%eax),%eax
    5536:	89 04 24             	mov    %eax,(%esp)
    5539:	e8 fc ff ff ff       	call   553a <testNiceFunctionality+0x590>
    553e:	89 c2                	mov    %eax,%edx
    5540:	8b 45 08             	mov    0x8(%ebp),%eax
    5543:	8b 80 8c 00 00 00    	mov    0x8c(%eax),%eax
    5549:	89 54 24 08          	mov    %edx,0x8(%esp)
    554d:	89 44 24 04          	mov    %eax,0x4(%esp)
    5551:	c7 04 24 01 00 00 00 	movl   $0x1,(%esp)
    5558:	e8 fc ff ff ff       	call   5559 <testNiceFunctionality+0x5af>
    555d:	81 c4 74 01 00 00    	add    $0x174,%esp
    5563:	5b                   	pop    %ebx
    5564:	5d                   	pop    %ebp
    5565:	c3                   	ret    

00005566 <qtdelay>:
    5566:	55                   	push   %ebp
    5567:	89 e5                	mov    %esp,%ebp
    5569:	83 ec 10             	sub    $0x10,%esp
    556c:	c7 45 fc 00 00 00 00 	movl   $0x0,-0x4(%ebp)
    5573:	eb 06                	jmp    557b <qtdelay+0x15>
    5575:	8d 45 fc             	lea    -0x4(%ebp),%eax
    5578:	83 00 01             	addl   $0x1,(%eax)
    557b:	8b 4d 08             	mov    0x8(%ebp),%ecx
    557e:	89 c8                	mov    %ecx,%eax
    5580:	01 c0                	add    %eax,%eax
    5582:	01 c8                	add    %ecx,%eax
    5584:	01 c0                	add    %eax,%eax
    5586:	01 c0                	add    %eax,%eax
    5588:	89 c2                	mov    %eax,%edx
    558a:	c1 e2 06             	shl    $0x6,%edx
    558d:	01 d0                	add    %edx,%eax
    558f:	01 c8                	add    %ecx,%eax
    5591:	01 c0                	add    %eax,%eax
    5593:	01 c0                	add    %eax,%eax
    5595:	01 c8                	add    %ecx,%eax
    5597:	c1 e0 03             	shl    $0x3,%eax
    559a:	3b 45 fc             	cmp    -0x4(%ebp),%eax
    559d:	7f d6                	jg     5575 <qtdelay+0xf>
    559f:	c9                   	leave  
    55a0:	c3                   	ret    

000055a1 <testExit>:
    55a1:	55                   	push   %ebp
    55a2:	89 e5                	mov    %esp,%ebp
    55a4:	83 ec 28             	sub    $0x28,%esp
    55a7:	e8 fc ff ff ff       	call   55a8 <testExit+0x7>
    55ac:	89 45 f8             	mov    %eax,-0x8(%ebp)
    55af:	83 7d f8 00          	cmpl   $0x0,-0x8(%ebp)
    55b3:	75 34                	jne    55e9 <testExit+0x48>
    55b5:	e8 fc ff ff ff       	call   55b6 <testExit+0x15>
    55ba:	c7 44 24 04 00 00 00 	movl   $0x0,0x4(%esp)
    55c1:	00 
    55c2:	c7 04 24 00 00 00 00 	movl   $0x0,(%esp)
    55c9:	e8 fc ff ff ff       	call   55ca <testExit+0x29>
    55ce:	e8 22 b6 ff ff       	call   bf5 <delay>
    55d3:	c7 44 24 04 00 00 00 	movl   $0x0,0x4(%esp)
    55da:	00 
    55db:	c7 04 24 00 00 00 00 	movl   $0x0,(%esp)
    55e2:	e8 fc ff ff ff       	call   55e3 <testExit+0x42>
    55e7:	eb fe                	jmp    55e7 <testExit+0x46>
    55e9:	83 7d f8 00          	cmpl   $0x0,-0x8(%ebp)
    55ed:	79 4c                	jns    563b <testExit+0x9a>
    55ef:	8b 45 08             	mov    0x8(%ebp),%eax
    55f2:	c7 80 88 00 00 00 02 	movl   $0x2,0x88(%eax)
    55f9:	00 00 00 
    55fc:	8b 45 08             	mov    0x8(%ebp),%eax
    55ff:	c7 80 8c 00 00 00 6c 	movl   $0x1b6c,0x8c(%eax)
    5606:	1b 00 00 
    5609:	8b 45 08             	mov    0x8(%ebp),%eax
    560c:	8b 80 8c 00 00 00    	mov    0x8c(%eax),%eax
    5612:	89 04 24             	mov    %eax,(%esp)
    5615:	e8 fc ff ff ff       	call   5616 <testExit+0x75>
    561a:	89 c2                	mov    %eax,%edx
    561c:	8b 45 08             	mov    0x8(%ebp),%eax
    561f:	8b 80 8c 00 00 00    	mov    0x8c(%eax),%eax
    5625:	89 54 24 08          	mov    %edx,0x8(%esp)
    5629:	89 44 24 04          	mov    %eax,0x4(%esp)
    562d:	c7 04 24 01 00 00 00 	movl   $0x1,(%esp)
    5634:	e8 fc ff ff ff       	call   5635 <testExit+0x94>
    5639:	eb 75                	jmp    56b0 <testExit+0x10f>
    563b:	e8 b5 b5 ff ff       	call   bf5 <delay>
    5640:	c7 44 24 04 00 00 00 	movl   $0x0,0x4(%esp)
    5647:	00 
    5648:	c7 04 24 00 00 00 00 	movl   $0x0,(%esp)
    564f:	e8 fc ff ff ff       	call   5650 <testExit+0xaf>
    5654:	85 c0                	test   %eax,%eax
    5656:	79 4c                	jns    56a4 <testExit+0x103>
    5658:	8b 45 08             	mov    0x8(%ebp),%eax
    565b:	c7 80 8c 00 00 00 98 	movl   $0x1b98,0x8c(%eax)
    5662:	1b 00 00 
    5665:	8b 45 08             	mov    0x8(%ebp),%eax
    5668:	8b 80 8c 00 00 00    	mov    0x8c(%eax),%eax
    566e:	89 04 24             	mov    %eax,(%esp)
    5671:	e8 fc ff ff ff       	call   5672 <testExit+0xd1>
    5676:	89 c2                	mov    %eax,%edx
    5678:	8b 45 08             	mov    0x8(%ebp),%eax
    567b:	8b 80 8c 00 00 00    	mov    0x8c(%eax),%eax
    5681:	89 54 24 08          	mov    %edx,0x8(%esp)
    5685:	89 44 24 04          	mov    %eax,0x4(%esp)
    5689:	c7 04 24 01 00 00 00 	movl   $0x1,(%esp)
    5690:	e8 fc ff ff ff       	call   5691 <testExit+0xf0>
    5695:	8b 45 08             	mov    0x8(%ebp),%eax
    5698:	c7 80 88 00 00 00 02 	movl   $0x2,0x88(%eax)
    569f:	00 00 00 
    56a2:	eb 0c                	jmp    56b0 <testExit+0x10f>
    56a4:	c7 04 24 00 00 00 00 	movl   $0x0,(%esp)
    56ab:	e8 fc ff ff ff       	call   56ac <testExit+0x10b>
    56b0:	c9                   	leave  
    56b1:	c3                   	ret    

000056b2 <testOutOfRangeFork>:
    56b2:	55                   	push   %ebp
    56b3:	89 e5                	mov    %esp,%ebp
    56b5:	83 ec 28             	sub    $0x28,%esp
    56b8:	c7 45 f8 00 00 00 00 	movl   $0x0,-0x8(%ebp)
    56bf:	c7 44 24 04 00 00 00 	movl   $0x0,0x4(%esp)
    56c6:	00 
    56c7:	c7 04 24 00 00 00 00 	movl   $0x0,(%esp)
    56ce:	e8 fc ff ff ff       	call   56cf <testOutOfRangeFork+0x1d>
    56d3:	e8 fc ff ff ff       	call   56d4 <testOutOfRangeFork+0x22>
    56d8:	89 45 f4             	mov    %eax,-0xc(%ebp)
    56db:	eb 0e                	jmp    56eb <testOutOfRangeFork+0x39>
    56dd:	8d 45 f8             	lea    -0x8(%ebp),%eax
    56e0:	83 00 01             	addl   $0x1,(%eax)
    56e3:	e8 fc ff ff ff       	call   56e4 <testOutOfRangeFork+0x32>
    56e8:	89 45 f4             	mov    %eax,-0xc(%ebp)
    56eb:	83 7d f4 00          	cmpl   $0x0,-0xc(%ebp)
    56ef:	7e 06                	jle    56f7 <testOutOfRangeFork+0x45>
    56f1:	83 7d f8 09          	cmpl   $0x9,-0x8(%ebp)
    56f5:	7e e6                	jle    56dd <testOutOfRangeFork+0x2b>
    56f7:	83 7d f4 00          	cmpl   $0x0,-0xc(%ebp)
    56fb:	75 35                	jne    5732 <testOutOfRangeFork+0x80>
    56fd:	c7 04 24 00 00 00 00 	movl   $0x0,(%esp)
    5704:	e8 fc ff ff ff       	call   5705 <testOutOfRangeFork+0x53>
    5709:	e8 fc ff ff ff       	call   570a <testOutOfRangeFork+0x58>
    570e:	c7 04 24 24 0e 00 00 	movl   $0xe24,(%esp)
    5715:	e8 fc ff ff ff       	call   5716 <testOutOfRangeFork+0x64>
    571a:	89 44 24 08          	mov    %eax,0x8(%esp)
    571e:	c7 44 24 04 24 0e 00 	movl   $0xe24,0x4(%esp)
    5725:	00 
    5726:	c7 04 24 01 00 00 00 	movl   $0x1,(%esp)
    572d:	e8 fc ff ff ff       	call   572e <testOutOfRangeFork+0x7c>
    5732:	83 7d f4 00          	cmpl   $0x0,-0xc(%ebp)
    5736:	7e 4c                	jle    5784 <testOutOfRangeFork+0xd2>
    5738:	8b 45 08             	mov    0x8(%ebp),%eax
    573b:	c7 80 88 00 00 00 02 	movl   $0x2,0x88(%eax)
    5742:	00 00 00 
    5745:	8b 45 08             	mov    0x8(%ebp),%eax
    5748:	c7 80 8c 00 00 00 c4 	movl   $0x1bc4,0x8c(%eax)
    574f:	1b 00 00 
    5752:	8b 45 08             	mov    0x8(%ebp),%eax
    5755:	8b 80 8c 00 00 00    	mov    0x8c(%eax),%eax
    575b:	89 04 24             	mov    %eax,(%esp)
    575e:	e8 fc ff ff ff       	call   575f <testOutOfRangeFork+0xad>
    5763:	89 c2                	mov    %eax,%edx
    5765:	8b 45 08             	mov    0x8(%ebp),%eax
    5768:	8b 80 8c 00 00 00    	mov    0x8c(%eax),%eax
    576e:	89 54 24 08          	mov    %edx,0x8(%esp)
    5772:	89 44 24 04          	mov    %eax,0x4(%esp)
    5776:	c7 04 24 01 00 00 00 	movl   $0x1,(%esp)
    577d:	e8 fc ff ff ff       	call   577e <testOutOfRangeFork+0xcc>
    5782:	eb 5e                	jmp    57e2 <testOutOfRangeFork+0x130>
    5784:	a1 00 00 00 00       	mov    0x0,%eax
    5789:	83 f8 0b             	cmp    $0xb,%eax
    578c:	74 54                	je     57e2 <testOutOfRangeFork+0x130>
    578e:	a1 00 00 00 00       	mov    0x0,%eax
    5793:	83 f8 0c             	cmp    $0xc,%eax
    5796:	74 4a                	je     57e2 <testOutOfRangeFork+0x130>
    5798:	8b 45 08             	mov    0x8(%ebp),%eax
    579b:	c7 80 88 00 00 00 01 	movl   $0x1,0x88(%eax)
    57a2:	00 00 00 
    57a5:	8b 45 08             	mov    0x8(%ebp),%eax
    57a8:	c7 80 8c 00 00 00 10 	movl   $0x1c10,0x8c(%eax)
    57af:	1c 00 00 
    57b2:	8b 45 08             	mov    0x8(%ebp),%eax
    57b5:	8b 80 8c 00 00 00    	mov    0x8c(%eax),%eax
    57bb:	89 04 24             	mov    %eax,(%esp)
    57be:	e8 fc ff ff ff       	call   57bf <testOutOfRangeFork+0x10d>
    57c3:	89 c2                	mov    %eax,%edx
    57c5:	8b 45 08             	mov    0x8(%ebp),%eax
    57c8:	8b 80 8c 00 00 00    	mov    0x8c(%eax),%eax
    57ce:	89 54 24 08          	mov    %edx,0x8(%esp)
    57d2:	89 44 24 04          	mov    %eax,0x4(%esp)
    57d6:	c7 04 24 01 00 00 00 	movl   $0x1,(%esp)
    57dd:	e8 fc ff ff ff       	call   57de <testOutOfRangeFork+0x12c>
    57e2:	8b 45 f8             	mov    -0x8(%ebp),%eax
    57e5:	89 45 fc             	mov    %eax,-0x4(%ebp)
    57e8:	eb 17                	jmp    5801 <testOutOfRangeFork+0x14f>
    57ea:	c7 04 24 00 00 00 00 	movl   $0x0,(%esp)
    57f1:	e8 fc ff ff ff       	call   57f2 <testOutOfRangeFork+0x140>
    57f6:	8d 45 f8             	lea    -0x8(%ebp),%eax
    57f9:	83 28 01             	subl   $0x1,(%eax)
    57fc:	e8 f4 b3 ff ff       	call   bf5 <delay>
    5801:	83 7d f8 00          	cmpl   $0x0,-0x8(%ebp)
    5805:	7f e3                	jg     57ea <testOutOfRangeFork+0x138>
    5807:	c7 04 24 00 00 00 00 	movl   $0x0,(%esp)
    580e:	e8 fc ff ff ff       	call   580f <testOutOfRangeFork+0x15d>
    5813:	8b 45 fc             	mov    -0x4(%ebp),%eax
    5816:	c9                   	leave  
    5817:	c3                   	ret    

00005818 <testForkReuse>:
    5818:	55                   	push   %ebp
    5819:	89 e5                	mov    %esp,%ebp
    581b:	83 ec 28             	sub    $0x28,%esp
    581e:	8b 45 08             	mov    0x8(%ebp),%eax
    5821:	89 04 24             	mov    %eax,(%esp)
    5824:	e8 fc ff ff ff       	call   5825 <testForkReuse+0xd>
    5829:	89 45 f8             	mov    %eax,-0x8(%ebp)
    582c:	8b 45 08             	mov    0x8(%ebp),%eax
    582f:	8b 80 88 00 00 00    	mov    0x88(%eax),%eax
    5835:	85 c0                	test   %eax,%eax
    5837:	74 12                	je     584b <testForkReuse+0x33>
    5839:	8b 45 08             	mov    0x8(%ebp),%eax
    583c:	8b 80 88 00 00 00    	mov    0x88(%eax),%eax
    5842:	83 f8 01             	cmp    $0x1,%eax
    5845:	0f 85 c0 00 00 00    	jne    590b <testForkReuse+0xf3>
    584b:	8b 45 08             	mov    0x8(%ebp),%eax
    584e:	89 04 24             	mov    %eax,(%esp)
    5851:	e8 fc ff ff ff       	call   5852 <testForkReuse+0x3a>
    5856:	89 45 fc             	mov    %eax,-0x4(%ebp)
    5859:	8b 45 08             	mov    0x8(%ebp),%eax
    585c:	8b 80 88 00 00 00    	mov    0x88(%eax),%eax
    5862:	85 c0                	test   %eax,%eax
    5864:	74 0e                	je     5874 <testForkReuse+0x5c>
    5866:	8b 45 08             	mov    0x8(%ebp),%eax
    5869:	8b 80 88 00 00 00    	mov    0x88(%eax),%eax
    586f:	83 f8 01             	cmp    $0x1,%eax
    5872:	75 58                	jne    58cc <testForkReuse+0xb4>
    5874:	8b 45 f8             	mov    -0x8(%ebp),%eax
    5877:	3b 45 fc             	cmp    -0x4(%ebp),%eax
    587a:	0f 84 c8 00 00 00    	je     5948 <testForkReuse+0x130>
    5880:	8b 45 08             	mov    0x8(%ebp),%eax
    5883:	c7 80 88 00 00 00 02 	movl   $0x2,0x88(%eax)
    588a:	00 00 00 
    588d:	8b 45 08             	mov    0x8(%ebp),%eax
    5890:	c7 80 8c 00 00 00 64 	movl   $0x1c64,0x8c(%eax)
    5897:	1c 00 00 
    589a:	8b 45 08             	mov    0x8(%ebp),%eax
    589d:	8b 80 8c 00 00 00    	mov    0x8c(%eax),%eax
    58a3:	89 04 24             	mov    %eax,(%esp)
    58a6:	e8 fc ff ff ff       	call   58a7 <testForkReuse+0x8f>
    58ab:	89 c2                	mov    %eax,%edx
    58ad:	8b 45 08             	mov    0x8(%ebp),%eax
    58b0:	8b 80 8c 00 00 00    	mov    0x8c(%eax),%eax
    58b6:	89 54 24 08          	mov    %edx,0x8(%esp)
    58ba:	89 44 24 04          	mov    %eax,0x4(%esp)
    58be:	c7 04 24 01 00 00 00 	movl   $0x1,(%esp)
    58c5:	e8 fc ff ff ff       	call   58c6 <testForkReuse+0xae>
    58ca:	eb 7c                	jmp    5948 <testForkReuse+0x130>
    58cc:	8b 45 08             	mov    0x8(%ebp),%eax
    58cf:	c7 80 8c 00 00 00 bc 	movl   $0x1cbc,0x8c(%eax)
    58d6:	1c 00 00 
    58d9:	8b 45 08             	mov    0x8(%ebp),%eax
    58dc:	8b 80 8c 00 00 00    	mov    0x8c(%eax),%eax
    58e2:	89 04 24             	mov    %eax,(%esp)
    58e5:	e8 fc ff ff ff       	call   58e6 <testForkReuse+0xce>
    58ea:	89 c2                	mov    %eax,%edx
    58ec:	8b 45 08             	mov    0x8(%ebp),%eax
    58ef:	8b 80 8c 00 00 00    	mov    0x8c(%eax),%eax
    58f5:	89 54 24 08          	mov    %edx,0x8(%esp)
    58f9:	89 44 24 04          	mov    %eax,0x4(%esp)
    58fd:	c7 04 24 01 00 00 00 	movl   $0x1,(%esp)
    5904:	e8 fc ff ff ff       	call   5905 <testForkReuse+0xed>
    5909:	eb 3d                	jmp    5948 <testForkReuse+0x130>
    590b:	8b 45 08             	mov    0x8(%ebp),%eax
    590e:	c7 80 8c 00 00 00 f4 	movl   $0x1cf4,0x8c(%eax)
    5915:	1c 00 00 
    5918:	8b 45 08             	mov    0x8(%ebp),%eax
    591b:	8b 80 8c 00 00 00    	mov    0x8c(%eax),%eax
    5921:	89 04 24             	mov    %eax,(%esp)
    5924:	e8 fc ff ff ff       	call   5925 <testForkReuse+0x10d>
    5929:	89 c2                	mov    %eax,%edx
    592b:	8b 45 08             	mov    0x8(%ebp),%eax
    592e:	8b 80 8c 00 00 00    	mov    0x8c(%eax),%eax
    5934:	89 54 24 08          	mov    %edx,0x8(%esp)
    5938:	89 44 24 04          	mov    %eax,0x4(%esp)
    593c:	c7 04 24 01 00 00 00 	movl   $0x1,(%esp)
    5943:	e8 fc ff ff ff       	call   5944 <testForkReuse+0x12c>
    5948:	c9                   	leave  
    5949:	c3                   	ret    

0000594a <testCopyGlobalMemory1>:
    594a:	55                   	push   %ebp
    594b:	89 e5                	mov    %esp,%ebp
    594d:	83 ec 28             	sub    $0x28,%esp
    5950:	e8 fc ff ff ff       	call   5951 <testCopyGlobalMemory1+0x7>
    5955:	85 c0                	test   %eax,%eax
    5957:	75 6a                	jne    59c3 <testCopyGlobalMemory1+0x79>
    5959:	e8 fc ff ff ff       	call   595a <testCopyGlobalMemory1+0x10>
    595e:	89 45 fc             	mov    %eax,-0x4(%ebp)
    5961:	83 7d fc 00          	cmpl   $0x0,-0x4(%ebp)
    5965:	7e 02                	jle    5969 <testCopyGlobalMemory1+0x1f>
    5967:	eb fe                	jmp    5967 <testCopyGlobalMemory1+0x1d>
    5969:	83 7d fc 00          	cmpl   $0x0,-0x4(%ebp)
    596d:	79 54                	jns    59c3 <testCopyGlobalMemory1+0x79>
    596f:	e8 fc ff ff ff       	call   5970 <testCopyGlobalMemory1+0x26>
    5974:	8b 45 08             	mov    0x8(%ebp),%eax
    5977:	c7 80 88 00 00 00 02 	movl   $0x2,0x88(%eax)
    597e:	00 00 00 
    5981:	8b 45 08             	mov    0x8(%ebp),%eax
    5984:	c7 80 8c 00 00 00 44 	movl   $0x1d44,0x8c(%eax)
    598b:	1d 00 00 
    598e:	8b 45 08             	mov    0x8(%ebp),%eax
    5991:	8b 80 8c 00 00 00    	mov    0x8c(%eax),%eax
    5997:	89 04 24             	mov    %eax,(%esp)
    599a:	e8 fc ff ff ff       	call   599b <testCopyGlobalMemory1+0x51>
    599f:	89 c2                	mov    %eax,%edx
    59a1:	8b 45 08             	mov    0x8(%ebp),%eax
    59a4:	8b 80 8c 00 00 00    	mov    0x8c(%eax),%eax
    59aa:	89 54 24 08          	mov    %edx,0x8(%esp)
    59ae:	89 44 24 04          	mov    %eax,0x4(%esp)
    59b2:	c7 04 24 01 00 00 00 	movl   $0x1,(%esp)
    59b9:	e8 fc ff ff ff       	call   59ba <testCopyGlobalMemory1+0x70>
    59be:	e9 39 01 00 00       	jmp    5afc <testCopyGlobalMemory1+0x1b2>
    59c3:	c7 05 00 00 00 00 2b 	movl   $0x22b,0x0
    59ca:	02 00 00 
    59cd:	c7 44 24 04 00 00 00 	movl   $0x0,0x4(%esp)
    59d4:	00 
    59d5:	c7 04 24 00 00 00 00 	movl   $0x0,(%esp)
    59dc:	e8 fc ff ff ff       	call   59dd <testCopyGlobalMemory1+0x93>
    59e1:	e8 fc ff ff ff       	call   59e2 <testCopyGlobalMemory1+0x98>
    59e6:	89 45 fc             	mov    %eax,-0x4(%ebp)
    59e9:	83 7d fc 00          	cmpl   $0x0,-0x4(%ebp)
    59ed:	75 6b                	jne    5a5a <testCopyGlobalMemory1+0x110>
    59ef:	c7 04 24 00 00 00 00 	movl   $0x0,(%esp)
    59f6:	e8 fc ff ff ff       	call   59f7 <testCopyGlobalMemory1+0xad>
    59fb:	a1 00 00 00 00       	mov    0x0,%eax
    5a00:	3d 2b 02 00 00       	cmp    $0x22b,%eax
    5a05:	0f 84 f1 00 00 00    	je     5afc <testCopyGlobalMemory1+0x1b2>
    5a0b:	8b 45 08             	mov    0x8(%ebp),%eax
    5a0e:	c7 80 88 00 00 00 02 	movl   $0x2,0x88(%eax)
    5a15:	00 00 00 
    5a18:	8b 45 08             	mov    0x8(%ebp),%eax
    5a1b:	c7 80 8c 00 00 00 6c 	movl   $0x1d6c,0x8c(%eax)
    5a22:	1d 00 00 
    5a25:	8b 45 08             	mov    0x8(%ebp),%eax
    5a28:	8b 80 8c 00 00 00    	mov    0x8c(%eax),%eax
    5a2e:	89 04 24             	mov    %eax,(%esp)
    5a31:	e8 fc ff ff ff       	call   5a32 <testCopyGlobalMemory1+0xe8>
    5a36:	89 c2                	mov    %eax,%edx
    5a38:	8b 45 08             	mov    0x8(%ebp),%eax
    5a3b:	8b 80 8c 00 00 00    	mov    0x8c(%eax),%eax
    5a41:	89 54 24 08          	mov    %edx,0x8(%esp)
    5a45:	89 44 24 04          	mov    %eax,0x4(%esp)
    5a49:	c7 04 24 01 00 00 00 	movl   $0x1,(%esp)
    5a50:	e8 fc ff ff ff       	call   5a51 <testCopyGlobalMemory1+0x107>
    5a55:	e9 a2 00 00 00       	jmp    5afc <testCopyGlobalMemory1+0x1b2>
    5a5a:	83 7d fc 00          	cmpl   $0x0,-0x4(%ebp)
    5a5e:	79 5d                	jns    5abd <testCopyGlobalMemory1+0x173>
    5a60:	e8 fc ff ff ff       	call   5a61 <testCopyGlobalMemory1+0x117>
    5a65:	8b 45 08             	mov    0x8(%ebp),%eax
    5a68:	c7 80 88 00 00 00 02 	movl   $0x2,0x88(%eax)
    5a6f:	00 00 00 
    5a72:	8b 45 08             	mov    0x8(%ebp),%eax
    5a75:	c7 80 8c 00 00 00 44 	movl   $0x1d44,0x8c(%eax)
    5a7c:	1d 00 00 
    5a7f:	8b 45 08             	mov    0x8(%ebp),%eax
    5a82:	8b 80 8c 00 00 00    	mov    0x8c(%eax),%eax
    5a88:	89 04 24             	mov    %eax,(%esp)
    5a8b:	e8 fc ff ff ff       	call   5a8c <testCopyGlobalMemory1+0x142>
    5a90:	89 c2                	mov    %eax,%edx
    5a92:	8b 45 08             	mov    0x8(%ebp),%eax
    5a95:	8b 80 8c 00 00 00    	mov    0x8c(%eax),%eax
    5a9b:	89 54 24 08          	mov    %edx,0x8(%esp)
    5a9f:	89 44 24 04          	mov    %eax,0x4(%esp)
    5aa3:	c7 04 24 01 00 00 00 	movl   $0x1,(%esp)
    5aaa:	e8 fc ff ff ff       	call   5aab <testCopyGlobalMemory1+0x161>
    5aaf:	c7 04 24 00 00 00 00 	movl   $0x0,(%esp)
    5ab6:	e8 fc ff ff ff       	call   5ab7 <testCopyGlobalMemory1+0x16d>
    5abb:	eb 3f                	jmp    5afc <testCopyGlobalMemory1+0x1b2>
    5abd:	c7 05 00 00 00 00 09 	movl   $0x309,0x0
    5ac4:	03 00 00 
    5ac7:	c7 04 24 00 00 00 00 	movl   $0x0,(%esp)
    5ace:	e8 fc ff ff ff       	call   5acf <testCopyGlobalMemory1+0x185>
    5ad3:	e8 fc ff ff ff       	call   5ad4 <testCopyGlobalMemory1+0x18a>
    5ad8:	c7 04 24 24 0e 00 00 	movl   $0xe24,(%esp)
    5adf:	e8 fc ff ff ff       	call   5ae0 <testCopyGlobalMemory1+0x196>
    5ae4:	89 44 24 08          	mov    %eax,0x8(%esp)
    5ae8:	c7 44 24 04 24 0e 00 	movl   $0xe24,0x4(%esp)
    5aef:	00 
    5af0:	c7 04 24 01 00 00 00 	movl   $0x1,(%esp)
    5af7:	e8 fc ff ff ff       	call   5af8 <testCopyGlobalMemory1+0x1ae>
    5afc:	c9                   	leave  
    5afd:	c3                   	ret    

00005afe <testCopyGlobalMemory2>:
    5afe:	55                   	push   %ebp
    5aff:	89 e5                	mov    %esp,%ebp
    5b01:	83 ec 28             	sub    $0x28,%esp
    5b04:	e8 fc ff ff ff       	call   5b05 <testCopyGlobalMemory2+0x7>
    5b09:	85 c0                	test   %eax,%eax
    5b0b:	75 65                	jne    5b72 <testCopyGlobalMemory2+0x74>
    5b0d:	e8 fc ff ff ff       	call   5b0e <testCopyGlobalMemory2+0x10>
    5b12:	89 45 f8             	mov    %eax,-0x8(%ebp)
    5b15:	83 7d f8 00          	cmpl   $0x0,-0x8(%ebp)
    5b19:	7e 02                	jle    5b1d <testCopyGlobalMemory2+0x1f>
    5b1b:	eb fe                	jmp    5b1b <testCopyGlobalMemory2+0x1d>
    5b1d:	83 7d f8 00          	cmpl   $0x0,-0x8(%ebp)
    5b21:	79 4f                	jns    5b72 <testCopyGlobalMemory2+0x74>
    5b23:	8b 45 08             	mov    0x8(%ebp),%eax
    5b26:	c7 80 88 00 00 00 02 	movl   $0x2,0x88(%eax)
    5b2d:	00 00 00 
    5b30:	8b 45 08             	mov    0x8(%ebp),%eax
    5b33:	c7 80 8c 00 00 00 44 	movl   $0x1d44,0x8c(%eax)
    5b3a:	1d 00 00 
    5b3d:	8b 45 08             	mov    0x8(%ebp),%eax
    5b40:	8b 80 8c 00 00 00    	mov    0x8c(%eax),%eax
    5b46:	89 04 24             	mov    %eax,(%esp)
    5b49:	e8 fc ff ff ff       	call   5b4a <testCopyGlobalMemory2+0x4c>
    5b4e:	89 c2                	mov    %eax,%edx
    5b50:	8b 45 08             	mov    0x8(%ebp),%eax
    5b53:	8b 80 8c 00 00 00    	mov    0x8c(%eax),%eax
    5b59:	89 54 24 08          	mov    %edx,0x8(%esp)
    5b5d:	89 44 24 04          	mov    %eax,0x4(%esp)
    5b61:	c7 04 24 01 00 00 00 	movl   $0x1,(%esp)
    5b68:	e8 fc ff ff ff       	call   5b69 <testCopyGlobalMemory2+0x6b>
    5b6d:	e9 98 02 00 00       	jmp    5e0a <testCopyGlobalMemory2+0x30c>
    5b72:	c7 05 00 00 00 00 2b 	movl   $0x22b,0x0
    5b79:	02 00 00 
    5b7c:	c7 44 24 04 00 00 00 	movl   $0x0,0x4(%esp)
    5b83:	00 
    5b84:	c7 04 24 00 00 00 00 	movl   $0x0,(%esp)
    5b8b:	e8 fc ff ff ff       	call   5b8c <testCopyGlobalMemory2+0x8e>
    5b90:	c7 44 24 04 00 00 00 	movl   $0x0,0x4(%esp)
    5b97:	00 
    5b98:	c7 04 24 01 00 00 00 	movl   $0x1,(%esp)
    5b9f:	e8 fc ff ff ff       	call   5ba0 <testCopyGlobalMemory2+0xa2>
    5ba4:	e8 fc ff ff ff       	call   5ba5 <testCopyGlobalMemory2+0xa7>
    5ba9:	89 45 f8             	mov    %eax,-0x8(%ebp)
    5bac:	83 7d f8 00          	cmpl   $0x0,-0x8(%ebp)
    5bb0:	75 6b                	jne    5c1d <testCopyGlobalMemory2+0x11f>
    5bb2:	c7 04 24 00 00 00 00 	movl   $0x0,(%esp)
    5bb9:	e8 fc ff ff ff       	call   5bba <testCopyGlobalMemory2+0xbc>
    5bbe:	a1 00 00 00 00       	mov    0x0,%eax
    5bc3:	3d 2b 02 00 00       	cmp    $0x22b,%eax
    5bc8:	0f 84 3c 02 00 00    	je     5e0a <testCopyGlobalMemory2+0x30c>
    5bce:	8b 45 08             	mov    0x8(%ebp),%eax
    5bd1:	c7 80 88 00 00 00 02 	movl   $0x2,0x88(%eax)
    5bd8:	00 00 00 
    5bdb:	8b 45 08             	mov    0x8(%ebp),%eax
    5bde:	c7 80 8c 00 00 00 9c 	movl   $0x1d9c,0x8c(%eax)
    5be5:	1d 00 00 
    5be8:	8b 45 08             	mov    0x8(%ebp),%eax
    5beb:	8b 80 8c 00 00 00    	mov    0x8c(%eax),%eax
    5bf1:	89 04 24             	mov    %eax,(%esp)
    5bf4:	e8 fc ff ff ff       	call   5bf5 <testCopyGlobalMemory2+0xf7>
    5bf9:	89 c2                	mov    %eax,%edx
    5bfb:	8b 45 08             	mov    0x8(%ebp),%eax
    5bfe:	8b 80 8c 00 00 00    	mov    0x8c(%eax),%eax
    5c04:	89 54 24 08          	mov    %edx,0x8(%esp)
    5c08:	89 44 24 04          	mov    %eax,0x4(%esp)
    5c0c:	c7 04 24 01 00 00 00 	movl   $0x1,(%esp)
    5c13:	e8 fc ff ff ff       	call   5c14 <testCopyGlobalMemory2+0x116>
    5c18:	e9 ed 01 00 00       	jmp    5e0a <testCopyGlobalMemory2+0x30c>
    5c1d:	83 7d f8 00          	cmpl   $0x0,-0x8(%ebp)
    5c21:	0f 89 97 00 00 00    	jns    5cbe <testCopyGlobalMemory2+0x1c0>
    5c27:	8b 45 08             	mov    0x8(%ebp),%eax
    5c2a:	c7 80 88 00 00 00 02 	movl   $0x2,0x88(%eax)
    5c31:	00 00 00 
    5c34:	8b 45 08             	mov    0x8(%ebp),%eax
    5c37:	c7 80 8c 00 00 00 44 	movl   $0x1d44,0x8c(%eax)
    5c3e:	1d 00 00 
    5c41:	8b 45 08             	mov    0x8(%ebp),%eax
    5c44:	8b 80 8c 00 00 00    	mov    0x8c(%eax),%eax
    5c4a:	89 04 24             	mov    %eax,(%esp)
    5c4d:	e8 fc ff ff ff       	call   5c4e <testCopyGlobalMemory2+0x150>
    5c52:	89 c2                	mov    %eax,%edx
    5c54:	8b 45 08             	mov    0x8(%ebp),%eax
    5c57:	8b 80 8c 00 00 00    	mov    0x8c(%eax),%eax
    5c5d:	89 54 24 08          	mov    %edx,0x8(%esp)
    5c61:	89 44 24 04          	mov    %eax,0x4(%esp)
    5c65:	c7 04 24 01 00 00 00 	movl   $0x1,(%esp)
    5c6c:	e8 fc ff ff ff       	call   5c6d <testCopyGlobalMemory2+0x16f>
    5c71:	c7 04 24 00 00 00 00 	movl   $0x0,(%esp)
    5c78:	e8 fc ff ff ff       	call   5c79 <testCopyGlobalMemory2+0x17b>
    5c7d:	c7 04 24 00 00 00 00 	movl   $0x0,(%esp)
    5c84:	e8 fc ff ff ff       	call   5c85 <testCopyGlobalMemory2+0x187>
    5c89:	c7 04 24 01 00 00 00 	movl   $0x1,(%esp)
    5c90:	e8 fc ff ff ff       	call   5c91 <testCopyGlobalMemory2+0x193>
    5c95:	e8 fc ff ff ff       	call   5c96 <testCopyGlobalMemory2+0x198>
    5c9a:	c7 04 24 24 0e 00 00 	movl   $0xe24,(%esp)
    5ca1:	e8 fc ff ff ff       	call   5ca2 <testCopyGlobalMemory2+0x1a4>
    5ca6:	89 44 24 08          	mov    %eax,0x8(%esp)
    5caa:	c7 44 24 04 24 0e 00 	movl   $0xe24,0x4(%esp)
    5cb1:	00 
    5cb2:	c7 04 24 01 00 00 00 	movl   $0x1,(%esp)
    5cb9:	e8 fc ff ff ff       	call   5cba <testCopyGlobalMemory2+0x1bc>
    5cbe:	e8 fc ff ff ff       	call   5cbf <testCopyGlobalMemory2+0x1c1>
    5cc3:	89 45 f8             	mov    %eax,-0x8(%ebp)
    5cc6:	83 7d f8 00          	cmpl   $0x0,-0x8(%ebp)
    5cca:	75 44                	jne    5d10 <testCopyGlobalMemory2+0x212>
    5ccc:	c7 05 00 00 00 00 e7 	movl   $0x3e7,0x0
    5cd3:	03 00 00 
    5cd6:	c7 04 24 01 00 00 00 	movl   $0x1,(%esp)
    5cdd:	e8 fc ff ff ff       	call   5cde <testCopyGlobalMemory2+0x1e0>
    5ce2:	e8 fc ff ff ff       	call   5ce3 <testCopyGlobalMemory2+0x1e5>
    5ce7:	c7 04 24 24 0e 00 00 	movl   $0xe24,(%esp)
    5cee:	e8 fc ff ff ff       	call   5cef <testCopyGlobalMemory2+0x1f1>
    5cf3:	89 44 24 08          	mov    %eax,0x8(%esp)
    5cf7:	c7 44 24 04 24 0e 00 	movl   $0xe24,0x4(%esp)
    5cfe:	00 
    5cff:	c7 04 24 01 00 00 00 	movl   $0x1,(%esp)
    5d06:	e8 fc ff ff ff       	call   5d07 <testCopyGlobalMemory2+0x209>
    5d0b:	e9 a1 00 00 00       	jmp    5db1 <testCopyGlobalMemory2+0x2b3>
    5d10:	83 7d f8 00          	cmpl   $0x0,-0x8(%ebp)
    5d14:	0f 89 97 00 00 00    	jns    5db1 <testCopyGlobalMemory2+0x2b3>
    5d1a:	8b 45 08             	mov    0x8(%ebp),%eax
    5d1d:	c7 80 88 00 00 00 02 	movl   $0x2,0x88(%eax)
    5d24:	00 00 00 
    5d27:	8b 45 08             	mov    0x8(%ebp),%eax
    5d2a:	c7 80 8c 00 00 00 44 	movl   $0x1d44,0x8c(%eax)
    5d31:	1d 00 00 
    5d34:	8b 45 08             	mov    0x8(%ebp),%eax
    5d37:	8b 80 8c 00 00 00    	mov    0x8c(%eax),%eax
    5d3d:	89 04 24             	mov    %eax,(%esp)
    5d40:	e8 fc ff ff ff       	call   5d41 <testCopyGlobalMemory2+0x243>
    5d45:	89 c2                	mov    %eax,%edx
    5d47:	8b 45 08             	mov    0x8(%ebp),%eax
    5d4a:	8b 80 8c 00 00 00    	mov    0x8c(%eax),%eax
    5d50:	89 54 24 08          	mov    %edx,0x8(%esp)
    5d54:	89 44 24 04          	mov    %eax,0x4(%esp)
    5d58:	c7 04 24 01 00 00 00 	movl   $0x1,(%esp)
    5d5f:	e8 fc ff ff ff       	call   5d60 <testCopyGlobalMemory2+0x262>
    5d64:	c7 04 24 00 00 00 00 	movl   $0x0,(%esp)
    5d6b:	e8 fc ff ff ff       	call   5d6c <testCopyGlobalMemory2+0x26e>
    5d70:	c7 04 24 00 00 00 00 	movl   $0x0,(%esp)
    5d77:	e8 fc ff ff ff       	call   5d78 <testCopyGlobalMemory2+0x27a>
    5d7c:	c7 04 24 01 00 00 00 	movl   $0x1,(%esp)
    5d83:	e8 fc ff ff ff       	call   5d84 <testCopyGlobalMemory2+0x286>
    5d88:	e8 fc ff ff ff       	call   5d89 <testCopyGlobalMemory2+0x28b>
    5d8d:	c7 04 24 24 0e 00 00 	movl   $0xe24,(%esp)
    5d94:	e8 fc ff ff ff       	call   5d95 <testCopyGlobalMemory2+0x297>
    5d99:	89 44 24 08          	mov    %eax,0x8(%esp)
    5d9d:	c7 44 24 04 24 0e 00 	movl   $0xe24,0x4(%esp)
    5da4:	00 
    5da5:	c7 04 24 01 00 00 00 	movl   $0x1,(%esp)
    5dac:	e8 fc ff ff ff       	call   5dad <testCopyGlobalMemory2+0x2af>
    5db1:	c7 04 24 01 00 00 00 	movl   $0x1,(%esp)
    5db8:	e8 fc ff ff ff       	call   5db9 <testCopyGlobalMemory2+0x2bb>
    5dbd:	c7 04 24 00 00 00 00 	movl   $0x0,(%esp)
    5dc4:	e8 fc ff ff ff       	call   5dc5 <testCopyGlobalMemory2+0x2c7>
    5dc9:	c7 04 24 00 00 00 00 	movl   $0x0,(%esp)
    5dd0:	e8 fc ff ff ff       	call   5dd1 <testCopyGlobalMemory2+0x2d3>
    5dd5:	c7 04 24 01 00 00 00 	movl   $0x1,(%esp)
    5ddc:	e8 fc ff ff ff       	call   5ddd <testCopyGlobalMemory2+0x2df>
    5de1:	e8 fc ff ff ff       	call   5de2 <testCopyGlobalMemory2+0x2e4>
    5de6:	c7 04 24 24 0e 00 00 	movl   $0xe24,(%esp)
    5ded:	e8 fc ff ff ff       	call   5dee <testCopyGlobalMemory2+0x2f0>
    5df2:	89 44 24 08          	mov    %eax,0x8(%esp)
    5df6:	c7 44 24 04 24 0e 00 	movl   $0xe24,0x4(%esp)
    5dfd:	00 
    5dfe:	c7 04 24 01 00 00 00 	movl   $0x1,(%esp)
    5e05:	e8 fc ff ff ff       	call   5e06 <testCopyGlobalMemory2+0x308>
    5e0a:	c9                   	leave  
    5e0b:	c3                   	ret    

00005e0c <testForkHierarchy>:
    5e0c:	55                   	push   %ebp
    5e0d:	89 e5                	mov    %esp,%ebp
    5e0f:	83 ec 38             	sub    $0x38,%esp
    5e12:	c7 45 ec 00 00 00 00 	movl   $0x0,-0x14(%ebp)
    5e19:	c7 45 f0 00 00 00 00 	movl   $0x0,-0x10(%ebp)
    5e20:	c7 45 f4 07 00 00 00 	movl   $0x7,-0xc(%ebp)
    5e27:	e8 fc ff ff ff       	call   5e28 <testForkHierarchy+0x1c>
    5e2c:	89 45 f8             	mov    %eax,-0x8(%ebp)
    5e2f:	83 7d f8 00          	cmpl   $0x0,-0x8(%ebp)
    5e33:	75 65                	jne    5e9a <testForkHierarchy+0x8e>
    5e35:	e8 fc ff ff ff       	call   5e36 <testForkHierarchy+0x2a>
    5e3a:	89 45 fc             	mov    %eax,-0x4(%ebp)
    5e3d:	83 7d fc 00          	cmpl   $0x0,-0x4(%ebp)
    5e41:	7e 02                	jle    5e45 <testForkHierarchy+0x39>
    5e43:	eb fe                	jmp    5e43 <testForkHierarchy+0x37>
    5e45:	83 7d fc 00          	cmpl   $0x0,-0x4(%ebp)
    5e49:	79 4f                	jns    5e9a <testForkHierarchy+0x8e>
    5e4b:	8b 45 08             	mov    0x8(%ebp),%eax
    5e4e:	c7 80 88 00 00 00 02 	movl   $0x2,0x88(%eax)
    5e55:	00 00 00 
    5e58:	8b 45 08             	mov    0x8(%ebp),%eax
    5e5b:	c7 80 8c 00 00 00 44 	movl   $0x1d44,0x8c(%eax)
    5e62:	1d 00 00 
    5e65:	8b 45 08             	mov    0x8(%ebp),%eax
    5e68:	8b 80 8c 00 00 00    	mov    0x8c(%eax),%eax
    5e6e:	89 04 24             	mov    %eax,(%esp)
    5e71:	e8 fc ff ff ff       	call   5e72 <testForkHierarchy+0x66>
    5e76:	89 c2                	mov    %eax,%edx
    5e78:	8b 45 08             	mov    0x8(%ebp),%eax
    5e7b:	8b 80 8c 00 00 00    	mov    0x8c(%eax),%eax
    5e81:	89 54 24 08          	mov    %edx,0x8(%esp)
    5e85:	89 44 24 04          	mov    %eax,0x4(%esp)
    5e89:	c7 04 24 01 00 00 00 	movl   $0x1,(%esp)
    5e90:	e8 fc ff ff ff       	call   5e91 <testForkHierarchy+0x85>
    5e95:	e9 11 02 00 00       	jmp    60ab <testForkHierarchy+0x29f>
    5e9a:	e8 fc ff ff ff       	call   5e9b <testForkHierarchy+0x8f>
    5e9f:	89 45 f8             	mov    %eax,-0x8(%ebp)
    5ea2:	c7 44 24 04 00 00 00 	movl   $0x0,0x4(%esp)
    5ea9:	00 
    5eaa:	c7 04 24 00 00 00 00 	movl   $0x0,(%esp)
    5eb1:	e8 fc ff ff ff       	call   5eb2 <testForkHierarchy+0xa6>
    5eb6:	89 45 fc             	mov    %eax,-0x4(%ebp)
    5eb9:	83 7d fc 00          	cmpl   $0x0,-0x4(%ebp)
    5ebd:	79 5d                	jns    5f1c <testForkHierarchy+0x110>
    5ebf:	8b 45 08             	mov    0x8(%ebp),%eax
    5ec2:	c7 80 88 00 00 00 02 	movl   $0x2,0x88(%eax)
    5ec9:	00 00 00 
    5ecc:	8b 45 08             	mov    0x8(%ebp),%eax
    5ecf:	c7 80 8c 00 00 00 c4 	movl   $0x1dc4,0x8c(%eax)
    5ed6:	1d 00 00 
    5ed9:	8b 45 08             	mov    0x8(%ebp),%eax
    5edc:	8b 80 8c 00 00 00    	mov    0x8c(%eax),%eax
    5ee2:	89 04 24             	mov    %eax,(%esp)
    5ee5:	e8 fc ff ff ff       	call   5ee6 <testForkHierarchy+0xda>
    5eea:	89 c2                	mov    %eax,%edx
    5eec:	8b 45 08             	mov    0x8(%ebp),%eax
    5eef:	8b 80 8c 00 00 00    	mov    0x8c(%eax),%eax
    5ef5:	89 54 24 08          	mov    %edx,0x8(%esp)
    5ef9:	89 44 24 04          	mov    %eax,0x4(%esp)
    5efd:	c7 04 24 01 00 00 00 	movl   $0x1,(%esp)
    5f04:	e8 fc ff ff ff       	call   5f05 <testForkHierarchy+0xf9>
    5f09:	e9 9d 01 00 00       	jmp    60ab <testForkHierarchy+0x29f>
    5f0e:	e8 fc ff ff ff       	call   5f0f <testForkHierarchy+0x103>
    5f13:	89 45 ec             	mov    %eax,-0x14(%ebp)
    5f16:	8d 45 f0             	lea    -0x10(%ebp),%eax
    5f19:	83 00 01             	addl   $0x1,(%eax)
    5f1c:	83 7d f0 02          	cmpl   $0x2,-0x10(%ebp)
    5f20:	7f 06                	jg     5f28 <testForkHierarchy+0x11c>
    5f22:	83 7d ec 00          	cmpl   $0x0,-0x14(%ebp)
    5f26:	79 e6                	jns    5f0e <testForkHierarchy+0x102>
    5f28:	83 7d ec 00          	cmpl   $0x0,-0x14(%ebp)
    5f2c:	79 5b                	jns    5f89 <testForkHierarchy+0x17d>
    5f2e:	8b 45 08             	mov    0x8(%ebp),%eax
    5f31:	c7 80 88 00 00 00 02 	movl   $0x2,0x88(%eax)
    5f38:	00 00 00 
    5f3b:	8b 45 08             	mov    0x8(%ebp),%eax
    5f3e:	c7 80 8c 00 00 00 ec 	movl   $0x1dec,0x8c(%eax)
    5f45:	1d 00 00 
    5f48:	8b 45 08             	mov    0x8(%ebp),%eax
    5f4b:	8b 80 8c 00 00 00    	mov    0x8c(%eax),%eax
    5f51:	89 04 24             	mov    %eax,(%esp)
    5f54:	e8 fc ff ff ff       	call   5f55 <testForkHierarchy+0x149>
    5f59:	89 c2                	mov    %eax,%edx
    5f5b:	8b 45 08             	mov    0x8(%ebp),%eax
    5f5e:	8b 80 8c 00 00 00    	mov    0x8c(%eax),%eax
    5f64:	89 54 24 08          	mov    %edx,0x8(%esp)
    5f68:	89 44 24 04          	mov    %eax,0x4(%esp)
    5f6c:	c7 04 24 01 00 00 00 	movl   $0x1,(%esp)
    5f73:	e8 fc ff ff ff       	call   5f74 <testForkHierarchy+0x168>
    5f78:	c7 04 24 00 00 00 00 	movl   $0x0,(%esp)
    5f7f:	e8 fc ff ff ff       	call   5f80 <testForkHierarchy+0x174>
    5f84:	e9 22 01 00 00       	jmp    60ab <testForkHierarchy+0x29f>
    5f89:	e8 fc ff ff ff       	call   5f8a <testForkHierarchy+0x17e>
    5f8e:	3b 45 f8             	cmp    -0x8(%ebp),%eax
    5f91:	0f 85 df 00 00 00    	jne    6076 <testForkHierarchy+0x26a>
    5f97:	c7 45 fc 00 00 00 00 	movl   $0x0,-0x4(%ebp)
    5f9e:	eb 65                	jmp    6005 <testForkHierarchy+0x1f9>
    5fa0:	c7 04 24 00 00 00 00 	movl   $0x0,(%esp)
    5fa7:	e8 fc ff ff ff       	call   5fa8 <testForkHierarchy+0x19c>
    5fac:	89 45 fc             	mov    %eax,-0x4(%ebp)
    5faf:	83 7d fc 00          	cmpl   $0x0,-0x4(%ebp)
    5fb3:	79 4a                	jns    5fff <testForkHierarchy+0x1f3>
    5fb5:	8b 45 08             	mov    0x8(%ebp),%eax
    5fb8:	c7 80 88 00 00 00 02 	movl   $0x2,0x88(%eax)
    5fbf:	00 00 00 
    5fc2:	8b 45 08             	mov    0x8(%ebp),%eax
    5fc5:	c7 80 8c 00 00 00 14 	movl   $0x1e14,0x8c(%eax)
    5fcc:	1e 00 00 
    5fcf:	8b 45 08             	mov    0x8(%ebp),%eax
    5fd2:	8b 80 8c 00 00 00    	mov    0x8c(%eax),%eax
    5fd8:	89 04 24             	mov    %eax,(%esp)
    5fdb:	e8 fc ff ff ff       	call   5fdc <testForkHierarchy+0x1d0>
    5fe0:	89 c2                	mov    %eax,%edx
    5fe2:	8b 45 08             	mov    0x8(%ebp),%eax
    5fe5:	8b 80 8c 00 00 00    	mov    0x8c(%eax),%eax
    5feb:	89 54 24 08          	mov    %edx,0x8(%esp)
    5fef:	89 44 24 04          	mov    %eax,0x4(%esp)
    5ff3:	c7 04 24 01 00 00 00 	movl   $0x1,(%esp)
    5ffa:	e8 fc ff ff ff       	call   5ffb <testForkHierarchy+0x1ef>
    5fff:	8d 45 f4             	lea    -0xc(%ebp),%eax
    6002:	83 28 01             	subl   $0x1,(%eax)
    6005:	83 7d f4 00          	cmpl   $0x0,-0xc(%ebp)
    6009:	7e 06                	jle    6011 <testForkHierarchy+0x205>
    600b:	83 7d fc 00          	cmpl   $0x0,-0x4(%ebp)
    600f:	79 8f                	jns    5fa0 <testForkHierarchy+0x194>
    6011:	c7 04 24 00 00 00 00 	movl   $0x0,(%esp)
    6018:	e8 fc ff ff ff       	call   6019 <testForkHierarchy+0x20d>
    601d:	89 45 fc             	mov    %eax,-0x4(%ebp)
    6020:	83 7d fc 00          	cmpl   $0x0,-0x4(%ebp)
    6024:	0f 89 81 00 00 00    	jns    60ab <testForkHierarchy+0x29f>
    602a:	8b 45 08             	mov    0x8(%ebp),%eax
    602d:	c7 80 8c 00 00 00 38 	movl   $0x1e38,0x8c(%eax)
    6034:	1e 00 00 
    6037:	8b 45 08             	mov    0x8(%ebp),%eax
    603a:	8b 80 8c 00 00 00    	mov    0x8c(%eax),%eax
    6040:	89 04 24             	mov    %eax,(%esp)
    6043:	e8 fc ff ff ff       	call   6044 <testForkHierarchy+0x238>
    6048:	89 c2                	mov    %eax,%edx
    604a:	8b 45 08             	mov    0x8(%ebp),%eax
    604d:	8b 80 8c 00 00 00    	mov    0x8c(%eax),%eax
    6053:	89 54 24 08          	mov    %edx,0x8(%esp)
    6057:	89 44 24 04          	mov    %eax,0x4(%esp)
    605b:	c7 04 24 01 00 00 00 	movl   $0x1,(%esp)
    6062:	e8 fc ff ff ff       	call   6063 <testForkHierarchy+0x257>
    6067:	8b 45 08             	mov    0x8(%ebp),%eax
    606a:	c7 80 88 00 00 00 02 	movl   $0x2,0x88(%eax)
    6071:	00 00 00 
    6074:	eb 35                	jmp    60ab <testForkHierarchy+0x29f>
    6076:	c7 04 24 00 00 00 00 	movl   $0x0,(%esp)
    607d:	e8 fc ff ff ff       	call   607e <testForkHierarchy+0x272>
    6082:	e8 fc ff ff ff       	call   6083 <testForkHierarchy+0x277>
    6087:	c7 04 24 24 0e 00 00 	movl   $0xe24,(%esp)
    608e:	e8 fc ff ff ff       	call   608f <testForkHierarchy+0x283>
    6093:	89 44 24 08          	mov    %eax,0x8(%esp)
    6097:	c7 44 24 04 24 0e 00 	movl   $0xe24,0x4(%esp)
    609e:	00 
    609f:	c7 04 24 01 00 00 00 	movl   $0x1,(%esp)
    60a6:	e8 fc ff ff ff       	call   60a7 <testForkHierarchy+0x29b>
    60ab:	c9                   	leave  
    60ac:	c3                   	ret    

000060ad <testPageFaultManagement>:
    60ad:	55                   	push   %ebp
    60ae:	89 e5                	mov    %esp,%ebp
    60b0:	83 ec 28             	sub    $0x28,%esp
    60b3:	c7 45 fc 00 00 00 00 	movl   $0x0,-0x4(%ebp)
    60ba:	c7 44 24 04 00 00 00 	movl   $0x0,0x4(%esp)
    60c1:	00 
    60c2:	c7 04 24 00 00 00 00 	movl   $0x0,(%esp)
    60c9:	e8 fc ff ff ff       	call   60ca <testPageFaultManagement+0x1d>
    60ce:	e8 fc ff ff ff       	call   60cf <testPageFaultManagement+0x22>
    60d3:	89 45 f8             	mov    %eax,-0x8(%ebp)
    60d6:	83 7d f8 00          	cmpl   $0x0,-0x8(%ebp)
    60da:	75 40                	jne    611c <testPageFaultManagement+0x6f>
    60dc:	8b 45 fc             	mov    -0x4(%ebp),%eax
    60df:	c6 00 63             	movb   $0x63,(%eax)
    60e2:	c7 04 24 00 00 00 00 	movl   $0x0,(%esp)
    60e9:	e8 fc ff ff ff       	call   60ea <testPageFaultManagement+0x3d>
    60ee:	e8 fc ff ff ff       	call   60ef <testPageFaultManagement+0x42>
    60f3:	c7 04 24 24 0e 00 00 	movl   $0xe24,(%esp)
    60fa:	e8 fc ff ff ff       	call   60fb <testPageFaultManagement+0x4e>
    60ff:	89 44 24 08          	mov    %eax,0x8(%esp)
    6103:	c7 44 24 04 24 0e 00 	movl   $0xe24,0x4(%esp)
    610a:	00 
    610b:	c7 04 24 01 00 00 00 	movl   $0x1,(%esp)
    6112:	e8 fc ff ff ff       	call   6113 <testPageFaultManagement+0x66>
    6117:	e9 cf 00 00 00       	jmp    61eb <testPageFaultManagement+0x13e>
    611c:	83 7d f8 00          	cmpl   $0x0,-0x8(%ebp)
    6120:	7e 7f                	jle    61a1 <testPageFaultManagement+0xf4>
    6122:	e8 ce aa ff ff       	call   bf5 <delay>
    6127:	8d 45 f4             	lea    -0xc(%ebp),%eax
    612a:	89 44 24 04          	mov    %eax,0x4(%esp)
    612e:	8b 45 f8             	mov    -0x8(%ebp),%eax
    6131:	89 04 24             	mov    %eax,(%esp)
    6134:	e8 fc ff ff ff       	call   6135 <testPageFaultManagement+0x88>
    6139:	85 c0                	test   %eax,%eax
    613b:	78 4a                	js     6187 <testPageFaultManagement+0xda>
    613d:	8b 45 08             	mov    0x8(%ebp),%eax
    6140:	c7 80 8c 00 00 00 60 	movl   $0x1e60,0x8c(%eax)
    6147:	1e 00 00 
    614a:	8b 45 08             	mov    0x8(%ebp),%eax
    614d:	8b 80 8c 00 00 00    	mov    0x8c(%eax),%eax
    6153:	89 04 24             	mov    %eax,(%esp)
    6156:	e8 fc ff ff ff       	call   6157 <testPageFaultManagement+0xaa>
    615b:	89 c2                	mov    %eax,%edx
    615d:	8b 45 08             	mov    0x8(%ebp),%eax
    6160:	8b 80 8c 00 00 00    	mov    0x8c(%eax),%eax
    6166:	89 54 24 08          	mov    %edx,0x8(%esp)
    616a:	89 44 24 04          	mov    %eax,0x4(%esp)
    616e:	c7 04 24 01 00 00 00 	movl   $0x1,(%esp)
    6175:	e8 fc ff ff ff       	call   6176 <testPageFaultManagement+0xc9>
    617a:	8b 45 08             	mov    0x8(%ebp),%eax
    617d:	c7 80 88 00 00 00 02 	movl   $0x2,0x88(%eax)
    6184:	00 00 00 
    6187:	c7 04 24 00 00 00 00 	movl   $0x0,(%esp)
    618e:	e8 fc ff ff ff       	call   618f <testPageFaultManagement+0xe2>
    6193:	c7 04 24 00 00 00 00 	movl   $0x0,(%esp)
    619a:	e8 fc ff ff ff       	call   619b <testPageFaultManagement+0xee>
    619f:	eb 4a                	jmp    61eb <testPageFaultManagement+0x13e>
    61a1:	8b 45 08             	mov    0x8(%ebp),%eax
    61a4:	c7 80 88 00 00 00 02 	movl   $0x2,0x88(%eax)
    61ab:	00 00 00 
    61ae:	8b 45 08             	mov    0x8(%ebp),%eax
    61b1:	c7 80 8c 00 00 00 44 	movl   $0x1d44,0x8c(%eax)
    61b8:	1d 00 00 
    61bb:	8b 45 08             	mov    0x8(%ebp),%eax
    61be:	8b 80 8c 00 00 00    	mov    0x8c(%eax),%eax
    61c4:	89 04 24             	mov    %eax,(%esp)
    61c7:	e8 fc ff ff ff       	call   61c8 <testPageFaultManagement+0x11b>
    61cc:	89 c2                	mov    %eax,%edx
    61ce:	8b 45 08             	mov    0x8(%ebp),%eax
    61d1:	8b 80 8c 00 00 00    	mov    0x8c(%eax),%eax
    61d7:	89 54 24 08          	mov    %edx,0x8(%esp)
    61db:	89 44 24 04          	mov    %eax,0x4(%esp)
    61df:	c7 04 24 01 00 00 00 	movl   $0x1,(%esp)
    61e6:	e8 fc ff ff ff       	call   61e7 <testPageFaultManagement+0x13a>
    61eb:	c9                   	leave  
    61ec:	c3                   	ret    

000061ed <testPageFaultTask0>:
    61ed:	55                   	push   %ebp
    61ee:	89 e5                	mov    %esp,%ebp
    61f0:	83 ec 28             	sub    $0x28,%esp
    61f3:	c7 45 fc 00 00 00 00 	movl   $0x0,-0x4(%ebp)
    61fa:	8b 45 fc             	mov    -0x4(%ebp),%eax
    61fd:	c6 00 63             	movb   $0x63,(%eax)
    6200:	8b 45 08             	mov    0x8(%ebp),%eax
    6203:	c7 80 88 00 00 00 02 	movl   $0x2,0x88(%eax)
    620a:	00 00 00 
    620d:	8b 45 08             	mov    0x8(%ebp),%eax
    6210:	c7 80 8c 00 00 00 9c 	movl   $0x1e9c,0x8c(%eax)
    6217:	1e 00 00 
    621a:	8b 45 08             	mov    0x8(%ebp),%eax
    621d:	8b 80 8c 00 00 00    	mov    0x8c(%eax),%eax
    6223:	89 04 24             	mov    %eax,(%esp)
    6226:	e8 fc ff ff ff       	call   6227 <testPageFaultTask0+0x3a>
    622b:	89 c2                	mov    %eax,%edx
    622d:	8b 45 08             	mov    0x8(%ebp),%eax
    6230:	8b 80 8c 00 00 00    	mov    0x8c(%eax),%eax
    6236:	89 54 24 08          	mov    %edx,0x8(%esp)
    623a:	89 44 24 04          	mov    %eax,0x4(%esp)
    623e:	c7 04 24 01 00 00 00 	movl   $0x1,(%esp)
    6245:	e8 fc ff ff ff       	call   6246 <testPageFaultTask0+0x59>
    624a:	c9                   	leave  
    624b:	c3                   	ret    

0000624c <testExitFreesMem>:
    624c:	55                   	push   %ebp
    624d:	89 e5                	mov    %esp,%ebp
    624f:	83 ec 28             	sub    $0x28,%esp
    6252:	c7 44 24 04 01 00 00 	movl   $0x1,0x4(%esp)
    6259:	00 
    625a:	c7 04 24 00 00 00 00 	movl   $0x0,(%esp)
    6261:	e8 fc ff ff ff       	call   6262 <testExitFreesMem+0x16>
    6266:	89 45 fc             	mov    %eax,-0x4(%ebp)
    6269:	c7 45 f8 00 00 00 00 	movl   $0x0,-0x8(%ebp)
    6270:	e9 8f 00 00 00       	jmp    6304 <testExitFreesMem+0xb8>
    6275:	c7 04 24 00 00 00 00 	movl   $0x0,(%esp)
    627c:	e8 fc ff ff ff       	call   627d <testExitFreesMem+0x31>
    6281:	e8 fc ff ff ff       	call   6282 <testExitFreesMem+0x36>
    6286:	89 45 f4             	mov    %eax,-0xc(%ebp)
    6289:	83 7d f4 00          	cmpl   $0x0,-0xc(%ebp)
    628d:	79 58                	jns    62e7 <testExitFreesMem+0x9b>
    628f:	8b 45 08             	mov    0x8(%ebp),%eax
    6292:	c7 80 88 00 00 00 02 	movl   $0x2,0x88(%eax)
    6299:	00 00 00 
    629c:	8b 45 08             	mov    0x8(%ebp),%eax
    629f:	c7 80 8c 00 00 00 d8 	movl   $0x1ed8,0x8c(%eax)
    62a6:	1e 00 00 
    62a9:	8b 45 08             	mov    0x8(%ebp),%eax
    62ac:	8b 80 8c 00 00 00    	mov    0x8c(%eax),%eax
    62b2:	89 04 24             	mov    %eax,(%esp)
    62b5:	e8 fc ff ff ff       	call   62b6 <testExitFreesMem+0x6a>
    62ba:	89 c2                	mov    %eax,%edx
    62bc:	8b 45 08             	mov    0x8(%ebp),%eax
    62bf:	8b 80 8c 00 00 00    	mov    0x8c(%eax),%eax
    62c5:	89 54 24 08          	mov    %edx,0x8(%esp)
    62c9:	89 44 24 04          	mov    %eax,0x4(%esp)
    62cd:	c7 04 24 01 00 00 00 	movl   $0x1,(%esp)
    62d4:	e8 fc ff ff ff       	call   62d5 <testExitFreesMem+0x89>
    62d9:	c7 04 24 00 00 00 00 	movl   $0x0,(%esp)
    62e0:	e8 fc ff ff ff       	call   62e1 <testExitFreesMem+0x95>
    62e5:	eb 36                	jmp    631d <testExitFreesMem+0xd1>
    62e7:	83 7d f4 00          	cmpl   $0x0,-0xc(%ebp)
    62eb:	75 11                	jne    62fe <testExitFreesMem+0xb2>
    62ed:	c7 04 24 00 00 00 00 	movl   $0x0,(%esp)
    62f4:	e8 fc ff ff ff       	call   62f5 <testExitFreesMem+0xa9>
    62f9:	e8 fc ff ff ff       	call   62fa <testExitFreesMem+0xae>
    62fe:	8d 45 f8             	lea    -0x8(%ebp),%eax
    6301:	83 00 01             	addl   $0x1,(%eax)
    6304:	81 7d f8 2b 01 00 00 	cmpl   $0x12b,-0x8(%ebp)
    630b:	0f 8e 64 ff ff ff    	jle    6275 <testExitFreesMem+0x29>
    6311:	c7 04 24 00 00 00 00 	movl   $0x0,(%esp)
    6318:	e8 fc ff ff ff       	call   6319 <testExitFreesMem+0xcd>
    631d:	c9                   	leave  
    631e:	c3                   	ret    
